TMS320C2000 COFF Assembler PC v4.1.3 Thu Aug 18 12:16:06 2016

Tools Copyright (c) 1996-2006 Texas Instruments Incorporated
alarms.asm                                                           PAGE    1

       1              ;***************************************************************
       2              ;* TMS320C2000 C/C++ Codegen                         PC v4.1.3 *
       3              ;* Date/Time created: Thu Aug 18 12:16:06 2016                 *
       4              ;***************************************************************
       5                      .compiler_opts --mem_model:code=flat --mem_model:data=large --quiet --silicon_version=28 
       6        0002  FP      .set    XAR2
       7              
       8              DW$CU   .dwtag  DW_TAG_compile_unit
       9                      .dwattr DW$CU, DW_AT_name("alarms.c")
      10                      .dwattr DW$CU, DW_AT_producer("TMS320C2000 C/C++ Codegen PC v4.1.3 Copyright (c) 1996-2006 Texas Inst
      11                      .dwattr DW$CU, DW_AT_stmt_list(0x00)
      12                      .dwattr DW$CU, DW_AT_TI_VERSION(0x01)
      13              
      14              DW$1    .dwtag  DW_TAG_subprogram, DW_AT_name("sprintf"), DW_AT_symbol_name("_sprintf")
      15                      .dwattr DW$1, DW_AT_type(*DW$T$10)
      16                      .dwattr DW$1, DW_AT_declaration(0x01)
      17                      .dwattr DW$1, DW_AT_external(0x01)
      18              DW$2    .dwtag  DW_TAG_formal_parameter, DW_AT_type(*DW$T$53)
      19              DW$3    .dwtag  DW_TAG_formal_parameter, DW_AT_type(*DW$T$64)
      20              DW$4    .dwtag  DW_TAG_unspecified_parameters
      21                      .dwendtag DW$1
      22              
      23              
      24              DW$5    .dwtag  DW_TAG_subprogram, DW_AT_name("DebugStringOut"), DW_AT_symbol_name("_DebugStringOut")
      25                      .dwattr DW$5, DW_AT_declaration(0x01)
      26                      .dwattr DW$5, DW_AT_external(0x01)
      27              DW$6    .dwtag  DW_TAG_formal_parameter, DW_AT_type(*DW$T$53)
      28                      .dwendtag DW$5
      29              
      30              
      31              DW$7    .dwtag  DW_TAG_subprogram, DW_AT_name("AnalogOOR"), DW_AT_symbol_name("_AnalogOOR")
      32                      .dwattr DW$7, DW_AT_declaration(0x01)
      33                      .dwattr DW$7, DW_AT_external(0x01)
      34              
      35              DW$8    .dwtag  DW_TAG_subprogram, DW_AT_name("GetSensorAlarmMask"), DW_AT_symbol_name("_GetSensorAlarmMask")
      36                      .dwattr DW$8, DW_AT_type(*DW$T$11)
      37                      .dwattr DW$8, DW_AT_declaration(0x01)
      38                      .dwattr DW$8, DW_AT_external(0x01)
      39              DW$9    .dwtag  DW_TAG_formal_parameter, DW_AT_type(*DW$T$11)
      40                      .dwendtag DW$8
      41              
      42              
      43              DW$10   .dwtag  DW_TAG_subprogram, DW_AT_name("SetRPMChan"), DW_AT_symbol_name("_SetRPMChan")
      44                      .dwattr DW$10, DW_AT_declaration(0x01)
      45                      .dwattr DW$10, DW_AT_external(0x01)
      46              DW$11   .dwtag  DW_TAG_formal_parameter, DW_AT_type(*DW$T$11)
      47              DW$12   .dwtag  DW_TAG_formal_parameter, DW_AT_type(*DW$T$11)
      48                      .dwendtag DW$10
      49              
      50              
      51              DW$13   .dwtag  DW_TAG_subprogram, DW_AT_name("GetStatus2Flags"), DW_AT_symbol_name("_GetStatus2Flags")
      52                      .dwattr DW$13, DW_AT_type(*DW$T$95)
      53                      .dwattr DW$13, DW_AT_declaration(0x01)
      54                      .dwattr DW$13, DW_AT_external(0x01)
      55              DW$14   .dwtag  DW_TAG_formal_parameter, DW_AT_type(*DW$T$11)
TMS320C2000 COFF Assembler PC v4.1.3 Thu Aug 18 12:16:06 2016

Tools Copyright (c) 1996-2006 Texas Instruments Incorporated
alarms.asm                                                           PAGE    2

      56                      .dwendtag DW$13
      57              
      58              
      59              DW$15   .dwtag  DW_TAG_subprogram, DW_AT_name("ReadPCCommsFlag"), DW_AT_symbol_name("_ReadPCCommsFlag")
      60                      .dwattr DW$15, DW_AT_type(*DW$T$10)
      61                      .dwattr DW$15, DW_AT_declaration(0x01)
      62                      .dwattr DW$15, DW_AT_external(0x01)
      63              
      64              DW$16   .dwtag  DW_TAG_subprogram, DW_AT_name("WriteNVMemory"), DW_AT_symbol_name("_WriteNVMemory")
      65                      .dwattr DW$16, DW_AT_type(*DW$T$10)
      66                      .dwattr DW$16, DW_AT_declaration(0x01)
      67                      .dwattr DW$16, DW_AT_external(0x01)
      68              
      69              DW$17   .dwtag  DW_TAG_subprogram, DW_AT_name("InputNumtoString"), DW_AT_symbol_name("_InputNumtoString")
      70                      .dwattr DW$17, DW_AT_type(*DW$T$10)
      71                      .dwattr DW$17, DW_AT_declaration(0x01)
      72                      .dwattr DW$17, DW_AT_external(0x01)
      73              
      74              DW$18   .dwtag  DW_TAG_subprogram, DW_AT_name("WriteAlarmListtoNVMEM"), DW_AT_symbol_name("_WriteAlarmListtoN
      75                      .dwattr DW$18, DW_AT_type(*DW$T$10)
      76                      .dwattr DW$18, DW_AT_declaration(0x01)
      77                      .dwattr DW$18, DW_AT_external(0x01)
      78              
      79              DW$19   .dwtag  DW_TAG_subprogram, DW_AT_name("BitSet"), DW_AT_symbol_name("_BitSet")
      80                      .dwattr DW$19, DW_AT_type(*DW$T$10)
      81                      .dwattr DW$19, DW_AT_declaration(0x01)
      82                      .dwattr DW$19, DW_AT_external(0x01)
      83              
      84              DW$20   .dwtag  DW_TAG_subprogram, DW_AT_name("BitClear"), DW_AT_symbol_name("_BitClear")
      85                      .dwattr DW$20, DW_AT_type(*DW$T$10)
      86                      .dwattr DW$20, DW_AT_declaration(0x01)
      87                      .dwattr DW$20, DW_AT_external(0x01)
      88              
      89              DW$21   .dwtag  DW_TAG_subprogram, DW_AT_name("CheckBitSet"), DW_AT_symbol_name("_CheckBitSet")
      90                      .dwattr DW$21, DW_AT_type(*DW$T$10)
      91                      .dwattr DW$21, DW_AT_declaration(0x01)
      92                      .dwattr DW$21, DW_AT_external(0x01)
      93              DW$22   .dwtag  DW_TAG_variable, DW_AT_name("stringbuffer"), DW_AT_symbol_name("_stringbuffer")
      94                      .dwattr DW$22, DW_AT_type(*DW$T$139)
      95                      .dwattr DW$22, DW_AT_declaration(0x01)
      96                      .dwattr DW$22, DW_AT_external(0x01)
      97              DW$23   .dwtag  DW_TAG_variable, DW_AT_name("eventlogentry"), DW_AT_symbol_name("_eventlogentry")
      98                      .dwattr DW$23, DW_AT_type(*DW$T$114)
      99                      .dwattr DW$23, DW_AT_declaration(0x01)
     100                      .dwattr DW$23, DW_AT_external(0x01)
     101              DW$24   .dwtag  DW_TAG_variable, DW_AT_name("settings"), DW_AT_symbol_name("_settings")
     102                      .dwattr DW$24, DW_AT_type(*DW$T$116)
     103                      .dwattr DW$24, DW_AT_declaration(0x01)
     104                      .dwattr DW$24, DW_AT_external(0x01)
     105              DW$25   .dwtag  DW_TAG_variable, DW_AT_name("timers"), DW_AT_symbol_name("_timers")
     106                      .dwattr DW$25, DW_AT_type(*DW$T$118)
     107                      .dwattr DW$25, DW_AT_declaration(0x01)
     108                      .dwattr DW$25, DW_AT_external(0x01)
     109              DW$26   .dwtag  DW_TAG_variable, DW_AT_name("allsensors"), DW_AT_symbol_name("_allsensors")
     110                      .dwattr DW$26, DW_AT_type(*DW$T$120)
TMS320C2000 COFF Assembler PC v4.1.3 Thu Aug 18 12:16:06 2016

Tools Copyright (c) 1996-2006 Texas Instruments Incorporated
alarms.asm                                                           PAGE    3

     111                      .dwattr DW$26, DW_AT_declaration(0x01)
     112                      .dwattr DW$26, DW_AT_external(0x01)
     113              DW$27   .dwtag  DW_TAG_variable, DW_AT_name("cylinders"), DW_AT_symbol_name("_cylinders")
     114                      .dwattr DW$27, DW_AT_type(*DW$T$123)
     115                      .dwattr DW$27, DW_AT_declaration(0x01)
     116                      .dwattr DW$27, DW_AT_external(0x01)
     117              DW$28   .dwtag  DW_TAG_variable, DW_AT_name("sensor"), DW_AT_symbol_name("_sensor")
     118                      .dwattr DW$28, DW_AT_type(*DW$T$127)
     119                      .dwattr DW$28, DW_AT_declaration(0x01)
     120                      .dwattr DW$28, DW_AT_external(0x01)
     121              DW$29   .dwtag  DW_TAG_variable, DW_AT_name("damagemon"), DW_AT_symbol_name("_damagemon")
     122                      .dwattr DW$29, DW_AT_type(*DW$T$130)
     123                      .dwattr DW$29, DW_AT_declaration(0x01)
     124                      .dwattr DW$29, DW_AT_external(0x01)
     125              DW$30   .dwtag  DW_TAG_variable, DW_AT_name("damalarms"), DW_AT_symbol_name("_damalarms")
     126                      .dwattr DW$30, DW_AT_type(*DW$T$131)
     127                      .dwattr DW$30, DW_AT_declaration(0x01)
     128                      .dwattr DW$30, DW_AT_external(0x01)
     129              DW$31   .dwtag  DW_TAG_variable, DW_AT_name("slave485mb"), DW_AT_symbol_name("_slave485mb")
     130                      .dwattr DW$31, DW_AT_type(*DW$T$133)
     131                      .dwattr DW$31, DW_AT_declaration(0x01)
     132                      .dwattr DW$31, DW_AT_external(0x01)
     133              DW$32   .dwtag  DW_TAG_variable, DW_AT_name("waterinoil"), DW_AT_symbol_name("_waterinoil")
     134                      .dwattr DW$32, DW_AT_type(*DW$T$134)
     135                      .dwattr DW$32, DW_AT_declaration(0x01)
     136                      .dwattr DW$32, DW_AT_external(0x01)
     137              DW$33   .dwtag  DW_TAG_variable, DW_AT_name("digout"), DW_AT_symbol_name("_digout")
     138                      .dwattr DW$33, DW_AT_type(*DW$T$136)
     139                      .dwattr DW$33, DW_AT_declaration(0x01)
     140                      .dwattr DW$33, DW_AT_external(0x01)
     141                      .global _status3
     142 00000000       _status3:       .usect  ".ebss",28,1,0
     143              DW$34   .dwtag  DW_TAG_variable, DW_AT_name("status3"), DW_AT_symbol_name("_status3")
     144                      .dwattr DW$34, DW_AT_location[DW_OP_addr _status3]
     145                      .dwattr DW$34, DW_AT_type(*DW$T$109)
     146                      .dwattr DW$34, DW_AT_external(0x01)
     147                      .global _noisefilterLOAD
     148 0000001c       _noisefilterLOAD:       .usect  ".ebss",28,1,0
     149              DW$35   .dwtag  DW_TAG_variable, DW_AT_name("noisefilterLOAD"), DW_AT_symbol_name("_noisefilterLOAD")
     150                      .dwattr DW$35, DW_AT_location[DW_OP_addr _noisefilterLOAD]
     151                      .dwattr DW$35, DW_AT_type(*DW$T$73)
     152                      .dwattr DW$35, DW_AT_external(0x01)
     153                      .global _damagemonignore
     154 00000040       _damagemonignore:       .usect  ".ebss",28,1,0
     155              DW$36   .dwtag  DW_TAG_variable, DW_AT_name("damagemonignore"), DW_AT_symbol_name("_damagemonignore")
     156                      .dwattr DW$36, DW_AT_location[DW_OP_addr _damagemonignore]
     157                      .dwattr DW$36, DW_AT_type(*DW$T$73)
     158                      .dwattr DW$36, DW_AT_external(0x01)
     159                      .global _alarms
     160 00000038       _alarms:        .usect  ".ebss",1,1,0
     161              DW$37   .dwtag  DW_TAG_variable, DW_AT_name("alarms"), DW_AT_symbol_name("_alarms")
     162                      .dwattr DW$37, DW_AT_location[DW_OP_addr _alarms]
     163                      .dwattr DW$37, DW_AT_type(*DW$T$100)
     164                      .dwattr DW$37, DW_AT_external(0x01)
     165                      .global _bitalarmlist
TMS320C2000 COFF Assembler PC v4.1.3 Thu Aug 18 12:16:06 2016

Tools Copyright (c) 1996-2006 Texas Instruments Incorporated
alarms.asm                                                           PAGE    4

     166 0000005c       _bitalarmlist:  .usect  ".ebss",33,1,0
     167              DW$38   .dwtag  DW_TAG_variable, DW_AT_name("bitalarmlist"), DW_AT_symbol_name("_bitalarmlist")
     168                      .dwattr DW$38, DW_AT_location[DW_OP_addr _bitalarmlist]
     169                      .dwattr DW$38, DW_AT_type(*DW$T$89)
     170                      .dwattr DW$38, DW_AT_external(0x01)
     171                      .global _biteventlist
     172 00000080       _biteventlist:  .usect  ".ebss",48,1,0
     173              DW$39   .dwtag  DW_TAG_variable, DW_AT_name("biteventlist"), DW_AT_symbol_name("_biteventlist")
     174                      .dwattr DW$39, DW_AT_location[DW_OP_addr _biteventlist]
     175                      .dwattr DW$39, DW_AT_type(*DW$T$91)
     176                      .dwattr DW$39, DW_AT_external(0x01)
     177                      .global _biteventpos
     178 00000039       _biteventpos:   .usect  ".ebss",1,1,0
     179              DW$40   .dwtag  DW_TAG_variable, DW_AT_name("biteventpos"), DW_AT_symbol_name("_biteventpos")
     180                      .dwattr DW$40, DW_AT_location[DW_OP_addr _biteventpos]
     181                      .dwattr DW$40, DW_AT_type(*DW$T$11)
     182                      .dwattr DW$40, DW_AT_external(0x01)
     183                      .global _bearingstatus
     184 000000c0       _bearingstatus: .usect  ".ebss",44,1,0
     185              DW$41   .dwtag  DW_TAG_variable, DW_AT_name("bearingstatus"), DW_AT_symbol_name("_bearingstatus")
     186                      .dwattr DW$41, DW_AT_location[DW_OP_addr _bearingstatus]
     187                      .dwattr DW$41, DW_AT_type(*DW$T$137)
     188                      .dwattr DW$41, DW_AT_external(0x01)
     189              ;       C:\CCStudio_v3.3\C2000\cgtools\bin\opt2000.exe C:\Users\Andrew\AppData\Local\Temp\TI6882 C:\Users\And
     190              ;       C:\CCStudio_v3.3\C2000\cgtools\bin\ac2000.exe -q -D_INLINE -DLARGE_MODEL -IC:/CCStudio_v3.3/C2000/xda
     191 00000000               .sect   ".text"
     192                      .global _InitSystemAlarms
     193              
     194              DW$42   .dwtag  DW_TAG_subprogram, DW_AT_name("InitSystemAlarms"), DW_AT_symbol_name("_InitSystemAlarms")
     195                      .dwattr DW$42, DW_AT_low_pc(_InitSystemAlarms)
     196                      .dwattr DW$42, DW_AT_high_pc(0x00)
     197                      .dwattr DW$42, DW_AT_begin_file("alarms.c")
     198                      .dwattr DW$42, DW_AT_begin_line(0x29)
     199                      .dwattr DW$42, DW_AT_begin_column(0x06)
     200                      .dwattr DW$42, DW_AT_frame_base[DW_OP_breg20 -2]
     201                      .dwattr DW$42, DW_AT_skeletal(0x01)
     202                      .dwpsn  "alarms.c",42,1
     203              
     204              ;***************************************************************
     205              ;* FNAME: _InitSystemAlarms             FR SIZE:   0           *
     206              ;*                                                             *
     207              ;* FUNCTION ENVIRONMENT                                        *
     208              ;*                                                             *
     209              ;* FUNCTION PROPERTIES                                         *
     210              ;*                            0 Parameter,  0 Auto,  0 SOE     *
     211              ;***************************************************************
     212              
     213 00000000       _InitSystemAlarms:
     214 00000000 761F!         MOVW      DP,#_eventlogentry+63
         00000001 0000 
     215 00000002 2B3F!         MOV       @_eventlogentry+63,#0 ; |46| 
     216 00000003 761F!         MOVW      DP,#_eventlogentry+64
         00000004 0001 
     217 00000005 9A00          MOVB      AL,#0
     218 00000006 2B00!         MOV       @_eventlogentry+64,#0 ; |47| 
TMS320C2000 COFF Assembler PC v4.1.3 Thu Aug 18 12:16:06 2016

Tools Copyright (c) 1996-2006 Texas Instruments Incorporated
alarms.asm                                                           PAGE    5

     219 00000007 761F!         MOVW      DP,#_eventlogentry+65
         00000008 0001 
     220 00000009 2B01!         MOV       @_eventlogentry+65,#0 ; |48| 
     221 0000000a 761F!         MOVW      DP,#_eventlogentry+66
         0000000b 0001 
     222 0000000c 2B02!         MOV       @_eventlogentry+66,#0 ; |49| 
     223 0000000d 761F!         MOVW      DP,#_eventlogentry+67
         0000000e 0001 
     224 0000000f 2B03!         MOV       @_eventlogentry+67,#0 ; |50| 
     225                      .dwpsn  "alarms.c",53,0
     226 00000010 3B01          SETC      SXM
     227              L1:    
     228              DW$L$_InitSystemAlarms$2$B:
     229                      .dwpsn  "alarms.c",54,0
     230 00000011 85A9          MOV       ACC,AL                ; |55| 
     231 00000012 8F00-         MOVL      XAR4,#_noisefilterLOAD ; |55| 
         00000013 001C 
     232 00000014 5601          ADDL      XAR4,ACC
         00000015 00A4 
     233 00000016 9C01          ADDB      AL,#1                 ; |53| 
     234 00000017 521C          CMPB      AL,#28                ; |53| 
     235 00000018 28C4          MOV       *+XAR4[0],#3          ; |55| 
         00000019 0003 
     236                      .dwpsn  "alarms.c",56,0
     237 0000001a 56C4          BF        L1,LT                 ; |53| 
         0000001b FFF7 
     238                      ; branchcc occurs ; |53| 
     239 0000001c       DW$L$_InitSystemAlarms$2$E:
     240 0000001c 9A00          MOVB      AL,#0
     241                      .dwpsn  "alarms.c",59,0
     242 0000001d 3B01          SETC      SXM
     243 0000001e       L2:    
     244 0000001e       DW$L$_InitSystemAlarms$4$B:
     245 0000001e 85A9          MOV       ACC,AL                ; |60| 
     246 0000001f 8F00-         MOVL      XAR4,#_bearingstatus  ; |60| 
         00000020 00C0 
     247 00000021 5601          ADDL      XAR4,ACC
         00000022 00A4 
     248 00000023 9C01          ADDB      AL,#1                 ; |59| 
     249 00000024 5210          CMPB      AL,#16                ; |59| 
     250 00000025 2BC4          MOV       *+XAR4[0],#0          ; |60| 
     251                      .dwpsn  "alarms.c",61,0
     252 00000026 56C4          BF        L2,LT                 ; |59| 
         00000027 FFF8 
     253                      ; branchcc occurs ; |59| 
     254              DW$L$_InitSystemAlarms$4$E:
     255                      .dwpsn  "alarms.c",63,1
     256 00000028 0006          LRETR
     257                      ; return occurs
     258              
     259              DW$43   .dwtag  DW_TAG_loop
     260                      .dwattr DW$43, DW_AT_name("D:\DEV\Amot\BearingWear\XTSW_V6_20\alarms.asm:L2:1:1471518966")
     261                      .dwattr DW$43, DW_AT_begin_file("alarms.c")
     262                      .dwattr DW$43, DW_AT_begin_line(0x3b)
     263                      .dwattr DW$43, DW_AT_end_line(0x3d)
TMS320C2000 COFF Assembler PC v4.1.3 Thu Aug 18 12:16:06 2016

Tools Copyright (c) 1996-2006 Texas Instruments Incorporated
alarms.asm                                                           PAGE    6

     264              DW$44   .dwtag  DW_TAG_loop_range
     265                      .dwattr DW$44, DW_AT_low_pc(DW$L$_InitSystemAlarms$4$B)
     266                      .dwattr DW$44, DW_AT_high_pc(DW$L$_InitSystemAlarms$4$E)
     267                      .dwendtag DW$43
     268              
     269              
     270              DW$45   .dwtag  DW_TAG_loop
     271                      .dwattr DW$45, DW_AT_name("D:\DEV\Amot\BearingWear\XTSW_V6_20\alarms.asm:L1:1:1471518966")
     272                      .dwattr DW$45, DW_AT_begin_file("alarms.c")
     273                      .dwattr DW$45, DW_AT_begin_line(0x35)
     274                      .dwattr DW$45, DW_AT_end_line(0x38)
     275              DW$46   .dwtag  DW_TAG_loop_range
     276                      .dwattr DW$46, DW_AT_low_pc(DW$L$_InitSystemAlarms$2$B)
     277                      .dwattr DW$46, DW_AT_high_pc(DW$L$_InitSystemAlarms$2$E)
     278                      .dwendtag DW$45
     279              
     280                      .dwattr DW$42, DW_AT_end_file("alarms.c")
     281                      .dwattr DW$42, DW_AT_end_line(0x3f)
     282                      .dwattr DW$42, DW_AT_end_column(0x01)
     283                      .dwendtag DW$42
     284              
     285 00000029               .sect   ".text"
     286                      .global _ClearStatusFlagsforSlave
     287              
     288              DW$47   .dwtag  DW_TAG_subprogram, DW_AT_name("ClearStatusFlagsforSlave"), DW_AT_symbol_name("_ClearStatusFla
     289                      .dwattr DW$47, DW_AT_low_pc(_ClearStatusFlagsforSlave)
     290                      .dwattr DW$47, DW_AT_high_pc(0x00)
     291                      .dwattr DW$47, DW_AT_begin_file("alarms.c")
     292                      .dwattr DW$47, DW_AT_begin_line(0x41)
     293                      .dwattr DW$47, DW_AT_begin_column(0x06)
     294                      .dwattr DW$47, DW_AT_frame_base[DW_OP_breg20 -4]
     295                      .dwattr DW$47, DW_AT_skeletal(0x01)
     296                      .dwpsn  "alarms.c",66,1
     297              
     298              ;***************************************************************
     299              ;* FNAME: _ClearStatusFlagsforSlave     FR SIZE:   2           *
     300              ;*                                                             *
     301              ;* FUNCTION ENVIRONMENT                                        *
     302              ;*                                                             *
     303              ;* FUNCTION PROPERTIES                                         *
     304              ;*                            0 Parameter,  0 Auto,  2 SOE     *
     305              ;***************************************************************
     306              
     307 00000029       _ClearStatusFlagsforSlave:
     308 00000029 B2BD          MOVL      *SP++,XAR1
     309                      .dwpsn  "alarms.c",70,0
     310 0000002a D100          MOVB      XAR1,#0
     311              L3:    
     312              DW$L$_ClearStatusFlagsforSlave$2$B:
     313                      .dwpsn  "alarms.c",71,0
     314 0000002b 92A1          MOV       AL,AR1                ; |72| 
     315 0000002c 7640'         LCR       #_Status3Flags        ; |72| 
         0000002d 003C 
     316                      ; call occurs [#_Status3Flags] ; |72| 
     317 0000002e D901          ADDB      XAR1,#1               ; |70| 
TMS320C2000 COFF Assembler PC v4.1.3 Thu Aug 18 12:16:06 2016

Tools Copyright (c) 1996-2006 Texas Instruments Incorporated
alarms.asm                                                           PAGE    7

     318 0000002f 92A1          MOV       AL,AR1                ; |70| 
     319 00000030 521C          CMPB      AL,#28                ; |70| 
     320 00000031 2BC4          MOV       *+XAR4[0],#0          ; |73| 
     321                      .dwpsn  "alarms.c",74,0
     322 00000032 56C8          BF        L3,LO                 ; |70| 
         00000033 FFF9 
     323                      ; branchcc occurs ; |70| 
     324 00000034       DW$L$_ClearStatusFlagsforSlave$2$E:
     325 00000034 7640'         LCR       #_GetAlarmFlags       ; |75| 
         00000035 0039 
     326                      ; call occurs [#_GetAlarmFlags] ; |75| 
     327 00000036 2BC4          MOV       *+XAR4[0],#0          ; |76| 
     328 00000037 8BBE          MOVL      XAR1,*--SP
     329                      .dwpsn  "alarms.c",77,1
     330 00000038 0006          LRETR
     331                      ; return occurs
     332              
     333              DW$48   .dwtag  DW_TAG_loop
     334                      .dwattr DW$48, DW_AT_name("D:\DEV\Amot\BearingWear\XTSW_V6_20\alarms.asm:L3:1:1471518966")
     335                      .dwattr DW$48, DW_AT_begin_file("alarms.c")
     336                      .dwattr DW$48, DW_AT_begin_line(0x46)
     337                      .dwattr DW$48, DW_AT_end_line(0x4a)
     338              DW$49   .dwtag  DW_TAG_loop_range
     339                      .dwattr DW$49, DW_AT_low_pc(DW$L$_ClearStatusFlagsforSlave$2$B)
     340                      .dwattr DW$49, DW_AT_high_pc(DW$L$_ClearStatusFlagsforSlave$2$E)
     341                      .dwendtag DW$48
     342              
     343                      .dwattr DW$47, DW_AT_end_file("alarms.c")
     344                      .dwattr DW$47, DW_AT_end_line(0x4d)
     345                      .dwattr DW$47, DW_AT_end_column(0x01)
     346                      .dwendtag DW$47
     347              
     348 00000039               .sect   ".text"
     349                      .global _GetAlarmFlags
     350              
     351              DW$50   .dwtag  DW_TAG_subprogram, DW_AT_name("GetAlarmFlags"), DW_AT_symbol_name("_GetAlarmFlags")
     352                      .dwattr DW$50, DW_AT_low_pc(_GetAlarmFlags)
     353                      .dwattr DW$50, DW_AT_high_pc(0x00)
     354                      .dwattr DW$50, DW_AT_begin_file("alarms.c")
     355                      .dwattr DW$50, DW_AT_begin_line(0x51)
     356                      .dwattr DW$50, DW_AT_begin_column(0x10)
     357                      .dwattr DW$50, DW_AT_frame_base[DW_OP_breg20 -2]
     358                      .dwattr DW$50, DW_AT_skeletal(0x01)
     359                      .dwpsn  "alarms.c",82,1
     360              
     361              ;***************************************************************
     362              ;* FNAME: _GetAlarmFlags                FR SIZE:   0           *
     363              ;*                                                             *
     364              ;* FUNCTION ENVIRONMENT                                        *
     365              ;*                                                             *
     366              ;* FUNCTION PROPERTIES                                         *
     367              ;*                            0 Parameter,  0 Auto,  0 SOE     *
     368              ;***************************************************************
     369              
     370 00000039       _GetAlarmFlags:
TMS320C2000 COFF Assembler PC v4.1.3 Thu Aug 18 12:16:06 2016

Tools Copyright (c) 1996-2006 Texas Instruments Incorporated
alarms.asm                                                           PAGE    8

     371 00000039 8F00-         MOVL      XAR4,#_alarms         ; |83| 
         0000003a 0038 
     372                      .dwpsn  "alarms.c",84,1
     373 0000003b 0006          LRETR
     374                      ; return occurs
     375                      .dwattr DW$50, DW_AT_end_file("alarms.c")
     376                      .dwattr DW$50, DW_AT_end_line(0x54)
     377                      .dwattr DW$50, DW_AT_end_column(0x01)
     378                      .dwendtag DW$50
     379              
     380 0000003c               .sect   ".text"
     381                      .global _Status3Flags
     382              
     383              DW$51   .dwtag  DW_TAG_subprogram, DW_AT_name("Status3Flags"), DW_AT_symbol_name("_Status3Flags")
     384                      .dwattr DW$51, DW_AT_low_pc(_Status3Flags)
     385                      .dwattr DW$51, DW_AT_high_pc(0x00)
     386                      .dwattr DW$51, DW_AT_begin_file("alarms.c")
     387                      .dwattr DW$51, DW_AT_begin_line(0x59)
     388                      .dwattr DW$51, DW_AT_begin_column(0x11)
     389                      .dwattr DW$51, DW_AT_frame_base[DW_OP_breg20 -2]
     390                      .dwattr DW$51, DW_AT_skeletal(0x01)
     391                      .dwpsn  "alarms.c",90,1
     392              
     393              ;***************************************************************
     394              ;* FNAME: _Status3Flags                 FR SIZE:   0           *
     395              ;*                                                             *
     396              ;* FUNCTION ENVIRONMENT                                        *
     397              ;*                                                             *
     398              ;* FUNCTION PROPERTIES                                         *
     399              ;*                            0 Parameter,  0 Auto,  0 SOE     *
     400              ;***************************************************************
     401              
     402              _Status3Flags:
     403              ;* AL    assigned to _chan
     404              DW$52   .dwtag  DW_TAG_formal_parameter, DW_AT_name("chan"), DW_AT_symbol_name("_chan")
     405                      .dwattr DW$52, DW_AT_type(*DW$T$11)
     406                      .dwattr DW$52, DW_AT_location[DW_OP_reg0]
     407 0000003c 88A9          MOVZ      AR6,AL                ; |90| 
     408 0000003d 8F00-         MOVL      XAR4,#_status3        ; |91| 
         0000003e 0000 
     409 0000003f A8A9          MOVL      ACC,XAR4              ; |91| 
     410 00000040 0DA6          ADDU      ACC,AR6               ; |91| 
     411 00000041 8AA9          MOVL      XAR4,ACC              ; |91| 
     412                      .dwpsn  "alarms.c",92,1
     413 00000042 0006          LRETR
     414                      ; return occurs
     415                      .dwattr DW$51, DW_AT_end_file("alarms.c")
     416                      .dwattr DW$51, DW_AT_end_line(0x5c)
     417                      .dwattr DW$51, DW_AT_end_column(0x01)
     418                      .dwendtag DW$51
     419              
     420 00000043               .sect   ".text"
     421                      .global _SetNoPulseFlag
     422              
     423              DW$53   .dwtag  DW_TAG_subprogram, DW_AT_name("SetNoPulseFlag"), DW_AT_symbol_name("_SetNoPulseFlag")
TMS320C2000 COFF Assembler PC v4.1.3 Thu Aug 18 12:16:06 2016

Tools Copyright (c) 1996-2006 Texas Instruments Incorporated
alarms.asm                                                           PAGE    9

     424                      .dwattr DW$53, DW_AT_low_pc(_SetNoPulseFlag)
     425                      .dwattr DW$53, DW_AT_high_pc(0x00)
     426                      .dwattr DW$53, DW_AT_begin_file("alarms.c")
     427                      .dwattr DW$53, DW_AT_begin_line(0x61)
     428                      .dwattr DW$53, DW_AT_begin_column(0x06)
     429                      .dwattr DW$53, DW_AT_frame_base[DW_OP_breg20 -2]
     430                      .dwattr DW$53, DW_AT_skeletal(0x01)
     431                      .dwpsn  "alarms.c",98,1
     432              
     433              ;***************************************************************
     434              ;* FNAME: _SetNoPulseFlag               FR SIZE:   0           *
     435              ;*                                                             *
     436              ;* FUNCTION ENVIRONMENT                                        *
     437              ;*                                                             *
     438              ;* FUNCTION PROPERTIES                                         *
     439              ;*                            0 Parameter,  0 Auto,  0 SOE     *
     440              ;***************************************************************
     441              
     442              _SetNoPulseFlag:
     443              ;* AL    assigned to _chan
     444              DW$54   .dwtag  DW_TAG_formal_parameter, DW_AT_name("chan"), DW_AT_symbol_name("_chan")
     445                      .dwattr DW$54, DW_AT_type(*DW$T$11)
     446                      .dwattr DW$54, DW_AT_location[DW_OP_reg0]
     447              ;* AH    assigned to _flag
     448              DW$55   .dwtag  DW_TAG_formal_parameter, DW_AT_name("flag"), DW_AT_symbol_name("_flag")
     449                      .dwattr DW$55, DW_AT_type(*DW$T$11)
     450                      .dwattr DW$55, DW_AT_location[DW_OP_reg1]
     451 00000043 5301          CMPB      AH,#1                 ; |99| 
     452 00000044 58A9          MOVZ      AR0,AL                ; |98| 
     453 00000045 EC07          BF        L4,EQ                 ; |99| 
     454                      ; branchcc occurs ; |99| 
     455 00000046 8F00-         MOVL      XAR4,#_status3        ; |104| 
         00000047 0000 
     456 00000048 1894          AND       *+XAR4[AR0],#0xfffe   ; |104| 
         00000049 FFFE 
     457 0000004a 56CF          BF        L5,UNC                ; |104| 
         0000004b 0009 
     458                      ; branch occurs ; |104| 
     459 0000004c       L4:    
     460 0000004c 8F00-         MOVL      XAR4,#_status3        ; |101| 
         0000004d 0000 
     461 0000004e 1A94          OR        *+XAR4[AR0],#0x0001   ; |101| 
         0000004f 0001 
     462 00000050 9B00          MOVB      AH,#0
     463 00000051 7640!         LCR       #_SetRPMChan          ; |102| 
         00000052 0000 
     464                      ; call occurs [#_SetRPMChan] ; |102| 
     465              L5:    
     466                      .dwpsn  "alarms.c",105,1
     467 00000053 0006          LRETR
     468                      ; return occurs
     469                      .dwattr DW$53, DW_AT_end_file("alarms.c")
     470                      .dwattr DW$53, DW_AT_end_line(0x69)
     471                      .dwattr DW$53, DW_AT_end_column(0x01)
     472                      .dwendtag DW$53
TMS320C2000 COFF Assembler PC v4.1.3 Thu Aug 18 12:16:06 2016

Tools Copyright (c) 1996-2006 Texas Instruments Incorporated
alarms.asm                                                           PAGE   10

     473              
     474 00000054               .sect   ".text"
     475                      .global _GetNoPulseFlag
     476              
     477              DW$56   .dwtag  DW_TAG_subprogram, DW_AT_name("GetNoPulseFlag"), DW_AT_symbol_name("_GetNoPulseFlag")
     478                      .dwattr DW$56, DW_AT_low_pc(_GetNoPulseFlag)
     479                      .dwattr DW$56, DW_AT_high_pc(0x00)
     480                      .dwattr DW$56, DW_AT_begin_file("alarms.c")
     481                      .dwattr DW$56, DW_AT_begin_line(0x6c)
     482                      .dwattr DW$56, DW_AT_begin_column(0x0e)
     483                      .dwattr DW$56, DW_AT_frame_base[DW_OP_breg20 -2]
     484                      .dwattr DW$56, DW_AT_skeletal(0x01)
     485                      .dwpsn  "alarms.c",109,1
     486              
     487              ;***************************************************************
     488              ;* FNAME: _GetNoPulseFlag               FR SIZE:   0           *
     489              ;*                                                             *
     490              ;* FUNCTION ENVIRONMENT                                        *
     491              ;*                                                             *
     492              ;* FUNCTION PROPERTIES                                         *
     493              ;*                            0 Parameter,  0 Auto,  0 SOE     *
     494              ;***************************************************************
     495              
     496              _GetNoPulseFlag:
     497              ;* AL    assigned to _chan
     498              DW$57   .dwtag  DW_TAG_formal_parameter, DW_AT_name("chan"), DW_AT_symbol_name("_chan")
     499                      .dwattr DW$57, DW_AT_type(*DW$T$11)
     500                      .dwattr DW$57, DW_AT_location[DW_OP_reg0]
     501 00000054 58A9          MOVZ      AR0,AL                ; |109| 
     502 00000055 8F00-         MOVL      XAR4,#_status3        ; |110| 
         00000056 0000 
     503 00000057 CC94          AND       AL,*+XAR4[AR0],#0x0001 ; |110| 
         00000058 0001 
     504                      .dwpsn  "alarms.c",111,1
     505 00000059 0006          LRETR
     506                      ; return occurs
     507                      .dwattr DW$56, DW_AT_end_file("alarms.c")
     508                      .dwattr DW$56, DW_AT_end_line(0x6f)
     509                      .dwattr DW$56, DW_AT_end_column(0x01)
     510                      .dwendtag DW$56
     511              
     512 0000005a               .sect   ".text"
     513                      .global _SystemChecks
     514              
     515              DW$58   .dwtag  DW_TAG_subprogram, DW_AT_name("SystemChecks"), DW_AT_symbol_name("_SystemChecks")
     516                      .dwattr DW$58, DW_AT_low_pc(_SystemChecks)
     517                      .dwattr DW$58, DW_AT_high_pc(0x00)
     518                      .dwattr DW$58, DW_AT_begin_file("alarms.c")
     519                      .dwattr DW$58, DW_AT_begin_line(0x74)
     520                      .dwattr DW$58, DW_AT_begin_column(0x06)
     521                      .dwattr DW$58, DW_AT_frame_base[DW_OP_breg20 -4]
     522                      .dwattr DW$58, DW_AT_skeletal(0x01)
     523                      .dwpsn  "alarms.c",117,1
     524              
     525              ;***************************************************************
TMS320C2000 COFF Assembler PC v4.1.3 Thu Aug 18 12:16:06 2016

Tools Copyright (c) 1996-2006 Texas Instruments Incorporated
alarms.asm                                                           PAGE   11

     526              ;* FNAME: _SystemChecks                 FR SIZE:   2           *
     527              ;*                                                             *
     528              ;* FUNCTION ENVIRONMENT                                        *
     529              ;*                                                             *
     530              ;* FUNCTION PROPERTIES                                         *
     531              ;*                            0 Parameter,  0 Auto,  2 SOE     *
     532              ;***************************************************************
     533              
     534 0000005a       _SystemChecks:
     535 0000005a 761F!         MOVW      DP,#_settings+31
         0000005b 0000 
     536 0000005c B2BD          MOVL      *SP++,XAR1
     537 0000005d 921F!         MOV       AL,@_settings+31      ; |120| 
     538 0000005e ED03          BF        L6,NEQ                ; |120| 
     539                      ; branchcc occurs ; |120| 
     540 0000005f 7640!         LCR       #_AnalogOOR           ; |122| 
         00000060 0000 
     541                      ; call occurs [#_AnalogOOR] ; |122| 
     542 00000061       L6:    
     543 00000061 761F!         MOVW      DP,#_settings+17
         00000062 0000 
     544 00000063 9211!         MOV       AL,@_settings+17      ; |126| 
     545 00000064 5201          CMPB      AL,#1                 ; |126| 
     546 00000065 ED0E          BF        L8,NEQ                ; |126| 
     547                      ; branchcc occurs ; |126| 
     548                      .dwpsn  "alarms.c",128,0
     549 00000066 D100          MOVB      XAR1,#0
     550              L7:    
     551              DW$L$_SystemChecks$5$B:
     552                      .dwpsn  "alarms.c",129,0
     553 00000067 92A1          MOV       AL,AR1                ; |130| 
     554 00000068 7640'         LCR       #_SensorFailure       ; |130| 
         00000069 00FD 
     555                      ; call occurs [#_SensorFailure] ; |130| 
     556 0000006a D901          ADDB      XAR1,#1               ; |128| 
     557 0000006b 92A1          MOV       AL,AR1                ; |128| 
     558 0000006c 521C          CMPB      AL,#28                ; |128| 
     559                      .dwpsn  "alarms.c",131,0
     560 0000006d 56C8          BF        L7,LO                 ; |128| 
         0000006e FFFA 
     561                      ; branchcc occurs ; |128| 
     562 0000006f       DW$L$_SystemChecks$5$E:
     563 0000006f 7640'         LCR       #_SPUComms            ; |132| 
         00000070 00A7 
     564                      ; call occurs [#_SPUComms] ; |132| 
     565 00000071 7640'         LCR       #_FramFailure         ; |133| 
         00000072 0075 
     566                      ; call occurs [#_FramFailure] ; |133| 
     567 00000073       L8:    
     568 00000073 8BBE          MOVL      XAR1,*--SP
     569                      .dwpsn  "alarms.c",135,1
     570 00000074 0006          LRETR
     571                      ; return occurs
     572              
     573              DW$59   .dwtag  DW_TAG_loop
TMS320C2000 COFF Assembler PC v4.1.3 Thu Aug 18 12:16:06 2016

Tools Copyright (c) 1996-2006 Texas Instruments Incorporated
alarms.asm                                                           PAGE   12

     574                      .dwattr DW$59, DW_AT_name("D:\DEV\Amot\BearingWear\XTSW_V6_20\alarms.asm:L7:1:1471518966")
     575                      .dwattr DW$59, DW_AT_begin_file("alarms.c")
     576                      .dwattr DW$59, DW_AT_begin_line(0x80)
     577                      .dwattr DW$59, DW_AT_end_line(0x83)
     578              DW$60   .dwtag  DW_TAG_loop_range
     579                      .dwattr DW$60, DW_AT_low_pc(DW$L$_SystemChecks$5$B)
     580                      .dwattr DW$60, DW_AT_high_pc(DW$L$_SystemChecks$5$E)
     581                      .dwendtag DW$59
     582              
     583                      .dwattr DW$58, DW_AT_end_file("alarms.c")
     584                      .dwattr DW$58, DW_AT_end_line(0x87)
     585                      .dwattr DW$58, DW_AT_end_column(0x01)
     586                      .dwendtag DW$58
     587              
     588 00000075               .sect   ".text"
     589                      .global _FramFailure
     590              
     591              DW$61   .dwtag  DW_TAG_subprogram, DW_AT_name("FramFailure"), DW_AT_symbol_name("_FramFailure")
     592                      .dwattr DW$61, DW_AT_low_pc(_FramFailure)
     593                      .dwattr DW$61, DW_AT_high_pc(0x00)
     594                      .dwattr DW$61, DW_AT_begin_file("alarms.c")
     595                      .dwattr DW$61, DW_AT_begin_line(0x89)
     596                      .dwattr DW$61, DW_AT_begin_column(0x06)
     597                      .dwattr DW$61, DW_AT_frame_base[DW_OP_breg20 -4]
     598                      .dwattr DW$61, DW_AT_skeletal(0x01)
     599                      .dwpsn  "alarms.c",138,1
     600              
     601              ;***************************************************************
     602              ;* FNAME: _FramFailure                  FR SIZE:   2           *
     603              ;*                                                             *
     604              ;* FUNCTION ENVIRONMENT                                        *
     605              ;*                                                             *
     606              ;* FUNCTION PROPERTIES                                         *
     607              ;*                            0 Parameter,  0 Auto,  2 SOE     *
     608              ;***************************************************************
     609              
     610 00000075       _FramFailure:
     611 00000075 761F-         MOVW      DP,#_alarms
         00000076 0000 
     612 00000077 A2BD          MOVL      *SP++,XAR3
     613 00000078 4238-         TBIT      @_alarms,#2           ; |141| 
     614 00000079 EF09          BF        L9,NTC                ; |141| 
     615                      ; branchcc occurs ; |141| 
     616 0000007a 761F-         MOVW      DP,#_alarms
         0000007b 0000 
     617 0000007c 4338-         TBIT      @_alarms,#3           ; |141| 
     618 0000007d EF19          BF        L11,NTC               ; |141| 
     619                      ; branchcc occurs ; |141| 
     620 0000007e 761F-         MOVW      DP,#_alarms
         0000007f 0000 
     621 00000080 4238-         TBIT      @_alarms,#2           ; |150| 
     622 00000081 EE24          BF        L13,TC                ; |150| 
     623                      ; branchcc occurs ; |150| 
     624 00000082       L9:    
     625 00000082 28A9          MOV       AL,#270               ; |150| 
TMS320C2000 COFF Assembler PC v4.1.3 Thu Aug 18 12:16:06 2016

Tools Copyright (c) 1996-2006 Texas Instruments Incorporated
alarms.asm                                                           PAGE   13

         00000083 010E 
     626 00000084 7640'         LCR       #_CheckAlarmBitSet    ; |150| 
         00000085 05B8 
     627                      ; call occurs [#_CheckAlarmBitSet] ; |150| 
     628 00000086 5201          CMPB      AL,#1                 ; |150| 
     629 00000087 EC05          BF        L10,EQ                ; |150| 
     630                      ; branchcc occurs ; |150| 
     631 00000088 761F-         MOVW      DP,#_alarms
         00000089 0000 
     632 0000008a 4338-         TBIT      @_alarms,#3           ; |150| 
     633 0000008b EF1A          BF        L13,NTC               ; |150| 
     634                      ; branchcc occurs ; |150| 
     635 0000008c       L10:    
     636 0000008c 28A9          MOV       AL,#270               ; |152| 
         0000008d 010E 
     637 0000008e 7640'         LCR       #_ClearAlarmEvent     ; |152| 
         0000008f 0327 
     638                      ; call occurs [#_ClearAlarmEvent] ; |152| 
     639 00000090 8F00-         MOVL      XAR4,#_alarms         ; |156| 
         00000091 0038 
     640 00000092 18C4          AND       *+XAR4[0],#0xfff3     ; |156| 
         00000093 FFF3 
     641 00000094 56CF          BF        L12,UNC               ; |158| 
         00000095 000B 
     642                      ; branch occurs ; |158| 
     643 00000096       L11:    
     644 00000096 8DC0-         MOVL      XAR3,#_alarms         ; |144| 
         00000097 0038 
     645 00000098 1AC3          OR        *+XAR3[0],#0x0008     ; |144| 
         00000099 0008 
     646 0000009a 28A9          MOV       AL,#270               ; |146| 
         0000009b 010E 
     647 0000009c 7640'         LCR       #_SetAlarmEvent       ; |146| 
         0000009d 02FB 
     648                      ; call occurs [#_SetAlarmEvent] ; |146| 
     649 0000009e 8AA3          MOVL      XAR4,XAR3             ; |148| 
     650 0000009f       L12:    
     651 0000009f 9A00          MOVB      AL,#0
     652 000000a0 28A8          MOV       AH,#28608             ; |148| 
         000000a1 6FC0 
     653 000000a2 D501          MOVB      XAR5,#1               ; |148| 
     654 000000a3 7640!         LCR       #_WriteNVMemory       ; |148| 
         000000a4 0000 
     655                      ; call occurs [#_WriteNVMemory] ; |148| 
     656 000000a5       L13:    
     657 000000a5 82BE          MOVL      XAR3,*--SP
     658                      .dwpsn  "alarms.c",160,1
     659 000000a6 0006          LRETR
     660                      ; return occurs
     661                      .dwattr DW$61, DW_AT_end_file("alarms.c")
     662                      .dwattr DW$61, DW_AT_end_line(0xa0)
     663                      .dwattr DW$61, DW_AT_end_column(0x01)
     664                      .dwendtag DW$61
     665              
     666 000000a7               .sect   ".text"
TMS320C2000 COFF Assembler PC v4.1.3 Thu Aug 18 12:16:06 2016

Tools Copyright (c) 1996-2006 Texas Instruments Incorporated
alarms.asm                                                           PAGE   14

     667                      .global _SPUComms
     668              
     669              DW$62   .dwtag  DW_TAG_subprogram, DW_AT_name("SPUComms"), DW_AT_symbol_name("_SPUComms")
     670                      .dwattr DW$62, DW_AT_low_pc(_SPUComms)
     671                      .dwattr DW$62, DW_AT_high_pc(0x00)
     672                      .dwattr DW$62, DW_AT_begin_file("alarms.c")
     673                      .dwattr DW$62, DW_AT_begin_line(0xa3)
     674                      .dwattr DW$62, DW_AT_begin_column(0x06)
     675                      .dwattr DW$62, DW_AT_frame_base[DW_OP_breg20 -4]
     676                      .dwattr DW$62, DW_AT_skeletal(0x01)
     677                      .dwpsn  "alarms.c",164,1
     678              
     679              ;***************************************************************
     680              ;* FNAME: _SPUComms                     FR SIZE:   2           *
     681              ;*                                                             *
     682              ;* FUNCTION ENVIRONMENT                                        *
     683              ;*                                                             *
     684              ;* FUNCTION PROPERTIES                                         *
     685              ;*                            0 Parameter,  0 Auto,  2 SOE     *
     686              ;***************************************************************
     687              
     688 000000a7       _SPUComms:
     689 000000a7 761F!         MOVW      DP,#_slave485mb+70
         000000a8 0001 
     690 000000a9 A2BD          MOVL      *SP++,XAR3
     691 000000aa 9206!         MOV       AL,@_slave485mb+70    ; |169| 
     692 000000ab 5201          CMPB      AL,#1                 ; |169| 
     693 000000ac EC15          BF        L15,EQ                ; |169| 
     694                      ; branchcc occurs ; |169| 
     695 000000ad 28A9          MOV       AL,#268               ; |184| 
         000000ae 010C 
     696 000000af 7640'         LCR       #_CheckAlarmBitSet    ; |184| 
         000000b0 05B8 
     697                      ; call occurs [#_CheckAlarmBitSet] ; |184| 
     698 000000b1 5201          CMPB      AL,#1                 ; |184| 
     699 000000b2 EC05          BF        L14,EQ                ; |184| 
     700                      ; branchcc occurs ; |184| 
     701 000000b3 761F-         MOVW      DP,#_alarms
         000000b4 0000 
     702 000000b5 4138-         TBIT      @_alarms,#1           ; |184| 
     703 000000b6 EF1E          BF        L17,NTC               ; |184| 
     704                      ; branchcc occurs ; |184| 
     705 000000b7       L14:    
     706 000000b7 28A9          MOV       AL,#268               ; |188| 
         000000b8 010C 
     707 000000b9 7640'         LCR       #_ClearAlarmEvent     ; |188| 
         000000ba 0327 
     708                      ; call occurs [#_ClearAlarmEvent] ; |188| 
     709 000000bb 8F00-         MOVL      XAR4,#_alarms         ; |189| 
         000000bc 0038 
     710 000000bd 18C4          AND       *+XAR4[0],#0xfffc     ; |189| 
         000000be FFFC 
     711 000000bf 56CF          BF        L16,UNC               ; |191| 
         000000c0 000F 
     712                      ; branch occurs ; |191| 
TMS320C2000 COFF Assembler PC v4.1.3 Thu Aug 18 12:16:06 2016

Tools Copyright (c) 1996-2006 Texas Instruments Incorporated
alarms.asm                                                           PAGE   15

     713 000000c1       L15:    
     714 000000c1 8DC0-         MOVL      XAR3,#_alarms         ; |171| 
         000000c2 0038 
     715 000000c3 1AC3          OR        *+XAR3[0],#0x0001     ; |171| 
         000000c4 0001 
     716 000000c5 41C3          TBIT      *+XAR3[0],#1          ; |172| 
     717 000000c6 EE0E          BF        L17,TC                ; |172| 
     718                      ; branchcc occurs ; |172| 
     719 000000c7 1AC3          OR        *+XAR3[0],#0x0002     ; |174| 
         000000c8 0002 
     720 000000c9 28A9          MOV       AL,#268               ; |176| 
         000000ca 010C 
     721 000000cb 7640'         LCR       #_SetAlarmEvent       ; |176| 
         000000cc 02FB 
     722                      ; call occurs [#_SetAlarmEvent] ; |176| 
     723 000000cd 8AA3          MOVL      XAR4,XAR3             ; |178| 
     724 000000ce       L16:    
     725 000000ce 9A00          MOVB      AL,#0
     726 000000cf D501          MOVB      XAR5,#1               ; |178| 
     727 000000d0 28A8          MOV       AH,#28608             ; |178| 
         000000d1 6FC0 
     728 000000d2 7640!         LCR       #_WriteNVMemory       ; |178| 
         000000d3 0000 
     729                      ; call occurs [#_WriteNVMemory] ; |178| 
     730 000000d4       L17:    
     731 000000d4 7640!         LCR       #_ReadPCCommsFlag     ; |198| 
         000000d5 0000 
     732                      ; call occurs [#_ReadPCCommsFlag] ; |198| 
     733 000000d6 5201          CMPB      AL,#1                 ; |198| 
     734 000000d7 EC13          BF        L19,EQ                ; |198| 
     735                      ; branchcc occurs ; |198| 
     736 000000d8 8F00-         MOVL      XAR4,#_alarms         ; |212| 
         000000d9 0038 
     737 000000da 45C4          TBIT      *+XAR4[0],#5          ; |212| 
     738 000000db EF09          BF        L18,NTC               ; |212| 
     739                      ; branchcc occurs ; |212| 
     740 000000dc 18C4          AND       *+XAR4[0],#0xffdf     ; |217| 
         000000dd FFDF 
     741 000000de 9A00          MOVB      AL,#0
     742 000000df D501          MOVB      XAR5,#1               ; |218| 
     743 000000e0 28A8          MOV       AH,#28608             ; |218| 
         000000e1 6FC0 
     744 000000e2 7640!         LCR       #_WriteNVMemory       ; |218| 
         000000e3 0000 
     745                      ; call occurs [#_WriteNVMemory] ; |218| 
     746 000000e4       L18:    
     747 000000e4 761F-         MOVW      DP,#_alarms
         000000e5 0000 
     748 000000e6 1838-         AND       @_alarms,#0xffef      ; |220| 
         000000e7 FFEF 
     749 000000e8 56CF          BF        L20,UNC               ; |220| 
         000000e9 0013 
     750                      ; branch occurs ; |220| 
     751 000000ea       L19:    
     752 000000ea 8F00-         MOVL      XAR4,#_alarms         ; |200| 
TMS320C2000 COFF Assembler PC v4.1.3 Thu Aug 18 12:16:06 2016

Tools Copyright (c) 1996-2006 Texas Instruments Incorporated
alarms.asm                                                           PAGE   16

         000000eb 0038 
     753 000000ec 1AC4          OR        *+XAR4[0],#0x0010     ; |200| 
         000000ed 0010 
     754 000000ee 45C4          TBIT      *+XAR4[0],#5          ; |201| 
     755 000000ef EE0C          BF        L20,TC                ; |201| 
     756                      ; branchcc occurs ; |201| 
     757 000000f0 1AC4          OR        *+XAR4[0],#0x0020     ; |203| 
         000000f1 0020 
     758 000000f2 9A00          MOVB      AL,#0
     759 000000f3 28A8          MOV       AH,#28608             ; |205| 
         000000f4 6FC0 
     760 000000f5 D501          MOVB      XAR5,#1               ; |205| 
     761 000000f6 7640!         LCR       #_WriteNVMemory       ; |205| 
         000000f7 0000 
     762                      ; call occurs [#_WriteNVMemory] ; |205| 
     763 000000f8 761F!         MOVW      DP,#_digout
         000000f9 0000 
     764 000000fa 2B00!         MOV       @_digout,#0           ; |207| 
     765 000000fb       L20:    
     766 000000fb 82BE          MOVL      XAR3,*--SP
     767                      .dwpsn  "alarms.c",222,1
     768 000000fc 0006          LRETR
     769                      ; return occurs
     770                      .dwattr DW$62, DW_AT_end_file("alarms.c")
     771                      .dwattr DW$62, DW_AT_end_line(0xde)
     772                      .dwattr DW$62, DW_AT_end_column(0x01)
     773                      .dwendtag DW$62
     774              
     775 000000fd               .sect   ".text"
     776                      .global _SensorFailure
     777              
     778              DW$63   .dwtag  DW_TAG_subprogram, DW_AT_name("SensorFailure"), DW_AT_symbol_name("_SensorFailure")
     779                      .dwattr DW$63, DW_AT_low_pc(_SensorFailure)
     780                      .dwattr DW$63, DW_AT_high_pc(0x00)
     781                      .dwattr DW$63, DW_AT_begin_file("alarms.c")
     782                      .dwattr DW$63, DW_AT_begin_line(0xe1)
     783                      .dwattr DW$63, DW_AT_begin_column(0x06)
     784                      .dwattr DW$63, DW_AT_frame_base[DW_OP_breg20 -14]
     785                      .dwattr DW$63, DW_AT_skeletal(0x01)
     786                      .dwpsn  "alarms.c",226,1
     787              
     788              ;***************************************************************
     789              ;* FNAME: _SensorFailure                FR SIZE:  12           *
     790              ;*                                                             *
     791              ;* FUNCTION ENVIRONMENT                                        *
     792              ;*                                                             *
     793              ;* FUNCTION PROPERTIES                                         *
     794              ;*                            0 Parameter,  5 Auto,  6 SOE     *
     795              ;***************************************************************
     796              
     797              _SensorFailure:
     798              ;* AL    assigned to _chan
     799              DW$64   .dwtag  DW_TAG_formal_parameter, DW_AT_name("chan"), DW_AT_symbol_name("_chan")
     800                      .dwattr DW$64, DW_AT_type(*DW$T$11)
     801                      .dwattr DW$64, DW_AT_location[DW_OP_reg0]
TMS320C2000 COFF Assembler PC v4.1.3 Thu Aug 18 12:16:06 2016

Tools Copyright (c) 1996-2006 Texas Instruments Incorporated
alarms.asm                                                           PAGE   17

     802 000000fd B2BD          MOVL      *SP++,XAR1
     803 000000fe AABD          MOVL      *SP++,XAR2
     804 000000ff A2BD          MOVL      *SP++,XAR3
     805 00000100 FE06          ADDB      SP,#6
     806 00000101 59A9          MOVZ      AR1,AL                ; |226| 
     807 00000102 2B45          MOV       *-SP[5],#0            ; |232| 
     808 00000103 7640!         LCR       #_GetStatus2Flags     ; |234| 
         00000104 0000 
     809                      ; call occurs [#_GetStatus2Flags] ; |234| 
     810 00000105 92A1          MOV       AL,AR1                ; |235| 
     811 00000106 86A4          MOVL      XAR2,XAR4             ; |234| 
     812 00000107 7640!         LCR       #_GetSensorAlarmMask  ; |235| 
         00000108 0000 
     813                      ; call occurs [#_GetSensorAlarmMask] ; |235| 
     814 00000109 5200          CMPB      AL,#0                 ; |235| 
     815 0000010a 56C0          BF        L41,NEQ               ; |235| 
         0000010b 0164 
     816                      ; branchcc occurs ; |235| 
     817 0000010c 761F!         MOVW      DP,#_timers+66
         0000010d 0001 
     818 0000010e 9202!         MOV       AL,@_timers+66        ; |235| 
     819 0000010f 56C0          BF        L41,NEQ               ; |235| 
         00000110 015F 
     820                      ; branchcc occurs ; |235| 
     821 00000111 5CAD          MOVZ      AR4,SP                ; |237| 
     822 00000112 92A1          MOV       AL,AR1                ; |237| 
     823 00000113 DC84          SUBB      XAR4,#4               ; |237| 
     824 00000114 7640!         LCR       #_InputNumtoString    ; |237| 
         00000115 0000 
     825                      ; call occurs [#_InputNumtoString] ; |237| 
     826 00000116 8F00-         MOVL      XAR4,#_status3        ; |239| 
         00000117 0000 
     827 00000118 439C          TBIT      *+XAR4[AR1],#3        ; |239| 
     828 00000119 EF0A          BF        L21,NTC               ; |239| 
     829                      ; branchcc occurs ; |239| 
     830 0000011a 28AC          MOV       T,#18                 ; |239| 
         0000011b 0012 
     831 0000011c 8F00!         MOVL      XAR4,#_sensor         ; |239| 
         0000011d 0000 
     832 0000011e 30A1          MPYXU     ACC,T,AR1             ; |239| 
     833 0000011f 5601          ADDL      XAR4,ACC
         00000120 00A4 
     834 00000121 40C4          TBIT      *+XAR4[0],#0          ; |239| 
     835 00000122 EE23          BF        L23,TC                ; |239| 
     836                      ; branchcc occurs ; |239| 
     837 00000123       L21:    
     838 00000123 28A9          MOV       AL,#271               ; |256| 
         00000124 010F 
     839 00000125 94A1          ADD       AL,AR1                ; |256| 
     840 00000126 7640'         LCR       #_CheckAlarmBitSet    ; |256| 
         00000127 05B8 
     841                      ; call occurs [#_CheckAlarmBitSet] ; |256| 
     842 00000128 5201          CMPB      AL,#1                 ; |256| 
     843 00000129 EC05          BF        L22,EQ                ; |256| 
     844                      ; branchcc occurs ; |256| 
TMS320C2000 COFF Assembler PC v4.1.3 Thu Aug 18 12:16:06 2016

Tools Copyright (c) 1996-2006 Texas Instruments Incorporated
alarms.asm                                                           PAGE   18

     845 0000012a 8F00-         MOVL      XAR4,#_status3        ; |256| 
         0000012b 0000 
     846 0000012c 4B9C          TBIT      *+XAR4[AR1],#11       ; |256| 
     847 0000012d EF30          BF        L24,NTC               ; |256| 
     848                      ; branchcc occurs ; |256| 
     849 0000012e       L22:    
     850 0000012e 28A9          MOV       AL,#271               ; |261| 
         0000012f 010F 
     851 00000130 94A1          ADD       AL,AR1                ; |261| 
     852 00000131 7640'         LCR       #_ClearAlarmEvent     ; |261| 
         00000132 0327 
     853                      ; call occurs [#_ClearAlarmEvent] ; |261| 
     854 00000133 8F00-         MOVL      XAR4,#_status3        ; |263| 
         00000134 0000 
     855 00000135 CC9C          AND       AL,*+XAR4[AR1],#0xf7f7 ; |263| 
         00000136 F7F7 
     856 00000137 969C          MOV       *+XAR4[AR1],AL        ; |263| 
     857 00000138 9B03          MOVB      AH,#3                 ; |265| 
     858 00000139 8F00-         MOVL      XAR4,#_noisefilterLOAD ; |265| 
         0000013a 001C 
     859 0000013b 979C          MOV       *+XAR4[AR1],AH        ; |265| 
     860 0000013c 8F00-         MOVL      XAR4,#_damagemonignore ; |266| 
         0000013d 0040 
     861 0000013e 979C          MOV       *+XAR4[AR1],AH        ; |266| 
     862 0000013f 9001          ANDB      AL,#1                 ; |267| 
     863 00000140 2845          MOV       *-SP[5],#1            ; |267| 
         00000141 0001 
     864 00000142 ED1F          BF        L25,NEQ               ; |267| 
     865                      ; branchcc occurs ; |267| 
     866 00000143 56CF          BF        L26,UNC               ; |267| 
         00000144 0027 
     867                      ; branch occurs ; |267| 
     868 00000145       L23:    
     869 00000145 8F00-         MOVL      XAR4,#_status3        ; |242| 
         00000146 0000 
     870 00000147 A8A9          MOVL      ACC,XAR4              ; |242| 
     871 00000148 0DA1          ADDU      ACC,AR1               ; |242| 
     872 00000149 8AA9          MOVL      XAR4,ACC              ; |242| 
     873 0000014a 1AC2          OR        *+XAR2[0],#0x0001     ; |241| 
         0000014b 0001 
     874 0000014c 93C4          MOV       AH,*+XAR4[0]          ; |242| 
     875 0000014d CCA8          AND       AL,AH,#0x0800         ; |242| 
         0000014e 0800 
     876 0000014f ED0E          BF        L24,NEQ               ; |242| 
     877                      ; branchcc occurs ; |242| 
     878 00000150 28A9          MOV       AL,#2048              ; |244| 
         00000151 0800 
     879 00000152 CAA8          OR        AL,AH                 ; |244| 
     880 00000153 96C4          MOV       *+XAR4[0],AL          ; |244| 
     881 00000154 28A9          MOV       AL,#271               ; |246| 
         00000155 010F 
     882 00000156 94A1          ADD       AL,AR1                ; |246| 
     883 00000157 7640'         LCR       #_SetAlarmEvent       ; |246| 
         00000158 02FB 
     884                      ; call occurs [#_SetAlarmEvent] ; |246| 
TMS320C2000 COFF Assembler PC v4.1.3 Thu Aug 18 12:16:06 2016

Tools Copyright (c) 1996-2006 Texas Instruments Incorporated
alarms.asm                                                           PAGE   19

     885 00000159 1AC2          OR        *+XAR2[0],#0x0002     ; |247| 
         0000015a 0002 
     886 0000015b 2845          MOV       *-SP[5],#1            ; |251| 
         0000015c 0001 
     887 0000015d       L24:    
     888 0000015d 8F00-         MOVL      XAR4,#_status3        ; |270| 
         0000015e 0000 
     889 0000015f 409C          TBIT      *+XAR4[AR1],#0        ; |270| 
     890 00000160 EF0A          BF        L26,NTC               ; |270| 
     891                      ; branchcc occurs ; |270| 
     892 00000161       L25:    
     893 00000161 28AC          MOV       T,#18                 ; |270| 
         00000162 0012 
     894 00000163 8F00!         MOVL      XAR4,#_sensor         ; |270| 
         00000164 0000 
     895 00000165 30A1          MPYXU     ACC,T,AR1             ; |270| 
     896 00000166 5601          ADDL      XAR4,ACC
         00000167 00A4 
     897 00000168 40C4          TBIT      *+XAR4[0],#0          ; |270| 
     898 00000169 EE21          BF        L28,TC                ; |270| 
     899                      ; branchcc occurs ; |270| 
     900 0000016a       L26:    
     901 0000016a 9A38          MOVB      AL,#56                ; |288| 
     902 0000016b 94A1          ADD       AL,AR1                ; |288| 
     903 0000016c 7640'         LCR       #_CheckAlarmBitSet    ; |288| 
         0000016d 05B8 
     904                      ; call occurs [#_CheckAlarmBitSet] ; |288| 
     905 0000016e 5201          CMPB      AL,#1                 ; |288| 
     906 0000016f EC05          BF        L27,EQ                ; |288| 
     907                      ; branchcc occurs ; |288| 
     908 00000170 8F00-         MOVL      XAR4,#_status3        ; |288| 
         00000171 0000 
     909 00000172 489C          TBIT      *+XAR4[AR1],#8        ; |288| 
     910 00000173 EF2E          BF        L29,NTC               ; |288| 
     911                      ; branchcc occurs ; |288| 
     912 00000174       L27:    
     913 00000174 9A38          MOVB      AL,#56                ; |293| 
     914 00000175 94A1          ADD       AL,AR1                ; |293| 
     915 00000176 7640'         LCR       #_ClearAlarmEvent     ; |293| 
         00000177 0327 
     916                      ; call occurs [#_ClearAlarmEvent] ; |293| 
     917 00000178 8F00-         MOVL      XAR4,#_status3        ; |295| 
         00000179 0000 
     918 0000017a CC9C          AND       AL,*+XAR4[AR1],#0xfefe ; |295| 
         0000017b FEFE 
     919 0000017c 969C          MOV       *+XAR4[AR1],AL        ; |295| 
     920 0000017d 9B03          MOVB      AH,#3                 ; |297| 
     921 0000017e 8F00-         MOVL      XAR4,#_noisefilterLOAD ; |297| 
         0000017f 001C 
     922 00000180 979C          MOV       *+XAR4[AR1],AH        ; |297| 
     923 00000181 8F00-         MOVL      XAR4,#_damagemonignore ; |298| 
         00000182 0040 
     924 00000183 979C          MOV       *+XAR4[AR1],AH        ; |298| 
     925 00000184 9002          ANDB      AL,#2                 ; |299| 
     926 00000185 2845          MOV       *-SP[5],#1            ; |299| 
TMS320C2000 COFF Assembler PC v4.1.3 Thu Aug 18 12:16:06 2016

Tools Copyright (c) 1996-2006 Texas Instruments Incorporated
alarms.asm                                                           PAGE   20

         00000186 0001 
     927 00000187 ED1E          BF        L30,NEQ               ; |299| 
     928                      ; branchcc occurs ; |299| 
     929 00000188 56CF          BF        L31,UNC               ; |299| 
         00000189 004C 
     930                      ; branch occurs ; |299| 
     931 0000018a       L28:    
     932 0000018a 8F00-         MOVL      XAR4,#_status3        ; |274| 
         0000018b 0000 
     933 0000018c A8A9          MOVL      ACC,XAR4              ; |274| 
     934 0000018d 0DA1          ADDU      ACC,AR1               ; |274| 
     935 0000018e 8AA9          MOVL      XAR4,ACC              ; |274| 
     936 0000018f 1AC2          OR        *+XAR2[0],#0x0001     ; |273| 
         00000190 0001 
     937 00000191 93C4          MOV       AH,*+XAR4[0]          ; |274| 
     938 00000192 CCA8          AND       AL,AH,#0x0100         ; |274| 
         00000193 0100 
     939 00000194 ED0D          BF        L29,NEQ               ; |274| 
     940                      ; branchcc occurs ; |274| 
     941 00000195 28A9          MOV       AL,#256               ; |276| 
         00000196 0100 
     942 00000197 CAA8          OR        AL,AH                 ; |276| 
     943 00000198 96C4          MOV       *+XAR4[0],AL          ; |276| 
     944 00000199 1AC2          OR        *+XAR2[0],#0x0002     ; |277| 
         0000019a 0002 
     945 0000019b 9A38          MOVB      AL,#56                ; |280| 
     946 0000019c 94A1          ADD       AL,AR1                ; |280| 
     947 0000019d 7640'         LCR       #_SetAlarmEvent       ; |280| 
         0000019e 02FB 
     948                      ; call occurs [#_SetAlarmEvent] ; |280| 
     949 0000019f 2845          MOV       *-SP[5],#1            ; |283| 
         000001a0 0001 
     950 000001a1       L29:    
     951 000001a1 8F00-         MOVL      XAR4,#_status3        ; |302| 
         000001a2 0000 
     952 000001a3 419C          TBIT      *+XAR4[AR1],#1        ; |302| 
     953 000001a4 EF30          BF        L31,NTC               ; |302| 
     954                      ; branchcc occurs ; |302| 
     955 000001a5       L30:    
     956 000001a5 8F00-         MOVL      XAR4,#_status3        ; |302| 
         000001a6 0000 
     957 000001a7 A8A9          MOVL      ACC,XAR4              ; |302| 
     958 000001a8 0DA1          ADDU      ACC,AR1               ; |302| 
     959 000001a9 82A9          MOVL      XAR3,ACC              ; |302| 
     960 000001aa 4BC3          TBIT      *+XAR3[0],#11         ; |302| 
     961 000001ab EE29          BF        L31,TC                ; |302| 
     962                      ; branchcc occurs ; |302| 
     963 000001ac 28AC          MOV       T,#18                 ; |302| 
         000001ad 0012 
     964 000001ae 8F00!         MOVL      XAR4,#_sensor         ; |302| 
         000001af 0000 
     965 000001b0 30A1          MPYXU     ACC,T,AR1             ; |302| 
     966 000001b1 5601          ADDL      XAR4,ACC
         000001b2 00A4 
     967 000001b3 40C4          TBIT      *+XAR4[0],#0          ; |302| 
TMS320C2000 COFF Assembler PC v4.1.3 Thu Aug 18 12:16:06 2016

Tools Copyright (c) 1996-2006 Texas Instruments Incorporated
alarms.asm                                                           PAGE   21

     968 000001b4 EF20          BF        L31,NTC               ; |302| 
     969                      ; branchcc occurs ; |302| 
     970 000001b5 1AC2          OR        *+XAR2[0],#0x0001     ; |304| 
         000001b6 0001 
     971 000001b7 93C3          MOV       AH,*+XAR3[0]          ; |305| 
     972 000001b8 CCA8          AND       AL,AH,#0x0200         ; |305| 
         000001b9 0200 
     973 000001ba ED35          BF        L33,NEQ               ; |305| 
     974                      ; branchcc occurs ; |305| 
     975 000001bb 28A9          MOV       AL,#512               ; |308| 
         000001bc 0200 
     976 000001bd CAA8          OR        AL,AH                 ; |308| 
     977 000001be 96C3          MOV       *+XAR3[0],AL          ; |308| 
     978 000001bf 9A54          MOVB      AL,#84                ; |310| 
     979 000001c0 94A1          ADD       AL,AR1                ; |310| 
     980 000001c1 7640'         LCR       #_SetAlarmEvent       ; |310| 
         000001c2 02FB 
     981                      ; call occurs [#_SetAlarmEvent] ; |310| 
     982 000001c3 1AC2          OR        *+XAR2[0],#0x0002     ; |313| 
         000001c4 0002 
     983 000001c5 9A38          MOVB      AL,#56                ; |315| 
     984 000001c6 94A1          ADD       AL,AR1                ; |315| 
     985 000001c7 7640'         LCR       #_ClearAlarmEvent     ; |315| 
         000001c8 0327 
     986                      ; call occurs [#_ClearAlarmEvent] ; |315| 
     987 000001c9 28A9          MOV       AL,#271               ; |317| 
         000001ca 010F 
     988 000001cb 94A1          ADD       AL,AR1                ; |317| 
     989 000001cc 7640'         LCR       #_ClearAlarmEvent     ; |317| 
         000001cd 0327 
     990                      ; call occurs [#_ClearAlarmEvent] ; |317| 
     991 000001ce 2845          MOV       *-SP[5],#1            ; |318| 
         000001cf 0001 
     992 000001d0 42C3          TBIT      *+XAR3[0],#2          ; |318| 
     993 000001d1 EE22          BF        L34,TC                ; |318| 
     994                      ; branchcc occurs ; |318| 
     995 000001d2 56CF          BF        L35,UNC               ; |318| 
         000001d3 0050 
     996                      ; branch occurs ; |318| 
     997 000001d4       L31:    
     998 000001d4 9A54          MOVB      AL,#84                ; |324| 
     999 000001d5 94A1          ADD       AL,AR1                ; |324| 
    1000 000001d6 7640'         LCR       #_CheckAlarmBitSet    ; |324| 
         000001d7 05B8 
    1001                      ; call occurs [#_CheckAlarmBitSet] ; |324| 
    1002 000001d8 5201          CMPB      AL,#1                 ; |324| 
    1003 000001d9 EC05          BF        L32,EQ                ; |324| 
    1004                      ; branchcc occurs ; |324| 
    1005 000001da 8F00-         MOVL      XAR4,#_status3        ; |324| 
         000001db 0000 
    1006 000001dc 499C          TBIT      *+XAR4[AR1],#9        ; |324| 
    1007 000001dd EF12          BF        L33,NTC               ; |324| 
    1008                      ; branchcc occurs ; |324| 
    1009 000001de       L32:    
    1010 000001de 9A54          MOVB      AL,#84                ; |329| 
TMS320C2000 COFF Assembler PC v4.1.3 Thu Aug 18 12:16:06 2016

Tools Copyright (c) 1996-2006 Texas Instruments Incorporated
alarms.asm                                                           PAGE   22

    1011 000001df 94A1          ADD       AL,AR1                ; |329| 
    1012 000001e0 7640'         LCR       #_ClearAlarmEvent     ; |329| 
         000001e1 0327 
    1013                      ; call occurs [#_ClearAlarmEvent] ; |329| 
    1014 000001e2 8F00-         MOVL      XAR4,#_status3        ; |331| 
         000001e3 0000 
    1015 000001e4 189C          AND       *+XAR4[AR1],#0xfdfc   ; |331| 
         000001e5 FDFC 
    1016 000001e6 9A03          MOVB      AL,#3                 ; |334| 
    1017 000001e7 8F00-         MOVL      XAR4,#_noisefilterLOAD ; |334| 
         000001e8 001C 
    1018 000001e9 969C          MOV       *+XAR4[AR1],AL        ; |334| 
    1019 000001ea 8F00-         MOVL      XAR4,#_damagemonignore ; |335| 
         000001eb 0040 
    1020 000001ec 969C          MOV       *+XAR4[AR1],AL        ; |335| 
    1021 000001ed 2845          MOV       *-SP[5],#1            ; |337| 
         000001ee 0001 
    1022 000001ef       L33:    
    1023 000001ef 8F00-         MOVL      XAR4,#_status3        ; |340| 
         000001f0 0000 
    1024 000001f1 429C          TBIT      *+XAR4[AR1],#2        ; |340| 
    1025 000001f2 EF30          BF        L35,NTC               ; |340| 
    1026                      ; branchcc occurs ; |340| 
    1027 000001f3       L34:    
    1028 000001f3 8F00-         MOVL      XAR4,#_status3        ; |340| 
         000001f4 0000 
    1029 000001f5 A8A9          MOVL      ACC,XAR4              ; |340| 
    1030 000001f6 0DA1          ADDU      ACC,AR1               ; |340| 
    1031 000001f7 82A9          MOVL      XAR3,ACC              ; |340| 
    1032 000001f8 4BC3          TBIT      *+XAR3[0],#11         ; |340| 
    1033 000001f9 EE29          BF        L35,TC                ; |340| 
    1034                      ; branchcc occurs ; |340| 
    1035 000001fa 28AC          MOV       T,#18                 ; |340| 
         000001fb 0012 
    1036 000001fc 8F00!         MOVL      XAR4,#_sensor         ; |340| 
         000001fd 0000 
    1037 000001fe 30A1          MPYXU     ACC,T,AR1             ; |340| 
    1038 000001ff 5601          ADDL      XAR4,ACC
         00000200 00A4 
    1039 00000201 40C4          TBIT      *+XAR4[0],#0          ; |340| 
    1040 00000202 EF20          BF        L35,NTC               ; |340| 
    1041                      ; branchcc occurs ; |340| 
    1042 00000203 1AC2          OR        *+XAR2[0],#0x0001     ; |342| 
         00000204 0001 
    1043 00000205 93C3          MOV       AH,*+XAR3[0]          ; |343| 
    1044 00000206 CCA8          AND       AL,AH,#0x0400         ; |343| 
         00000207 0400 
    1045 00000208 ED35          BF        L37,NEQ               ; |343| 
    1046                      ; branchcc occurs ; |343| 
    1047 00000209 28A9          MOV       AL,#1024              ; |346| 
         0000020a 0400 
    1048 0000020b CAA8          OR        AL,AH                 ; |346| 
    1049 0000020c 96C3          MOV       *+XAR3[0],AL          ; |346| 
    1050 0000020d 9A70          MOVB      AL,#112               ; |348| 
    1051 0000020e 94A1          ADD       AL,AR1                ; |348| 
TMS320C2000 COFF Assembler PC v4.1.3 Thu Aug 18 12:16:06 2016

Tools Copyright (c) 1996-2006 Texas Instruments Incorporated
alarms.asm                                                           PAGE   23

    1052 0000020f 7640'         LCR       #_SetAlarmEvent       ; |348| 
         00000210 02FB 
    1053                      ; call occurs [#_SetAlarmEvent] ; |348| 
    1054 00000211 1AC2          OR        *+XAR2[0],#0x0002     ; |349| 
         00000212 0002 
    1055 00000213 9A38          MOVB      AL,#56                ; |353| 
    1056 00000214 94A1          ADD       AL,AR1                ; |353| 
    1057 00000215 7640'         LCR       #_ClearAlarmEvent     ; |353| 
         00000216 0327 
    1058                      ; call occurs [#_ClearAlarmEvent] ; |353| 
    1059 00000217 28A9          MOV       AL,#271               ; |355| 
         00000218 010F 
    1060 00000219 94A1          ADD       AL,AR1                ; |355| 
    1061 0000021a 7640'         LCR       #_ClearAlarmEvent     ; |355| 
         0000021b 0327 
    1062                      ; call occurs [#_ClearAlarmEvent] ; |355| 
    1063 0000021c 2845          MOV       *-SP[5],#1            ; |356| 
         0000021d 0001 
    1064 0000021e 42C3          TBIT      *+XAR3[0],#2          ; |356| 
    1065 0000021f EF22          BF        L38,NTC               ; |356| 
    1066                      ; branchcc occurs ; |356| 
    1067 00000220 56CF          BF        L39,UNC               ; |356| 
         00000221 0032 
    1068                      ; branch occurs ; |356| 
    1069 00000222       L35:    
    1070 00000222 9A70          MOVB      AL,#112               ; |362| 
    1071 00000223 94A1          ADD       AL,AR1                ; |362| 
    1072 00000224 7640'         LCR       #_CheckAlarmBitSet    ; |362| 
         00000225 05B8 
    1073                      ; call occurs [#_CheckAlarmBitSet] ; |362| 
    1074 00000226 5201          CMPB      AL,#1                 ; |362| 
    1075 00000227 EC05          BF        L36,EQ                ; |362| 
    1076                      ; branchcc occurs ; |362| 
    1077 00000228 8F00-         MOVL      XAR4,#_status3        ; |362| 
         00000229 0000 
    1078 0000022a 4A9C          TBIT      *+XAR4[AR1],#10       ; |362| 
    1079 0000022b EF12          BF        L37,NTC               ; |362| 
    1080                      ; branchcc occurs ; |362| 
    1081 0000022c       L36:    
    1082 0000022c 9A70          MOVB      AL,#112               ; |367| 
    1083 0000022d 94A1          ADD       AL,AR1                ; |367| 
    1084 0000022e 7640'         LCR       #_ClearAlarmEvent     ; |367| 
         0000022f 0327 
    1085                      ; call occurs [#_ClearAlarmEvent] ; |367| 
    1086 00000230 8F00-         MOVL      XAR4,#_status3        ; |369| 
         00000231 0000 
    1087 00000232 189C          AND       *+XAR4[AR1],#0xfbfb   ; |369| 
         00000233 FBFB 
    1088 00000234 9A03          MOVB      AL,#3                 ; |371| 
    1089 00000235 8F00-         MOVL      XAR4,#_noisefilterLOAD ; |371| 
         00000236 001C 
    1090 00000237 969C          MOV       *+XAR4[AR1],AL        ; |371| 
    1091 00000238 8F00-         MOVL      XAR4,#_damagemonignore ; |372| 
         00000239 0040 
    1092 0000023a 969C          MOV       *+XAR4[AR1],AL        ; |372| 
TMS320C2000 COFF Assembler PC v4.1.3 Thu Aug 18 12:16:06 2016

Tools Copyright (c) 1996-2006 Texas Instruments Incorporated
alarms.asm                                                           PAGE   24

    1093 0000023b 2845          MOV       *-SP[5],#1            ; |373| 
         0000023c 0001 
    1094 0000023d       L37:    
    1095 0000023d 8F00-         MOVL      XAR4,#_status3        ; |377| 
         0000023e 0000 
    1096 0000023f 429C          TBIT      *+XAR4[AR1],#2        ; |377| 
    1097 00000240 EE12          BF        L39,TC                ; |377| 
    1098                      ; branchcc occurs ; |377| 
    1099 00000241       L38:    
    1100 00000241 8F00-         MOVL      XAR4,#_status3        ; |377| 
         00000242 0000 
    1101 00000243 929C          MOV       AL,*+XAR4[AR1]        ; |377| 
    1102 00000244 CDA9          AND       AH,AL,#0x0002         ; |377| 
         00000245 0002 
    1103 00000246 9009          ANDB      AL,#9                 ; |377| 
    1104 00000247 CAA8          OR        AL,AH                 ; |377| 
    1105 00000248 ED0A          BF        L39,NEQ               ; |377| 
    1106                      ; branchcc occurs ; |377| 
    1107 00000249 92C2          MOV       AL,*+XAR2[0]          ; |379| 
    1108 0000024a CDA9          AND       AH,AL,#0x0002         ; |379| 
         0000024b 0002 
    1109 0000024c EC06          BF        L39,EQ                ; |379| 
    1110                      ; branchcc occurs ; |379| 
    1111 0000024d CCA9          AND       AL,AL,#0xfffc         ; |381| 
         0000024e FFFC 
    1112 0000024f 96C2          MOV       *+XAR2[0],AL          ; |381| 
    1113 00000250 56CF          BF        L40,UNC               ; |383| 
         00000251 0005 
    1114                      ; branch occurs ; |383| 
    1115 00000252       L39:    
    1116 00000252 9245          MOV       AL,*-SP[5]
    1117 00000253 5201          CMPB      AL,#1                 ; |386| 
    1118 00000254 ED1A          BF        L41,NEQ               ; |386| 
    1119                      ; branchcc occurs ; |386| 
    1120 00000255       L40:    
    1121 00000255 5603          MOV       ACC,AR1 << #1         ; |389| 
         00000256 01A1 
    1122 00000257 5BA9          MOVZ      AR3,AL                ; |389| 
    1123 00000258 8F00-         MOVL      XAR4,#_status3        ; |389| 
         00000259 0000 
    1124 0000025a 28A8          MOV       AH,#28666             ; |389| 
         0000025b 6FFA 
    1125 0000025c D501          MOVB      XAR5,#1               ; |389| 
    1126 0000025d 95A3          ADD       AH,AR3                ; |389| 
    1127 0000025e 88A8          MOVZ      AR6,AH                ; |389| 
    1128 0000025f A8A9          MOVL      ACC,XAR4              ; |389| 
    1129 00000260 0DA1          ADDU      ACC,AR1               ; |389| 
    1130 00000261 8AA9          MOVL      XAR4,ACC              ; |389| 
    1131 00000262 9A00          MOVB      AL,#0
    1132 00000263 93A6          MOV       AH,AR6                ; |389| 
    1133 00000264 7640!         LCR       #_WriteNVMemory       ; |389| 
         00000265 0000 
    1134                      ; call occurs [#_WriteNVMemory] ; |389| 
    1135 00000266 28A8          MOV       AH,#28610             ; |391| 
         00000267 6FC2 
TMS320C2000 COFF Assembler PC v4.1.3 Thu Aug 18 12:16:06 2016

Tools Copyright (c) 1996-2006 Texas Instruments Incorporated
alarms.asm                                                           PAGE   25

    1136 00000268 95A3          ADD       AH,AR3                ; |391| 
    1137 00000269 8AA2          MOVL      XAR4,XAR2             ; |391| 
    1138 0000026a D501          MOVB      XAR5,#1               ; |391| 
    1139 0000026b 9A00          MOVB      AL,#0
    1140 0000026c 7640!         LCR       #_WriteNVMemory       ; |391| 
         0000026d 0000 
    1141                      ; call occurs [#_WriteNVMemory] ; |391| 
    1142 0000026e       L41:    
    1143 0000026e FE86          SUBB      SP,#6
    1144 0000026f 82BE          MOVL      XAR3,*--SP
    1145 00000270 86BE          MOVL      XAR2,*--SP
    1146 00000271 8BBE          MOVL      XAR1,*--SP
    1147                      .dwpsn  "alarms.c",394,1
    1148 00000272 0006          LRETR
    1149                      ; return occurs
    1150                      .dwattr DW$63, DW_AT_end_file("alarms.c")
    1151                      .dwattr DW$63, DW_AT_end_line(0x18a)
    1152                      .dwattr DW$63, DW_AT_end_column(0x01)
    1153                      .dwendtag DW$63
    1154              
    1155 00000273               .sect   ".text"
    1156                      .global _ClearEventCodeListArea
    1157              
    1158              DW$65   .dwtag  DW_TAG_subprogram, DW_AT_name("ClearEventCodeListArea"), DW_AT_symbol_name("_ClearEventCodeLi
    1159                      .dwattr DW$65, DW_AT_low_pc(_ClearEventCodeListArea)
    1160                      .dwattr DW$65, DW_AT_high_pc(0x00)
    1161                      .dwattr DW$65, DW_AT_begin_file("alarms.c")
    1162                      .dwattr DW$65, DW_AT_begin_line(0x18f)
    1163                      .dwattr DW$65, DW_AT_begin_column(0x06)
    1164                      .dwattr DW$65, DW_AT_frame_base[DW_OP_breg20 -6]
    1165                      .dwattr DW$65, DW_AT_skeletal(0x01)
    1166                      .dwpsn  "alarms.c",400,1
    1167              
    1168              ;***************************************************************
    1169              ;* FNAME: _ClearEventCodeListArea       FR SIZE:   4           *
    1170              ;*                                                             *
    1171              ;* FUNCTION ENVIRONMENT                                        *
    1172              ;*                                                             *
    1173              ;* FUNCTION PROPERTIES                                         *
    1174              ;*                            0 Parameter,  0 Auto,  4 SOE     *
    1175              ;***************************************************************
    1176              
    1177 00000273       _ClearEventCodeListArea:
    1178 00000273 B2BD          MOVL      *SP++,XAR1
    1179 00000274 8F00+         MOVL      XAR4,#FSL1            ; |404| 
         00000275 0000 
    1180 00000276 AABD          MOVL      *SP++,XAR2
    1181 00000277 7640!         LCR       #_DebugStringOut      ; |404| 
         00000278 0000 
    1182                      ; call occurs [#_DebugStringOut] ; |404| 
    1183 00000279 761F!         MOVW      DP,#_eventlogentry+63
         0000027a 0000 
    1184 0000027b 283F!         MOV       @_eventlogentry+63,#1 ; |415| 
         0000027c 0001 
    1185 0000027d 761F!         MOVW      DP,#_eventlogentry+64
TMS320C2000 COFF Assembler PC v4.1.3 Thu Aug 18 12:16:06 2016

Tools Copyright (c) 1996-2006 Texas Instruments Incorporated
alarms.asm                                                           PAGE   26

         0000027e 0001 
    1186 0000027f 2800!         MOV       @_eventlogentry+64,#65535 ; |416| 
         00000280 FFFF 
    1187 00000281 761F!         MOVW      DP,#_eventlogentry+65
         00000282 0001 
    1188 00000283 2B01!         MOV       @_eventlogentry+65,#0 ; |417| 
    1189 00000284 761F!         MOVW      DP,#_eventlogentry+66
         00000285 0001 
    1190 00000286 2B02!         MOV       @_eventlogentry+66,#0 ; |418| 
    1191 00000287 8F00-         MOVL      XAR4,#_bitalarmlist   ; |423| 
         00000288 005C 
    1192 00000289 761F!         MOVW      DP,#_eventlogentry+67
         0000028a 0001 
    1193 0000028b 2B03!         MOV       @_eventlogentry+67,#0 ; |419| 
    1194                      .dwpsn  "alarms.c",422,0
    1195 0000028c D100          MOVB      XAR1,#0
    1196 0000028d       L42:    
    1197 0000028d       DW$L$_ClearEventCodeListArea$2$B:
    1198 0000028d 2B9C          MOV       *+XAR4[AR1],#0        ; |423| 
    1199 0000028e D901          ADDB      XAR1,#1               ; |422| 
    1200 0000028f 92A1          MOV       AL,AR1                ; |422| 
    1201 00000290 5220          CMPB      AL,#32                ; |422| 
    1202                      .dwpsn  "alarms.c",424,0
    1203 00000291 56C8          BF        L42,LO                ; |422| 
         00000292 FFFC 
    1204                      ; branchcc occurs ; |422| 
    1205 00000293       DW$L$_ClearEventCodeListArea$2$E:
    1206 00000293 7640!         LCR       #_WriteAlarmListtoNVMEM ; |425| 
         00000294 0000 
    1207                      ; call occurs [#_WriteAlarmListtoNVMEM] ; |425| 
    1208                      .dwpsn  "alarms.c",430,0
    1209 00000295 D100          MOVB      XAR1,#0
    1210              L43:    
    1211              DW$L$_ClearEventCodeListArea$4$B:
    1212                      .dwpsn  "alarms.c",431,0
    1213 00000296 28AC          MOV       T,#18                 ; |432| 
         00000297 0012 
    1214 00000298 8F00!         MOVL      XAR4,#_sensor+1       ; |432| 
         00000299 0001 
    1215 0000029a 30A1          MPYXU     ACC,T,AR1             ; |432| 
    1216 0000029b 5601          ADDL      XAR4,ACC
         0000029c 00A4 
    1217 0000029d 5603          MOV       ACC,AR1 << #1         ; |434| 
         0000029e 01A1 
    1218 0000029f 5AA9          MOVZ      AR2,AL                ; |434| 
    1219 000002a0 D501          MOVB      XAR5,#1               ; |434| 
    1220 000002a1 28A8          MOV       AH,#28610             ; |434| 
         000002a2 6FC2 
    1221 000002a3 95A2          ADD       AH,AR2                ; |434| 
    1222 000002a4 2BC4          MOV       *+XAR4[0],#0          ; |433| 
    1223 000002a5 9A00          MOVB      AL,#0
    1224 000002a6 7640!         LCR       #_WriteNVMemory       ; |434| 
         000002a7 0000 
    1225                      ; call occurs [#_WriteNVMemory] ; |434| 
    1226 000002a8 8F00-         MOVL      XAR4,#_status3        ; |436| 
TMS320C2000 COFF Assembler PC v4.1.3 Thu Aug 18 12:16:06 2016

Tools Copyright (c) 1996-2006 Texas Instruments Incorporated
alarms.asm                                                           PAGE   27

         000002a9 0000 
    1227 000002aa A8A9          MOVL      ACC,XAR4              ; |436| 
    1228 000002ab 0DA1          ADDU      ACC,AR1               ; |436| 
    1229 000002ac 8AA9          MOVL      XAR4,ACC              ; |436| 
    1230 000002ad 28A8          MOV       AH,#28666             ; |437| 
         000002ae 6FFA 
    1231 000002af 95A2          ADD       AH,AR2                ; |437| 
    1232 000002b0 D501          MOVB      XAR5,#1               ; |437| 
    1233 000002b1 2BC4          MOV       *+XAR4[0],#0          ; |436| 
    1234 000002b2 9A00          MOVB      AL,#0
    1235 000002b3 7640!         LCR       #_WriteNVMemory       ; |437| 
         000002b4 0000 
    1236                      ; call occurs [#_WriteNVMemory] ; |437| 
    1237 000002b5 D901          ADDB      XAR1,#1               ; |430| 
    1238 000002b6 92A1          MOV       AL,AR1                ; |430| 
    1239 000002b7 521C          CMPB      AL,#28                ; |430| 
    1240                      .dwpsn  "alarms.c",438,0
    1241 000002b8 56C8          BF        L43,LO                ; |430| 
         000002b9 FFDE 
    1242                      ; branchcc occurs ; |430| 
    1243              DW$L$_ClearEventCodeListArea$4$E:
    1244                      .dwpsn  "alarms.c",439,0
    1245 000002ba D100          MOVB      XAR1,#0
    1246              L44:    
    1247              DW$L$_ClearEventCodeListArea$6$B:
    1248                      .dwpsn  "alarms.c",440,0
    1249 000002bb 0EA1          MOVU      ACC,AR1
    1250 000002bc 8F00!         MOVL      XAR4,#_cylinders+1    ; |441| 
         000002bd 0001 
    1251 000002be FF31          LSL       ACC,2                 ; |441| 
    1252 000002bf D501          MOVB      XAR5,#1               ; |443| 
    1253 000002c0 5601          ADDL      XAR4,ACC
         000002c1 00A4 
    1254 000002c2 28A9          MOV       AL,#14319             ; |443| 
         000002c3 37EF 
    1255 000002c4 94A1          ADD       AL,AR1                ; |443| 
    1256 000002c5 5603          MOV       ACC,AL << #1          ; |443| 
         000002c6 01A9 
    1257 000002c7 93A9          MOV       AH,AL                 ; |443| 
    1258 000002c8 2BC4          MOV       *+XAR4[0],#0          ; |442| 
    1259 000002c9 9A00          MOVB      AL,#0
    1260 000002ca 7640!         LCR       #_WriteNVMemory       ; |443| 
         000002cb 0000 
    1261                      ; call occurs [#_WriteNVMemory] ; |443| 
    1262 000002cc D901          ADDB      XAR1,#1               ; |439| 
    1263 000002cd 92A1          MOV       AL,AR1                ; |439| 
    1264 000002ce 520E          CMPB      AL,#14                ; |439| 
    1265                      .dwpsn  "alarms.c",444,0
    1266 000002cf 56C8          BF        L44,LO                ; |439| 
         000002d0 FFEC 
    1267                      ; branchcc occurs ; |439| 
    1268 000002d1       DW$L$_ClearEventCodeListArea$6$E:
    1269 000002d1 9A00          MOVB      AL,#0
    1270 000002d2 8F00-         MOVL      XAR4,#_alarms         ; |446| 
         000002d3 0038 
TMS320C2000 COFF Assembler PC v4.1.3 Thu Aug 18 12:16:06 2016

Tools Copyright (c) 1996-2006 Texas Instruments Incorporated
alarms.asm                                                           PAGE   28

    1271 000002d4 D501          MOVB      XAR5,#1               ; |447| 
    1272 000002d5 28A8          MOV       AH,#28608             ; |447| 
         000002d6 6FC0 
    1273 000002d7 2BC4          MOV       *+XAR4[0],#0          ; |446| 
    1274 000002d8 7640!         LCR       #_WriteNVMemory       ; |447| 
         000002d9 0000 
    1275                      ; call occurs [#_WriteNVMemory] ; |447| 
    1276 000002da 8F00!         MOVL      XAR4,#_waterinoil+11  ; |449| 
         000002db 000B 
    1277 000002dc 9A00          MOVB      AL,#0
    1278 000002dd D501          MOVB      XAR5,#1               ; |450| 
    1279 000002de 2BC4          MOV       *+XAR4[0],#0          ; |449| 
    1280 000002df 28A8          MOV       AH,#28850             ; |450| 
         000002e0 70B2 
    1281 000002e1 7640!         LCR       #_WriteNVMemory       ; |450| 
         000002e2 0000 
    1282                      ; call occurs [#_WriteNVMemory] ; |450| 
    1283 000002e3 86BE          MOVL      XAR2,*--SP
    1284 000002e4 8BBE          MOVL      XAR1,*--SP
    1285                      .dwpsn  "alarms.c",451,1
    1286 000002e5 0006          LRETR
    1287                      ; return occurs
    1288              
    1289              DW$66   .dwtag  DW_TAG_loop
    1290                      .dwattr DW$66, DW_AT_name("D:\DEV\Amot\BearingWear\XTSW_V6_20\alarms.asm:L44:1:1471518966")
    1291                      .dwattr DW$66, DW_AT_begin_file("alarms.c")
    1292                      .dwattr DW$66, DW_AT_begin_line(0x1b7)
    1293                      .dwattr DW$66, DW_AT_end_line(0x1bc)
    1294              DW$67   .dwtag  DW_TAG_loop_range
    1295                      .dwattr DW$67, DW_AT_low_pc(DW$L$_ClearEventCodeListArea$6$B)
    1296                      .dwattr DW$67, DW_AT_high_pc(DW$L$_ClearEventCodeListArea$6$E)
    1297                      .dwendtag DW$66
    1298              
    1299              
    1300              DW$68   .dwtag  DW_TAG_loop
    1301                      .dwattr DW$68, DW_AT_name("D:\DEV\Amot\BearingWear\XTSW_V6_20\alarms.asm:L43:1:1471518966")
    1302                      .dwattr DW$68, DW_AT_begin_file("alarms.c")
    1303                      .dwattr DW$68, DW_AT_begin_line(0x1ae)
    1304                      .dwattr DW$68, DW_AT_end_line(0x1b6)
    1305              DW$69   .dwtag  DW_TAG_loop_range
    1306                      .dwattr DW$69, DW_AT_low_pc(DW$L$_ClearEventCodeListArea$4$B)
    1307                      .dwattr DW$69, DW_AT_high_pc(DW$L$_ClearEventCodeListArea$4$E)
    1308                      .dwendtag DW$68
    1309              
    1310              
    1311              DW$70   .dwtag  DW_TAG_loop
    1312                      .dwattr DW$70, DW_AT_name("D:\DEV\Amot\BearingWear\XTSW_V6_20\alarms.asm:L42:1:1471518966")
    1313                      .dwattr DW$70, DW_AT_begin_file("alarms.c")
    1314                      .dwattr DW$70, DW_AT_begin_line(0x1a6)
    1315                      .dwattr DW$70, DW_AT_end_line(0x1a8)
    1316              DW$71   .dwtag  DW_TAG_loop_range
    1317                      .dwattr DW$71, DW_AT_low_pc(DW$L$_ClearEventCodeListArea$2$B)
    1318                      .dwattr DW$71, DW_AT_high_pc(DW$L$_ClearEventCodeListArea$2$E)
    1319                      .dwendtag DW$70
    1320              
TMS320C2000 COFF Assembler PC v4.1.3 Thu Aug 18 12:16:06 2016

Tools Copyright (c) 1996-2006 Texas Instruments Incorporated
alarms.asm                                                           PAGE   29

    1321                      .dwattr DW$65, DW_AT_end_file("alarms.c")
    1322                      .dwattr DW$65, DW_AT_end_line(0x1c3)
    1323                      .dwattr DW$65, DW_AT_end_column(0x01)
    1324                      .dwendtag DW$65
    1325              
    1326 000002e6               .sect   ".text"
    1327                      .global _ReadFirstEventCode
    1328              
    1329              DW$72   .dwtag  DW_TAG_subprogram, DW_AT_name("ReadFirstEventCode"), DW_AT_symbol_name("_ReadFirstEventCode")
    1330                      .dwattr DW$72, DW_AT_low_pc(_ReadFirstEventCode)
    1331                      .dwattr DW$72, DW_AT_high_pc(0x00)
    1332                      .dwattr DW$72, DW_AT_begin_file("alarms.c")
    1333                      .dwattr DW$72, DW_AT_begin_line(0x1ed)
    1334                      .dwattr DW$72, DW_AT_begin_column(0x10)
    1335                      .dwattr DW$72, DW_AT_frame_base[DW_OP_breg20 -2]
    1336                      .dwattr DW$72, DW_AT_skeletal(0x01)
    1337                      .dwpsn  "alarms.c",494,1
    1338              
    1339              ;***************************************************************
    1340              ;* FNAME: _ReadFirstEventCode           FR SIZE:   0           *
    1341              ;*                                                             *
    1342              ;* FUNCTION ENVIRONMENT                                        *
    1343              ;*                                                             *
    1344              ;* FUNCTION PROPERTIES                                         *
    1345              ;*                            0 Parameter,  0 Auto,  0 SOE     *
    1346              ;***************************************************************
    1347              
    1348 000002e6       _ReadFirstEventCode:
    1349 000002e6 761F!         MOVW      DP,#_eventlogentry+67
         000002e7 0001 
    1350 000002e8 2B03!         MOV       @_eventlogentry+67,#0 ; |497| 
    1351 000002e9 8F00!         MOVL      XAR4,#_eventlogentry+64 ; |509| 
         000002ea 0040 
    1352 000002eb 761F!         MOVW      DP,#_eventlogentry+64
         000002ec 0001 
    1353 000002ed 2800!         MOV       @_eventlogentry+64,#65535 ; |504| 
         000002ee FFFF 
    1354 000002ef 761F!         MOVW      DP,#_eventlogentry+65
         000002f0 0001 
    1355 000002f1 2B01!         MOV       @_eventlogentry+65,#0 ; |508| 
    1356                      .dwpsn  "alarms.c",513,1
    1357 000002f2 0006          LRETR
    1358                      ; return occurs
    1359                      .dwattr DW$72, DW_AT_end_file("alarms.c")
    1360                      .dwattr DW$72, DW_AT_end_line(0x201)
    1361                      .dwattr DW$72, DW_AT_end_column(0x01)
    1362                      .dwendtag DW$72
    1363              
    1364 000002f3               .sect   ".text"
    1365                      .global _AlarmEventIDInc
    1366              
    1367              DW$73   .dwtag  DW_TAG_subprogram, DW_AT_name("AlarmEventIDInc"), DW_AT_symbol_name("_AlarmEventIDInc")
    1368                      .dwattr DW$73, DW_AT_low_pc(_AlarmEventIDInc)
    1369                      .dwattr DW$73, DW_AT_high_pc(0x00)
    1370                      .dwattr DW$73, DW_AT_begin_file("alarms.c")
TMS320C2000 COFF Assembler PC v4.1.3 Thu Aug 18 12:16:06 2016

Tools Copyright (c) 1996-2006 Texas Instruments Incorporated
alarms.asm                                                           PAGE   30

    1371                      .dwattr DW$73, DW_AT_begin_line(0x205)
    1372                      .dwattr DW$73, DW_AT_begin_column(0x06)
    1373                      .dwattr DW$73, DW_AT_frame_base[DW_OP_breg20 -2]
    1374                      .dwattr DW$73, DW_AT_skeletal(0x01)
    1375                      .dwpsn  "alarms.c",518,1
    1376              
    1377              ;***************************************************************
    1378              ;* FNAME: _AlarmEventIDInc              FR SIZE:   0           *
    1379              ;*                                                             *
    1380              ;* FUNCTION ENVIRONMENT                                        *
    1381              ;*                                                             *
    1382              ;* FUNCTION PROPERTIES                                         *
    1383              ;*                            0 Parameter,  0 Auto,  0 SOE     *
    1384              ;***************************************************************
    1385              
    1386              _AlarmEventIDInc:
    1387              ;* AL    assigned to _eventidin
    1388              DW$74   .dwtag  DW_TAG_formal_parameter, DW_AT_name("eventidin"), DW_AT_symbol_name("_eventidin")
    1389                      .dwattr DW$74, DW_AT_type(*DW$T$11)
    1390                      .dwattr DW$74, DW_AT_location[DW_OP_reg0]
    1391 000002f3 761F!         MOVW      DP,#_eventlogentry+64
         000002f4 0001 
    1392 000002f5 2800!         MOV       @_eventlogentry+64,#65535 ; |520| 
         000002f6 FFFF 
    1393 000002f7 761F!         MOVW      DP,#_eventlogentry+65
         000002f8 0001 
    1394 000002f9 2B01!         MOV       @_eventlogentry+65,#0 ; |521| 
    1395                      .dwpsn  "alarms.c",540,1
    1396 000002fa 0006          LRETR
    1397                      ; return occurs
    1398                      .dwattr DW$73, DW_AT_end_file("alarms.c")
    1399                      .dwattr DW$73, DW_AT_end_line(0x21c)
    1400                      .dwattr DW$73, DW_AT_end_column(0x01)
    1401                      .dwendtag DW$73
    1402              
    1403 000002fb               .sect   ".text"
    1404                      .global _SetAlarmEvent
    1405              
    1406              DW$75   .dwtag  DW_TAG_subprogram, DW_AT_name("SetAlarmEvent"), DW_AT_symbol_name("_SetAlarmEvent")
    1407                      .dwattr DW$75, DW_AT_low_pc(_SetAlarmEvent)
    1408                      .dwattr DW$75, DW_AT_high_pc(0x00)
    1409                      .dwattr DW$75, DW_AT_begin_file("alarms.c")
    1410                      .dwattr DW$75, DW_AT_begin_line(0x26b)
    1411                      .dwattr DW$75, DW_AT_begin_column(0x06)
    1412                      .dwattr DW$75, DW_AT_frame_base[DW_OP_breg20 -14]
    1413                      .dwattr DW$75, DW_AT_skeletal(0x01)
    1414                      .dwpsn  "alarms.c",620,1
    1415              
    1416              ;***************************************************************
    1417              ;* FNAME: _SetAlarmEvent                FR SIZE:  12           *
    1418              ;*                                                             *
    1419              ;* FUNCTION ENVIRONMENT                                        *
    1420              ;*                                                             *
    1421              ;* FUNCTION PROPERTIES                                         *
    1422              ;*                            5 Parameter,  0 Auto,  6 SOE     *
TMS320C2000 COFF Assembler PC v4.1.3 Thu Aug 18 12:16:06 2016

Tools Copyright (c) 1996-2006 Texas Instruments Incorporated
alarms.asm                                                           PAGE   31

    1423              ;***************************************************************
    1424              
    1425              _SetAlarmEvent:
    1426              ;* AL    assigned to _index
    1427              DW$76   .dwtag  DW_TAG_formal_parameter, DW_AT_name("index"), DW_AT_symbol_name("_index")
    1428                      .dwattr DW$76, DW_AT_type(*DW$T$11)
    1429                      .dwattr DW$76, DW_AT_location[DW_OP_reg0]
    1430 000002fb B2BD          MOVL      *SP++,XAR1
    1431 000002fc 93A9          MOV       AH,AL                 ; |627| 
    1432 000002fd AABD          MOVL      *SP++,XAR2
    1433 000002fe FFD3          LSR       AH,4                  ; |627| 
    1434 000002ff A2BD          MOVL      *SP++,XAR3
    1435 00000300 5321          CMPB      AH,#33                ; |627| 
    1436 00000301 5AA8          MOVZ      AR2,AH                ; |627| 
    1437 00000302 FE06          ADDB      SP,#6
    1438 00000303 56C7          BF        L45,HIS               ; |627| 
         00000304 001F 
    1439                      ; branchcc occurs ; |627| 
    1440 00000305 8F00+         MOVL      XAR4,#FSL2            ; |628| 
         00000306 0020 
    1441 00000307 CDA9          AND       AH,AL,#0x000f         ; |628| 
         00000308 000F 
    1442 00000309 8DC0!         MOVL      XAR3,#_stringbuffer   ; |628| 
         0000030a 0000 
    1443 0000030b A842          MOVL      *-SP[2],XAR4          ; |628| 
    1444 0000030c 7A43          MOV       *-SP[3],AR2           ; |628| 
    1445 0000030d 9744          MOV       *-SP[4],AH            ; |628| 
    1446 0000030e 8AA3          MOVL      XAR4,XAR3             ; |628| 
    1447 0000030f 59A8          MOVZ      AR1,AH                ; |628| 
    1448 00000310 9645          MOV       *-SP[5],AL            ; |628| 
    1449 00000311 7640!         LCR       #_sprintf             ; |628| 
         00000312 0000 
    1450                      ; call occurs [#_sprintf] ; |628| 
    1451 00000313 8AA3          MOVL      XAR4,XAR3             ; |628| 
    1452 00000314 7640!         LCR       #_DebugStringOut      ; |628| 
         00000315 0000 
    1453                      ; call occurs [#_DebugStringOut] ; |628| 
    1454 00000316 8F00-         MOVL      XAR4,#_bitalarmlist   ; |629| 
         00000317 005C 
    1455 00000318 A8A9          MOVL      ACC,XAR4              ; |629| 
    1456 00000319 0DA2          ADDU      ACC,AR2               ; |629| 
    1457 0000031a 86A9          MOVL      XAR2,ACC              ; |629| 
    1458 0000031b 92C2          MOV       AL,*+XAR2[0]          ; |629| 
    1459 0000031c 93A1          MOV       AH,AR1                ; |629| 
    1460 0000031d 7640!         LCR       #_BitSet              ; |629| 
         0000031e 0000 
    1461                      ; call occurs [#_BitSet] ; |629| 
    1462 0000031f 96C2          MOV       *+XAR2[0],AL          ; |629| 
    1463 00000320 7640!         LCR       #_WriteAlarmListtoNVMEM ; |630| 
         00000321 0000 
    1464                      ; call occurs [#_WriteAlarmListtoNVMEM] ; |630| 
    1465 00000322       L45:    
    1466 00000322 FE86          SUBB      SP,#6
    1467 00000323 82BE          MOVL      XAR3,*--SP
    1468 00000324 86BE          MOVL      XAR2,*--SP
TMS320C2000 COFF Assembler PC v4.1.3 Thu Aug 18 12:16:06 2016

Tools Copyright (c) 1996-2006 Texas Instruments Incorporated
alarms.asm                                                           PAGE   32

    1469 00000325 8BBE          MOVL      XAR1,*--SP
    1470                      .dwpsn  "alarms.c",635,1
    1471 00000326 0006          LRETR
    1472                      ; return occurs
    1473                      .dwattr DW$75, DW_AT_end_file("alarms.c")
    1474                      .dwattr DW$75, DW_AT_end_line(0x27b)
    1475                      .dwattr DW$75, DW_AT_end_column(0x01)
    1476                      .dwendtag DW$75
    1477              
    1478 00000327               .sect   ".text"
    1479                      .global _ClearAlarmEvent
    1480              
    1481              DW$77   .dwtag  DW_TAG_subprogram, DW_AT_name("ClearAlarmEvent"), DW_AT_symbol_name("_ClearAlarmEvent")
    1482                      .dwattr DW$77, DW_AT_low_pc(_ClearAlarmEvent)
    1483                      .dwattr DW$77, DW_AT_high_pc(0x00)
    1484                      .dwattr DW$77, DW_AT_begin_file("alarms.c")
    1485                      .dwattr DW$77, DW_AT_begin_line(0x281)
    1486                      .dwattr DW$77, DW_AT_begin_column(0x06)
    1487                      .dwattr DW$77, DW_AT_frame_base[DW_OP_breg20 -14]
    1488                      .dwattr DW$77, DW_AT_skeletal(0x01)
    1489                      .dwpsn  "alarms.c",642,1
    1490              
    1491              ;***************************************************************
    1492              ;* FNAME: _ClearAlarmEvent              FR SIZE:  12           *
    1493              ;*                                                             *
    1494              ;* FUNCTION ENVIRONMENT                                        *
    1495              ;*                                                             *
    1496              ;* FUNCTION PROPERTIES                                         *
    1497              ;*                            5 Parameter,  0 Auto,  6 SOE     *
    1498              ;***************************************************************
    1499              
    1500              _ClearAlarmEvent:
    1501              ;* AL    assigned to _index
    1502              DW$78   .dwtag  DW_TAG_formal_parameter, DW_AT_name("index"), DW_AT_symbol_name("_index")
    1503                      .dwattr DW$78, DW_AT_type(*DW$T$11)
    1504                      .dwattr DW$78, DW_AT_location[DW_OP_reg0]
    1505 00000327 B2BD          MOVL      *SP++,XAR1
    1506 00000328 93A9          MOV       AH,AL                 ; |651| 
    1507 00000329 AABD          MOVL      *SP++,XAR2
    1508 0000032a FFD3          LSR       AH,4                  ; |651| 
    1509 0000032b A2BD          MOVL      *SP++,XAR3
    1510 0000032c 5321          CMPB      AH,#33                ; |651| 
    1511 0000032d 5AA8          MOVZ      AR2,AH                ; |651| 
    1512 0000032e FE06          ADDB      SP,#6
    1513 0000032f 56C7          BF        L46,HIS               ; |651| 
         00000330 001F 
    1514                      ; branchcc occurs ; |651| 
    1515 00000331 8F00+         MOVL      XAR4,#FSL3            ; |653| 
         00000332 003A 
    1516 00000333 CDA9          AND       AH,AL,#0x000f         ; |653| 
         00000334 000F 
    1517 00000335 8DC0!         MOVL      XAR3,#_stringbuffer   ; |653| 
         00000336 0000 
    1518 00000337 A842          MOVL      *-SP[2],XAR4          ; |653| 
    1519 00000338 7A43          MOV       *-SP[3],AR2           ; |653| 
TMS320C2000 COFF Assembler PC v4.1.3 Thu Aug 18 12:16:06 2016

Tools Copyright (c) 1996-2006 Texas Instruments Incorporated
alarms.asm                                                           PAGE   33

    1520 00000339 9744          MOV       *-SP[4],AH            ; |653| 
    1521 0000033a 8AA3          MOVL      XAR4,XAR3             ; |653| 
    1522 0000033b 59A8          MOVZ      AR1,AH                ; |653| 
    1523 0000033c 9645          MOV       *-SP[5],AL            ; |653| 
    1524 0000033d 7640!         LCR       #_sprintf             ; |653| 
         0000033e 0000 
    1525                      ; call occurs [#_sprintf] ; |653| 
    1526 0000033f 8AA3          MOVL      XAR4,XAR3             ; |653| 
    1527 00000340 7640!         LCR       #_DebugStringOut      ; |653| 
         00000341 0000 
    1528                      ; call occurs [#_DebugStringOut] ; |653| 
    1529 00000342 8F00-         MOVL      XAR4,#_bitalarmlist   ; |654| 
         00000343 005C 
    1530 00000344 A8A9          MOVL      ACC,XAR4              ; |654| 
    1531 00000345 0DA2          ADDU      ACC,AR2               ; |654| 
    1532 00000346 86A9          MOVL      XAR2,ACC              ; |654| 
    1533 00000347 92C2          MOV       AL,*+XAR2[0]          ; |654| 
    1534 00000348 93A1          MOV       AH,AR1                ; |654| 
    1535 00000349 7640!         LCR       #_BitClear            ; |654| 
         0000034a 0000 
    1536                      ; call occurs [#_BitClear] ; |654| 
    1537 0000034b 96C2          MOV       *+XAR2[0],AL          ; |654| 
    1538 0000034c 7640!         LCR       #_WriteAlarmListtoNVMEM ; |655| 
         0000034d 0000 
    1539                      ; call occurs [#_WriteAlarmListtoNVMEM] ; |655| 
    1540 0000034e       L46:    
    1541 0000034e FE86          SUBB      SP,#6
    1542 0000034f 82BE          MOVL      XAR3,*--SP
    1543 00000350 86BE          MOVL      XAR2,*--SP
    1544 00000351 8BBE          MOVL      XAR1,*--SP
    1545                      .dwpsn  "alarms.c",660,1
    1546 00000352 0006          LRETR
    1547                      ; return occurs
    1548                      .dwattr DW$77, DW_AT_end_file("alarms.c")
    1549                      .dwattr DW$77, DW_AT_end_line(0x294)
    1550                      .dwattr DW$77, DW_AT_end_column(0x01)
    1551                      .dwendtag DW$77
    1552              
    1553 00000353               .sect   ".text"
    1554                      .global _bitEventIncrement
    1555              
    1556              DW$79   .dwtag  DW_TAG_subprogram, DW_AT_name("bitEventIncrement"), DW_AT_symbol_name("_bitEventIncrement")
    1557                      .dwattr DW$79, DW_AT_low_pc(_bitEventIncrement)
    1558                      .dwattr DW$79, DW_AT_high_pc(0x00)
    1559                      .dwattr DW$79, DW_AT_begin_file("alarms.c")
    1560                      .dwattr DW$79, DW_AT_begin_line(0x2f8)
    1561                      .dwattr DW$79, DW_AT_begin_column(0x06)
    1562                      .dwattr DW$79, DW_AT_frame_base[DW_OP_breg20 -2]
    1563                      .dwattr DW$79, DW_AT_skeletal(0x01)
    1564                      .dwpsn  "alarms.c",760,30
    1565              
    1566              ;***************************************************************
    1567              ;* FNAME: _bitEventIncrement            FR SIZE:   0           *
    1568              ;*                                                             *
    1569              ;* FUNCTION ENVIRONMENT                                        *
TMS320C2000 COFF Assembler PC v4.1.3 Thu Aug 18 12:16:06 2016

Tools Copyright (c) 1996-2006 Texas Instruments Incorporated
alarms.asm                                                           PAGE   34

    1570              ;*                                                             *
    1571              ;* FUNCTION PROPERTIES                                         *
    1572              ;*                            0 Parameter,  0 Auto,  0 SOE     *
    1573              ;***************************************************************
    1574              
    1575 00000353       _bitEventIncrement:
    1576 00000353 761F!         MOVW      DP,#_timers+71
         00000354 0001 
    1577 00000355 9207!         MOV       AL,@_timers+71        ; |764| 
    1578 00000356 ED21          BF        L49,NEQ               ; |764| 
    1579                      ; branchcc occurs ; |764| 
    1580 00000357 761F!         MOVW      DP,#_timers+71
         00000358 0001 
    1581 00000359 2807!         MOV       @_timers+71,#2000     ; |766| 
         0000035a 07D0 
    1582 0000035b 761F-         MOVW      DP,#_biteventpos
         0000035c 0000 
    1583 0000035d 0A39-         INC       @_biteventpos         ; |767| 
    1584 0000035e 761F-         MOVW      DP,#_biteventpos
         0000035f 0000 
    1585 00000360 9239-         MOV       AL,@_biteventpos      ; |767| 
    1586 00000361 5203          CMPB      AL,#3                 ; |767| 
    1587 00000362 ED04          BF        L47,NEQ               ; |767| 
    1588                      ; branchcc occurs ; |767| 
    1589 00000363 761F-         MOVW      DP,#_biteventpos
         00000364 0000 
    1590 00000365 2B39-         MOV       @_biteventpos,#0      ; |769| 
    1591 00000366       L47:    
    1592 00000366 28AC          MOV       T,#3                  ; |772| 
         00000367 0003 
    1593                      .dwpsn  "alarms.c",771,0
    1594 00000368 D400          MOVB      XAR4,#0
    1595 00000369       L48:    
    1596 00000369       DW$L$_bitEventIncrement$5$B:
    1597 00000369 30A4          MPYXU     ACC,T,AR4             ; |772| 
    1598 0000036a 761F-         MOVW      DP,#_biteventpos
         0000036b 0000 
    1599 0000036c 8F40-         MOVL      XAR5,#_biteventlist   ; |772| 
         0000036d 0080 
    1600 0000036e 0D39-         ADDU      ACC,@_biteventpos     ; |772| 
    1601 0000036f 5601          ADDL      XAR5,ACC
         00000370 00A5 
    1602 00000371 DC01          ADDB      XAR4,#1               ; |771| 
    1603 00000372 92A4          MOV       AL,AR4                ; |771| 
    1604 00000373 5210          CMPB      AL,#16                ; |771| 
    1605 00000374 2BC5          MOV       *+XAR5[0],#0          ; |772| 
    1606                      .dwpsn  "alarms.c",773,0
    1607 00000375 56C8          BF        L48,LO                ; |771| 
         00000376 FFF4 
    1608                      ; branchcc occurs ; |771| 
    1609              DW$L$_bitEventIncrement$5$E:
    1610              L49:    
    1611                      .dwpsn  "alarms.c",777,1
    1612 00000377 0006          LRETR
    1613                      ; return occurs
TMS320C2000 COFF Assembler PC v4.1.3 Thu Aug 18 12:16:06 2016

Tools Copyright (c) 1996-2006 Texas Instruments Incorporated
alarms.asm                                                           PAGE   35

    1614              
    1615              DW$80   .dwtag  DW_TAG_loop
    1616                      .dwattr DW$80, DW_AT_name("D:\DEV\Amot\BearingWear\XTSW_V6_20\alarms.asm:L48:1:1471518966")
    1617                      .dwattr DW$80, DW_AT_begin_file("alarms.c")
    1618                      .dwattr DW$80, DW_AT_begin_line(0x303)
    1619                      .dwattr DW$80, DW_AT_end_line(0x305)
    1620              DW$81   .dwtag  DW_TAG_loop_range
    1621                      .dwattr DW$81, DW_AT_low_pc(DW$L$_bitEventIncrement$5$B)
    1622                      .dwattr DW$81, DW_AT_high_pc(DW$L$_bitEventIncrement$5$E)
    1623                      .dwendtag DW$80
    1624              
    1625                      .dwattr DW$79, DW_AT_end_file("alarms.c")
    1626                      .dwattr DW$79, DW_AT_end_line(0x309)
    1627                      .dwattr DW$79, DW_AT_end_column(0x01)
    1628                      .dwendtag DW$79
    1629              
    1630 00000378               .sect   ".text"
    1631                      .global _SetBitEvent
    1632              
    1633              DW$82   .dwtag  DW_TAG_subprogram, DW_AT_name("SetBitEvent"), DW_AT_symbol_name("_SetBitEvent")
    1634                      .dwattr DW$82, DW_AT_low_pc(_SetBitEvent)
    1635                      .dwattr DW$82, DW_AT_high_pc(0x00)
    1636                      .dwattr DW$82, DW_AT_begin_file("alarms.c")
    1637                      .dwattr DW$82, DW_AT_begin_line(0x30b)
    1638                      .dwattr DW$82, DW_AT_begin_column(0x06)
    1639                      .dwattr DW$82, DW_AT_frame_base[DW_OP_breg20 -14]
    1640                      .dwattr DW$82, DW_AT_skeletal(0x01)
    1641                      .dwpsn  "alarms.c",780,1
    1642              
    1643              ;***************************************************************
    1644              ;* FNAME: _SetBitEvent                  FR SIZE:  12           *
    1645              ;*                                                             *
    1646              ;* FUNCTION ENVIRONMENT                                        *
    1647              ;*                                                             *
    1648              ;* FUNCTION PROPERTIES                                         *
    1649              ;*                            5 Parameter,  0 Auto,  6 SOE     *
    1650              ;***************************************************************
    1651              
    1652              _SetBitEvent:
    1653              ;* AL    assigned to _index
    1654              DW$83   .dwtag  DW_TAG_formal_parameter, DW_AT_name("index"), DW_AT_symbol_name("_index")
    1655                      .dwattr DW$83, DW_AT_type(*DW$T$11)
    1656                      .dwattr DW$83, DW_AT_location[DW_OP_reg0]
    1657 00000378 B2BD          MOVL      *SP++,XAR1
    1658 00000379 CDA9          AND       AH,AL,#0x000f         ; |787| 
         0000037a 000F 
    1659 0000037b AABD          MOVL      *SP++,XAR2
    1660 0000037c A2BD          MOVL      *SP++,XAR3
    1661 0000037d 5AA8          MOVZ      AR2,AH                ; |787| 
    1662 0000037e FE06          ADDB      SP,#6
    1663 0000037f 8F00+         MOVL      XAR4,#FSL4            ; |787| 
         00000380 0056 
    1664 00000381 93A9          MOV       AH,AL                 ; |787| 
    1665 00000382 FFD3          LSR       AH,4                  ; |787| 
    1666 00000383 A842          MOVL      *-SP[2],XAR4          ; |787| 
TMS320C2000 COFF Assembler PC v4.1.3 Thu Aug 18 12:16:06 2016

Tools Copyright (c) 1996-2006 Texas Instruments Incorporated
alarms.asm                                                           PAGE   36

    1667 00000384 8DC0!         MOVL      XAR3,#_stringbuffer   ; |787| 
         00000385 0000 
    1668 00000386 9743          MOV       *-SP[3],AH            ; |787| 
    1669 00000387 59A8          MOVZ      AR1,AH                ; |787| 
    1670 00000388 8AA3          MOVL      XAR4,XAR3             ; |787| 
    1671 00000389 7A44          MOV       *-SP[4],AR2           ; |787| 
    1672 0000038a 9645          MOV       *-SP[5],AL            ; |787| 
    1673 0000038b 7640!         LCR       #_sprintf             ; |787| 
         0000038c 0000 
    1674                      ; call occurs [#_sprintf] ; |787| 
    1675 0000038d 8AA3          MOVL      XAR4,XAR3             ; |787| 
    1676 0000038e 7640!         LCR       #_DebugStringOut      ; |787| 
         0000038f 0000 
    1677                      ; call occurs [#_DebugStringOut] ; |787| 
    1678 00000390 92A1          MOV       AL,AR1                ; |787| 
    1679 00000391 5210          CMPB      AL,#16                ; |789| 
    1680 00000392 56C7          BF        L50,HIS               ; |789| 
         00000393 001B 
    1681                      ; branchcc occurs ; |789| 
    1682 00000394 28AC          MOV       T,#3                  ; |790| 
         00000395 0003 
    1683 00000396 8DC0-         MOVL      XAR3,#_biteventlist   ; |790| 
         00000397 0080 
    1684 00000398 30A1          MPYXU     ACC,T,AR1             ; |790| 
    1685 00000399 8BA9          MOVL      XAR1,ACC              ; |790| 
    1686 0000039a 8AA3          MOVL      XAR4,XAR3             ; |790| 
    1687 0000039b 761F-         MOVW      DP,#_biteventpos
         0000039c 0000 
    1688 0000039d 0E39-         MOVU      ACC,@_biteventpos
    1689 0000039e 07A1          ADDL      ACC,XAR1
    1690 0000039f 5601          ADDL      XAR4,ACC
         000003a0 00A4 
    1691 000003a1 92C4          MOV       AL,*+XAR4[0]          ; |790| 
    1692 000003a2 93A2          MOV       AH,AR2                ; |790| 
    1693 000003a3 7640!         LCR       #_BitSet              ; |790| 
         000003a4 0000 
    1694                      ; call occurs [#_BitSet] ; |790| 
    1695 000003a5 761F-         MOVW      DP,#_biteventpos
         000003a6 0000 
    1696 000003a7 88A9          MOVZ      AR6,AL                ; |790| 
    1697 000003a8 0E39-         MOVU      ACC,@_biteventpos
    1698 000003a9 07A1          ADDL      ACC,XAR1
    1699 000003aa 5601          ADDL      XAR3,ACC
         000003ab 00A3 
    1700 000003ac 7EC3          MOV       *+XAR3[0],AR6         ; |790| 
    1701 000003ad       L50:    
    1702 000003ad FE86          SUBB      SP,#6
    1703 000003ae 82BE          MOVL      XAR3,*--SP
    1704 000003af 86BE          MOVL      XAR2,*--SP
    1705 000003b0 8BBE          MOVL      XAR1,*--SP
    1706                      .dwpsn  "alarms.c",793,1
    1707 000003b1 0006          LRETR
    1708                      ; return occurs
    1709                      .dwattr DW$82, DW_AT_end_file("alarms.c")
    1710                      .dwattr DW$82, DW_AT_end_line(0x319)
TMS320C2000 COFF Assembler PC v4.1.3 Thu Aug 18 12:16:06 2016

Tools Copyright (c) 1996-2006 Texas Instruments Incorporated
alarms.asm                                                           PAGE   37

    1711                      .dwattr DW$82, DW_AT_end_column(0x01)
    1712                      .dwendtag DW$82
    1713              
    1714 000003b2               .sect   ".text"
    1715                      .global _ClearBitEvent
    1716              
    1717              DW$84   .dwtag  DW_TAG_subprogram, DW_AT_name("ClearBitEvent"), DW_AT_symbol_name("_ClearBitEvent")
    1718                      .dwattr DW$84, DW_AT_low_pc(_ClearBitEvent)
    1719                      .dwattr DW$84, DW_AT_high_pc(0x00)
    1720                      .dwattr DW$84, DW_AT_begin_file("alarms.c")
    1721                      .dwattr DW$84, DW_AT_begin_line(0x31b)
    1722                      .dwattr DW$84, DW_AT_begin_column(0x06)
    1723                      .dwattr DW$84, DW_AT_frame_base[DW_OP_breg20 -14]
    1724                      .dwattr DW$84, DW_AT_skeletal(0x01)
    1725                      .dwpsn  "alarms.c",796,1
    1726              
    1727              ;***************************************************************
    1728              ;* FNAME: _ClearBitEvent                FR SIZE:  12           *
    1729              ;*                                                             *
    1730              ;* FUNCTION ENVIRONMENT                                        *
    1731              ;*                                                             *
    1732              ;* FUNCTION PROPERTIES                                         *
    1733              ;*                            5 Parameter,  0 Auto,  6 SOE     *
    1734              ;***************************************************************
    1735              
    1736              _ClearBitEvent:
    1737              ;* AL    assigned to _index
    1738              DW$85   .dwtag  DW_TAG_formal_parameter, DW_AT_name("index"), DW_AT_symbol_name("_index")
    1739                      .dwattr DW$85, DW_AT_type(*DW$T$11)
    1740                      .dwattr DW$85, DW_AT_location[DW_OP_reg0]
    1741 000003b2 B2BD          MOVL      *SP++,XAR1
    1742 000003b3 CDA9          AND       AH,AL,#0x000f         ; |803| 
         000003b4 000F 
    1743 000003b5 AABD          MOVL      *SP++,XAR2
    1744 000003b6 A2BD          MOVL      *SP++,XAR3
    1745 000003b7 5AA8          MOVZ      AR2,AH                ; |803| 
    1746 000003b8 FE06          ADDB      SP,#6
    1747 000003b9 8F00+         MOVL      XAR4,#FSL5            ; |803| 
         000003ba 006E 
    1748 000003bb 93A9          MOV       AH,AL                 ; |803| 
    1749 000003bc FFD3          LSR       AH,4                  ; |803| 
    1750 000003bd A842          MOVL      *-SP[2],XAR4          ; |803| 
    1751 000003be 8DC0!         MOVL      XAR3,#_stringbuffer   ; |803| 
         000003bf 0000 
    1752 000003c0 9743          MOV       *-SP[3],AH            ; |803| 
    1753 000003c1 59A8          MOVZ      AR1,AH                ; |803| 
    1754 000003c2 8AA3          MOVL      XAR4,XAR3             ; |803| 
    1755 000003c3 7A44          MOV       *-SP[4],AR2           ; |803| 
    1756 000003c4 9645          MOV       *-SP[5],AL            ; |803| 
    1757 000003c5 7640!         LCR       #_sprintf             ; |803| 
         000003c6 0000 
    1758                      ; call occurs [#_sprintf] ; |803| 
    1759 000003c7 8AA3          MOVL      XAR4,XAR3             ; |803| 
    1760 000003c8 7640!         LCR       #_DebugStringOut      ; |803| 
         000003c9 0000 
TMS320C2000 COFF Assembler PC v4.1.3 Thu Aug 18 12:16:06 2016

Tools Copyright (c) 1996-2006 Texas Instruments Incorporated
alarms.asm                                                           PAGE   38

    1761                      ; call occurs [#_DebugStringOut] ; |803| 
    1762 000003ca 92A1          MOV       AL,AR1                ; |803| 
    1763 000003cb 5210          CMPB      AL,#16                ; |805| 
    1764 000003cc 56C7          BF        L51,HIS               ; |805| 
         000003cd 001B 
    1765                      ; branchcc occurs ; |805| 
    1766 000003ce 28AC          MOV       T,#3                  ; |806| 
         000003cf 0003 
    1767 000003d0 8DC0-         MOVL      XAR3,#_biteventlist   ; |806| 
         000003d1 0080 
    1768 000003d2 30A1          MPYXU     ACC,T,AR1             ; |806| 
    1769 000003d3 8BA9          MOVL      XAR1,ACC              ; |806| 
    1770 000003d4 8AA3          MOVL      XAR4,XAR3             ; |806| 
    1771 000003d5 761F-         MOVW      DP,#_biteventpos
         000003d6 0000 
    1772 000003d7 0E39-         MOVU      ACC,@_biteventpos
    1773 000003d8 07A1          ADDL      ACC,XAR1
    1774 000003d9 5601          ADDL      XAR4,ACC
         000003da 00A4 
    1775 000003db 92C4          MOV       AL,*+XAR4[0]          ; |806| 
    1776 000003dc 93A2          MOV       AH,AR2                ; |806| 
    1777 000003dd 7640!         LCR       #_BitClear            ; |806| 
         000003de 0000 
    1778                      ; call occurs [#_BitClear] ; |806| 
    1779 000003df 761F-         MOVW      DP,#_biteventpos
         000003e0 0000 
    1780 000003e1 88A9          MOVZ      AR6,AL                ; |806| 
    1781 000003e2 0E39-         MOVU      ACC,@_biteventpos
    1782 000003e3 07A1          ADDL      ACC,XAR1
    1783 000003e4 5601          ADDL      XAR3,ACC
         000003e5 00A3 
    1784 000003e6 7EC3          MOV       *+XAR3[0],AR6         ; |806| 
    1785 000003e7       L51:    
    1786 000003e7 FE86          SUBB      SP,#6
    1787 000003e8 82BE          MOVL      XAR3,*--SP
    1788 000003e9 86BE          MOVL      XAR2,*--SP
    1789 000003ea 8BBE          MOVL      XAR1,*--SP
    1790                      .dwpsn  "alarms.c",809,1
    1791 000003eb 0006          LRETR
    1792                      ; return occurs
    1793                      .dwattr DW$84, DW_AT_end_file("alarms.c")
    1794                      .dwattr DW$84, DW_AT_end_line(0x329)
    1795                      .dwattr DW$84, DW_AT_end_column(0x01)
    1796                      .dwendtag DW$84
    1797              
    1798 000003ec               .sect   ".text"
    1799                      .global _BitEventCompiled
    1800              
    1801              DW$86   .dwtag  DW_TAG_subprogram, DW_AT_name("BitEventCompiled"), DW_AT_symbol_name("_BitEventCompiled")
    1802                      .dwattr DW$86, DW_AT_low_pc(_BitEventCompiled)
    1803                      .dwattr DW$86, DW_AT_high_pc(0x00)
    1804                      .dwattr DW$86, DW_AT_begin_file("alarms.c")
    1805                      .dwattr DW$86, DW_AT_begin_line(0x32c)
    1806                      .dwattr DW$86, DW_AT_begin_column(0x0e)
    1807                      .dwattr DW$86, DW_AT_frame_base[DW_OP_breg20 -2]
TMS320C2000 COFF Assembler PC v4.1.3 Thu Aug 18 12:16:06 2016

Tools Copyright (c) 1996-2006 Texas Instruments Incorporated
alarms.asm                                                           PAGE   39

    1808                      .dwattr DW$86, DW_AT_skeletal(0x01)
    1809                      .dwpsn  "alarms.c",812,51
    1810              
    1811              ;***************************************************************
    1812              ;* FNAME: _BitEventCompiled             FR SIZE:   0           *
    1813              ;*                                                             *
    1814              ;* FUNCTION ENVIRONMENT                                        *
    1815              ;*                                                             *
    1816              ;* FUNCTION PROPERTIES                                         *
    1817              ;*                            0 Parameter,  0 Auto,  0 SOE     *
    1818              ;***************************************************************
    1819              
    1820              _BitEventCompiled:
    1821              ;* AL    assigned to _index
    1822              DW$87   .dwtag  DW_TAG_formal_parameter, DW_AT_name("index"), DW_AT_symbol_name("_index")
    1823                      .dwattr DW$87, DW_AT_type(*DW$T$11)
    1824                      .dwattr DW$87, DW_AT_location[DW_OP_reg0]
    1825 000003ec 5210          CMPB      AL,#16                ; |814| 
    1826 000003ed 56C7          BF        L52,HIS               ; |814| 
         000003ee 000E 
    1827                      ; branchcc occurs ; |814| 
    1828 000003ef 28AC          MOV       T,#3                  ; |815| 
         000003f0 0003 
    1829 000003f1 30A9          MPYXU     ACC,T,AL              ; |815| 
    1830 000003f2 8F00-         MOVL      XAR4,#_biteventlist   ; |815| 
         000003f3 0080 
    1831 000003f4 5601          ADDL      XAR4,ACC
         000003f5 00A4 
    1832 000003f6 92CC          MOV       AL,*+XAR4[1]          ; |815| 
    1833 000003f7 CAC4          OR        AL,*+XAR4[0]          ; |815| 
    1834 000003f8 CAD4          OR        AL,*+XAR4[2]          ; |815| 
    1835 000003f9 56CF          BF        L53,UNC               ; |815| 
         000003fa 0003 
    1836                      ; branch occurs ; |815| 
    1837 000003fb       L52:    
    1838 000003fb 9A00          MOVB      AL,#0
    1839              L53:    
    1840                      .dwpsn  "alarms.c",819,1
    1841 000003fc 0006          LRETR
    1842                      ; return occurs
    1843                      .dwattr DW$86, DW_AT_end_file("alarms.c")
    1844                      .dwattr DW$86, DW_AT_end_line(0x333)
    1845                      .dwattr DW$86, DW_AT_end_column(0x01)
    1846                      .dwendtag DW$86
    1847              
    1848 000003fd               .sect   ".text"
    1849                      .global _BearingStatus
    1850              
    1851              DW$88   .dwtag  DW_TAG_subprogram, DW_AT_name("BearingStatus"), DW_AT_symbol_name("_BearingStatus")
    1852                      .dwattr DW$88, DW_AT_low_pc(_BearingStatus)
    1853                      .dwattr DW$88, DW_AT_high_pc(0x00)
    1854                      .dwattr DW$88, DW_AT_begin_file("alarms.c")
    1855                      .dwattr DW$88, DW_AT_begin_line(0x338)
    1856                      .dwattr DW$88, DW_AT_begin_column(0x06)
    1857                      .dwattr DW$88, DW_AT_frame_base[DW_OP_breg20 -10]
TMS320C2000 COFF Assembler PC v4.1.3 Thu Aug 18 12:16:06 2016

Tools Copyright (c) 1996-2006 Texas Instruments Incorporated
alarms.asm                                                           PAGE   40

    1858                      .dwattr DW$88, DW_AT_skeletal(0x01)
    1859                      .dwpsn  "alarms.c",824,26
    1860              
    1861              ;***************************************************************
    1862              ;* FNAME: _BearingStatus                FR SIZE:   8           *
    1863              ;*                                                             *
    1864              ;* FUNCTION ENVIRONMENT                                        *
    1865              ;*                                                             *
    1866              ;* FUNCTION PROPERTIES                                         *
    1867              ;*                            0 Parameter,  1 Auto,  6 SOE     *
    1868              ;***************************************************************
    1869              
    1870 000003fd       _BearingStatus:
    1871 000003fd B2BD          MOVL      *SP++,XAR1
    1872 000003fe AABD          MOVL      *SP++,XAR2
    1873 000003ff A2BD          MOVL      *SP++,XAR3
    1874 00000400 FE02          ADDB      SP,#2
    1875                      .dwpsn  "alarms.c",846,0
    1876 00000401 D200          MOVB      XAR2,#0
    1877 00000402       L54:    
    1878 00000402       DW$L$_BearingStatus$2$B:
    1879 00000402 5603          MOV       ACC,AR2 << #1         ; |848| 
         00000403 01A2 
    1880 00000404 3B01          SETC      SXM
    1881 00000405 59A9          MOVZ      AR1,AL                ; |848| 
    1882 00000406 8F00-         MOVL      XAR4,#_bearingstatus+30 ; |850| 
         00000407 00DE 
    1883 00000408 92A2          MOV       AL,AR2                ; |848| 
    1884 00000409 85A9          MOV       ACC,AL                ; |850| 
    1885 0000040a 5601          ADDL      XAR4,ACC
         0000040b 00A4 
    1886 0000040c 2DA2          MOV       T,AR2                 ; |850| 
    1887 0000040d 83A4          MOVL      XAR5,XAR4             ; |850| 
    1888 0000040e 3524          MPYB      ACC,T,#36             ; |853| 
    1889 0000040f 8F00!         MOVL      XAR4,#_sensor         ; |853| 
         00000410 0000 
    1890 00000411 5601          ADDL      XAR4,ACC
         00000412 00A4 
    1891 00000413 2BC5          MOV       *+XAR5[0],#0          ; |850| 
    1892 00000414 40CC          TBIT      *+XAR4[1],#0          ; |853| 
    1893 00000415 EF06          BF        L55,NTC               ; |853| 
    1894                      ; branchcc occurs ; |853| 
    1895 00000416       DW$L$_BearingStatus$2$E:
    1896 00000416       DW$L$_BearingStatus$3$B:
    1897 00000416 D013          MOVB      XAR0,#19              ; |853| 
    1898 00000417 4094          TBIT      *+XAR4[AR0],#0        ; |853| 
    1899 00000418 EF03          BF        L55,NTC               ; |853| 
    1900                      ; branchcc occurs ; |853| 
    1901 00000419       DW$L$_BearingStatus$3$E:
    1902 00000419       DW$L$_BearingStatus$4$B:
    1903 00000419 28C5          MOV       *+XAR5[0],#32         ; |854| 
         0000041a 0020 
    1904 0000041b       DW$L$_BearingStatus$4$E:
    1905 0000041b       L55:    
    1906 0000041b       DW$L$_BearingStatus$5$B:
TMS320C2000 COFF Assembler PC v4.1.3 Thu Aug 18 12:16:06 2016

Tools Copyright (c) 1996-2006 Texas Instruments Incorporated
alarms.asm                                                           PAGE   41

    1907 0000041b 2DA1          MOV       T,AR1
    1908 0000041c 8F00!         MOVL      XAR4,#_sensor         ; |858| 
         0000041d 0000 
    1909 0000041e 3512          MPYB      ACC,T,#18             ; |858| 
    1910 0000041f 5601          ADDL      XAR4,ACC
         00000420 00A4 
    1911 00000421 92CC          MOV       AL,*+XAR4[1]          ; |858| 
    1912 00000422 CDA9          AND       AH,AL,#0x0010         ; |858| 
         00000423 0010 
    1913 00000424 ED13          BF        L56,NEQ               ; |858| 
    1914                      ; branchcc occurs ; |858| 
    1915 00000425       DW$L$_BearingStatus$5$E:
    1916 00000425       DW$L$_BearingStatus$6$B:
    1917 00000425 D013          MOVB      XAR0,#19              ; |858| 
    1918 00000426 8894          MOVZ      AR6,*+XAR4[AR0]       ; |858| 
    1919 00000427 CDA6          AND       AH,AR6,#0x0010        ; |858| 
         00000428 0010 
    1920 00000429 9040          ANDB      AL,#64                ; |858| 
    1921 0000042a CAA8          OR        AL,AH                 ; |858| 
    1922 0000042b ED0C          BF        L56,NEQ               ; |858| 
    1923                      ; branchcc occurs ; |858| 
    1924 0000042c       DW$L$_BearingStatus$6$E:
    1925 0000042c       DW$L$_BearingStatus$7$B:
    1926 0000042c CCA6          AND       AL,AR6,#0x0040        ; |858| 
         0000042d 0040 
    1927 0000042e ED09          BF        L56,NEQ               ; |858| 
    1928                      ; branchcc occurs ; |858| 
    1929 0000042f       DW$L$_BearingStatus$7$E:
    1930 0000042f       DW$L$_BearingStatus$8$B:
    1931 0000042f 5603          MOV       ACC,AR2 << 2          ; |858| 
         00000430 02A2 
    1932 00000431 8F00!         MOVL      XAR4,#_cylinders+1    ; |858| 
         00000432 0001 
    1933 00000433 5601          ADDL      XAR4,ACC
         00000434 00A4 
    1934 00000435 40C4          TBIT      *+XAR4[0],#0          ; |858| 
    1935 00000436 EF09          BF        L57,NTC               ; |858| 
    1936                      ; branchcc occurs ; |858| 
    1937 00000437       DW$L$_BearingStatus$8$E:
    1938 00000437       L56:    
    1939 00000437       DW$L$_BearingStatus$9$B:
    1940 00000437 92A2          MOV       AL,AR2
    1941 00000438 8F00-         MOVL      XAR4,#_bearingstatus+30 ; |862| 
         00000439 00DE 
    1942 0000043a 85A9          MOV       ACC,AL                ; |862| 
    1943 0000043b 5601          ADDL      XAR4,ACC
         0000043c 00A4 
    1944 0000043d 28C4          MOV       *+XAR4[0],#1          ; |862| 
         0000043e 0001 
    1945 0000043f       DW$L$_BearingStatus$9$E:
    1946 0000043f       L57:    
    1947 0000043f       DW$L$_BearingStatus$10$B:
    1948 0000043f 3512          MPYB      ACC,T,#18             ; |866| 
    1949 00000440 8F00!         MOVL      XAR4,#_sensor         ; |866| 
         00000441 0000 
TMS320C2000 COFF Assembler PC v4.1.3 Thu Aug 18 12:16:06 2016

Tools Copyright (c) 1996-2006 Texas Instruments Incorporated
alarms.asm                                                           PAGE   42

    1950 00000442 5601          ADDL      XAR4,ACC
         00000443 00A4 
    1951 00000444 92CC          MOV       AL,*+XAR4[1]          ; |866| 
    1952 00000445 CDA9          AND       AH,AL,#0x0004         ; |866| 
         00000446 0004 
    1953 00000447 ED1F          BF        L58,NEQ               ; |866| 
    1954                      ; branchcc occurs ; |866| 
    1955 00000448       DW$L$_BearingStatus$10$E:
    1956 00000448       DW$L$_BearingStatus$11$B:
    1957 00000448 D013          MOVB      XAR0,#19              ; |866| 
    1958 00000449 8894          MOVZ      AR6,*+XAR4[AR0]       ; |866| 
    1959 0000044a CCA9          AND       AL,AL,#0x0100         ; |866| 
         0000044b 0100 
    1960 0000044c CDA6          AND       AH,AR6,#0x0004        ; |866| 
         0000044d 0004 
    1961 0000044e CAA8          OR        AL,AH                 ; |866| 
    1962 0000044f CDA6          AND       AH,AR6,#0x0100        ; |866| 
         00000450 0100 
    1963 00000451 CBA9          OR        AH,AL                 ; |866| 
    1964 00000452 ED14          BF        L58,NEQ               ; |866| 
    1965                      ; branchcc occurs ; |866| 
    1966 00000453       DW$L$_BearingStatus$11$E:
    1967 00000453       DW$L$_BearingStatus$12$B:
    1968 00000453 92A1          MOV       AL,AR1
    1969 00000454 7640'         LCR       #_CheckDMSingleBitSet ; |866| 
         00000455 059F 
    1970                      ; call occurs [#_CheckDMSingleBitSet] ; |866| 
    1971 00000456 5200          CMPB      AL,#0                 ; |866| 
    1972 00000457 ED0F          BF        L58,NEQ               ; |866| 
    1973                      ; branchcc occurs ; |866| 
    1974 00000458       DW$L$_BearingStatus$12$E:
    1975 00000458       DW$L$_BearingStatus$13$B:
    1976 00000458 9A01          MOVB      AL,#1                 ; |866| 
    1977 00000459 94A1          ADD       AL,AR1                ; |866| 
    1978 0000045a 7640'         LCR       #_CheckDMSingleBitSet ; |866| 
         0000045b 059F 
    1979                      ; call occurs [#_CheckDMSingleBitSet] ; |866| 
    1980 0000045c 5200          CMPB      AL,#0                 ; |866| 
    1981 0000045d ED09          BF        L58,NEQ               ; |866| 
    1982                      ; branchcc occurs ; |866| 
    1983 0000045e       DW$L$_BearingStatus$13$E:
    1984 0000045e       DW$L$_BearingStatus$14$B:
    1985 0000045e 761F!         MOVW      DP,#_damalarms+2
         0000045f 0000 
    1986 00000460 9202!         MOV       AL,@_damalarms+2      ; |866| 
    1987 00000461 93A2          MOV       AH,AR2                ; |866| 
    1988 00000462 7640!         LCR       #_CheckBitSet         ; |866| 
         00000463 0000 
    1989                      ; call occurs [#_CheckBitSet] ; |866| 
    1990 00000464 5200          CMPB      AL,#0                 ; |866| 
    1991 00000465 EC0A          BF        L59,EQ                ; |866| 
    1992                      ; branchcc occurs ; |866| 
    1993 00000466       DW$L$_BearingStatus$14$E:
    1994 00000466       L58:    
    1995 00000466       DW$L$_BearingStatus$15$B:
TMS320C2000 COFF Assembler PC v4.1.3 Thu Aug 18 12:16:06 2016

Tools Copyright (c) 1996-2006 Texas Instruments Incorporated
alarms.asm                                                           PAGE   43

    1996 00000466 3B01          SETC      SXM
    1997 00000467 92A2          MOV       AL,AR2
    1998 00000468 8F00-         MOVL      XAR4,#_bearingstatus+30 ; |871| 
         00000469 00DE 
    1999 0000046a 85A9          MOV       ACC,AL                ; |871| 
    2000 0000046b 5601          ADDL      XAR4,ACC
         0000046c 00A4 
    2001 0000046d 28C4          MOV       *+XAR4[0],#2          ; |871| 
         0000046e 0002 
    2002 0000046f       DW$L$_BearingStatus$15$E:
    2003 0000046f       L59:    
    2004 0000046f       DW$L$_BearingStatus$16$B:
    2005 0000046f 2DA1          MOV       T,AR1
    2006 00000470 8F00!         MOVL      XAR4,#_sensor         ; |875| 
         00000471 0000 
    2007 00000472 3512          MPYB      ACC,T,#18             ; |875| 
    2008 00000473 5601          ADDL      XAR4,ACC
         00000474 00A4 
    2009 00000475 40C4          TBIT      *+XAR4[0],#0          ; |875| 
    2010 00000476 EE0D          BF        L60,TC                ; |875| 
    2011                      ; branchcc occurs ; |875| 
    2012 00000477       DW$L$_BearingStatus$16$E:
    2013 00000477       DW$L$_BearingStatus$17$B:
    2014 00000477 D012          MOVB      XAR0,#18              ; |875| 
    2015 00000478 4094          TBIT      *+XAR4[AR0],#0        ; |875| 
    2016 00000479 EE0A          BF        L60,TC                ; |875| 
    2017                      ; branchcc occurs ; |875| 
    2018 0000047a       DW$L$_BearingStatus$17$E:
    2019 0000047a       DW$L$_BearingStatus$18$B:
    2020 0000047a 3B01          SETC      SXM
    2021 0000047b 92A2          MOV       AL,AR2
    2022 0000047c 8F00-         MOVL      XAR4,#_bearingstatus+30 ; |876| 
         0000047d 00DE 
    2023 0000047e 85A9          MOV       ACC,AL                ; |876| 
    2024 0000047f 5601          ADDL      XAR4,ACC
         00000480 00A4 
    2025 00000481 28C4          MOV       *+XAR4[0],#4          ; |876| 
         00000482 0004 
    2026 00000483       DW$L$_BearingStatus$18$E:
    2027 00000483       L60:    
    2028 00000483       DW$L$_BearingStatus$19$B:
    2029 00000483 3B01          SETC      SXM
    2030 00000484 92A2          MOV       AL,AR2
    2031 00000485 8F00-         MOVL      XAR4,#_bearingstatus+30 ; |880| 
         00000486 00DE 
    2032 00000487 85A9          MOV       ACC,AL                ; |880| 
    2033 00000488 5601          ADDL      XAR4,ACC
         00000489 00A4 
    2034 0000048a 92A2          MOV       AL,AR2                ; |880| 
    2035 0000048b 88C4          MOVZ      AR6,*+XAR4[0]         ; |880| 
    2036 0000048c 85A9          MOV       ACC,AL                ; |880| 
    2037 0000048d 8F00-         MOVL      XAR4,#_bearingstatus+16 ; |880| 
         0000048e 00D0 
    2038 0000048f 5601          ADDL      XAR4,ACC
         00000490 00A4 
TMS320C2000 COFF Assembler PC v4.1.3 Thu Aug 18 12:16:06 2016

Tools Copyright (c) 1996-2006 Texas Instruments Incorporated
alarms.asm                                                           PAGE   44

    2039 00000491 92A2          MOV       AL,AR2                ; |880| 
    2040 00000492 9C01          ADDB      AL,#1                 ; |846| 
    2041 00000493 5AA9          MOVZ      AR2,AL                ; |846| 
    2042 00000494 520E          CMPB      AL,#14                ; |846| 
    2043 00000495 7EC4          MOV       *+XAR4[0],AR6         ; |880| 
    2044                      .dwpsn  "alarms.c",882,0
    2045 00000496 56C4          BF        L54,LT                ; |846| 
         00000497 FF6C 
    2046                      ; branchcc occurs ; |846| 
    2047 00000498       DW$L$_BearingStatus$19$E:
    2048 00000498 761F!         MOVW      DP,#_allsensors
         00000499 0000 
    2049 0000049a 9200!         MOV       AL,@_allsensors       ; |885| 
    2050 0000049b FFC0          LSR       AL,1                  ; |885| 
    2051 0000049c 761F!         MOVW      DP,#_damagemon
         0000049d 0000 
    2052 0000049e 9641          MOV       *-SP[1],AL            ; |885| 
    2053 0000049f 9200!         MOV       AL,@_damagemon        ; |886| 
    2054 000004a0 EC02          BF        L61,EQ                ; |886| 
    2055                      ; branchcc occurs ; |886| 
    2056 000004a1 0A41          INC       *-SP[1]               ; |886| 
    2057 000004a2       L61:    
    2058 000004a2 9241          MOV       AL,*-SP[1]            ; |892| 
    2059 000004a3 D200          MOVB      XAR2,#0
    2060 000004a4 D300          MOVB      XAR3,#0
    2061 000004a5 D100          MOVB      XAR1,#0
    2062 000004a6 56C4          BF        L82,LT                ; |892| 
         000004a7 00F4 
    2063                      ; branchcc occurs ; |892| 
    2064              L62:    
    2065              DW$L$_BearingStatus$23$B:
    2066                      .dwpsn  "alarms.c",892,0
    2067 000004a8 3B01          SETC      SXM
    2068 000004a9 92A2          MOV       AL,AR2
    2069 000004aa 8F00-         MOVL      XAR4,#_bearingstatus  ; |894| 
         000004ab 00C0 
    2070 000004ac 85A9          MOV       ACC,AL                ; |894| 
    2071 000004ad 5601          ADDL      XAR4,ACC
         000004ae 00A4 
    2072 000004af 92A2          MOV       AL,AR2                ; |894| 
    2073 000004b0 2BC4          MOV       *+XAR4[0],#0          ; |894| 
    2074 000004b1 56C1          BF        L74,EQ                ; |896| 
         000004b2 0088 
    2075                      ; branchcc occurs ; |896| 
    2076 000004b3       DW$L$_BearingStatus$23$E:
    2077 000004b3       DW$L$_BearingStatus$24$B:
    2078 000004b3 9241          MOV       AL,*-SP[1]
    2079 000004b4 54A2          CMP       AL,AR2                ; |896| 
    2080 000004b5 56C1          BF        L74,EQ                ; |896| 
         000004b6 0084 
    2081                      ; branchcc occurs ; |896| 
    2082 000004b7       DW$L$_BearingStatus$24$E:
    2083 000004b7       DW$L$_BearingStatus$25$B:
    2084 000004b7 761F!         MOVW      DP,#_damagemon
         000004b8 0000 
TMS320C2000 COFF Assembler PC v4.1.3 Thu Aug 18 12:16:06 2016

Tools Copyright (c) 1996-2006 Texas Instruments Incorporated
alarms.asm                                                           PAGE   45

    2085 000004b9 9300!         MOV       AH,@_damagemon        ; |896| 
    2086 000004ba EC07          BF        L63,EQ                ; |896| 
    2087                      ; branchcc occurs ; |896| 
    2088 000004bb       DW$L$_BearingStatus$25$E:
    2089 000004bb       DW$L$_BearingStatus$26$B:
    2090 000004bb 55A2          CMP       AH,AR2                ; |896| 
    2091 000004bc EC7D          BF        L74,EQ                ; |896| 
    2092                      ; branchcc occurs ; |896| 
    2093 000004bd       DW$L$_BearingStatus$26$E:
    2094 000004bd       DW$L$_BearingStatus$27$B:
    2095 000004bd 92A2          MOV       AL,AR2
    2096 000004be 9EA8          SUB       AL,AH                 ; |896| 
    2097 000004bf 5201          CMPB      AL,#1                 ; |896| 
    2098 000004c0 EC79          BF        L74,EQ                ; |896| 
    2099                      ; branchcc occurs ; |896| 
    2100 000004c1       DW$L$_BearingStatus$27$E:
    2101 000004c1       L63:    
    2102 000004c1       DW$L$_BearingStatus$28$B:
    2103 000004c1 2DA1          MOV       T,AR1
    2104 000004c2 8F00!         MOVL      XAR4,#_sensor         ; |925| 
         000004c3 0000 
    2105 000004c4 3512          MPYB      ACC,T,#18             ; |925| 
    2106 000004c5 5601          ADDL      XAR4,ACC
         000004c6 00A4 
    2107 000004c7 40CC          TBIT      *+XAR4[1],#0          ; |925| 
    2108 000004c8 EF0C          BF        L64,NTC               ; |925| 
    2109                      ; branchcc occurs ; |925| 
    2110 000004c9       DW$L$_BearingStatus$28$E:
    2111 000004c9       DW$L$_BearingStatus$29$B:
    2112 000004c9 D013          MOVB      XAR0,#19              ; |925| 
    2113 000004ca 4094          TBIT      *+XAR4[AR0],#0        ; |925| 
    2114 000004cb EF09          BF        L64,NTC               ; |925| 
    2115                      ; branchcc occurs ; |925| 
    2116 000004cc       DW$L$_BearingStatus$29$E:
    2117 000004cc       DW$L$_BearingStatus$30$B:
    2118 000004cc 92A2          MOV       AL,AR2
    2119 000004cd 8F00-         MOVL      XAR4,#_bearingstatus  ; |926| 
         000004ce 00C0 
    2120 000004cf 85A9          MOV       ACC,AL                ; |926| 
    2121 000004d0 5601          ADDL      XAR4,ACC
         000004d1 00A4 
    2122 000004d2 28C4          MOV       *+XAR4[0],#32         ; |926| 
         000004d3 0020 
    2123 000004d4       DW$L$_BearingStatus$30$E:
    2124 000004d4       L64:    
    2125 000004d4       DW$L$_BearingStatus$31$B:
    2126 000004d4 3512          MPYB      ACC,T,#18             ; |930| 
    2127 000004d5 8F00!         MOVL      XAR4,#_sensor         ; |930| 
         000004d6 0000 
    2128 000004d7 5601          ADDL      XAR4,ACC
         000004d8 00A4 
    2129 000004d9 44CC          TBIT      *+XAR4[1],#4          ; |930| 
    2130 000004da EF04          BF        L65,NTC               ; |930| 
    2131                      ; branchcc occurs ; |930| 
    2132 000004db       DW$L$_BearingStatus$31$E:
TMS320C2000 COFF Assembler PC v4.1.3 Thu Aug 18 12:16:06 2016

Tools Copyright (c) 1996-2006 Texas Instruments Incorporated
alarms.asm                                                           PAGE   46

    2133 000004db       DW$L$_BearingStatus$32$B:
    2134 000004db D013          MOVB      XAR0,#19              ; |930| 
    2135 000004dc 4494          TBIT      *+XAR4[AR0],#4        ; |930| 
    2136 000004dd EE0B          BF        L66,TC                ; |930| 
    2137                      ; branchcc occurs ; |930| 
    2138 000004de       DW$L$_BearingStatus$32$E:
    2139 000004de       L65:    
    2140 000004de       DW$L$_BearingStatus$33$B:
    2141 000004de 3512          MPYB      ACC,T,#18             ; |930| 
    2142 000004df 8F00!         MOVL      XAR4,#_sensor         ; |930| 
         000004e0 0000 
    2143 000004e1 5601          ADDL      XAR4,ACC
         000004e2 00A4 
    2144 000004e3 46CC          TBIT      *+XAR4[1],#6          ; |930| 
    2145 000004e4 EF0C          BF        L67,NTC               ; |930| 
    2146                      ; branchcc occurs ; |930| 
    2147 000004e5       DW$L$_BearingStatus$33$E:
    2148 000004e5       DW$L$_BearingStatus$34$B:
    2149 000004e5 D013          MOVB      XAR0,#19              ; |930| 
    2150 000004e6 4694          TBIT      *+XAR4[AR0],#6        ; |930| 
    2151 000004e7 EF09          BF        L67,NTC               ; |930| 
    2152                      ; branchcc occurs ; |930| 
    2153 000004e8       DW$L$_BearingStatus$34$E:
    2154 000004e8       L66:    
    2155 000004e8       DW$L$_BearingStatus$35$B:
    2156 000004e8 92A2          MOV       AL,AR2
    2157 000004e9 8F00-         MOVL      XAR4,#_bearingstatus  ; |931| 
         000004ea 00C0 
    2158 000004eb 85A9          MOV       ACC,AL                ; |931| 
    2159 000004ec 5601          ADDL      XAR4,ACC
         000004ed 00A4 
    2160 000004ee 28C4          MOV       *+XAR4[0],#1          ; |931| 
         000004ef 0001 
    2161 000004f0       DW$L$_BearingStatus$35$E:
    2162 000004f0       L67:    
    2163 000004f0       DW$L$_BearingStatus$36$B:
    2164 000004f0 3512          MPYB      ACC,T,#18             ; |935| 
    2165 000004f1 8F00!         MOVL      XAR4,#_sensor         ; |935| 
         000004f2 0000 
    2166 000004f3 5601          ADDL      XAR4,ACC
         000004f4 00A4 
    2167 000004f5 42CC          TBIT      *+XAR4[1],#2          ; |935| 
    2168 000004f6 EF04          BF        L68,NTC               ; |935| 
    2169                      ; branchcc occurs ; |935| 
    2170 000004f7       DW$L$_BearingStatus$36$E:
    2171 000004f7       DW$L$_BearingStatus$37$B:
    2172 000004f7 D013          MOVB      XAR0,#19              ; |935| 
    2173 000004f8 4294          TBIT      *+XAR4[AR0],#2        ; |935| 
    2174 000004f9 EE1E          BF        L71,TC                ; |935| 
    2175                      ; branchcc occurs ; |935| 
    2176 000004fa       DW$L$_BearingStatus$37$E:
    2177 000004fa       L68:    
    2178 000004fa       DW$L$_BearingStatus$38$B:
    2179 000004fa 3512          MPYB      ACC,T,#18             ; |935| 
    2180 000004fb 8F00!         MOVL      XAR4,#_sensor         ; |935| 
TMS320C2000 COFF Assembler PC v4.1.3 Thu Aug 18 12:16:06 2016

Tools Copyright (c) 1996-2006 Texas Instruments Incorporated
alarms.asm                                                           PAGE   47

         000004fc 0000 
    2181 000004fd 5601          ADDL      XAR4,ACC
         000004fe 00A4 
    2182 000004ff 48CC          TBIT      *+XAR4[1],#8          ; |935| 
    2183 00000500 EF04          BF        L69,NTC               ; |935| 
    2184                      ; branchcc occurs ; |935| 
    2185 00000501       DW$L$_BearingStatus$38$E:
    2186 00000501       DW$L$_BearingStatus$39$B:
    2187 00000501 D013          MOVB      XAR0,#19              ; |935| 
    2188 00000502 4894          TBIT      *+XAR4[AR0],#8        ; |935| 
    2189 00000503 EE14          BF        L71,TC                ; |935| 
    2190                      ; branchcc occurs ; |935| 
    2191 00000504       DW$L$_BearingStatus$39$E:
    2192 00000504       L69:    
    2193 00000504       DW$L$_BearingStatus$40$B:
    2194 00000504 92A1          MOV       AL,AR1
    2195 00000505 7640'         LCR       #_CheckDMSingleBitSet ; |935| 
         00000506 059F 
    2196                      ; call occurs [#_CheckDMSingleBitSet] ; |935| 
    2197 00000507 5200          CMPB      AL,#0                 ; |935| 
    2198 00000508 EC07          BF        L70,EQ                ; |935| 
    2199                      ; branchcc occurs ; |935| 
    2200 00000509       DW$L$_BearingStatus$40$E:
    2201 00000509       DW$L$_BearingStatus$41$B:
    2202 00000509 9A01          MOVB      AL,#1                 ; |935| 
    2203 0000050a 94A1          ADD       AL,AR1                ; |935| 
    2204 0000050b 7640'         LCR       #_CheckDMSingleBitSet ; |935| 
         0000050c 059F 
    2205                      ; call occurs [#_CheckDMSingleBitSet] ; |935| 
    2206 0000050d 5200          CMPB      AL,#0                 ; |935| 
    2207 0000050e ED09          BF        L71,NEQ               ; |935| 
    2208                      ; branchcc occurs ; |935| 
    2209 0000050f       DW$L$_BearingStatus$41$E:
    2210 0000050f       L70:    
    2211 0000050f       DW$L$_BearingStatus$42$B:
    2212 0000050f 761F!         MOVW      DP,#_damalarms+3
         00000510 0000 
    2213 00000511 9203!         MOV       AL,@_damalarms+3      ; |935| 
    2214 00000512 93A3          MOV       AH,AR3                ; |935| 
    2215 00000513 7640!         LCR       #_CheckBitSet         ; |935| 
         00000514 0000 
    2216                      ; call occurs [#_CheckBitSet] ; |935| 
    2217 00000515 5200          CMPB      AL,#0                 ; |935| 
    2218 00000516 EC0A          BF        L72,EQ                ; |935| 
    2219                      ; branchcc occurs ; |935| 
    2220 00000517       DW$L$_BearingStatus$42$E:
    2221 00000517       L71:    
    2222 00000517       DW$L$_BearingStatus$43$B:
    2223 00000517 3B01          SETC      SXM
    2224 00000518 92A2          MOV       AL,AR2
    2225 00000519 8F00-         MOVL      XAR4,#_bearingstatus  ; |939| 
         0000051a 00C0 
    2226 0000051b 85A9          MOV       ACC,AL                ; |939| 
    2227 0000051c 5601          ADDL      XAR4,ACC
         0000051d 00A4 
TMS320C2000 COFF Assembler PC v4.1.3 Thu Aug 18 12:16:06 2016

Tools Copyright (c) 1996-2006 Texas Instruments Incorporated
alarms.asm                                                           PAGE   48

    2228 0000051e 28C4          MOV       *+XAR4[0],#2          ; |939| 
         0000051f 0002 
    2229 00000520       DW$L$_BearingStatus$43$E:
    2230 00000520       L72:    
    2231 00000520       DW$L$_BearingStatus$44$B:
    2232 00000520 2DA1          MOV       T,AR1
    2233 00000521 8F00!         MOVL      XAR4,#_sensor         ; |943| 
         00000522 0000 
    2234 00000523 3512          MPYB      ACC,T,#18             ; |943| 
    2235 00000524 5601          ADDL      XAR4,ACC
         00000525 00A4 
    2236 00000526 40C4          TBIT      *+XAR4[0],#0          ; |943| 
    2237 00000527 EE0D          BF        L73,TC                ; |943| 
    2238                      ; branchcc occurs ; |943| 
    2239 00000528       DW$L$_BearingStatus$44$E:
    2240 00000528       DW$L$_BearingStatus$45$B:
    2241 00000528 D012          MOVB      XAR0,#18              ; |943| 
    2242 00000529 4094          TBIT      *+XAR4[AR0],#0        ; |943| 
    2243 0000052a EE0A          BF        L73,TC                ; |943| 
    2244                      ; branchcc occurs ; |943| 
    2245 0000052b       DW$L$_BearingStatus$45$E:
    2246 0000052b       DW$L$_BearingStatus$46$B:
    2247 0000052b 3B01          SETC      SXM
    2248 0000052c 92A2          MOV       AL,AR2
    2249 0000052d 8F00-         MOVL      XAR4,#_bearingstatus  ; |944| 
         0000052e 00C0 
    2250 0000052f 85A9          MOV       ACC,AL                ; |944| 
    2251 00000530 5601          ADDL      XAR4,ACC
         00000531 00A4 
    2252 00000532 28C4          MOV       *+XAR4[0],#4          ; |944| 
         00000533 0004 
    2253 00000534       DW$L$_BearingStatus$46$E:
    2254 00000534       L73:    
    2255 00000534       DW$L$_BearingStatus$47$B:
    2256 00000534 92A1          MOV       AL,AR1
    2257 00000535 9C02          ADDB      AL,#2                 ; |947| 
    2258 00000536 59A9          MOVZ      AR1,AL                ; |947| 
    2259 00000537 56CF          BF        L80,UNC               ; |948| 
         00000538 0059 
    2260                      ; branch occurs ; |948| 
    2261 00000539       DW$L$_BearingStatus$47$E:
    2262 00000539       L74:    
    2263 00000539       DW$L$_BearingStatus$48$B:
    2264 00000539 2DA1          MOV       T,AR1
    2265 0000053a 8F00!         MOVL      XAR4,#_sensor+1       ; |899| 
         0000053b 0001 
    2266 0000053c 3512          MPYB      ACC,T,#18             ; |899| 
    2267 0000053d 5601          ADDL      XAR4,ACC
         0000053e 00A4 
    2268 0000053f 40C4          TBIT      *+XAR4[0],#0          ; |899| 
    2269 00000540 EF09          BF        L75,NTC               ; |899| 
    2270                      ; branchcc occurs ; |899| 
    2271 00000541       DW$L$_BearingStatus$48$E:
    2272 00000541       DW$L$_BearingStatus$49$B:
    2273 00000541 92A2          MOV       AL,AR2
TMS320C2000 COFF Assembler PC v4.1.3 Thu Aug 18 12:16:06 2016

Tools Copyright (c) 1996-2006 Texas Instruments Incorporated
alarms.asm                                                           PAGE   49

    2274 00000542 8F00-         MOVL      XAR4,#_bearingstatus  ; |900| 
         00000543 00C0 
    2275 00000544 85A9          MOV       ACC,AL                ; |900| 
    2276 00000545 5601          ADDL      XAR4,ACC
         00000546 00A4 
    2277 00000547 28C4          MOV       *+XAR4[0],#32         ; |900| 
         00000548 0020 
    2278 00000549       DW$L$_BearingStatus$49$E:
    2279 00000549       L75:    
    2280 00000549       DW$L$_BearingStatus$50$B:
    2281 00000549 3512          MPYB      ACC,T,#18             ; |904| 
    2282 0000054a 8F00!         MOVL      XAR4,#_sensor+1       ; |904| 
         0000054b 0001 
    2283 0000054c 5601          ADDL      XAR4,ACC
         0000054d 00A4 
    2284 0000054e 92C4          MOV       AL,*+XAR4[0]          ; |904| 
    2285 0000054f CDA9          AND       AH,AL,#0x0010         ; |904| 
         00000550 0010 
    2286 00000551 9040          ANDB      AL,#64                ; |904| 
    2287 00000552 CAA8          OR        AL,AH                 ; |904| 
    2288 00000553 EC09          BF        L76,EQ                ; |904| 
    2289                      ; branchcc occurs ; |904| 
    2290 00000554       DW$L$_BearingStatus$50$E:
    2291 00000554       DW$L$_BearingStatus$51$B:
    2292 00000554 92A2          MOV       AL,AR2
    2293 00000555 8F00-         MOVL      XAR4,#_bearingstatus  ; |905| 
         00000556 00C0 
    2294 00000557 85A9          MOV       ACC,AL                ; |905| 
    2295 00000558 5601          ADDL      XAR4,ACC
         00000559 00A4 
    2296 0000055a 28C4          MOV       *+XAR4[0],#1          ; |905| 
         0000055b 0001 
    2297 0000055c       DW$L$_BearingStatus$51$E:
    2298 0000055c       L76:    
    2299 0000055c       DW$L$_BearingStatus$52$B:
    2300 0000055c 3512          MPYB      ACC,T,#18             ; |909| 
    2301 0000055d 8F00!         MOVL      XAR4,#_sensor+1       ; |909| 
         0000055e 0001 
    2302 0000055f 5601          ADDL      XAR4,ACC
         00000560 00A4 
    2303 00000561 92C4          MOV       AL,*+XAR4[0]          ; |909| 
    2304 00000562 CDA9          AND       AH,AL,#0x0004         ; |909| 
         00000563 0004 
    2305 00000564 CCA9          AND       AL,AL,#0x0100         ; |909| 
         00000565 0100 
    2306 00000566 CAA8          OR        AL,AH                 ; |909| 
    2307 00000567 ED06          BF        L77,NEQ               ; |909| 
    2308                      ; branchcc occurs ; |909| 
    2309 00000568       DW$L$_BearingStatus$52$E:
    2310 00000568       DW$L$_BearingStatus$53$B:
    2311 00000568 92A1          MOV       AL,AR1
    2312 00000569 7640'         LCR       #_CheckDMSingleBitSet ; |909| 
         0000056a 059F 
    2313                      ; call occurs [#_CheckDMSingleBitSet] ; |909| 
    2314 0000056b 5200          CMPB      AL,#0                 ; |909| 
TMS320C2000 COFF Assembler PC v4.1.3 Thu Aug 18 12:16:06 2016

Tools Copyright (c) 1996-2006 Texas Instruments Incorporated
alarms.asm                                                           PAGE   50

    2315 0000056c EC0A          BF        L78,EQ                ; |909| 
    2316                      ; branchcc occurs ; |909| 
    2317 0000056d       DW$L$_BearingStatus$53$E:
    2318 0000056d       L77:    
    2319 0000056d       DW$L$_BearingStatus$54$B:
    2320 0000056d 3B01          SETC      SXM
    2321 0000056e 92A2          MOV       AL,AR2
    2322 0000056f 8F00-         MOVL      XAR4,#_bearingstatus  ; |910| 
         00000570 00C0 
    2323 00000571 85A9          MOV       ACC,AL                ; |910| 
    2324 00000572 5601          ADDL      XAR4,ACC
         00000573 00A4 
    2325 00000574 28C4          MOV       *+XAR4[0],#2          ; |910| 
         00000575 0002 
    2326 00000576       DW$L$_BearingStatus$54$E:
    2327 00000576       L78:    
    2328 00000576       DW$L$_BearingStatus$55$B:
    2329 00000576 2DA1          MOV       T,AR1
    2330 00000577 8F00!         MOVL      XAR4,#_sensor         ; |914| 
         00000578 0000 
    2331 00000579 3512          MPYB      ACC,T,#18             ; |914| 
    2332 0000057a 5601          ADDL      XAR4,ACC
         0000057b 00A4 
    2333 0000057c 40C4          TBIT      *+XAR4[0],#0          ; |914| 
    2334 0000057d EE0A          BF        L79,TC                ; |914| 
    2335                      ; branchcc occurs ; |914| 
    2336 0000057e       DW$L$_BearingStatus$55$E:
    2337 0000057e       DW$L$_BearingStatus$56$B:
    2338 0000057e 3B01          SETC      SXM
    2339 0000057f 92A2          MOV       AL,AR2
    2340 00000580 8F00-         MOVL      XAR4,#_bearingstatus  ; |915| 
         00000581 00C0 
    2341 00000582 85A9          MOV       ACC,AL                ; |915| 
    2342 00000583 5601          ADDL      XAR4,ACC
         00000584 00A4 
    2343 00000585 28C4          MOV       *+XAR4[0],#4          ; |915| 
         00000586 0004 
    2344 00000587       DW$L$_BearingStatus$56$E:
    2345 00000587       L79:    
    2346 00000587       DW$L$_BearingStatus$57$B:
    2347 00000587 92A1          MOV       AL,AR1
    2348 00000588 9C01          ADDB      AL,#1                 ; |918| 
    2349 00000589 761F!         MOVW      DP,#_damagemon
         0000058a 0000 
    2350 0000058b 59A9          MOVZ      AR1,AL                ; |918| 
    2351 0000058c 92A2          MOV       AL,AR2                ; |918| 
    2352 0000058d 9E00!         SUB       AL,@_damagemon        ; |920| 
    2353 0000058e 5201          CMPB      AL,#1                 ; |920| 
    2354 0000058f ED04          BF        L81,NEQ               ; |920| 
    2355                      ; branchcc occurs ; |920| 
    2356 00000590       DW$L$_BearingStatus$57$E:
    2357 00000590       L80:    
    2358 00000590       DW$L$_BearingStatus$58$B:
    2359 00000590 92A3          MOV       AL,AR3
    2360 00000591 9C01          ADDB      AL,#1                 ; |920| 
TMS320C2000 COFF Assembler PC v4.1.3 Thu Aug 18 12:16:06 2016

Tools Copyright (c) 1996-2006 Texas Instruments Incorporated
alarms.asm                                                           PAGE   51

    2361 00000592 5BA9          MOVZ      AR3,AL                ; |920| 
    2362 00000593       DW$L$_BearingStatus$58$E:
    2363 00000593       L81:    
    2364 00000593       DW$L$_BearingStatus$59$B:
    2365 00000593 92A2          MOV       AL,AR2
    2366 00000594 9C01          ADDB      AL,#1                 ; |892| 
    2367 00000595 5AA9          MOVZ      AR2,AL                ; |892| 
    2368 00000596 9241          MOV       AL,*-SP[1]            ; |892| 
    2369 00000597 54A2          CMP       AL,AR2                ; |892| 
    2370                      .dwpsn  "alarms.c",951,0
    2371 00000598 56C3          BF        L62,GEQ               ; |892| 
         00000599 FF10 
    2372                      ; branchcc occurs ; |892| 
    2373 0000059a       DW$L$_BearingStatus$59$E:
    2374 0000059a       L82:    
    2375 0000059a FE82          SUBB      SP,#2
    2376 0000059b 82BE          MOVL      XAR3,*--SP
    2377 0000059c 86BE          MOVL      XAR2,*--SP
    2378 0000059d 8BBE          MOVL      XAR1,*--SP
    2379                      .dwpsn  "alarms.c",952,1
    2380 0000059e 0006          LRETR
    2381                      ; return occurs
    2382              
    2383              DW$89   .dwtag  DW_TAG_loop
    2384                      .dwattr DW$89, DW_AT_name("D:\DEV\Amot\BearingWear\XTSW_V6_20\alarms.asm:L62:1:1471518966")
    2385                      .dwattr DW$89, DW_AT_begin_file("alarms.c")
    2386                      .dwattr DW$89, DW_AT_begin_line(0x37c)
    2387                      .dwattr DW$89, DW_AT_end_line(0x3b7)
    2388              DW$90   .dwtag  DW_TAG_loop_range
    2389                      .dwattr DW$90, DW_AT_low_pc(DW$L$_BearingStatus$23$B)
    2390                      .dwattr DW$90, DW_AT_high_pc(DW$L$_BearingStatus$23$E)
    2391              DW$91   .dwtag  DW_TAG_loop_range
    2392                      .dwattr DW$91, DW_AT_low_pc(DW$L$_BearingStatus$28$B)
    2393                      .dwattr DW$91, DW_AT_high_pc(DW$L$_BearingStatus$28$E)
    2394              DW$92   .dwtag  DW_TAG_loop_range
    2395                      .dwattr DW$92, DW_AT_low_pc(DW$L$_BearingStatus$29$B)
    2396                      .dwattr DW$92, DW_AT_high_pc(DW$L$_BearingStatus$29$E)
    2397              DW$93   .dwtag  DW_TAG_loop_range
    2398                      .dwattr DW$93, DW_AT_low_pc(DW$L$_BearingStatus$30$B)
    2399                      .dwattr DW$93, DW_AT_high_pc(DW$L$_BearingStatus$30$E)
    2400              DW$94   .dwtag  DW_TAG_loop_range
    2401                      .dwattr DW$94, DW_AT_low_pc(DW$L$_BearingStatus$31$B)
    2402                      .dwattr DW$94, DW_AT_high_pc(DW$L$_BearingStatus$31$E)
    2403              DW$95   .dwtag  DW_TAG_loop_range
    2404                      .dwattr DW$95, DW_AT_low_pc(DW$L$_BearingStatus$32$B)
    2405                      .dwattr DW$95, DW_AT_high_pc(DW$L$_BearingStatus$32$E)
    2406              DW$96   .dwtag  DW_TAG_loop_range
    2407                      .dwattr DW$96, DW_AT_low_pc(DW$L$_BearingStatus$33$B)
    2408                      .dwattr DW$96, DW_AT_high_pc(DW$L$_BearingStatus$33$E)
    2409              DW$97   .dwtag  DW_TAG_loop_range
    2410                      .dwattr DW$97, DW_AT_low_pc(DW$L$_BearingStatus$34$B)
    2411                      .dwattr DW$97, DW_AT_high_pc(DW$L$_BearingStatus$34$E)
    2412              DW$98   .dwtag  DW_TAG_loop_range
    2413                      .dwattr DW$98, DW_AT_low_pc(DW$L$_BearingStatus$35$B)
    2414                      .dwattr DW$98, DW_AT_high_pc(DW$L$_BearingStatus$35$E)
TMS320C2000 COFF Assembler PC v4.1.3 Thu Aug 18 12:16:06 2016

Tools Copyright (c) 1996-2006 Texas Instruments Incorporated
alarms.asm                                                           PAGE   52

    2415              DW$99   .dwtag  DW_TAG_loop_range
    2416                      .dwattr DW$99, DW_AT_low_pc(DW$L$_BearingStatus$36$B)
    2417                      .dwattr DW$99, DW_AT_high_pc(DW$L$_BearingStatus$36$E)
    2418              DW$100  .dwtag  DW_TAG_loop_range
    2419                      .dwattr DW$100, DW_AT_low_pc(DW$L$_BearingStatus$37$B)
    2420                      .dwattr DW$100, DW_AT_high_pc(DW$L$_BearingStatus$37$E)
    2421              DW$101  .dwtag  DW_TAG_loop_range
    2422                      .dwattr DW$101, DW_AT_low_pc(DW$L$_BearingStatus$38$B)
    2423                      .dwattr DW$101, DW_AT_high_pc(DW$L$_BearingStatus$38$E)
    2424              DW$102  .dwtag  DW_TAG_loop_range
    2425                      .dwattr DW$102, DW_AT_low_pc(DW$L$_BearingStatus$39$B)
    2426                      .dwattr DW$102, DW_AT_high_pc(DW$L$_BearingStatus$39$E)
    2427              DW$103  .dwtag  DW_TAG_loop_range
    2428                      .dwattr DW$103, DW_AT_low_pc(DW$L$_BearingStatus$40$B)
    2429                      .dwattr DW$103, DW_AT_high_pc(DW$L$_BearingStatus$40$E)
    2430              DW$104  .dwtag  DW_TAG_loop_range
    2431                      .dwattr DW$104, DW_AT_low_pc(DW$L$_BearingStatus$41$B)
    2432                      .dwattr DW$104, DW_AT_high_pc(DW$L$_BearingStatus$41$E)
    2433              DW$105  .dwtag  DW_TAG_loop_range
    2434                      .dwattr DW$105, DW_AT_low_pc(DW$L$_BearingStatus$42$B)
    2435                      .dwattr DW$105, DW_AT_high_pc(DW$L$_BearingStatus$42$E)
    2436              DW$106  .dwtag  DW_TAG_loop_range
    2437                      .dwattr DW$106, DW_AT_low_pc(DW$L$_BearingStatus$43$B)
    2438                      .dwattr DW$106, DW_AT_high_pc(DW$L$_BearingStatus$43$E)
    2439              DW$107  .dwtag  DW_TAG_loop_range
    2440                      .dwattr DW$107, DW_AT_low_pc(DW$L$_BearingStatus$44$B)
    2441                      .dwattr DW$107, DW_AT_high_pc(DW$L$_BearingStatus$44$E)
    2442              DW$108  .dwtag  DW_TAG_loop_range
    2443                      .dwattr DW$108, DW_AT_low_pc(DW$L$_BearingStatus$45$B)
    2444                      .dwattr DW$108, DW_AT_high_pc(DW$L$_BearingStatus$45$E)
    2445              DW$109  .dwtag  DW_TAG_loop_range
    2446                      .dwattr DW$109, DW_AT_low_pc(DW$L$_BearingStatus$46$B)
    2447                      .dwattr DW$109, DW_AT_high_pc(DW$L$_BearingStatus$46$E)
    2448              DW$110  .dwtag  DW_TAG_loop_range
    2449                      .dwattr DW$110, DW_AT_low_pc(DW$L$_BearingStatus$47$B)
    2450                      .dwattr DW$110, DW_AT_high_pc(DW$L$_BearingStatus$47$E)
    2451              DW$111  .dwtag  DW_TAG_loop_range
    2452                      .dwattr DW$111, DW_AT_low_pc(DW$L$_BearingStatus$25$B)
    2453                      .dwattr DW$111, DW_AT_high_pc(DW$L$_BearingStatus$25$E)
    2454              DW$112  .dwtag  DW_TAG_loop_range
    2455                      .dwattr DW$112, DW_AT_low_pc(DW$L$_BearingStatus$24$B)
    2456                      .dwattr DW$112, DW_AT_high_pc(DW$L$_BearingStatus$24$E)
    2457              DW$113  .dwtag  DW_TAG_loop_range
    2458                      .dwattr DW$113, DW_AT_low_pc(DW$L$_BearingStatus$26$B)
    2459                      .dwattr DW$113, DW_AT_high_pc(DW$L$_BearingStatus$26$E)
    2460              DW$114  .dwtag  DW_TAG_loop_range
    2461                      .dwattr DW$114, DW_AT_low_pc(DW$L$_BearingStatus$27$B)
    2462                      .dwattr DW$114, DW_AT_high_pc(DW$L$_BearingStatus$27$E)
    2463              DW$115  .dwtag  DW_TAG_loop_range
    2464                      .dwattr DW$115, DW_AT_low_pc(DW$L$_BearingStatus$48$B)
    2465                      .dwattr DW$115, DW_AT_high_pc(DW$L$_BearingStatus$48$E)
    2466              DW$116  .dwtag  DW_TAG_loop_range
    2467                      .dwattr DW$116, DW_AT_low_pc(DW$L$_BearingStatus$49$B)
    2468                      .dwattr DW$116, DW_AT_high_pc(DW$L$_BearingStatus$49$E)
    2469              DW$117  .dwtag  DW_TAG_loop_range
TMS320C2000 COFF Assembler PC v4.1.3 Thu Aug 18 12:16:06 2016

Tools Copyright (c) 1996-2006 Texas Instruments Incorporated
alarms.asm                                                           PAGE   53

    2470                      .dwattr DW$117, DW_AT_low_pc(DW$L$_BearingStatus$50$B)
    2471                      .dwattr DW$117, DW_AT_high_pc(DW$L$_BearingStatus$50$E)
    2472              DW$118  .dwtag  DW_TAG_loop_range
    2473                      .dwattr DW$118, DW_AT_low_pc(DW$L$_BearingStatus$51$B)
    2474                      .dwattr DW$118, DW_AT_high_pc(DW$L$_BearingStatus$51$E)
    2475              DW$119  .dwtag  DW_TAG_loop_range
    2476                      .dwattr DW$119, DW_AT_low_pc(DW$L$_BearingStatus$52$B)
    2477                      .dwattr DW$119, DW_AT_high_pc(DW$L$_BearingStatus$52$E)
    2478              DW$120  .dwtag  DW_TAG_loop_range
    2479                      .dwattr DW$120, DW_AT_low_pc(DW$L$_BearingStatus$53$B)
    2480                      .dwattr DW$120, DW_AT_high_pc(DW$L$_BearingStatus$53$E)
    2481              DW$121  .dwtag  DW_TAG_loop_range
    2482                      .dwattr DW$121, DW_AT_low_pc(DW$L$_BearingStatus$54$B)
    2483                      .dwattr DW$121, DW_AT_high_pc(DW$L$_BearingStatus$54$E)
    2484              DW$122  .dwtag  DW_TAG_loop_range
    2485                      .dwattr DW$122, DW_AT_low_pc(DW$L$_BearingStatus$55$B)
    2486                      .dwattr DW$122, DW_AT_high_pc(DW$L$_BearingStatus$55$E)
    2487              DW$123  .dwtag  DW_TAG_loop_range
    2488                      .dwattr DW$123, DW_AT_low_pc(DW$L$_BearingStatus$56$B)
    2489                      .dwattr DW$123, DW_AT_high_pc(DW$L$_BearingStatus$56$E)
    2490              DW$124  .dwtag  DW_TAG_loop_range
    2491                      .dwattr DW$124, DW_AT_low_pc(DW$L$_BearingStatus$57$B)
    2492                      .dwattr DW$124, DW_AT_high_pc(DW$L$_BearingStatus$57$E)
    2493              DW$125  .dwtag  DW_TAG_loop_range
    2494                      .dwattr DW$125, DW_AT_low_pc(DW$L$_BearingStatus$58$B)
    2495                      .dwattr DW$125, DW_AT_high_pc(DW$L$_BearingStatus$58$E)
    2496              DW$126  .dwtag  DW_TAG_loop_range
    2497                      .dwattr DW$126, DW_AT_low_pc(DW$L$_BearingStatus$59$B)
    2498                      .dwattr DW$126, DW_AT_high_pc(DW$L$_BearingStatus$59$E)
    2499                      .dwendtag DW$89
    2500              
    2501              
    2502              DW$127  .dwtag  DW_TAG_loop
    2503                      .dwattr DW$127, DW_AT_name("D:\DEV\Amot\BearingWear\XTSW_V6_20\alarms.asm:L54:1:1471518966")
    2504                      .dwattr DW$127, DW_AT_begin_file("alarms.c")
    2505                      .dwattr DW$127, DW_AT_begin_line(0x34e)
    2506                      .dwattr DW$127, DW_AT_end_line(0x372)
    2507              DW$128  .dwtag  DW_TAG_loop_range
    2508                      .dwattr DW$128, DW_AT_low_pc(DW$L$_BearingStatus$2$B)
    2509                      .dwattr DW$128, DW_AT_high_pc(DW$L$_BearingStatus$2$E)
    2510              DW$129  .dwtag  DW_TAG_loop_range
    2511                      .dwattr DW$129, DW_AT_low_pc(DW$L$_BearingStatus$3$B)
    2512                      .dwattr DW$129, DW_AT_high_pc(DW$L$_BearingStatus$3$E)
    2513              DW$130  .dwtag  DW_TAG_loop_range
    2514                      .dwattr DW$130, DW_AT_low_pc(DW$L$_BearingStatus$4$B)
    2515                      .dwattr DW$130, DW_AT_high_pc(DW$L$_BearingStatus$4$E)
    2516              DW$131  .dwtag  DW_TAG_loop_range
    2517                      .dwattr DW$131, DW_AT_low_pc(DW$L$_BearingStatus$5$B)
    2518                      .dwattr DW$131, DW_AT_high_pc(DW$L$_BearingStatus$5$E)
    2519              DW$132  .dwtag  DW_TAG_loop_range
    2520                      .dwattr DW$132, DW_AT_low_pc(DW$L$_BearingStatus$6$B)
    2521                      .dwattr DW$132, DW_AT_high_pc(DW$L$_BearingStatus$6$E)
    2522              DW$133  .dwtag  DW_TAG_loop_range
    2523                      .dwattr DW$133, DW_AT_low_pc(DW$L$_BearingStatus$7$B)
    2524                      .dwattr DW$133, DW_AT_high_pc(DW$L$_BearingStatus$7$E)
TMS320C2000 COFF Assembler PC v4.1.3 Thu Aug 18 12:16:06 2016

Tools Copyright (c) 1996-2006 Texas Instruments Incorporated
alarms.asm                                                           PAGE   54

    2525              DW$134  .dwtag  DW_TAG_loop_range
    2526                      .dwattr DW$134, DW_AT_low_pc(DW$L$_BearingStatus$8$B)
    2527                      .dwattr DW$134, DW_AT_high_pc(DW$L$_BearingStatus$8$E)
    2528              DW$135  .dwtag  DW_TAG_loop_range
    2529                      .dwattr DW$135, DW_AT_low_pc(DW$L$_BearingStatus$9$B)
    2530                      .dwattr DW$135, DW_AT_high_pc(DW$L$_BearingStatus$9$E)
    2531              DW$136  .dwtag  DW_TAG_loop_range
    2532                      .dwattr DW$136, DW_AT_low_pc(DW$L$_BearingStatus$10$B)
    2533                      .dwattr DW$136, DW_AT_high_pc(DW$L$_BearingStatus$10$E)
    2534              DW$137  .dwtag  DW_TAG_loop_range
    2535                      .dwattr DW$137, DW_AT_low_pc(DW$L$_BearingStatus$11$B)
    2536                      .dwattr DW$137, DW_AT_high_pc(DW$L$_BearingStatus$11$E)
    2537              DW$138  .dwtag  DW_TAG_loop_range
    2538                      .dwattr DW$138, DW_AT_low_pc(DW$L$_BearingStatus$12$B)
    2539                      .dwattr DW$138, DW_AT_high_pc(DW$L$_BearingStatus$12$E)
    2540              DW$139  .dwtag  DW_TAG_loop_range
    2541                      .dwattr DW$139, DW_AT_low_pc(DW$L$_BearingStatus$13$B)
    2542                      .dwattr DW$139, DW_AT_high_pc(DW$L$_BearingStatus$13$E)
    2543              DW$140  .dwtag  DW_TAG_loop_range
    2544                      .dwattr DW$140, DW_AT_low_pc(DW$L$_BearingStatus$14$B)
    2545                      .dwattr DW$140, DW_AT_high_pc(DW$L$_BearingStatus$14$E)
    2546              DW$141  .dwtag  DW_TAG_loop_range
    2547                      .dwattr DW$141, DW_AT_low_pc(DW$L$_BearingStatus$15$B)
    2548                      .dwattr DW$141, DW_AT_high_pc(DW$L$_BearingStatus$15$E)
    2549              DW$142  .dwtag  DW_TAG_loop_range
    2550                      .dwattr DW$142, DW_AT_low_pc(DW$L$_BearingStatus$16$B)
    2551                      .dwattr DW$142, DW_AT_high_pc(DW$L$_BearingStatus$16$E)
    2552              DW$143  .dwtag  DW_TAG_loop_range
    2553                      .dwattr DW$143, DW_AT_low_pc(DW$L$_BearingStatus$17$B)
    2554                      .dwattr DW$143, DW_AT_high_pc(DW$L$_BearingStatus$17$E)
    2555              DW$144  .dwtag  DW_TAG_loop_range
    2556                      .dwattr DW$144, DW_AT_low_pc(DW$L$_BearingStatus$18$B)
    2557                      .dwattr DW$144, DW_AT_high_pc(DW$L$_BearingStatus$18$E)
    2558              DW$145  .dwtag  DW_TAG_loop_range
    2559                      .dwattr DW$145, DW_AT_low_pc(DW$L$_BearingStatus$19$B)
    2560                      .dwattr DW$145, DW_AT_high_pc(DW$L$_BearingStatus$19$E)
    2561                      .dwendtag DW$127
    2562              
    2563                      .dwattr DW$88, DW_AT_end_file("alarms.c")
    2564                      .dwattr DW$88, DW_AT_end_line(0x3b8)
    2565                      .dwattr DW$88, DW_AT_end_column(0x01)
    2566                      .dwendtag DW$88
    2567              
    2568 0000059f               .sect   ".text"
    2569                      .global _CheckDMSingleBitSet
    2570              
    2571              DW$146  .dwtag  DW_TAG_subprogram, DW_AT_name("CheckDMSingleBitSet"), DW_AT_symbol_name("_CheckDMSingleBitSet
    2572                      .dwattr DW$146, DW_AT_low_pc(_CheckDMSingleBitSet)
    2573                      .dwattr DW$146, DW_AT_high_pc(0x00)
    2574                      .dwattr DW$146, DW_AT_begin_file("alarms.c")
    2575                      .dwattr DW$146, DW_AT_begin_line(0x3bb)
    2576                      .dwattr DW$146, DW_AT_begin_column(0x05)
    2577                      .dwattr DW$146, DW_AT_frame_base[DW_OP_breg20 -2]
    2578                      .dwattr DW$146, DW_AT_skeletal(0x01)
    2579                      .dwpsn  "alarms.c",956,1
TMS320C2000 COFF Assembler PC v4.1.3 Thu Aug 18 12:16:06 2016

Tools Copyright (c) 1996-2006 Texas Instruments Incorporated
alarms.asm                                                           PAGE   55

    2580              
    2581              ;***************************************************************
    2582              ;* FNAME: _CheckDMSingleBitSet          FR SIZE:   0           *
    2583              ;*                                                             *
    2584              ;* FUNCTION ENVIRONMENT                                        *
    2585              ;*                                                             *
    2586              ;* FUNCTION PROPERTIES                                         *
    2587              ;*                            0 Parameter,  0 Auto,  0 SOE     *
    2588              ;***************************************************************
    2589              
    2590              _CheckDMSingleBitSet:
    2591              ;* AL    assigned to _index
    2592              DW$147  .dwtag  DW_TAG_formal_parameter, DW_AT_name("index"), DW_AT_symbol_name("_index")
    2593                      .dwattr DW$147, DW_AT_type(*DW$T$11)
    2594                      .dwattr DW$147, DW_AT_location[DW_OP_reg0]
    2595 0000059f 93A9          MOV       AH,AL                 ; |956| 
    2596 000005a0 5310          CMPB      AH,#16                ; |957| 
    2597 000005a1 56C7          BF        L83,HIS               ; |957| 
         000005a2 0007 
    2598                      ; branchcc occurs ; |957| 
    2599 000005a3 761F!         MOVW      DP,#_damalarms
         000005a4 0000 
    2600 000005a5 9200!         MOV       AL,@_damalarms        ; |957| 
    2601 000005a6 56CF          BF        L86,UNC               ; |957| 
         000005a7 000F 
    2602                      ; branch occurs ; |957| 
    2603 000005a8       L83:    
    2604 000005a8 5310          CMPB      AH,#16                ; |957| 
    2605 000005a9 56C8          BF        L84,LO                ; |957| 
         000005aa 0005 
    2606                      ; branchcc occurs ; |957| 
    2607 000005ab 5320          CMPB      AH,#32                ; |957| 
    2608 000005ac 56C8          BF        L85,LO                ; |957| 
         000005ad 0005 
    2609                      ; branchcc occurs ; |957| 
    2610 000005ae       L84:    
    2611 000005ae 9A00          MOVB      AL,#0
    2612 000005af 56CF          BF        L87,UNC               ; |957| 
         000005b0 0008 
    2613                      ; branch occurs ; |957| 
    2614 000005b1       L85:    
    2615 000005b1 761F!         MOVW      DP,#_damalarms+1
         000005b2 0000 
    2616 000005b3 9201!         MOV       AL,@_damalarms+1      ; |957| 
    2617 000005b4 9DF0          ADDB      AH,#-16
    2618 000005b5       L86:    
    2619 000005b5 7640!         LCR       #_CheckBitSet         ; |957| 
         000005b6 0000 
    2620                      ; call occurs [#_CheckBitSet] ; |957| 
    2621              L87:    
    2622                      .dwpsn  "alarms.c",960,1
    2623 000005b7 0006          LRETR
    2624                      ; return occurs
    2625                      .dwattr DW$146, DW_AT_end_file("alarms.c")
    2626                      .dwattr DW$146, DW_AT_end_line(0x3c0)
TMS320C2000 COFF Assembler PC v4.1.3 Thu Aug 18 12:16:06 2016

Tools Copyright (c) 1996-2006 Texas Instruments Incorporated
alarms.asm                                                           PAGE   56

    2627                      .dwattr DW$146, DW_AT_end_column(0x01)
    2628                      .dwendtag DW$146
    2629              
    2630 000005b8               .sect   ".text"
    2631                      .global _CheckAlarmBitSet
    2632              
    2633              DW$148  .dwtag  DW_TAG_subprogram, DW_AT_name("CheckAlarmBitSet"), DW_AT_symbol_name("_CheckAlarmBitSet")
    2634                      .dwattr DW$148, DW_AT_low_pc(_CheckAlarmBitSet)
    2635                      .dwattr DW$148, DW_AT_high_pc(0x00)
    2636                      .dwattr DW$148, DW_AT_begin_file("alarms.c")
    2637                      .dwattr DW$148, DW_AT_begin_line(0x3c7)
    2638                      .dwattr DW$148, DW_AT_begin_column(0x05)
    2639                      .dwattr DW$148, DW_AT_frame_base[DW_OP_breg20 -2]
    2640                      .dwattr DW$148, DW_AT_skeletal(0x01)
    2641                      .dwpsn  "alarms.c",968,1
    2642              
    2643              ;***************************************************************
    2644              ;* FNAME: _CheckAlarmBitSet             FR SIZE:   0           *
    2645              ;*                                                             *
    2646              ;* FUNCTION ENVIRONMENT                                        *
    2647              ;*                                                             *
    2648              ;* FUNCTION PROPERTIES                                         *
    2649              ;*                            0 Parameter,  0 Auto,  0 SOE     *
    2650              ;***************************************************************
    2651              
    2652              _CheckAlarmBitSet:
    2653              ;* AL    assigned to _index
    2654              DW$149  .dwtag  DW_TAG_formal_parameter, DW_AT_name("index"), DW_AT_symbol_name("_index")
    2655                      .dwattr DW$149, DW_AT_type(*DW$T$11)
    2656                      .dwattr DW$149, DW_AT_location[DW_OP_reg0]
    2657 000005b8 93A9          MOV       AH,AL                 ; |968| 
    2658 000005b9 FFC3          LSR       AL,4                  ; |975| 
    2659 000005ba 5221          CMPB      AL,#33                ; |975| 
    2660 000005bb 58A9          MOVZ      AR0,AL                ; |975| 
    2661 000005bc 56C7          BF        L88,HIS               ; |975| 
         000005bd 000A 
    2662                      ; branchcc occurs ; |975| 
    2663 000005be 8F00-         MOVL      XAR4,#_bitalarmlist   ; |975| 
         000005bf 005C 
    2664 000005c0 9294          MOV       AL,*+XAR4[AR0]        ; |975| 
    2665 000005c1 910F          ANDB      AH,#15                ; |975| 
    2666 000005c2 7640!         LCR       #_CheckBitSet         ; |975| 
         000005c3 0000 
    2667                      ; call occurs [#_CheckBitSet] ; |975| 
    2668 000005c4 56CF          BF        L89,UNC               ; |975| 
         000005c5 0003 
    2669                      ; branch occurs ; |975| 
    2670 000005c6       L88:    
    2671 000005c6 9A00          MOVB      AL,#0
    2672              L89:    
    2673                      .dwpsn  "alarms.c",979,1
    2674 000005c7 0006          LRETR
    2675                      ; return occurs
    2676                      .dwattr DW$148, DW_AT_end_file("alarms.c")
    2677                      .dwattr DW$148, DW_AT_end_line(0x3d3)
TMS320C2000 COFF Assembler PC v4.1.3 Thu Aug 18 12:16:06 2016

Tools Copyright (c) 1996-2006 Texas Instruments Incorporated
alarms.asm                                                           PAGE   57

    2678                      .dwattr DW$148, DW_AT_end_column(0x01)
    2679                      .dwendtag DW$148
    2680              
    2681              ;***************************************************************
    2682              ;* FAR STRINGS                                                 *
    2683              ;***************************************************************
    2684 00000000               .sect   ".econst"
    2685                      .align  2
    2686 00000000 0043  FSL1:   .string "Code - ClearEventCodeListArea",13,10,0
         00000001 006F 
         00000002 0064 
         00000003 0065 
         00000004 0020 
         00000005 002D 
         00000006 0020 
         00000007 0043 
         00000008 006C 
         00000009 0065 
         0000000a 0061 
         0000000b 0072 
         0000000c 0045 
         0000000d 0076 
         0000000e 0065 
         0000000f 006E 
         00000010 0074 
         00000011 0043 
         00000012 006F 
         00000013 0064 
         00000014 0065 
         00000015 004C 
         00000016 0069 
         00000017 0073 
         00000018 0074 
         00000019 0041 
         0000001a 0072 
         0000001b 0065 
         0000001c 0061 
         0000001d 000D 
         0000001e 000A 
         0000001f 0000 
    2687                      .align  2
    2688 00000020 0053  FSL2:   .string "SetAlarmEvent:%u %u %u",13,10,0
         00000021 0065 
         00000022 0074 
         00000023 0041 
         00000024 006C 
         00000025 0061 
         00000026 0072 
         00000027 006D 
         00000028 0045 
         00000029 0076 
         0000002a 0065 
         0000002b 006E 
         0000002c 0074 
         0000002d 003A 
TMS320C2000 COFF Assembler PC v4.1.3 Thu Aug 18 12:16:06 2016

Tools Copyright (c) 1996-2006 Texas Instruments Incorporated
alarms.asm                                                           PAGE   58

         0000002e 0025 
         0000002f 0075 
         00000030 0020 
         00000031 0025 
         00000032 0075 
         00000033 0020 
         00000034 0025 
         00000035 0075 
         00000036 000D 
         00000037 000A 
         00000038 0000 
    2689                      .align  2
    2690 0000003a 0043  FSL3:   .string "ClearAlarmEvent:%u %u %u",13,10,0
         0000003b 006C 
         0000003c 0065 
         0000003d 0061 
         0000003e 0072 
         0000003f 0041 
         00000040 006C 
         00000041 0061 
         00000042 0072 
         00000043 006D 
         00000044 0045 
         00000045 0076 
         00000046 0065 
         00000047 006E 
         00000048 0074 
         00000049 003A 
         0000004a 0025 
         0000004b 0075 
         0000004c 0020 
         0000004d 0025 
         0000004e 0075 
         0000004f 0020 
         00000050 0025 
         00000051 0075 
         00000052 000D 
         00000053 000A 
         00000054 0000 
    2691                      .align  2
    2692 00000056 0053  FSL4:   .string "SetBitEvent:%u %u %u",13,10,0
         00000057 0065 
         00000058 0074 
         00000059 0042 
         0000005a 0069 
         0000005b 0074 
         0000005c 0045 
         0000005d 0076 
         0000005e 0065 
         0000005f 006E 
         00000060 0074 
         00000061 003A 
         00000062 0025 
         00000063 0075 
         00000064 0020 
TMS320C2000 COFF Assembler PC v4.1.3 Thu Aug 18 12:16:06 2016

Tools Copyright (c) 1996-2006 Texas Instruments Incorporated
alarms.asm                                                           PAGE   59

         00000065 0025 
         00000066 0075 
         00000067 0020 
         00000068 0025 
         00000069 0075 
         0000006a 000D 
         0000006b 000A 
         0000006c 0000 
    2693                      .align  2
    2694 0000006e 0043  FSL5:   .string "ClearBitEvent:%u %u %u",13,10,0
         0000006f 006C 
         00000070 0065 
         00000071 0061 
         00000072 0072 
         00000073 0042 
         00000074 0069 
         00000075 0074 
         00000076 0045 
         00000077 0076 
         00000078 0065 
         00000079 006E 
         0000007a 0074 
         0000007b 003A 
         0000007c 0025 
         0000007d 0075 
         0000007e 0020 
         0000007f 0025 
         00000080 0075 
         00000081 0020 
         00000082 0025 
         00000083 0075 
         00000084 000D 
         00000085 000A 
         00000086 0000 
    2695              ;***************************************************************
    2696              ;* UNDEFINED EXTERNAL REFERENCES                               *
    2697              ;***************************************************************
    2698                      .global _sprintf
    2699                      .global _DebugStringOut
    2700                      .global _AnalogOOR
    2701                      .global _GetSensorAlarmMask
    2702                      .global _SetRPMChan
    2703                      .global _GetStatus2Flags
    2704                      .global _ReadPCCommsFlag
    2705                      .global _WriteNVMemory
    2706                      .global _InputNumtoString
    2707                      .global _WriteAlarmListtoNVMEM
    2708                      .global _BitSet
    2709                      .global _BitClear
    2710                      .global _CheckBitSet
    2711                      .global _stringbuffer
    2712                      .global _eventlogentry
    2713                      .global _settings
    2714                      .global _timers
    2715                      .global _allsensors
TMS320C2000 COFF Assembler PC v4.1.3 Thu Aug 18 12:16:06 2016

Tools Copyright (c) 1996-2006 Texas Instruments Incorporated
alarms.asm                                                           PAGE   60

    2716                      .global _cylinders
    2717                      .global _sensor
    2718                      .global _damagemon
    2719                      .global _damalarms
    2720                      .global _slave485mb
    2721                      .global _waterinoil
    2722                      .global _digout
    2723              
    2724              ;***************************************************************
    2725              ;* TYPE INFORMATION                                            *
    2726              ;***************************************************************
    2727              
    2728              DW$T$54 .dwtag  DW_TAG_subroutine_type
    2729                      .dwattr DW$T$54, DW_AT_language(DW_LANG_C)
    2730              DW$150  .dwtag  DW_TAG_formal_parameter, DW_AT_type(*DW$T$53)
    2731                      .dwendtag DW$T$54
    2732              
    2733              
    2734              DW$T$56 .dwtag  DW_TAG_subroutine_type
    2735                      .dwattr DW$T$56, DW_AT_language(DW_LANG_C)
    2736              
    2737              DW$T$58 .dwtag  DW_TAG_subroutine_type
    2738                      .dwattr DW$T$58, DW_AT_language(DW_LANG_C)
    2739              DW$151  .dwtag  DW_TAG_formal_parameter, DW_AT_type(*DW$T$11)
    2740              DW$152  .dwtag  DW_TAG_formal_parameter, DW_AT_type(*DW$T$11)
    2741                      .dwendtag DW$T$58
    2742              
    2743              
    2744              DW$T$60 .dwtag  DW_TAG_subroutine_type
    2745                      .dwattr DW$T$60, DW_AT_language(DW_LANG_C)
    2746              DW$153  .dwtag  DW_TAG_formal_parameter, DW_AT_type(*DW$T$11)
    2747                      .dwendtag DW$T$60
    2748              
    2749              DW$T$10 .dwtag  DW_TAG_base_type, DW_AT_name("int")
    2750                      .dwattr DW$T$10, DW_AT_encoding(DW_ATE_signed)
    2751                      .dwattr DW$T$10, DW_AT_byte_size(0x01)
    2752              
    2753              DW$T$65 .dwtag  DW_TAG_subroutine_type, DW_AT_type(*DW$T$10)
    2754                      .dwattr DW$T$65, DW_AT_language(DW_LANG_C)
    2755              DW$154  .dwtag  DW_TAG_formal_parameter, DW_AT_type(*DW$T$53)
    2756              DW$155  .dwtag  DW_TAG_formal_parameter, DW_AT_type(*DW$T$64)
    2757              DW$156  .dwtag  DW_TAG_unspecified_parameters
    2758                      .dwendtag DW$T$65
    2759              
    2760              
    2761              DW$T$67 .dwtag  DW_TAG_subroutine_type, DW_AT_type(*DW$T$10)
    2762                      .dwattr DW$T$67, DW_AT_language(DW_LANG_C)
    2763              
    2764              DW$T$69 .dwtag  DW_TAG_subroutine_type, DW_AT_type(*DW$T$10)
    2765                      .dwattr DW$T$69, DW_AT_language(DW_LANG_C)
    2766              
    2767              DW$T$71 .dwtag  DW_TAG_subroutine_type, DW_AT_type(*DW$T$10)
    2768                      .dwattr DW$T$71, DW_AT_language(DW_LANG_C)
    2769              DW$157  .dwtag  DW_TAG_formal_parameter, DW_AT_type(*DW$T$11)
    2770                      .dwendtag DW$T$71
TMS320C2000 COFF Assembler PC v4.1.3 Thu Aug 18 12:16:06 2016

Tools Copyright (c) 1996-2006 Texas Instruments Incorporated
alarms.asm                                                           PAGE   61

    2771              
    2772              
    2773              DW$T$73 .dwtag  DW_TAG_array_type, DW_AT_type(*DW$T$10)
    2774                      .dwattr DW$T$73, DW_AT_language(DW_LANG_C)
    2775                      .dwattr DW$T$73, DW_AT_byte_size(0x1c)
    2776              DW$158  .dwtag  DW_TAG_subrange_type
    2777                      .dwattr DW$158, DW_AT_upper_bound(0x1b)
    2778                      .dwendtag DW$T$73
    2779              
    2780              DW$T$11 .dwtag  DW_TAG_base_type, DW_AT_name("unsigned int")
    2781                      .dwattr DW$T$11, DW_AT_encoding(DW_ATE_unsigned)
    2782                      .dwattr DW$T$11, DW_AT_byte_size(0x01)
    2783              
    2784              DW$T$86 .dwtag  DW_TAG_subroutine_type, DW_AT_type(*DW$T$85)
    2785                      .dwattr DW$T$86, DW_AT_language(DW_LANG_C)
    2786              
    2787              DW$T$87 .dwtag  DW_TAG_subroutine_type, DW_AT_type(*DW$T$11)
    2788                      .dwattr DW$T$87, DW_AT_language(DW_LANG_C)
    2789              DW$159  .dwtag  DW_TAG_formal_parameter, DW_AT_type(*DW$T$11)
    2790                      .dwendtag DW$T$87
    2791              
    2792              
    2793              DW$T$89 .dwtag  DW_TAG_array_type, DW_AT_type(*DW$T$11)
    2794                      .dwattr DW$T$89, DW_AT_language(DW_LANG_C)
    2795                      .dwattr DW$T$89, DW_AT_byte_size(0x21)
    2796              DW$160  .dwtag  DW_TAG_subrange_type
    2797                      .dwattr DW$160, DW_AT_upper_bound(0x20)
    2798                      .dwendtag DW$T$89
    2799              
    2800              
    2801              DW$T$91 .dwtag  DW_TAG_array_type, DW_AT_type(*DW$T$11)
    2802                      .dwattr DW$T$91, DW_AT_language(DW_LANG_C)
    2803                      .dwattr DW$T$91, DW_AT_byte_size(0x30)
    2804              DW$161  .dwtag  DW_TAG_subrange_type
    2805                      .dwattr DW$161, DW_AT_upper_bound(0x0f)
    2806              DW$162  .dwtag  DW_TAG_subrange_type
    2807                      .dwattr DW$162, DW_AT_upper_bound(0x02)
    2808                      .dwendtag DW$T$91
    2809              
    2810              DW$T$95 .dwtag  DW_TAG_pointer_type, DW_AT_type(*DW$T$39)
    2811                      .dwattr DW$T$95, DW_AT_address_class(0x16)
    2812              
    2813              DW$T$96 .dwtag  DW_TAG_subroutine_type, DW_AT_type(*DW$T$95)
    2814                      .dwattr DW$T$96, DW_AT_language(DW_LANG_C)
    2815              DW$163  .dwtag  DW_TAG_formal_parameter, DW_AT_type(*DW$T$11)
    2816                      .dwendtag DW$T$96
    2817              
    2818              DW$T$100        .dwtag  DW_TAG_typedef, DW_AT_name("alarmsstruct"), DW_AT_type(*DW$T$20)
    2819                      .dwattr DW$T$100, DW_AT_language(DW_LANG_C)
    2820              
    2821              DW$T$102        .dwtag  DW_TAG_subroutine_type, DW_AT_type(*DW$T$101)
    2822                      .dwattr DW$T$102, DW_AT_language(DW_LANG_C)
    2823              
    2824              DW$T$108        .dwtag  DW_TAG_subroutine_type, DW_AT_type(*DW$T$107)
    2825                      .dwattr DW$T$108, DW_AT_language(DW_LANG_C)
TMS320C2000 COFF Assembler PC v4.1.3 Thu Aug 18 12:16:06 2016

Tools Copyright (c) 1996-2006 Texas Instruments Incorporated
alarms.asm                                                           PAGE   62

    2826              DW$164  .dwtag  DW_TAG_formal_parameter, DW_AT_type(*DW$T$11)
    2827                      .dwendtag DW$T$108
    2828              
    2829              
    2830              DW$T$109        .dwtag  DW_TAG_array_type, DW_AT_type(*DW$T$106)
    2831                      .dwattr DW$T$109, DW_AT_language(DW_LANG_C)
    2832                      .dwattr DW$T$109, DW_AT_byte_size(0x1c)
    2833              DW$165  .dwtag  DW_TAG_subrange_type
    2834                      .dwattr DW$165, DW_AT_upper_bound(0x1b)
    2835                      .dwendtag DW$T$109
    2836              
    2837              DW$T$114        .dwtag  DW_TAG_typedef, DW_AT_name("eventlogstruct"), DW_AT_type(*DW$T$26)
    2838                      .dwattr DW$T$114, DW_AT_language(DW_LANG_C)
    2839              DW$T$116        .dwtag  DW_TAG_typedef, DW_AT_name("settingsstruct"), DW_AT_type(*DW$T$28)
    2840                      .dwattr DW$T$116, DW_AT_language(DW_LANG_C)
    2841              DW$166  .dwtag  DW_TAG_far_type
    2842                      .dwattr DW$166, DW_AT_type(*DW$T$117)
    2843              DW$T$118        .dwtag  DW_TAG_volatile_type
    2844                      .dwattr DW$T$118, DW_AT_type(*DW$166)
    2845              DW$T$120        .dwtag  DW_TAG_typedef, DW_AT_name("allsensorstruct"), DW_AT_type(*DW$T$33)
    2846                      .dwattr DW$T$120, DW_AT_language(DW_LANG_C)
    2847              
    2848              DW$T$123        .dwtag  DW_TAG_array_type, DW_AT_type(*DW$T$122)
    2849                      .dwattr DW$T$123, DW_AT_language(DW_LANG_C)
    2850                      .dwattr DW$T$123, DW_AT_byte_size(0x38)
    2851              DW$167  .dwtag  DW_TAG_subrange_type
    2852                      .dwattr DW$167, DW_AT_upper_bound(0x0d)
    2853                      .dwendtag DW$T$123
    2854              
    2855              
    2856              DW$T$127        .dwtag  DW_TAG_array_type, DW_AT_type(*DW$T$126)
    2857                      .dwattr DW$T$127, DW_AT_language(DW_LANG_C)
    2858                      .dwattr DW$T$127, DW_AT_byte_size(0x1f8)
    2859              DW$168  .dwtag  DW_TAG_subrange_type
    2860                      .dwattr DW$168, DW_AT_upper_bound(0x1b)
    2861                      .dwendtag DW$T$127
    2862              
    2863              DW$T$130        .dwtag  DW_TAG_typedef, DW_AT_name("damagemonstruct"), DW_AT_type(*DW$T$41)
    2864                      .dwattr DW$T$130, DW_AT_language(DW_LANG_C)
    2865              DW$T$131        .dwtag  DW_TAG_typedef, DW_AT_name("damalarmsstruct"), DW_AT_type(*DW$T$43)
    2866                      .dwattr DW$T$131, DW_AT_language(DW_LANG_C)
    2867              DW$T$133        .dwtag  DW_TAG_typedef, DW_AT_name("slavecmdstruct"), DW_AT_type(*DW$T$45)
    2868                      .dwattr DW$T$133, DW_AT_language(DW_LANG_C)
    2869              DW$T$134        .dwtag  DW_TAG_typedef, DW_AT_name("waterinoilstruct"), DW_AT_type(*DW$T$48)
    2870                      .dwattr DW$T$134, DW_AT_language(DW_LANG_C)
    2871              DW$T$136        .dwtag  DW_TAG_typedef, DW_AT_name("digoutstruct"), DW_AT_type(*DW$T$49)
    2872                      .dwattr DW$T$136, DW_AT_language(DW_LANG_C)
    2873              DW$T$137        .dwtag  DW_TAG_typedef, DW_AT_name("bearingstatusstruct"), DW_AT_type(*DW$T$51)
    2874                      .dwattr DW$T$137, DW_AT_language(DW_LANG_C)
    2875              DW$T$53 .dwtag  DW_TAG_pointer_type, DW_AT_type(*DW$T$52)
    2876                      .dwattr DW$T$53, DW_AT_address_class(0x16)
    2877              DW$T$64 .dwtag  DW_TAG_pointer_type, DW_AT_type(*DW$T$63)
    2878                      .dwattr DW$T$64, DW_AT_address_class(0x16)
    2879              
    2880              DW$T$139        .dwtag  DW_TAG_array_type, DW_AT_type(*DW$T$52)
TMS320C2000 COFF Assembler PC v4.1.3 Thu Aug 18 12:16:06 2016

Tools Copyright (c) 1996-2006 Texas Instruments Incorporated
alarms.asm                                                           PAGE   63

    2881                      .dwattr DW$T$139, DW_AT_language(DW_LANG_C)
    2882                      .dwattr DW$T$139, DW_AT_byte_size(0x64)
    2883              DW$169  .dwtag  DW_TAG_subrange_type
    2884                      .dwattr DW$169, DW_AT_upper_bound(0x63)
    2885                      .dwendtag DW$T$139
    2886              
    2887              DW$T$85 .dwtag  DW_TAG_pointer_type, DW_AT_type(*DW$T$11)
    2888                      .dwattr DW$T$85, DW_AT_address_class(0x16)
    2889              DW$T$39 .dwtag  DW_TAG_typedef, DW_AT_name("sensoralarmstruct"), DW_AT_type(*DW$T$19)
    2890                      .dwattr DW$T$39, DW_AT_language(DW_LANG_C)
    2891              
    2892              DW$T$20 .dwtag  DW_TAG_structure_type
    2893                      .dwattr DW$T$20, DW_AT_name("tag_alarmsstruct")
    2894                      .dwattr DW$T$20, DW_AT_byte_size(0x01)
    2895              DW$170  .dwtag  DW_TAG_member, DW_AT_type(*DW$T$11)
    2896                      .dwattr DW$170, DW_AT_name("slavefailure"), DW_AT_symbol_name("_slavefailure")
    2897                      .dwattr DW$170, DW_AT_bit_offset(0x0f), DW_AT_bit_size(0x01)
    2898                      .dwattr DW$170, DW_AT_data_member_location[DW_OP_plus_uconst 0x0]
    2899                      .dwattr DW$170, DW_AT_accessibility(DW_ACCESS_public)
    2900              DW$171  .dwtag  DW_TAG_member, DW_AT_type(*DW$T$11)
    2901                      .dwattr DW$171, DW_AT_name("slavefailurelatched"), DW_AT_symbol_name("_slavefailurelatched")
    2902                      .dwattr DW$171, DW_AT_bit_offset(0x0e), DW_AT_bit_size(0x01)
    2903                      .dwattr DW$171, DW_AT_data_member_location[DW_OP_plus_uconst 0x0]
    2904                      .dwattr DW$171, DW_AT_accessibility(DW_ACCESS_public)
    2905              DW$172  .dwtag  DW_TAG_member, DW_AT_type(*DW$T$11)
    2906                      .dwattr DW$172, DW_AT_name("framfailure"), DW_AT_symbol_name("_framfailure")
    2907                      .dwattr DW$172, DW_AT_bit_offset(0x0d), DW_AT_bit_size(0x01)
    2908                      .dwattr DW$172, DW_AT_data_member_location[DW_OP_plus_uconst 0x0]
    2909                      .dwattr DW$172, DW_AT_accessibility(DW_ACCESS_public)
    2910              DW$173  .dwtag  DW_TAG_member, DW_AT_type(*DW$T$11)
    2911                      .dwattr DW$173, DW_AT_name("framfailurelatched"), DW_AT_symbol_name("_framfailurelatched")
    2912                      .dwattr DW$173, DW_AT_bit_offset(0x0c), DW_AT_bit_size(0x01)
    2913                      .dwattr DW$173, DW_AT_data_member_location[DW_OP_plus_uconst 0x0]
    2914                      .dwattr DW$173, DW_AT_accessibility(DW_ACCESS_public)
    2915              DW$174  .dwtag  DW_TAG_member, DW_AT_type(*DW$T$11)
    2916                      .dwattr DW$174, DW_AT_name("pccommsfailure"), DW_AT_symbol_name("_pccommsfailure")
    2917                      .dwattr DW$174, DW_AT_bit_offset(0x0b), DW_AT_bit_size(0x01)
    2918                      .dwattr DW$174, DW_AT_data_member_location[DW_OP_plus_uconst 0x0]
    2919                      .dwattr DW$174, DW_AT_accessibility(DW_ACCESS_public)
    2920              DW$175  .dwtag  DW_TAG_member, DW_AT_type(*DW$T$11)
    2921                      .dwattr DW$175, DW_AT_name("pccommsfailurelatched"), DW_AT_symbol_name("_pccommsfailurelatched")
    2922                      .dwattr DW$175, DW_AT_bit_offset(0x0a), DW_AT_bit_size(0x01)
    2923                      .dwattr DW$175, DW_AT_data_member_location[DW_OP_plus_uconst 0x0]
    2924                      .dwattr DW$175, DW_AT_accessibility(DW_ACCESS_public)
    2925              DW$176  .dwtag  DW_TAG_member, DW_AT_type(*DW$T$11)
    2926                      .dwattr DW$176, DW_AT_name("unused7"), DW_AT_symbol_name("_unused7")
    2927                      .dwattr DW$176, DW_AT_bit_offset(0x09), DW_AT_bit_size(0x01)
    2928                      .dwattr DW$176, DW_AT_data_member_location[DW_OP_plus_uconst 0x0]
    2929                      .dwattr DW$176, DW_AT_accessibility(DW_ACCESS_public)
    2930              DW$177  .dwtag  DW_TAG_member, DW_AT_type(*DW$T$11)
    2931                      .dwattr DW$177, DW_AT_name("unused8"), DW_AT_symbol_name("_unused8")
    2932                      .dwattr DW$177, DW_AT_bit_offset(0x08), DW_AT_bit_size(0x01)
    2933                      .dwattr DW$177, DW_AT_data_member_location[DW_OP_plus_uconst 0x0]
    2934                      .dwattr DW$177, DW_AT_accessibility(DW_ACCESS_public)
    2935              DW$178  .dwtag  DW_TAG_member, DW_AT_type(*DW$T$11)
TMS320C2000 COFF Assembler PC v4.1.3 Thu Aug 18 12:16:06 2016

Tools Copyright (c) 1996-2006 Texas Instruments Incorporated
alarms.asm                                                           PAGE   64

    2936                      .dwattr DW$178, DW_AT_name("unused9"), DW_AT_symbol_name("_unused9")
    2937                      .dwattr DW$178, DW_AT_bit_offset(0x07), DW_AT_bit_size(0x01)
    2938                      .dwattr DW$178, DW_AT_data_member_location[DW_OP_plus_uconst 0x0]
    2939                      .dwattr DW$178, DW_AT_accessibility(DW_ACCESS_public)
    2940              DW$179  .dwtag  DW_TAG_member, DW_AT_type(*DW$T$11)
    2941                      .dwattr DW$179, DW_AT_name("unused10"), DW_AT_symbol_name("_unused10")
    2942                      .dwattr DW$179, DW_AT_bit_offset(0x06), DW_AT_bit_size(0x01)
    2943                      .dwattr DW$179, DW_AT_data_member_location[DW_OP_plus_uconst 0x0]
    2944                      .dwattr DW$179, DW_AT_accessibility(DW_ACCESS_public)
    2945              DW$180  .dwtag  DW_TAG_member, DW_AT_type(*DW$T$11)
    2946                      .dwattr DW$180, DW_AT_name("unused11"), DW_AT_symbol_name("_unused11")
    2947                      .dwattr DW$180, DW_AT_bit_offset(0x05), DW_AT_bit_size(0x01)
    2948                      .dwattr DW$180, DW_AT_data_member_location[DW_OP_plus_uconst 0x0]
    2949                      .dwattr DW$180, DW_AT_accessibility(DW_ACCESS_public)
    2950              DW$181  .dwtag  DW_TAG_member, DW_AT_type(*DW$T$11)
    2951                      .dwattr DW$181, DW_AT_name("unused12"), DW_AT_symbol_name("_unused12")
    2952                      .dwattr DW$181, DW_AT_bit_offset(0x04), DW_AT_bit_size(0x01)
    2953                      .dwattr DW$181, DW_AT_data_member_location[DW_OP_plus_uconst 0x0]
    2954                      .dwattr DW$181, DW_AT_accessibility(DW_ACCESS_public)
    2955              DW$182  .dwtag  DW_TAG_member, DW_AT_type(*DW$T$11)
    2956                      .dwattr DW$182, DW_AT_name("unused13"), DW_AT_symbol_name("_unused13")
    2957                      .dwattr DW$182, DW_AT_bit_offset(0x03), DW_AT_bit_size(0x01)
    2958                      .dwattr DW$182, DW_AT_data_member_location[DW_OP_plus_uconst 0x0]
    2959                      .dwattr DW$182, DW_AT_accessibility(DW_ACCESS_public)
    2960              DW$183  .dwtag  DW_TAG_member, DW_AT_type(*DW$T$11)
    2961                      .dwattr DW$183, DW_AT_name("unused14"), DW_AT_symbol_name("_unused14")
    2962                      .dwattr DW$183, DW_AT_bit_offset(0x02), DW_AT_bit_size(0x01)
    2963                      .dwattr DW$183, DW_AT_data_member_location[DW_OP_plus_uconst 0x0]
    2964                      .dwattr DW$183, DW_AT_accessibility(DW_ACCESS_public)
    2965              DW$184  .dwtag  DW_TAG_member, DW_AT_type(*DW$T$11)
    2966                      .dwattr DW$184, DW_AT_name("unused15"), DW_AT_symbol_name("_unused15")
    2967                      .dwattr DW$184, DW_AT_bit_offset(0x01), DW_AT_bit_size(0x01)
    2968                      .dwattr DW$184, DW_AT_data_member_location[DW_OP_plus_uconst 0x0]
    2969                      .dwattr DW$184, DW_AT_accessibility(DW_ACCESS_public)
    2970              DW$185  .dwtag  DW_TAG_member, DW_AT_type(*DW$T$11)
    2971                      .dwattr DW$185, DW_AT_name("unused16"), DW_AT_symbol_name("_unused16")
    2972                      .dwattr DW$185, DW_AT_bit_offset(0x00), DW_AT_bit_size(0x01)
    2973                      .dwattr DW$185, DW_AT_data_member_location[DW_OP_plus_uconst 0x0]
    2974                      .dwattr DW$185, DW_AT_accessibility(DW_ACCESS_public)
    2975                      .dwendtag DW$T$20
    2976              
    2977              DW$T$101        .dwtag  DW_TAG_pointer_type, DW_AT_type(*DW$T$100)
    2978                      .dwattr DW$T$101, DW_AT_address_class(0x16)
    2979              DW$T$106        .dwtag  DW_TAG_typedef, DW_AT_name("status3struct"), DW_AT_type(*DW$T$21)
    2980                      .dwattr DW$T$106, DW_AT_language(DW_LANG_C)
    2981              DW$T$107        .dwtag  DW_TAG_pointer_type, DW_AT_type(*DW$T$106)
    2982                      .dwattr DW$T$107, DW_AT_address_class(0x16)
    2983              
    2984              DW$T$26 .dwtag  DW_TAG_structure_type
    2985                      .dwattr DW$T$26, DW_AT_name("tag_eventlogstruct")
    2986                      .dwattr DW$T$26, DW_AT_byte_size(0x44)
    2987              DW$186  .dwtag  DW_TAG_member, DW_AT_type(*DW$T$11)
    2988                      .dwattr DW$186, DW_AT_name("eventid"), DW_AT_symbol_name("_eventid")
    2989                      .dwattr DW$186, DW_AT_data_member_location[DW_OP_plus_uconst 0x0]
    2990                      .dwattr DW$186, DW_AT_accessibility(DW_ACCESS_public)
TMS320C2000 COFF Assembler PC v4.1.3 Thu Aug 18 12:16:06 2016

Tools Copyright (c) 1996-2006 Texas Instruments Incorporated
alarms.asm                                                           PAGE   65

    2991              DW$187  .dwtag  DW_TAG_member, DW_AT_type(*DW$T$22)
    2992                      .dwattr DW$187, DW_AT_name("datetime"), DW_AT_symbol_name("_datetime")
    2993                      .dwattr DW$187, DW_AT_data_member_location[DW_OP_plus_uconst 0x1]
    2994                      .dwattr DW$187, DW_AT_accessibility(DW_ACCESS_public)
    2995              DW$188  .dwtag  DW_TAG_member, DW_AT_type(*DW$T$23)
    2996                      .dwattr DW$188, DW_AT_name("msgstring"), DW_AT_symbol_name("_msgstring")
    2997                      .dwattr DW$188, DW_AT_data_member_location[DW_OP_plus_uconst 0xa]
    2998                      .dwattr DW$188, DW_AT_accessibility(DW_ACCESS_public)
    2999              DW$189  .dwtag  DW_TAG_member, DW_AT_type(*DW$T$24)
    3000                      .dwattr DW$189, DW_AT_name("msgstring2"), DW_AT_symbol_name("_msgstring2")
    3001                      .dwattr DW$189, DW_AT_data_member_location[DW_OP_plus_uconst 0x22]
    3002                      .dwattr DW$189, DW_AT_accessibility(DW_ACCESS_public)
    3003              DW$190  .dwtag  DW_TAG_member, DW_AT_type(*DW$T$22)
    3004                      .dwattr DW$190, DW_AT_name("ackdatetime"), DW_AT_symbol_name("_ackdatetime")
    3005                      .dwattr DW$190, DW_AT_data_member_location[DW_OP_plus_uconst 0x31]
    3006                      .dwattr DW$190, DW_AT_accessibility(DW_ACCESS_public)
    3007              DW$191  .dwtag  DW_TAG_member, DW_AT_type(*DW$T$25)
    3008                      .dwattr DW$191, DW_AT_name("ackstring"), DW_AT_symbol_name("_ackstring")
    3009                      .dwattr DW$191, DW_AT_data_member_location[DW_OP_plus_uconst 0x3a]
    3010                      .dwattr DW$191, DW_AT_accessibility(DW_ACCESS_public)
    3011              DW$192  .dwtag  DW_TAG_member, DW_AT_type(*DW$T$11)
    3012                      .dwattr DW$192, DW_AT_name("newalarmeventflag"), DW_AT_symbol_name("_newalarmeventflag")
    3013                      .dwattr DW$192, DW_AT_data_member_location[DW_OP_plus_uconst 0x3f]
    3014                      .dwattr DW$192, DW_AT_accessibility(DW_ACCESS_public)
    3015              DW$193  .dwtag  DW_TAG_member, DW_AT_type(*DW$T$11)
    3016                      .dwattr DW$193, DW_AT_name("eventcodestatus"), DW_AT_symbol_name("_eventcodestatus")
    3017                      .dwattr DW$193, DW_AT_data_member_location[DW_OP_plus_uconst 0x40]
    3018                      .dwattr DW$193, DW_AT_accessibility(DW_ACCESS_public)
    3019              DW$194  .dwtag  DW_TAG_member, DW_AT_type(*DW$T$11)
    3020                      .dwattr DW$194, DW_AT_name("eventcode"), DW_AT_symbol_name("_eventcode")
    3021                      .dwattr DW$194, DW_AT_data_member_location[DW_OP_plus_uconst 0x41]
    3022                      .dwattr DW$194, DW_AT_accessibility(DW_ACCESS_public)
    3023              DW$195  .dwtag  DW_TAG_member, DW_AT_type(*DW$T$11)
    3024                      .dwattr DW$195, DW_AT_name("currentindex"), DW_AT_symbol_name("_currentindex")
    3025                      .dwattr DW$195, DW_AT_data_member_location[DW_OP_plus_uconst 0x42]
    3026                      .dwattr DW$195, DW_AT_accessibility(DW_ACCESS_public)
    3027              DW$196  .dwtag  DW_TAG_member, DW_AT_type(*DW$T$11)
    3028                      .dwattr DW$196, DW_AT_name("txalarmevents"), DW_AT_symbol_name("_txalarmevents")
    3029                      .dwattr DW$196, DW_AT_data_member_location[DW_OP_plus_uconst 0x43]
    3030                      .dwattr DW$196, DW_AT_accessibility(DW_ACCESS_public)
    3031                      .dwendtag DW$T$26
    3032              
    3033              
    3034              DW$T$28 .dwtag  DW_TAG_structure_type
    3035                      .dwattr DW$T$28, DW_AT_name("tag_settingsstruct")
    3036                      .dwattr DW$T$28, DW_AT_byte_size(0x24)
    3037              DW$197  .dwtag  DW_TAG_member, DW_AT_type(*DW$T$11)
    3038                      .dwattr DW$197, DW_AT_name("watchdog"), DW_AT_symbol_name("_watchdog")
    3039                      .dwattr DW$197, DW_AT_data_member_location[DW_OP_plus_uconst 0x0]
    3040                      .dwattr DW$197, DW_AT_accessibility(DW_ACCESS_public)
    3041              DW$198  .dwtag  DW_TAG_member, DW_AT_type(*DW$T$11)
    3042                      .dwattr DW$198, DW_AT_name("ledflashflag"), DW_AT_symbol_name("_ledflashflag")
    3043                      .dwattr DW$198, DW_AT_data_member_location[DW_OP_plus_uconst 0x1]
    3044                      .dwattr DW$198, DW_AT_accessibility(DW_ACCESS_public)
    3045              DW$199  .dwtag  DW_TAG_member, DW_AT_type(*DW$T$11)
TMS320C2000 COFF Assembler PC v4.1.3 Thu Aug 18 12:16:06 2016

Tools Copyright (c) 1996-2006 Texas Instruments Incorporated
alarms.asm                                                           PAGE   66

    3046                      .dwattr DW$199, DW_AT_name("updatesafe"), DW_AT_symbol_name("_updatesafe")
    3047                      .dwattr DW$199, DW_AT_data_member_location[DW_OP_plus_uconst 0x2]
    3048                      .dwattr DW$199, DW_AT_accessibility(DW_ACCESS_public)
    3049              DW$200  .dwtag  DW_TAG_member, DW_AT_type(*DW$T$11)
    3050                      .dwattr DW$200, DW_AT_name("tableconfigtype"), DW_AT_symbol_name("_tableconfigtype")
    3051                      .dwattr DW$200, DW_AT_data_member_location[DW_OP_plus_uconst 0x3]
    3052                      .dwattr DW$200, DW_AT_accessibility(DW_ACCESS_public)
    3053              DW$201  .dwtag  DW_TAG_member, DW_AT_type(*DW$T$11)
    3054                      .dwattr DW$201, DW_AT_name("caltableconfigtype"), DW_AT_symbol_name("_caltableconfigtype")
    3055                      .dwattr DW$201, DW_AT_data_member_location[DW_OP_plus_uconst 0x4]
    3056                      .dwattr DW$201, DW_AT_accessibility(DW_ACCESS_public)
    3057              DW$202  .dwtag  DW_TAG_member, DW_AT_type(*DW$T$11)
    3058                      .dwattr DW$202, DW_AT_name("eventmsgid"), DW_AT_symbol_name("_eventmsgid")
    3059                      .dwattr DW$202, DW_AT_data_member_location[DW_OP_plus_uconst 0x5]
    3060                      .dwattr DW$202, DW_AT_accessibility(DW_ACCESS_public)
    3061              DW$203  .dwtag  DW_TAG_member, DW_AT_type(*DW$T$11)
    3062                      .dwattr DW$203, DW_AT_name("configoperationcomplete"), DW_AT_symbol_name("_configoperationcomplete")
    3063                      .dwattr DW$203, DW_AT_data_member_location[DW_OP_plus_uconst 0x6]
    3064                      .dwattr DW$203, DW_AT_accessibility(DW_ACCESS_public)
    3065              DW$204  .dwtag  DW_TAG_member, DW_AT_type(*DW$T$11)
    3066                      .dwattr DW$204, DW_AT_name("sdcarderr"), DW_AT_symbol_name("_sdcarderr")
    3067                      .dwattr DW$204, DW_AT_data_member_location[DW_OP_plus_uconst 0x7]
    3068                      .dwattr DW$204, DW_AT_accessibility(DW_ACCESS_public)
    3069              DW$205  .dwtag  DW_TAG_member, DW_AT_type(*DW$T$11)
    3070                      .dwattr DW$205, DW_AT_name("sderase"), DW_AT_symbol_name("_sderase")
    3071                      .dwattr DW$205, DW_AT_data_member_location[DW_OP_plus_uconst 0x8]
    3072                      .dwattr DW$205, DW_AT_accessibility(DW_ACCESS_public)
    3073              DW$206  .dwtag  DW_TAG_member, DW_AT_type(*DW$T$11)
    3074                      .dwattr DW$206, DW_AT_name("sdreinit"), DW_AT_symbol_name("_sdreinit")
    3075                      .dwattr DW$206, DW_AT_data_member_location[DW_OP_plus_uconst 0x9]
    3076                      .dwattr DW$206, DW_AT_accessibility(DW_ACCESS_public)
    3077              DW$207  .dwtag  DW_TAG_member, DW_AT_type(*DW$T$11)
    3078                      .dwattr DW$207, DW_AT_name("sdcardupdate"), DW_AT_symbol_name("_sdcardupdate")
    3079                      .dwattr DW$207, DW_AT_data_member_location[DW_OP_plus_uconst 0xa]
    3080                      .dwattr DW$207, DW_AT_accessibility(DW_ACCESS_public)
    3081              DW$208  .dwtag  DW_TAG_member, DW_AT_type(*DW$T$11)
    3082                      .dwattr DW$208, DW_AT_name("cardreadflag"), DW_AT_symbol_name("_cardreadflag")
    3083                      .dwattr DW$208, DW_AT_data_member_location[DW_OP_plus_uconst 0xb]
    3084                      .dwattr DW$208, DW_AT_accessibility(DW_ACCESS_public)
    3085              DW$209  .dwtag  DW_TAG_member, DW_AT_type(*DW$T$11)
    3086                      .dwattr DW$209, DW_AT_name("ignore"), DW_AT_symbol_name("_ignore")
    3087                      .dwattr DW$209, DW_AT_data_member_location[DW_OP_plus_uconst 0xc]
    3088                      .dwattr DW$209, DW_AT_accessibility(DW_ACCESS_public)
    3089              DW$210  .dwtag  DW_TAG_member, DW_AT_type(*DW$T$11)
    3090                      .dwattr DW$210, DW_AT_name("dcmode"), DW_AT_symbol_name("_dcmode")
    3091                      .dwattr DW$210, DW_AT_data_member_location[DW_OP_plus_uconst 0xd]
    3092                      .dwattr DW$210, DW_AT_accessibility(DW_ACCESS_public)
    3093              DW$211  .dwtag  DW_TAG_member, DW_AT_type(*DW$T$11)
    3094                      .dwattr DW$211, DW_AT_name("spiinuse"), DW_AT_symbol_name("_spiinuse")
    3095                      .dwattr DW$211, DW_AT_data_member_location[DW_OP_plus_uconst 0xe]
    3096                      .dwattr DW$211, DW_AT_accessibility(DW_ACCESS_public)
    3097              DW$212  .dwtag  DW_TAG_member, DW_AT_type(*DW$T$11)
    3098                      .dwattr DW$212, DW_AT_name("dcpeakhold"), DW_AT_symbol_name("_dcpeakhold")
    3099                      .dwattr DW$212, DW_AT_data_member_location[DW_OP_plus_uconst 0xf]
    3100                      .dwattr DW$212, DW_AT_accessibility(DW_ACCESS_public)
TMS320C2000 COFF Assembler PC v4.1.3 Thu Aug 18 12:16:06 2016

Tools Copyright (c) 1996-2006 Texas Instruments Incorporated
alarms.asm                                                           PAGE   67

    3101              DW$213  .dwtag  DW_TAG_member, DW_AT_type(*DW$T$11)
    3102                      .dwattr DW$213, DW_AT_name("dcpause"), DW_AT_symbol_name("_dcpause")
    3103                      .dwattr DW$213, DW_AT_data_member_location[DW_OP_plus_uconst 0x10]
    3104                      .dwattr DW$213, DW_AT_accessibility(DW_ACCESS_public)
    3105              DW$214  .dwtag  DW_TAG_member, DW_AT_type(*DW$T$11)
    3106                      .dwattr DW$214, DW_AT_name("mastermode"), DW_AT_symbol_name("_mastermode")
    3107                      .dwattr DW$214, DW_AT_data_member_location[DW_OP_plus_uconst 0x11]
    3108                      .dwattr DW$214, DW_AT_accessibility(DW_ACCESS_public)
    3109              DW$215  .dwtag  DW_TAG_member, DW_AT_type(*DW$T$11)
    3110                      .dwattr DW$215, DW_AT_name("updatescaling"), DW_AT_symbol_name("_updatescaling")
    3111                      .dwattr DW$215, DW_AT_data_member_location[DW_OP_plus_uconst 0x12]
    3112                      .dwattr DW$215, DW_AT_accessibility(DW_ACCESS_public)
    3113              DW$216  .dwtag  DW_TAG_member, DW_AT_type(*DW$T$11)
    3114                      .dwattr DW$216, DW_AT_name("forwardasternflag"), DW_AT_symbol_name("_forwardasternflag")
    3115                      .dwattr DW$216, DW_AT_data_member_location[DW_OP_plus_uconst 0x13]
    3116                      .dwattr DW$216, DW_AT_accessibility(DW_ACCESS_public)
    3117              DW$217  .dwtag  DW_TAG_member, DW_AT_type(*DW$T$11)
    3118                      .dwattr DW$217, DW_AT_name("initprogress"), DW_AT_symbol_name("_initprogress")
    3119                      .dwattr DW$217, DW_AT_data_member_location[DW_OP_plus_uconst 0x14]
    3120                      .dwattr DW$217, DW_AT_accessibility(DW_ACCESS_public)
    3121              DW$218  .dwtag  DW_TAG_member, DW_AT_type(*DW$T$11)
    3122                      .dwattr DW$218, DW_AT_name("dircountdown"), DW_AT_symbol_name("_dircountdown")
    3123                      .dwattr DW$218, DW_AT_data_member_location[DW_OP_plus_uconst 0x15]
    3124                      .dwattr DW$218, DW_AT_accessibility(DW_ACCESS_public)
    3125              DW$219  .dwtag  DW_TAG_member, DW_AT_type(*DW$T$11)
    3126                      .dwattr DW$219, DW_AT_name("slowdowncounter"), DW_AT_symbol_name("_slowdowncounter")
    3127                      .dwattr DW$219, DW_AT_data_member_location[DW_OP_plus_uconst 0x16]
    3128                      .dwattr DW$219, DW_AT_accessibility(DW_ACCESS_public)
    3129              DW$220  .dwtag  DW_TAG_member, DW_AT_type(*DW$T$11)
    3130                      .dwattr DW$220, DW_AT_name("slowdowncondition"), DW_AT_symbol_name("_slowdowncondition")
    3131                      .dwattr DW$220, DW_AT_data_member_location[DW_OP_plus_uconst 0x17]
    3132                      .dwattr DW$220, DW_AT_accessibility(DW_ACCESS_public)
    3133              DW$221  .dwtag  DW_TAG_member, DW_AT_type(*DW$T$11)
    3134                      .dwattr DW$221, DW_AT_name("slowdownlevel"), DW_AT_symbol_name("_slowdownlevel")
    3135                      .dwattr DW$221, DW_AT_data_member_location[DW_OP_plus_uconst 0x18]
    3136                      .dwattr DW$221, DW_AT_accessibility(DW_ACCESS_public)
    3137              DW$222  .dwtag  DW_TAG_member, DW_AT_type(*DW$T$11)
    3138                      .dwattr DW$222, DW_AT_name("alarmlevel"), DW_AT_symbol_name("_alarmlevel")
    3139                      .dwattr DW$222, DW_AT_data_member_location[DW_OP_plus_uconst 0x19]
    3140                      .dwattr DW$222, DW_AT_accessibility(DW_ACCESS_public)
    3141              DW$223  .dwtag  DW_TAG_member, DW_AT_type(*DW$T$11)
    3142                      .dwattr DW$223, DW_AT_name("slowdowndevlevel"), DW_AT_symbol_name("_slowdowndevlevel")
    3143                      .dwattr DW$223, DW_AT_data_member_location[DW_OP_plus_uconst 0x1a]
    3144                      .dwattr DW$223, DW_AT_accessibility(DW_ACCESS_public)
    3145              DW$224  .dwtag  DW_TAG_member, DW_AT_type(*DW$T$11)
    3146                      .dwattr DW$224, DW_AT_name("alarmdevlevel"), DW_AT_symbol_name("_alarmdevlevel")
    3147                      .dwattr DW$224, DW_AT_data_member_location[DW_OP_plus_uconst 0x1b]
    3148                      .dwattr DW$224, DW_AT_accessibility(DW_ACCESS_public)
    3149              DW$225  .dwtag  DW_TAG_member, DW_AT_type(*DW$T$11)
    3150                      .dwattr DW$225, DW_AT_name("cylinderalarmlevel"), DW_AT_symbol_name("_cylinderalarmlevel")
    3151                      .dwattr DW$225, DW_AT_data_member_location[DW_OP_plus_uconst 0x1c]
    3152                      .dwattr DW$225, DW_AT_accessibility(DW_ACCESS_public)
    3153              DW$226  .dwtag  DW_TAG_member, DW_AT_type(*DW$T$11)
    3154                      .dwattr DW$226, DW_AT_name("temperaturealarm"), DW_AT_symbol_name("_temperaturealarm")
    3155                      .dwattr DW$226, DW_AT_data_member_location[DW_OP_plus_uconst 0x1d]
TMS320C2000 COFF Assembler PC v4.1.3 Thu Aug 18 12:16:06 2016

Tools Copyright (c) 1996-2006 Texas Instruments Incorporated
alarms.asm                                                           PAGE   68

    3156                      .dwattr DW$226, DW_AT_accessibility(DW_ACCESS_public)
    3157              DW$227  .dwtag  DW_TAG_member, DW_AT_type(*DW$T$11)
    3158                      .dwattr DW$227, DW_AT_name("temperatureslowdown"), DW_AT_symbol_name("_temperatureslowdown")
    3159                      .dwattr DW$227, DW_AT_data_member_location[DW_OP_plus_uconst 0x1e]
    3160                      .dwattr DW$227, DW_AT_accessibility(DW_ACCESS_public)
    3161              DW$228  .dwtag  DW_TAG_member, DW_AT_type(*DW$T$27)
    3162                      .dwattr DW$228, DW_AT_name("anadebug"), DW_AT_symbol_name("_anadebug")
    3163                      .dwattr DW$228, DW_AT_data_member_location[DW_OP_plus_uconst 0x1f]
    3164                      .dwattr DW$228, DW_AT_accessibility(DW_ACCESS_public)
    3165              DW$229  .dwtag  DW_TAG_member, DW_AT_type(*DW$T$11)
    3166                      .dwattr DW$229, DW_AT_name("serialdebug"), DW_AT_symbol_name("_serialdebug")
    3167                      .dwattr DW$229, DW_AT_data_member_location[DW_OP_plus_uconst 0x21]
    3168                      .dwattr DW$229, DW_AT_accessibility(DW_ACCESS_public)
    3169              DW$230  .dwtag  DW_TAG_member, DW_AT_type(*DW$T$11)
    3170                      .dwattr DW$230, DW_AT_name("timerrunning"), DW_AT_symbol_name("_timerrunning")
    3171                      .dwattr DW$230, DW_AT_data_member_location[DW_OP_plus_uconst 0x22]
    3172                      .dwattr DW$230, DW_AT_accessibility(DW_ACCESS_public)
    3173              DW$231  .dwtag  DW_TAG_member, DW_AT_type(*DW$T$11)
    3174                      .dwattr DW$231, DW_AT_name("rpm"), DW_AT_symbol_name("_rpm")
    3175                      .dwattr DW$231, DW_AT_data_member_location[DW_OP_plus_uconst 0x23]
    3176                      .dwattr DW$231, DW_AT_accessibility(DW_ACCESS_public)
    3177                      .dwendtag DW$T$28
    3178              
    3179              DW$T$117        .dwtag  DW_TAG_typedef, DW_AT_name("timersstruct"), DW_AT_type(*DW$T$30)
    3180                      .dwattr DW$T$117, DW_AT_language(DW_LANG_C)
    3181              
    3182              DW$T$33 .dwtag  DW_TAG_structure_type
    3183                      .dwattr DW$T$33, DW_AT_name("tag_allsensorstruct")
    3184                      .dwattr DW$T$33, DW_AT_byte_size(0x2d)
    3185              DW$232  .dwtag  DW_TAG_member, DW_AT_type(*DW$T$11)
    3186                      .dwattr DW$232, DW_AT_name("numsensors"), DW_AT_symbol_name("_numsensors")
    3187                      .dwattr DW$232, DW_AT_data_member_location[DW_OP_plus_uconst 0x0]
    3188                      .dwattr DW$232, DW_AT_accessibility(DW_ACCESS_public)
    3189              DW$233  .dwtag  DW_TAG_member, DW_AT_type(*DW$T$11)
    3190                      .dwattr DW$233, DW_AT_name("numsensorsspu1"), DW_AT_symbol_name("_numsensorsspu1")
    3191                      .dwattr DW$233, DW_AT_data_member_location[DW_OP_plus_uconst 0x1]
    3192                      .dwattr DW$233, DW_AT_accessibility(DW_ACCESS_public)
    3193              DW$234  .dwtag  DW_TAG_member, DW_AT_type(*DW$T$11)
    3194                      .dwattr DW$234, DW_AT_name("numsensorsspu2"), DW_AT_symbol_name("_numsensorsspu2")
    3195                      .dwattr DW$234, DW_AT_data_member_location[DW_OP_plus_uconst 0x2]
    3196                      .dwattr DW$234, DW_AT_accessibility(DW_ACCESS_public)
    3197              DW$235  .dwtag  DW_TAG_member, DW_AT_type(*DW$T$11)
    3198                      .dwattr DW$235, DW_AT_name("nominalspeed"), DW_AT_symbol_name("_nominalspeed")
    3199                      .dwattr DW$235, DW_AT_data_member_location[DW_OP_plus_uconst 0x3]
    3200                      .dwattr DW$235, DW_AT_accessibility(DW_ACCESS_public)
    3201              DW$236  .dwtag  DW_TAG_member, DW_AT_type(*DW$T$11)
    3202                      .dwattr DW$236, DW_AT_name("rpmmin"), DW_AT_symbol_name("_rpmmin")
    3203                      .dwattr DW$236, DW_AT_data_member_location[DW_OP_plus_uconst 0x4]
    3204                      .dwattr DW$236, DW_AT_accessibility(DW_ACCESS_public)
    3205              DW$237  .dwtag  DW_TAG_member, DW_AT_type(*DW$T$11)
    3206                      .dwattr DW$237, DW_AT_name("rpmmax"), DW_AT_symbol_name("_rpmmax")
    3207                      .dwattr DW$237, DW_AT_data_member_location[DW_OP_plus_uconst 0x5]
    3208                      .dwattr DW$237, DW_AT_accessibility(DW_ACCESS_public)
    3209              DW$238  .dwtag  DW_TAG_member, DW_AT_type(*DW$T$11)
    3210                      .dwattr DW$238, DW_AT_name("reflash"), DW_AT_symbol_name("_reflash")
TMS320C2000 COFF Assembler PC v4.1.3 Thu Aug 18 12:16:06 2016

Tools Copyright (c) 1996-2006 Texas Instruments Incorporated
alarms.asm                                                           PAGE   69

    3211                      .dwattr DW$238, DW_AT_data_member_location[DW_OP_plus_uconst 0x6]
    3212                      .dwattr DW$238, DW_AT_accessibility(DW_ACCESS_public)
    3213              DW$239  .dwtag  DW_TAG_member, DW_AT_type(*DW$T$10)
    3214                      .dwattr DW$239, DW_AT_name("sensorhysteresis"), DW_AT_symbol_name("_sensorhysteresis")
    3215                      .dwattr DW$239, DW_AT_data_member_location[DW_OP_plus_uconst 0x7]
    3216                      .dwattr DW$239, DW_AT_accessibility(DW_ACCESS_public)
    3217              DW$240  .dwtag  DW_TAG_member, DW_AT_type(*DW$T$10)
    3218                      .dwattr DW$240, DW_AT_name("cylinderhysteresis"), DW_AT_symbol_name("_cylinderhysteresis")
    3219                      .dwattr DW$240, DW_AT_data_member_location[DW_OP_plus_uconst 0x8]
    3220                      .dwattr DW$240, DW_AT_accessibility(DW_ACCESS_public)
    3221              DW$241  .dwtag  DW_TAG_member, DW_AT_type(*DW$T$11)
    3222                      .dwattr DW$241, DW_AT_name("slowdownlevel"), DW_AT_symbol_name("_slowdownlevel")
    3223                      .dwattr DW$241, DW_AT_data_member_location[DW_OP_plus_uconst 0x9]
    3224                      .dwattr DW$241, DW_AT_accessibility(DW_ACCESS_public)
    3225              DW$242  .dwtag  DW_TAG_member, DW_AT_type(*DW$T$11)
    3226                      .dwattr DW$242, DW_AT_name("alarmlevel"), DW_AT_symbol_name("_alarmlevel")
    3227                      .dwattr DW$242, DW_AT_data_member_location[DW_OP_plus_uconst 0xa]
    3228                      .dwattr DW$242, DW_AT_accessibility(DW_ACCESS_public)
    3229              DW$243  .dwtag  DW_TAG_member, DW_AT_type(*DW$T$11)
    3230                      .dwattr DW$243, DW_AT_name("slowdowndevcallevel"), DW_AT_symbol_name("_slowdowndevcallevel")
    3231                      .dwattr DW$243, DW_AT_data_member_location[DW_OP_plus_uconst 0xb]
    3232                      .dwattr DW$243, DW_AT_accessibility(DW_ACCESS_public)
    3233              DW$244  .dwtag  DW_TAG_member, DW_AT_type(*DW$T$11)
    3234                      .dwattr DW$244, DW_AT_name("alarmdevcallevel"), DW_AT_symbol_name("_alarmdevcallevel")
    3235                      .dwattr DW$244, DW_AT_data_member_location[DW_OP_plus_uconst 0xc]
    3236                      .dwattr DW$244, DW_AT_accessibility(DW_ACCESS_public)
    3237              DW$245  .dwtag  DW_TAG_member, DW_AT_type(*DW$T$11)
    3238                      .dwattr DW$245, DW_AT_name("slowdowndevlevel"), DW_AT_symbol_name("_slowdowndevlevel")
    3239                      .dwattr DW$245, DW_AT_data_member_location[DW_OP_plus_uconst 0xd]
    3240                      .dwattr DW$245, DW_AT_accessibility(DW_ACCESS_public)
    3241              DW$246  .dwtag  DW_TAG_member, DW_AT_type(*DW$T$11)
    3242                      .dwattr DW$246, DW_AT_name("alarmdevlevel"), DW_AT_symbol_name("_alarmdevlevel")
    3243                      .dwattr DW$246, DW_AT_data_member_location[DW_OP_plus_uconst 0xe]
    3244                      .dwattr DW$246, DW_AT_accessibility(DW_ACCESS_public)
    3245              DW$247  .dwtag  DW_TAG_member, DW_AT_type(*DW$T$11)
    3246                      .dwattr DW$247, DW_AT_name("cylinderalarmlevel"), DW_AT_symbol_name("_cylinderalarmlevel")
    3247                      .dwattr DW$247, DW_AT_data_member_location[DW_OP_plus_uconst 0xf]
    3248                      .dwattr DW$247, DW_AT_accessibility(DW_ACCESS_public)
    3249              DW$248  .dwtag  DW_TAG_member, DW_AT_type(*DW$T$31)
    3250                      .dwattr DW$248, DW_AT_name("flags"), DW_AT_symbol_name("_flags")
    3251                      .dwattr DW$248, DW_AT_data_member_location[DW_OP_plus_uconst 0x10]
    3252                      .dwattr DW$248, DW_AT_accessibility(DW_ACCESS_public)
    3253              DW$249  .dwtag  DW_TAG_member, DW_AT_type(*DW$T$11)
    3254                      .dwattr DW$249, DW_AT_name("slowdownack"), DW_AT_symbol_name("_slowdownack")
    3255                      .dwattr DW$249, DW_AT_data_member_location[DW_OP_plus_uconst 0x11]
    3256                      .dwattr DW$249, DW_AT_accessibility(DW_ACCESS_public)
    3257              DW$250  .dwtag  DW_TAG_member, DW_AT_type(*DW$T$11)
    3258                      .dwattr DW$250, DW_AT_name("alarmack"), DW_AT_symbol_name("_alarmack")
    3259                      .dwattr DW$250, DW_AT_data_member_location[DW_OP_plus_uconst 0x12]
    3260                      .dwattr DW$250, DW_AT_accessibility(DW_ACCESS_public)
    3261              DW$251  .dwtag  DW_TAG_member, DW_AT_type(*DW$T$11)
    3262                      .dwattr DW$251, DW_AT_name("maxmintimer"), DW_AT_symbol_name("_maxmintimer")
    3263                      .dwattr DW$251, DW_AT_data_member_location[DW_OP_plus_uconst 0x13]
    3264                      .dwattr DW$251, DW_AT_accessibility(DW_ACCESS_public)
    3265              DW$252  .dwtag  DW_TAG_member, DW_AT_type(*DW$T$11)
TMS320C2000 COFF Assembler PC v4.1.3 Thu Aug 18 12:16:06 2016

Tools Copyright (c) 1996-2006 Texas Instruments Incorporated
alarms.asm                                                           PAGE   70

    3266                      .dwattr DW$252, DW_AT_name("enginedircal"), DW_AT_symbol_name("_enginedircal")
    3267                      .dwattr DW$252, DW_AT_data_member_location[DW_OP_plus_uconst 0x14]
    3268                      .dwattr DW$252, DW_AT_accessibility(DW_ACCESS_public)
    3269              DW$253  .dwtag  DW_TAG_member, DW_AT_type(*DW$T$29)
    3270                      .dwattr DW$253, DW_AT_name("dirorder"), DW_AT_symbol_name("_dirorder")
    3271                      .dwattr DW$253, DW_AT_data_member_location[DW_OP_plus_uconst 0x15]
    3272                      .dwattr DW$253, DW_AT_accessibility(DW_ACCESS_public)
    3273              DW$254  .dwtag  DW_TAG_member, DW_AT_type(*DW$T$11)
    3274                      .dwattr DW$254, DW_AT_name("prewarningtimer"), DW_AT_symbol_name("_prewarningtimer")
    3275                      .dwattr DW$254, DW_AT_data_member_location[DW_OP_plus_uconst 0x23]
    3276                      .dwattr DW$254, DW_AT_accessibility(DW_ACCESS_public)
    3277              DW$255  .dwtag  DW_TAG_member, DW_AT_type(*DW$T$11)
    3278                      .dwattr DW$255, DW_AT_name("prewarninglevel"), DW_AT_symbol_name("_prewarninglevel")
    3279                      .dwattr DW$255, DW_AT_data_member_location[DW_OP_plus_uconst 0x24]
    3280                      .dwattr DW$255, DW_AT_accessibility(DW_ACCESS_public)
    3281              DW$256  .dwtag  DW_TAG_member, DW_AT_type(*DW$T$11)
    3282                      .dwattr DW$256, DW_AT_name("rpmlimit"), DW_AT_symbol_name("_rpmlimit")
    3283                      .dwattr DW$256, DW_AT_data_member_location[DW_OP_plus_uconst 0x25]
    3284                      .dwattr DW$256, DW_AT_accessibility(DW_ACCESS_public)
    3285              DW$257  .dwtag  DW_TAG_member, DW_AT_type(*DW$T$11)
    3286                      .dwattr DW$257, DW_AT_name("dsss"), DW_AT_symbol_name("_dsss")
    3287                      .dwattr DW$257, DW_AT_data_member_location[DW_OP_plus_uconst 0x26]
    3288                      .dwattr DW$257, DW_AT_accessibility(DW_ACCESS_public)
    3289              DW$258  .dwtag  DW_TAG_member, DW_AT_type(*DW$T$11)
    3290                      .dwattr DW$258, DW_AT_name("slowdowncallevel"), DW_AT_symbol_name("_slowdowncallevel")
    3291                      .dwattr DW$258, DW_AT_data_member_location[DW_OP_plus_uconst 0x27]
    3292                      .dwattr DW$258, DW_AT_accessibility(DW_ACCESS_public)
    3293              DW$259  .dwtag  DW_TAG_member, DW_AT_type(*DW$T$11)
    3294                      .dwattr DW$259, DW_AT_name("alarmcallevel"), DW_AT_symbol_name("_alarmcallevel")
    3295                      .dwattr DW$259, DW_AT_data_member_location[DW_OP_plus_uconst 0x28]
    3296                      .dwattr DW$259, DW_AT_accessibility(DW_ACCESS_public)
    3297              DW$260  .dwtag  DW_TAG_member, DW_AT_type(*DW$T$11)
    3298                      .dwattr DW$260, DW_AT_name("cylinderalarmcallevel"), DW_AT_symbol_name("_cylinderalarmcallevel")
    3299                      .dwattr DW$260, DW_AT_data_member_location[DW_OP_plus_uconst 0x29]
    3300                      .dwattr DW$260, DW_AT_accessibility(DW_ACCESS_public)
    3301              DW$261  .dwtag  DW_TAG_member, DW_AT_type(*DW$T$32)
    3302                      .dwattr DW$261, DW_AT_name("bits"), DW_AT_symbol_name("_bits")
    3303                      .dwattr DW$261, DW_AT_data_member_location[DW_OP_plus_uconst 0x2a]
    3304                      .dwattr DW$261, DW_AT_accessibility(DW_ACCESS_public)
    3305              DW$262  .dwtag  DW_TAG_member, DW_AT_type(*DW$T$11)
    3306                      .dwattr DW$262, DW_AT_name("iBarredVibrationSpeedLow"), DW_AT_symbol_name("_iBarredVibrationSpeedLow"
    3307                      .dwattr DW$262, DW_AT_data_member_location[DW_OP_plus_uconst 0x2b]
    3308                      .dwattr DW$262, DW_AT_accessibility(DW_ACCESS_public)
    3309              DW$263  .dwtag  DW_TAG_member, DW_AT_type(*DW$T$11)
    3310                      .dwattr DW$263, DW_AT_name("iBarredVibrationSpeedHigh"), DW_AT_symbol_name("_iBarredVibrationSpeedHig
    3311                      .dwattr DW$263, DW_AT_data_member_location[DW_OP_plus_uconst 0x2c]
    3312                      .dwattr DW$263, DW_AT_accessibility(DW_ACCESS_public)
    3313                      .dwendtag DW$T$33
    3314              
    3315              DW$T$122        .dwtag  DW_TAG_typedef, DW_AT_name("cylinderstruct"), DW_AT_type(*DW$T$36)
    3316                      .dwattr DW$T$122, DW_AT_language(DW_LANG_C)
    3317              DW$T$126        .dwtag  DW_TAG_typedef, DW_AT_name("sensorstruct"), DW_AT_type(*DW$T$40)
    3318                      .dwattr DW$T$126, DW_AT_language(DW_LANG_C)
    3319              
    3320              DW$T$41 .dwtag  DW_TAG_structure_type
TMS320C2000 COFF Assembler PC v4.1.3 Thu Aug 18 12:16:06 2016

Tools Copyright (c) 1996-2006 Texas Instruments Incorporated
alarms.asm                                                           PAGE   71

    3321                      .dwattr DW$T$41, DW_AT_name("tag_damagemonstruct")
    3322                      .dwattr DW$T$41, DW_AT_byte_size(0x10)
    3323              DW$264  .dwtag  DW_TAG_member, DW_AT_type(*DW$T$11)
    3324                      .dwattr DW$264, DW_AT_name("ccsplit"), DW_AT_symbol_name("_ccsplit")
    3325                      .dwattr DW$264, DW_AT_data_member_location[DW_OP_plus_uconst 0x0]
    3326                      .dwattr DW$264, DW_AT_accessibility(DW_ACCESS_public)
    3327              DW$265  .dwtag  DW_TAG_member, DW_AT_type(*DW$T$11)
    3328                      .dwattr DW$265, DW_AT_name("kvalue"), DW_AT_symbol_name("_kvalue")
    3329                      .dwattr DW$265, DW_AT_data_member_location[DW_OP_plus_uconst 0x1]
    3330                      .dwattr DW$265, DW_AT_accessibility(DW_ACCESS_public)
    3331              DW$266  .dwtag  DW_TAG_member, DW_AT_type(*DW$T$11)
    3332                      .dwattr DW$266, DW_AT_name("betavalue"), DW_AT_symbol_name("_betavalue")
    3333                      .dwattr DW$266, DW_AT_data_member_location[DW_OP_plus_uconst 0x2]
    3334                      .dwattr DW$266, DW_AT_accessibility(DW_ACCESS_public)
    3335              DW$267  .dwtag  DW_TAG_member, DW_AT_type(*DW$T$11)
    3336                      .dwattr DW$267, DW_AT_name("rpmlevelx"), DW_AT_symbol_name("_rpmlevelx")
    3337                      .dwattr DW$267, DW_AT_data_member_location[DW_OP_plus_uconst 0x3]
    3338                      .dwattr DW$267, DW_AT_accessibility(DW_ACCESS_public)
    3339              DW$268  .dwtag  DW_TAG_member, DW_AT_type(*DW$T$11)
    3340                      .dwattr DW$268, DW_AT_name("reflevelx"), DW_AT_symbol_name("_reflevelx")
    3341                      .dwattr DW$268, DW_AT_data_member_location[DW_OP_plus_uconst 0x4]
    3342                      .dwattr DW$268, DW_AT_accessibility(DW_ACCESS_public)
    3343              DW$269  .dwtag  DW_TAG_member, DW_AT_type(*DW$T$11)
    3344                      .dwattr DW$269, DW_AT_name("presentstatex"), DW_AT_symbol_name("_presentstatex")
    3345                      .dwattr DW$269, DW_AT_data_member_location[DW_OP_plus_uconst 0x5]
    3346                      .dwattr DW$269, DW_AT_accessibility(DW_ACCESS_public)
    3347              DW$270  .dwtag  DW_TAG_member, DW_AT_type(*DW$T$11)
    3348                      .dwattr DW$270, DW_AT_name("alarmlevelsingle"), DW_AT_symbol_name("_alarmlevelsingle")
    3349                      .dwattr DW$270, DW_AT_data_member_location[DW_OP_plus_uconst 0x6]
    3350                      .dwattr DW$270, DW_AT_accessibility(DW_ACCESS_public)
    3351              DW$271  .dwtag  DW_TAG_member, DW_AT_type(*DW$T$11)
    3352                      .dwattr DW$271, DW_AT_name("alarmlevelcyl"), DW_AT_symbol_name("_alarmlevelcyl")
    3353                      .dwattr DW$271, DW_AT_data_member_location[DW_OP_plus_uconst 0x7]
    3354                      .dwattr DW$271, DW_AT_accessibility(DW_ACCESS_public)
    3355              DW$272  .dwtag  DW_TAG_member, DW_AT_type(*DW$T$11)
    3356                      .dwattr DW$272, DW_AT_name("alarmlevelmbsum"), DW_AT_symbol_name("_alarmlevelmbsum")
    3357                      .dwattr DW$272, DW_AT_data_member_location[DW_OP_plus_uconst 0x8]
    3358                      .dwattr DW$272, DW_AT_accessibility(DW_ACCESS_public)
    3359              DW$273  .dwtag  DW_TAG_member, DW_AT_type(*DW$T$11)
    3360                      .dwattr DW$273, DW_AT_name("cylneighbour"), DW_AT_symbol_name("_cylneighbour")
    3361                      .dwattr DW$273, DW_AT_data_member_location[DW_OP_plus_uconst 0x9]
    3362                      .dwattr DW$273, DW_AT_accessibility(DW_ACCESS_public)
    3363              DW$274  .dwtag  DW_TAG_member, DW_AT_type(*DW$T$11)
    3364                      .dwattr DW$274, DW_AT_name("mbneighbour"), DW_AT_symbol_name("_mbneighbour")
    3365                      .dwattr DW$274, DW_AT_data_member_location[DW_OP_plus_uconst 0xa]
    3366                      .dwattr DW$274, DW_AT_accessibility(DW_ACCESS_public)
    3367              DW$275  .dwtag  DW_TAG_member, DW_AT_type(*DW$T$11)
    3368                      .dwattr DW$275, DW_AT_name("cylneighbouralarms"), DW_AT_symbol_name("_cylneighbouralarms")
    3369                      .dwattr DW$275, DW_AT_data_member_location[DW_OP_plus_uconst 0xb]
    3370                      .dwattr DW$275, DW_AT_accessibility(DW_ACCESS_public)
    3371              DW$276  .dwtag  DW_TAG_member, DW_AT_type(*DW$T$11)
    3372                      .dwattr DW$276, DW_AT_name("mbneighbouralarms"), DW_AT_symbol_name("_mbneighbouralarms")
    3373                      .dwattr DW$276, DW_AT_data_member_location[DW_OP_plus_uconst 0xc]
    3374                      .dwattr DW$276, DW_AT_accessibility(DW_ACCESS_public)
    3375              DW$277  .dwtag  DW_TAG_member, DW_AT_type(*DW$T$11)
TMS320C2000 COFF Assembler PC v4.1.3 Thu Aug 18 12:16:06 2016

Tools Copyright (c) 1996-2006 Texas Instruments Incorporated
alarms.asm                                                           PAGE   72

    3376                      .dwattr DW$277, DW_AT_name("deltarpmlimit"), DW_AT_symbol_name("_deltarpmlimit")
    3377                      .dwattr DW$277, DW_AT_data_member_location[DW_OP_plus_uconst 0xd]
    3378                      .dwattr DW$277, DW_AT_accessibility(DW_ACCESS_public)
    3379              DW$278  .dwtag  DW_TAG_member, DW_AT_type(*DW$T$11)
    3380                      .dwattr DW$278, DW_AT_name("hysteresis"), DW_AT_symbol_name("_hysteresis")
    3381                      .dwattr DW$278, DW_AT_data_member_location[DW_OP_plus_uconst 0xe]
    3382                      .dwattr DW$278, DW_AT_accessibility(DW_ACCESS_public)
    3383              DW$279  .dwtag  DW_TAG_member, DW_AT_type(*DW$T$11)
    3384                      .dwattr DW$279, DW_AT_name("damagemonenb"), DW_AT_symbol_name("_damagemonenb")
    3385                      .dwattr DW$279, DW_AT_data_member_location[DW_OP_plus_uconst 0xf]
    3386                      .dwattr DW$279, DW_AT_accessibility(DW_ACCESS_public)
    3387                      .dwendtag DW$T$41
    3388              
    3389              
    3390              DW$T$43 .dwtag  DW_TAG_structure_type
    3391                      .dwattr DW$T$43, DW_AT_name("tag_damalarmsstruct")
    3392                      .dwattr DW$T$43, DW_AT_byte_size(0x04)
    3393              DW$280  .dwtag  DW_TAG_member, DW_AT_type(*DW$T$42)
    3394                      .dwattr DW$280, DW_AT_name("single"), DW_AT_symbol_name("_single")
    3395                      .dwattr DW$280, DW_AT_data_member_location[DW_OP_plus_uconst 0x0]
    3396                      .dwattr DW$280, DW_AT_accessibility(DW_ACCESS_public)
    3397              DW$281  .dwtag  DW_TAG_member, DW_AT_type(*DW$T$11)
    3398                      .dwattr DW$281, DW_AT_name("cylinder"), DW_AT_symbol_name("_cylinder")
    3399                      .dwattr DW$281, DW_AT_data_member_location[DW_OP_plus_uconst 0x2]
    3400                      .dwattr DW$281, DW_AT_accessibility(DW_ACCESS_public)
    3401              DW$282  .dwtag  DW_TAG_member, DW_AT_type(*DW$T$11)
    3402                      .dwattr DW$282, DW_AT_name("mbneighbour"), DW_AT_symbol_name("_mbneighbour")
    3403                      .dwattr DW$282, DW_AT_data_member_location[DW_OP_plus_uconst 0x3]
    3404                      .dwattr DW$282, DW_AT_accessibility(DW_ACCESS_public)
    3405                      .dwendtag DW$T$43
    3406              
    3407              
    3408              DW$T$45 .dwtag  DW_TAG_structure_type
    3409                      .dwattr DW$T$45, DW_AT_name("tag_slavecmdstruct")
    3410                      .dwattr DW$T$45, DW_AT_byte_size(0x48)
    3411              DW$283  .dwtag  DW_TAG_member, DW_AT_type(*DW$T$11)
    3412                      .dwattr DW$283, DW_AT_name("SlaveAddr"), DW_AT_symbol_name("_SlaveAddr")
    3413                      .dwattr DW$283, DW_AT_data_member_location[DW_OP_plus_uconst 0x0]
    3414                      .dwattr DW$283, DW_AT_accessibility(DW_ACCESS_public)
    3415              DW$284  .dwtag  DW_TAG_member, DW_AT_type(*DW$T$11)
    3416                      .dwattr DW$284, DW_AT_name("Func"), DW_AT_symbol_name("_Func")
    3417                      .dwattr DW$284, DW_AT_data_member_location[DW_OP_plus_uconst 0x1]
    3418                      .dwattr DW$284, DW_AT_accessibility(DW_ACCESS_public)
    3419              DW$285  .dwtag  DW_TAG_member, DW_AT_type(*DW$T$11)
    3420                      .dwattr DW$285, DW_AT_name("StartAdd"), DW_AT_symbol_name("_StartAdd")
    3421                      .dwattr DW$285, DW_AT_data_member_location[DW_OP_plus_uconst 0x2]
    3422                      .dwattr DW$285, DW_AT_accessibility(DW_ACCESS_public)
    3423              DW$286  .dwtag  DW_TAG_member, DW_AT_type(*DW$T$11)
    3424                      .dwattr DW$286, DW_AT_name("NoReg"), DW_AT_symbol_name("_NoReg")
    3425                      .dwattr DW$286, DW_AT_data_member_location[DW_OP_plus_uconst 0x3]
    3426                      .dwattr DW$286, DW_AT_accessibility(DW_ACCESS_public)
    3427              DW$287  .dwtag  DW_TAG_member, DW_AT_type(*DW$T$11)
    3428                      .dwattr DW$287, DW_AT_name("ByteCount"), DW_AT_symbol_name("_ByteCount")
    3429                      .dwattr DW$287, DW_AT_data_member_location[DW_OP_plus_uconst 0x4]
    3430                      .dwattr DW$287, DW_AT_accessibility(DW_ACCESS_public)
TMS320C2000 COFF Assembler PC v4.1.3 Thu Aug 18 12:16:06 2016

Tools Copyright (c) 1996-2006 Texas Instruments Incorporated
alarms.asm                                                           PAGE   73

    3431              DW$288  .dwtag  DW_TAG_member, DW_AT_type(*DW$T$44)
    3432                      .dwattr DW$288, DW_AT_name("Data"), DW_AT_symbol_name("_Data")
    3433                      .dwattr DW$288, DW_AT_data_member_location[DW_OP_plus_uconst 0x5]
    3434                      .dwattr DW$288, DW_AT_accessibility(DW_ACCESS_public)
    3435              DW$289  .dwtag  DW_TAG_member, DW_AT_type(*DW$T$11)
    3436                      .dwattr DW$289, DW_AT_name("txmode"), DW_AT_symbol_name("_txmode")
    3437                      .dwattr DW$289, DW_AT_data_member_location[DW_OP_plus_uconst 0x45]
    3438                      .dwattr DW$289, DW_AT_accessibility(DW_ACCESS_public)
    3439              DW$290  .dwtag  DW_TAG_member, DW_AT_type(*DW$T$11)
    3440                      .dwattr DW$290, DW_AT_name("slavelost"), DW_AT_symbol_name("_slavelost")
    3441                      .dwattr DW$290, DW_AT_data_member_location[DW_OP_plus_uconst 0x46]
    3442                      .dwattr DW$290, DW_AT_accessibility(DW_ACCESS_public)
    3443              DW$291  .dwtag  DW_TAG_member, DW_AT_type(*DW$T$11)
    3444                      .dwattr DW$291, DW_AT_name("slavenotready"), DW_AT_symbol_name("_slavenotready")
    3445                      .dwattr DW$291, DW_AT_data_member_location[DW_OP_plus_uconst 0x47]
    3446                      .dwattr DW$291, DW_AT_accessibility(DW_ACCESS_public)
    3447                      .dwendtag DW$T$45
    3448              
    3449              
    3450              DW$T$48 .dwtag  DW_TAG_structure_type
    3451                      .dwattr DW$T$48, DW_AT_name("tag_waterinoilstruct")
    3452                      .dwattr DW$T$48, DW_AT_byte_size(0x0c)
    3453              DW$292  .dwtag  DW_TAG_member, DW_AT_type(*DW$T$11)
    3454                      .dwattr DW$292, DW_AT_name("netadd"), DW_AT_symbol_name("_netadd")
    3455                      .dwattr DW$292, DW_AT_data_member_location[DW_OP_plus_uconst 0x0]
    3456                      .dwattr DW$292, DW_AT_accessibility(DW_ACCESS_public)
    3457              DW$293  .dwtag  DW_TAG_member, DW_AT_type(*DW$T$16)
    3458                      .dwattr DW$293, DW_AT_name("temperature"), DW_AT_symbol_name("_temperature")
    3459                      .dwattr DW$293, DW_AT_data_member_location[DW_OP_plus_uconst 0x2]
    3460                      .dwattr DW$293, DW_AT_accessibility(DW_ACCESS_public)
    3461              DW$294  .dwtag  DW_TAG_member, DW_AT_type(*DW$T$16)
    3462                      .dwattr DW$294, DW_AT_name("activity"), DW_AT_symbol_name("_activity")
    3463                      .dwattr DW$294, DW_AT_data_member_location[DW_OP_plus_uconst 0x4]
    3464                      .dwattr DW$294, DW_AT_accessibility(DW_ACCESS_public)
    3465              DW$295  .dwtag  DW_TAG_member, DW_AT_type(*DW$T$16)
    3466                      .dwattr DW$295, DW_AT_name("content"), DW_AT_symbol_name("_content")
    3467                      .dwattr DW$295, DW_AT_data_member_location[DW_OP_plus_uconst 0x6]
    3468                      .dwattr DW$295, DW_AT_accessibility(DW_ACCESS_public)
    3469              DW$296  .dwtag  DW_TAG_member, DW_AT_type(*DW$T$10)
    3470                      .dwattr DW$296, DW_AT_name("temperature_int"), DW_AT_symbol_name("_temperature_int")
    3471                      .dwattr DW$296, DW_AT_data_member_location[DW_OP_plus_uconst 0x8]
    3472                      .dwattr DW$296, DW_AT_accessibility(DW_ACCESS_public)
    3473              DW$297  .dwtag  DW_TAG_member, DW_AT_type(*DW$T$10)
    3474                      .dwattr DW$297, DW_AT_name("activity_int"), DW_AT_symbol_name("_activity_int")
    3475                      .dwattr DW$297, DW_AT_data_member_location[DW_OP_plus_uconst 0x9]
    3476                      .dwattr DW$297, DW_AT_accessibility(DW_ACCESS_public)
    3477              DW$298  .dwtag  DW_TAG_member, DW_AT_type(*DW$T$10)
    3478                      .dwattr DW$298, DW_AT_name("content_int"), DW_AT_symbol_name("_content_int")
    3479                      .dwattr DW$298, DW_AT_data_member_location[DW_OP_plus_uconst 0xa]
    3480                      .dwattr DW$298, DW_AT_accessibility(DW_ACCESS_public)
    3481              DW$299  .dwtag  DW_TAG_member, DW_AT_type(*DW$T$47)
    3482                      .dwattr DW$299, DW_AT_name("wioalarms"), DW_AT_symbol_name("_wioalarms")
    3483                      .dwattr DW$299, DW_AT_data_member_location[DW_OP_plus_uconst 0xb]
    3484                      .dwattr DW$299, DW_AT_accessibility(DW_ACCESS_public)
    3485                      .dwendtag DW$T$48
TMS320C2000 COFF Assembler PC v4.1.3 Thu Aug 18 12:16:06 2016

Tools Copyright (c) 1996-2006 Texas Instruments Incorporated
alarms.asm                                                           PAGE   74

    3486              
    3487              
    3488              DW$T$49 .dwtag  DW_TAG_structure_type
    3489                      .dwattr DW$T$49, DW_AT_byte_size(0x07)
    3490              DW$300  .dwtag  DW_TAG_member, DW_AT_type(*DW$T$11)
    3491                      .dwattr DW$300, DW_AT_name("outputtestmode"), DW_AT_symbol_name("_outputtestmode")
    3492                      .dwattr DW$300, DW_AT_data_member_location[DW_OP_plus_uconst 0x0]
    3493                      .dwattr DW$300, DW_AT_accessibility(DW_ACCESS_public)
    3494              DW$301  .dwtag  DW_TAG_member, DW_AT_type(*DW$T$11)
    3495                      .dwattr DW$301, DW_AT_name("previousstatus"), DW_AT_symbol_name("_previousstatus")
    3496                      .dwattr DW$301, DW_AT_data_member_location[DW_OP_plus_uconst 0x1]
    3497                      .dwattr DW$301, DW_AT_accessibility(DW_ACCESS_public)
    3498              DW$302  .dwtag  DW_TAG_member, DW_AT_type(*DW$T$11)
    3499                      .dwattr DW$302, DW_AT_name("previousslowdown"), DW_AT_symbol_name("_previousslowdown")
    3500                      .dwattr DW$302, DW_AT_data_member_location[DW_OP_plus_uconst 0x2]
    3501                      .dwattr DW$302, DW_AT_accessibility(DW_ACCESS_public)
    3502              DW$303  .dwtag  DW_TAG_member, DW_AT_type(*DW$T$11)
    3503                      .dwattr DW$303, DW_AT_name("previousalarm"), DW_AT_symbol_name("_previousalarm")
    3504                      .dwattr DW$303, DW_AT_data_member_location[DW_OP_plus_uconst 0x3]
    3505                      .dwattr DW$303, DW_AT_accessibility(DW_ACCESS_public)
    3506              DW$304  .dwtag  DW_TAG_member, DW_AT_type(*DW$T$11)
    3507                      .dwattr DW$304, DW_AT_name("slowdownreflash"), DW_AT_symbol_name("_slowdownreflash")
    3508                      .dwattr DW$304, DW_AT_data_member_location[DW_OP_plus_uconst 0x4]
    3509                      .dwattr DW$304, DW_AT_accessibility(DW_ACCESS_public)
    3510              DW$305  .dwtag  DW_TAG_member, DW_AT_type(*DW$T$11)
    3511                      .dwattr DW$305, DW_AT_name("alarmreflash"), DW_AT_symbol_name("_alarmreflash")
    3512                      .dwattr DW$305, DW_AT_data_member_location[DW_OP_plus_uconst 0x5]
    3513                      .dwattr DW$305, DW_AT_accessibility(DW_ACCESS_public)
    3514              DW$306  .dwtag  DW_TAG_member, DW_AT_type(*DW$T$11)
    3515                      .dwattr DW$306, DW_AT_name("statusreflash"), DW_AT_symbol_name("_statusreflash")
    3516                      .dwattr DW$306, DW_AT_data_member_location[DW_OP_plus_uconst 0x6]
    3517                      .dwattr DW$306, DW_AT_accessibility(DW_ACCESS_public)
    3518                      .dwendtag DW$T$49
    3519              
    3520              
    3521              DW$T$51 .dwtag  DW_TAG_structure_type
    3522                      .dwattr DW$T$51, DW_AT_name("tag_bearingstatusstruct")
    3523                      .dwattr DW$T$51, DW_AT_byte_size(0x2c)
    3524              DW$307  .dwtag  DW_TAG_member, DW_AT_type(*DW$T$50)
    3525                      .dwattr DW$307, DW_AT_name("MainBearings"), DW_AT_symbol_name("_MainBearings")
    3526                      .dwattr DW$307, DW_AT_data_member_location[DW_OP_plus_uconst 0x0]
    3527                      .dwattr DW$307, DW_AT_accessibility(DW_ACCESS_public)
    3528              DW$308  .dwtag  DW_TAG_member, DW_AT_type(*DW$T$29)
    3529                      .dwattr DW$308, DW_AT_name("CrankPinBearings"), DW_AT_symbol_name("_CrankPinBearings")
    3530                      .dwattr DW$308, DW_AT_data_member_location[DW_OP_plus_uconst 0x10]
    3531                      .dwattr DW$308, DW_AT_accessibility(DW_ACCESS_public)
    3532              DW$309  .dwtag  DW_TAG_member, DW_AT_type(*DW$T$29)
    3533                      .dwattr DW$309, DW_AT_name("CrossHeadBearings"), DW_AT_symbol_name("_CrossHeadBearings")
    3534                      .dwattr DW$309, DW_AT_data_member_location[DW_OP_plus_uconst 0x1e]
    3535                      .dwattr DW$309, DW_AT_accessibility(DW_ACCESS_public)
    3536                      .dwendtag DW$T$51
    3537              
    3538              DW$T$52 .dwtag  DW_TAG_base_type, DW_AT_name("signed char")
    3539                      .dwattr DW$T$52, DW_AT_encoding(DW_ATE_signed_char)
    3540                      .dwattr DW$T$52, DW_AT_byte_size(0x01)
TMS320C2000 COFF Assembler PC v4.1.3 Thu Aug 18 12:16:06 2016

Tools Copyright (c) 1996-2006 Texas Instruments Incorporated
alarms.asm                                                           PAGE   75

    3541              DW$310  .dwtag  DW_TAG_far_type
    3542                      .dwattr DW$310, DW_AT_type(*DW$T$52)
    3543              DW$T$63 .dwtag  DW_TAG_const_type
    3544                      .dwattr DW$T$63, DW_AT_type(*DW$310)
    3545              
    3546              DW$T$22 .dwtag  DW_TAG_array_type, DW_AT_type(*DW$T$11)
    3547                      .dwattr DW$T$22, DW_AT_language(DW_LANG_C)
    3548                      .dwattr DW$T$22, DW_AT_byte_size(0x09)
    3549              DW$311  .dwtag  DW_TAG_subrange_type
    3550                      .dwattr DW$311, DW_AT_upper_bound(0x08)
    3551                      .dwendtag DW$T$22
    3552              
    3553              
    3554              DW$T$23 .dwtag  DW_TAG_array_type, DW_AT_type(*DW$T$11)
    3555                      .dwattr DW$T$23, DW_AT_language(DW_LANG_C)
    3556                      .dwattr DW$T$23, DW_AT_byte_size(0x18)
    3557              DW$312  .dwtag  DW_TAG_subrange_type
    3558                      .dwattr DW$312, DW_AT_upper_bound(0x17)
    3559                      .dwendtag DW$T$23
    3560              
    3561              
    3562              DW$T$24 .dwtag  DW_TAG_array_type, DW_AT_type(*DW$T$11)
    3563                      .dwattr DW$T$24, DW_AT_language(DW_LANG_C)
    3564                      .dwattr DW$T$24, DW_AT_byte_size(0x0f)
    3565              DW$313  .dwtag  DW_TAG_subrange_type
    3566                      .dwattr DW$313, DW_AT_upper_bound(0x0e)
    3567                      .dwendtag DW$T$24
    3568              
    3569              
    3570              DW$T$25 .dwtag  DW_TAG_array_type, DW_AT_type(*DW$T$11)
    3571                      .dwattr DW$T$25, DW_AT_language(DW_LANG_C)
    3572                      .dwattr DW$T$25, DW_AT_byte_size(0x05)
    3573              DW$314  .dwtag  DW_TAG_subrange_type
    3574                      .dwattr DW$314, DW_AT_upper_bound(0x04)
    3575                      .dwendtag DW$T$25
    3576              
    3577              
    3578              DW$T$29 .dwtag  DW_TAG_array_type, DW_AT_type(*DW$T$11)
    3579                      .dwattr DW$T$29, DW_AT_language(DW_LANG_C)
    3580                      .dwattr DW$T$29, DW_AT_byte_size(0x0e)
    3581              DW$315  .dwtag  DW_TAG_subrange_type
    3582                      .dwattr DW$315, DW_AT_upper_bound(0x0d)
    3583                      .dwendtag DW$T$29
    3584              
    3585              
    3586              DW$T$42 .dwtag  DW_TAG_array_type, DW_AT_type(*DW$T$11)
    3587                      .dwattr DW$T$42, DW_AT_language(DW_LANG_C)
    3588                      .dwattr DW$T$42, DW_AT_byte_size(0x02)
    3589              DW$316  .dwtag  DW_TAG_subrange_type
    3590                      .dwattr DW$316, DW_AT_upper_bound(0x01)
    3591                      .dwendtag DW$T$42
    3592              
    3593              
    3594              DW$T$44 .dwtag  DW_TAG_array_type, DW_AT_type(*DW$T$11)
    3595                      .dwattr DW$T$44, DW_AT_language(DW_LANG_C)
TMS320C2000 COFF Assembler PC v4.1.3 Thu Aug 18 12:16:06 2016

Tools Copyright (c) 1996-2006 Texas Instruments Incorporated
alarms.asm                                                           PAGE   76

    3596                      .dwattr DW$T$44, DW_AT_byte_size(0x40)
    3597              DW$317  .dwtag  DW_TAG_subrange_type
    3598                      .dwattr DW$317, DW_AT_upper_bound(0x3f)
    3599                      .dwendtag DW$T$44
    3600              
    3601              
    3602              DW$T$50 .dwtag  DW_TAG_array_type, DW_AT_type(*DW$T$11)
    3603                      .dwattr DW$T$50, DW_AT_language(DW_LANG_C)
    3604                      .dwattr DW$T$50, DW_AT_byte_size(0x10)
    3605              DW$318  .dwtag  DW_TAG_subrange_type
    3606                      .dwattr DW$318, DW_AT_upper_bound(0x0f)
    3607                      .dwendtag DW$T$50
    3608              
    3609              DW$T$16 .dwtag  DW_TAG_base_type, DW_AT_name("float")
    3610                      .dwattr DW$T$16, DW_AT_encoding(DW_ATE_float)
    3611                      .dwattr DW$T$16, DW_AT_byte_size(0x02)
    3612              
    3613              DW$T$19 .dwtag  DW_TAG_structure_type
    3614                      .dwattr DW$T$19, DW_AT_name("tag_sensoralarmstruct")
    3615                      .dwattr DW$T$19, DW_AT_byte_size(0x01)
    3616              DW$319  .dwtag  DW_TAG_member, DW_AT_type(*DW$T$11)
    3617                      .dwattr DW$319, DW_AT_name("failure"), DW_AT_symbol_name("_failure")
    3618                      .dwattr DW$319, DW_AT_bit_offset(0x0f), DW_AT_bit_size(0x01)
    3619                      .dwattr DW$319, DW_AT_data_member_location[DW_OP_plus_uconst 0x0]
    3620                      .dwattr DW$319, DW_AT_accessibility(DW_ACCESS_public)
    3621              DW$320  .dwtag  DW_TAG_member, DW_AT_type(*DW$T$11)
    3622                      .dwattr DW$320, DW_AT_name("failurelatched"), DW_AT_symbol_name("_failurelatched")
    3623                      .dwattr DW$320, DW_AT_bit_offset(0x0e), DW_AT_bit_size(0x01)
    3624                      .dwattr DW$320, DW_AT_data_member_location[DW_OP_plus_uconst 0x0]
    3625                      .dwattr DW$320, DW_AT_accessibility(DW_ACCESS_public)
    3626              DW$321  .dwtag  DW_TAG_member, DW_AT_type(*DW$T$11)
    3627                      .dwattr DW$321, DW_AT_name("slowdown"), DW_AT_symbol_name("_slowdown")
    3628                      .dwattr DW$321, DW_AT_bit_offset(0x0d), DW_AT_bit_size(0x01)
    3629                      .dwattr DW$321, DW_AT_data_member_location[DW_OP_plus_uconst 0x0]
    3630                      .dwattr DW$321, DW_AT_accessibility(DW_ACCESS_public)
    3631              DW$322  .dwtag  DW_TAG_member, DW_AT_type(*DW$T$11)
    3632                      .dwattr DW$322, DW_AT_name("slowdownlatched"), DW_AT_symbol_name("_slowdownlatched")
    3633                      .dwattr DW$322, DW_AT_bit_offset(0x0c), DW_AT_bit_size(0x01)
    3634                      .dwattr DW$322, DW_AT_data_member_location[DW_OP_plus_uconst 0x0]
    3635                      .dwattr DW$322, DW_AT_accessibility(DW_ACCESS_public)
    3636              DW$323  .dwtag  DW_TAG_member, DW_AT_type(*DW$T$11)
    3637                      .dwattr DW$323, DW_AT_name("alarm"), DW_AT_symbol_name("_alarm")
    3638                      .dwattr DW$323, DW_AT_bit_offset(0x0b), DW_AT_bit_size(0x01)
    3639                      .dwattr DW$323, DW_AT_data_member_location[DW_OP_plus_uconst 0x0]
    3640                      .dwattr DW$323, DW_AT_accessibility(DW_ACCESS_public)
    3641              DW$324  .dwtag  DW_TAG_member, DW_AT_type(*DW$T$11)
    3642                      .dwattr DW$324, DW_AT_name("alarmlatched"), DW_AT_symbol_name("_alarmlatched")
    3643                      .dwattr DW$324, DW_AT_bit_offset(0x0a), DW_AT_bit_size(0x01)
    3644                      .dwattr DW$324, DW_AT_data_member_location[DW_OP_plus_uconst 0x0]
    3645                      .dwattr DW$324, DW_AT_accessibility(DW_ACCESS_public)
    3646              DW$325  .dwtag  DW_TAG_member, DW_AT_type(*DW$T$11)
    3647                      .dwattr DW$325, DW_AT_name("devalarm"), DW_AT_symbol_name("_devalarm")
    3648                      .dwattr DW$325, DW_AT_bit_offset(0x09), DW_AT_bit_size(0x01)
    3649                      .dwattr DW$325, DW_AT_data_member_location[DW_OP_plus_uconst 0x0]
    3650                      .dwattr DW$325, DW_AT_accessibility(DW_ACCESS_public)
TMS320C2000 COFF Assembler PC v4.1.3 Thu Aug 18 12:16:06 2016

Tools Copyright (c) 1996-2006 Texas Instruments Incorporated
alarms.asm                                                           PAGE   77

    3651              DW$326  .dwtag  DW_TAG_member, DW_AT_type(*DW$T$11)
    3652                      .dwattr DW$326, DW_AT_name("devalarmlatched"), DW_AT_symbol_name("_devalarmlatched")
    3653                      .dwattr DW$326, DW_AT_bit_offset(0x08), DW_AT_bit_size(0x01)
    3654                      .dwattr DW$326, DW_AT_data_member_location[DW_OP_plus_uconst 0x0]
    3655                      .dwattr DW$326, DW_AT_accessibility(DW_ACCESS_public)
    3656              DW$327  .dwtag  DW_TAG_member, DW_AT_type(*DW$T$11)
    3657                      .dwattr DW$327, DW_AT_name("devslow"), DW_AT_symbol_name("_devslow")
    3658                      .dwattr DW$327, DW_AT_bit_offset(0x07), DW_AT_bit_size(0x01)
    3659                      .dwattr DW$327, DW_AT_data_member_location[DW_OP_plus_uconst 0x0]
    3660                      .dwattr DW$327, DW_AT_accessibility(DW_ACCESS_public)
    3661              DW$328  .dwtag  DW_TAG_member, DW_AT_type(*DW$T$11)
    3662                      .dwattr DW$328, DW_AT_name("devslowlatched"), DW_AT_symbol_name("_devslowlatched")
    3663                      .dwattr DW$328, DW_AT_bit_offset(0x06), DW_AT_bit_size(0x01)
    3664                      .dwattr DW$328, DW_AT_data_member_location[DW_OP_plus_uconst 0x0]
    3665                      .dwattr DW$328, DW_AT_accessibility(DW_ACCESS_public)
    3666              DW$329  .dwtag  DW_TAG_member, DW_AT_type(*DW$T$11)
    3667                      .dwattr DW$329, DW_AT_name("calibration"), DW_AT_symbol_name("_calibration")
    3668                      .dwattr DW$329, DW_AT_bit_offset(0x05), DW_AT_bit_size(0x01)
    3669                      .dwattr DW$329, DW_AT_data_member_location[DW_OP_plus_uconst 0x0]
    3670                      .dwattr DW$329, DW_AT_accessibility(DW_ACCESS_public)
    3671              DW$330  .dwtag  DW_TAG_member, DW_AT_type(*DW$T$11)
    3672                      .dwattr DW$330, DW_AT_name("calibrationlatched"), DW_AT_symbol_name("_calibrationlatched")
    3673                      .dwattr DW$330, DW_AT_bit_offset(0x04), DW_AT_bit_size(0x01)
    3674                      .dwattr DW$330, DW_AT_data_member_location[DW_OP_plus_uconst 0x0]
    3675                      .dwattr DW$330, DW_AT_accessibility(DW_ACCESS_public)
    3676              DW$331  .dwtag  DW_TAG_member, DW_AT_type(*DW$T$11)
    3677                      .dwattr DW$331, DW_AT_name("prewarning"), DW_AT_symbol_name("_prewarning")
    3678                      .dwattr DW$331, DW_AT_bit_offset(0x03), DW_AT_bit_size(0x01)
    3679                      .dwattr DW$331, DW_AT_data_member_location[DW_OP_plus_uconst 0x0]
    3680                      .dwattr DW$331, DW_AT_accessibility(DW_ACCESS_public)
    3681              DW$332  .dwtag  DW_TAG_member, DW_AT_type(*DW$T$11)
    3682                      .dwattr DW$332, DW_AT_name("prewarninglatched"), DW_AT_symbol_name("_prewarninglatched")
    3683                      .dwattr DW$332, DW_AT_bit_offset(0x02), DW_AT_bit_size(0x01)
    3684                      .dwattr DW$332, DW_AT_data_member_location[DW_OP_plus_uconst 0x0]
    3685                      .dwattr DW$332, DW_AT_accessibility(DW_ACCESS_public)
    3686              DW$333  .dwtag  DW_TAG_member, DW_AT_type(*DW$T$11)
    3687                      .dwattr DW$333, DW_AT_name("unused15"), DW_AT_symbol_name("_unused15")
    3688                      .dwattr DW$333, DW_AT_bit_offset(0x01), DW_AT_bit_size(0x01)
    3689                      .dwattr DW$333, DW_AT_data_member_location[DW_OP_plus_uconst 0x0]
    3690                      .dwattr DW$333, DW_AT_accessibility(DW_ACCESS_public)
    3691              DW$334  .dwtag  DW_TAG_member, DW_AT_type(*DW$T$11)
    3692                      .dwattr DW$334, DW_AT_name("unused16"), DW_AT_symbol_name("_unused16")
    3693                      .dwattr DW$334, DW_AT_bit_offset(0x00), DW_AT_bit_size(0x01)
    3694                      .dwattr DW$334, DW_AT_data_member_location[DW_OP_plus_uconst 0x0]
    3695                      .dwattr DW$334, DW_AT_accessibility(DW_ACCESS_public)
    3696                      .dwendtag DW$T$19
    3697              
    3698              
    3699              DW$T$21 .dwtag  DW_TAG_structure_type
    3700                      .dwattr DW$T$21, DW_AT_name("tag_status3struct")
    3701                      .dwattr DW$T$21, DW_AT_byte_size(0x01)
    3702              DW$335  .dwtag  DW_TAG_member, DW_AT_type(*DW$T$11)
    3703                      .dwattr DW$335, DW_AT_name("nopulse"), DW_AT_symbol_name("_nopulse")
    3704                      .dwattr DW$335, DW_AT_bit_offset(0x0f), DW_AT_bit_size(0x01)
    3705                      .dwattr DW$335, DW_AT_data_member_location[DW_OP_plus_uconst 0x0]
TMS320C2000 COFF Assembler PC v4.1.3 Thu Aug 18 12:16:06 2016

Tools Copyright (c) 1996-2006 Texas Instruments Incorporated
alarms.asm                                                           PAGE   78

    3706                      .dwattr DW$335, DW_AT_accessibility(DW_ACCESS_public)
    3707              DW$336  .dwtag  DW_TAG_member, DW_AT_type(*DW$T$11)
    3708                      .dwattr DW$336, DW_AT_name("low"), DW_AT_symbol_name("_low")
    3709                      .dwattr DW$336, DW_AT_bit_offset(0x0e), DW_AT_bit_size(0x01)
    3710                      .dwattr DW$336, DW_AT_data_member_location[DW_OP_plus_uconst 0x0]
    3711                      .dwattr DW$336, DW_AT_accessibility(DW_ACCESS_public)
    3712              DW$337  .dwtag  DW_TAG_member, DW_AT_type(*DW$T$11)
    3713                      .dwattr DW$337, DW_AT_name("high"), DW_AT_symbol_name("_high")
    3714                      .dwattr DW$337, DW_AT_bit_offset(0x0d), DW_AT_bit_size(0x01)
    3715                      .dwattr DW$337, DW_AT_data_member_location[DW_OP_plus_uconst 0x0]
    3716                      .dwattr DW$337, DW_AT_accessibility(DW_ACCESS_public)
    3717              DW$338  .dwtag  DW_TAG_member, DW_AT_type(*DW$T$11)
    3718                      .dwattr DW$338, DW_AT_name("rpmoor"), DW_AT_symbol_name("_rpmoor")
    3719                      .dwattr DW$338, DW_AT_bit_offset(0x0c), DW_AT_bit_size(0x01)
    3720                      .dwattr DW$338, DW_AT_data_member_location[DW_OP_plus_uconst 0x0]
    3721                      .dwattr DW$338, DW_AT_accessibility(DW_ACCESS_public)
    3722              DW$339  .dwtag  DW_TAG_member, DW_AT_type(*DW$T$11)
    3723                      .dwattr DW$339, DW_AT_name("unused5"), DW_AT_symbol_name("_unused5")
    3724                      .dwattr DW$339, DW_AT_bit_offset(0x0b), DW_AT_bit_size(0x01)
    3725                      .dwattr DW$339, DW_AT_data_member_location[DW_OP_plus_uconst 0x0]
    3726                      .dwattr DW$339, DW_AT_accessibility(DW_ACCESS_public)
    3727              DW$340  .dwtag  DW_TAG_member, DW_AT_type(*DW$T$11)
    3728                      .dwattr DW$340, DW_AT_name("unused6"), DW_AT_symbol_name("_unused6")
    3729                      .dwattr DW$340, DW_AT_bit_offset(0x0a), DW_AT_bit_size(0x01)
    3730                      .dwattr DW$340, DW_AT_data_member_location[DW_OP_plus_uconst 0x0]
    3731                      .dwattr DW$340, DW_AT_accessibility(DW_ACCESS_public)
    3732              DW$341  .dwtag  DW_TAG_member, DW_AT_type(*DW$T$11)
    3733                      .dwattr DW$341, DW_AT_name("unused7"), DW_AT_symbol_name("_unused7")
    3734                      .dwattr DW$341, DW_AT_bit_offset(0x09), DW_AT_bit_size(0x01)
    3735                      .dwattr DW$341, DW_AT_data_member_location[DW_OP_plus_uconst 0x0]
    3736                      .dwattr DW$341, DW_AT_accessibility(DW_ACCESS_public)
    3737              DW$342  .dwtag  DW_TAG_member, DW_AT_type(*DW$T$11)
    3738                      .dwattr DW$342, DW_AT_name("unused8"), DW_AT_symbol_name("_unused8")
    3739                      .dwattr DW$342, DW_AT_bit_offset(0x08), DW_AT_bit_size(0x01)
    3740                      .dwattr DW$342, DW_AT_data_member_location[DW_OP_plus_uconst 0x0]
    3741                      .dwattr DW$342, DW_AT_accessibility(DW_ACCESS_public)
    3742              DW$343  .dwtag  DW_TAG_member, DW_AT_type(*DW$T$11)
    3743                      .dwattr DW$343, DW_AT_name("nopulselatched"), DW_AT_symbol_name("_nopulselatched")
    3744                      .dwattr DW$343, DW_AT_bit_offset(0x07), DW_AT_bit_size(0x01)
    3745                      .dwattr DW$343, DW_AT_data_member_location[DW_OP_plus_uconst 0x0]
    3746                      .dwattr DW$343, DW_AT_accessibility(DW_ACCESS_public)
    3747              DW$344  .dwtag  DW_TAG_member, DW_AT_type(*DW$T$11)
    3748                      .dwattr DW$344, DW_AT_name("lowlatched"), DW_AT_symbol_name("_lowlatched")
    3749                      .dwattr DW$344, DW_AT_bit_offset(0x06), DW_AT_bit_size(0x01)
    3750                      .dwattr DW$344, DW_AT_data_member_location[DW_OP_plus_uconst 0x0]
    3751                      .dwattr DW$344, DW_AT_accessibility(DW_ACCESS_public)
    3752              DW$345  .dwtag  DW_TAG_member, DW_AT_type(*DW$T$11)
    3753                      .dwattr DW$345, DW_AT_name("highlatched"), DW_AT_symbol_name("_highlatched")
    3754                      .dwattr DW$345, DW_AT_bit_offset(0x05), DW_AT_bit_size(0x01)
    3755                      .dwattr DW$345, DW_AT_data_member_location[DW_OP_plus_uconst 0x0]
    3756                      .dwattr DW$345, DW_AT_accessibility(DW_ACCESS_public)
    3757              DW$346  .dwtag  DW_TAG_member, DW_AT_type(*DW$T$11)
    3758                      .dwattr DW$346, DW_AT_name("rpmoorlatched"), DW_AT_symbol_name("_rpmoorlatched")
    3759                      .dwattr DW$346, DW_AT_bit_offset(0x04), DW_AT_bit_size(0x01)
    3760                      .dwattr DW$346, DW_AT_data_member_location[DW_OP_plus_uconst 0x0]
TMS320C2000 COFF Assembler PC v4.1.3 Thu Aug 18 12:16:06 2016

Tools Copyright (c) 1996-2006 Texas Instruments Incorporated
alarms.asm                                                           PAGE   79

    3761                      .dwattr DW$346, DW_AT_accessibility(DW_ACCESS_public)
    3762              DW$347  .dwtag  DW_TAG_member, DW_AT_type(*DW$T$11)
    3763                      .dwattr DW$347, DW_AT_name("unused13"), DW_AT_symbol_name("_unused13")
    3764                      .dwattr DW$347, DW_AT_bit_offset(0x03), DW_AT_bit_size(0x01)
    3765                      .dwattr DW$347, DW_AT_data_member_location[DW_OP_plus_uconst 0x0]
    3766                      .dwattr DW$347, DW_AT_accessibility(DW_ACCESS_public)
    3767              DW$348  .dwtag  DW_TAG_member, DW_AT_type(*DW$T$11)
    3768                      .dwattr DW$348, DW_AT_name("unused14"), DW_AT_symbol_name("_unused14")
    3769                      .dwattr DW$348, DW_AT_bit_offset(0x02), DW_AT_bit_size(0x01)
    3770                      .dwattr DW$348, DW_AT_data_member_location[DW_OP_plus_uconst 0x0]
    3771                      .dwattr DW$348, DW_AT_accessibility(DW_ACCESS_public)
    3772              DW$349  .dwtag  DW_TAG_member, DW_AT_type(*DW$T$11)
    3773                      .dwattr DW$349, DW_AT_name("unused15"), DW_AT_symbol_name("_unused15")
    3774                      .dwattr DW$349, DW_AT_bit_offset(0x01), DW_AT_bit_size(0x01)
    3775                      .dwattr DW$349, DW_AT_data_member_location[DW_OP_plus_uconst 0x0]
    3776                      .dwattr DW$349, DW_AT_accessibility(DW_ACCESS_public)
    3777              DW$350  .dwtag  DW_TAG_member, DW_AT_type(*DW$T$11)
    3778                      .dwattr DW$350, DW_AT_name("unused16"), DW_AT_symbol_name("_unused16")
    3779                      .dwattr DW$350, DW_AT_bit_offset(0x00), DW_AT_bit_size(0x01)
    3780                      .dwattr DW$350, DW_AT_data_member_location[DW_OP_plus_uconst 0x0]
    3781                      .dwattr DW$350, DW_AT_accessibility(DW_ACCESS_public)
    3782                      .dwendtag DW$T$21
    3783              
    3784              
    3785              DW$T$27 .dwtag  DW_TAG_structure_type
    3786                      .dwattr DW$T$27, DW_AT_byte_size(0x02)
    3787              DW$351  .dwtag  DW_TAG_member, DW_AT_type(*DW$T$11)
    3788                      .dwattr DW$351, DW_AT_name("enb"), DW_AT_symbol_name("_enb")
    3789                      .dwattr DW$351, DW_AT_data_member_location[DW_OP_plus_uconst 0x0]
    3790                      .dwattr DW$351, DW_AT_accessibility(DW_ACCESS_public)
    3791              DW$352  .dwtag  DW_TAG_member, DW_AT_type(*DW$T$11)
    3792                      .dwattr DW$352, DW_AT_name("chan"), DW_AT_symbol_name("_chan")
    3793                      .dwattr DW$352, DW_AT_data_member_location[DW_OP_plus_uconst 0x1]
    3794                      .dwattr DW$352, DW_AT_accessibility(DW_ACCESS_public)
    3795                      .dwendtag DW$T$27
    3796              
    3797              
    3798              DW$T$30 .dwtag  DW_TAG_structure_type
    3799                      .dwattr DW$T$30, DW_AT_name("tag_timers")
    3800                      .dwattr DW$T$30, DW_AT_byte_size(0x4c)
    3801              DW$353  .dwtag  DW_TAG_member, DW_AT_type(*DW$T$11)
    3802                      .dwattr DW$353, DW_AT_name("update"), DW_AT_symbol_name("_update")
    3803                      .dwattr DW$353, DW_AT_data_member_location[DW_OP_plus_uconst 0x0]
    3804                      .dwattr DW$353, DW_AT_accessibility(DW_ACCESS_public)
    3805              DW$354  .dwtag  DW_TAG_member, DW_AT_type(*DW$T$11)
    3806                      .dwattr DW$354, DW_AT_name("general"), DW_AT_symbol_name("_general")
    3807                      .dwattr DW$354, DW_AT_data_member_location[DW_OP_plus_uconst 0x1]
    3808                      .dwattr DW$354, DW_AT_accessibility(DW_ACCESS_public)
    3809              DW$355  .dwtag  DW_TAG_member, DW_AT_type(*DW$T$11)
    3810                      .dwattr DW$355, DW_AT_name("rxcharTimeout"), DW_AT_symbol_name("_rxcharTimeout")
    3811                      .dwattr DW$355, DW_AT_data_member_location[DW_OP_plus_uconst 0x2]
    3812                      .dwattr DW$355, DW_AT_accessibility(DW_ACCESS_public)
    3813              DW$356  .dwtag  DW_TAG_member, DW_AT_type(*DW$T$11)
    3814                      .dwattr DW$356, DW_AT_name("wiorxtimeout"), DW_AT_symbol_name("_wiorxtimeout")
    3815                      .dwattr DW$356, DW_AT_data_member_location[DW_OP_plus_uconst 0x3]
TMS320C2000 COFF Assembler PC v4.1.3 Thu Aug 18 12:16:06 2016

Tools Copyright (c) 1996-2006 Texas Instruments Incorporated
alarms.asm                                                           PAGE   80

    3816                      .dwattr DW$356, DW_AT_accessibility(DW_ACCESS_public)
    3817              DW$357  .dwtag  DW_TAG_member, DW_AT_type(*DW$T$11)
    3818                      .dwattr DW$357, DW_AT_name("wiomasterrxtimeout"), DW_AT_symbol_name("_wiomasterrxtimeout")
    3819                      .dwattr DW$357, DW_AT_data_member_location[DW_OP_plus_uconst 0x4]
    3820                      .dwattr DW$357, DW_AT_accessibility(DW_ACCESS_public)
    3821              DW$358  .dwtag  DW_TAG_member, DW_AT_type(*DW$T$11)
    3822                      .dwattr DW$358, DW_AT_name("masterrxtimeout"), DW_AT_symbol_name("_masterrxtimeout")
    3823                      .dwattr DW$358, DW_AT_data_member_location[DW_OP_plus_uconst 0x5]
    3824                      .dwattr DW$358, DW_AT_accessibility(DW_ACCESS_public)
    3825              DW$359  .dwtag  DW_TAG_member, DW_AT_type(*DW$T$11)
    3826                      .dwattr DW$359, DW_AT_name("slaverxtimeout"), DW_AT_symbol_name("_slaverxtimeout")
    3827                      .dwattr DW$359, DW_AT_data_member_location[DW_OP_plus_uconst 0x6]
    3828                      .dwattr DW$359, DW_AT_accessibility(DW_ACCESS_public)
    3829              DW$360  .dwtag  DW_TAG_member, DW_AT_type(*DW$T$11)
    3830                      .dwattr DW$360, DW_AT_name("sectick"), DW_AT_symbol_name("_sectick")
    3831                      .dwattr DW$360, DW_AT_data_member_location[DW_OP_plus_uconst 0x7]
    3832                      .dwattr DW$360, DW_AT_accessibility(DW_ACCESS_public)
    3833              DW$361  .dwtag  DW_TAG_member, DW_AT_type(*DW$T$11)
    3834                      .dwattr DW$361, DW_AT_name("ledflash"), DW_AT_symbol_name("_ledflash")
    3835                      .dwattr DW$361, DW_AT_data_member_location[DW_OP_plus_uconst 0x8]
    3836                      .dwattr DW$361, DW_AT_accessibility(DW_ACCESS_public)
    3837              DW$362  .dwtag  DW_TAG_member, DW_AT_type(*DW$T$11)
    3838                      .dwattr DW$362, DW_AT_name("prtsettle"), DW_AT_symbol_name("_prtsettle")
    3839                      .dwattr DW$362, DW_AT_data_member_location[DW_OP_plus_uconst 0x9]
    3840                      .dwattr DW$362, DW_AT_accessibility(DW_ACCESS_public)
    3841              DW$363  .dwtag  DW_TAG_member, DW_AT_type(*DW$T$29)
    3842                      .dwattr DW$363, DW_AT_name("chantimeout"), DW_AT_symbol_name("_chantimeout")
    3843                      .dwattr DW$363, DW_AT_data_member_location[DW_OP_plus_uconst 0xa]
    3844                      .dwattr DW$363, DW_AT_accessibility(DW_ACCESS_public)
    3845              DW$364  .dwtag  DW_TAG_member, DW_AT_type(*DW$T$29)
    3846                      .dwattr DW$364, DW_AT_name("chanwait"), DW_AT_symbol_name("_chanwait")
    3847                      .dwattr DW$364, DW_AT_data_member_location[DW_OP_plus_uconst 0x18]
    3848                      .dwattr DW$364, DW_AT_accessibility(DW_ACCESS_public)
    3849              DW$365  .dwtag  DW_TAG_member, DW_AT_type(*DW$T$11)
    3850                      .dwattr DW$365, DW_AT_name("pcrxtimeout"), DW_AT_symbol_name("_pcrxtimeout")
    3851                      .dwattr DW$365, DW_AT_data_member_location[DW_OP_plus_uconst 0x26]
    3852                      .dwattr DW$365, DW_AT_accessibility(DW_ACCESS_public)
    3853              DW$366  .dwtag  DW_TAG_member, DW_AT_type(*DW$T$11)
    3854                      .dwattr DW$366, DW_AT_name("pctxtimeout"), DW_AT_symbol_name("_pctxtimeout")
    3855                      .dwattr DW$366, DW_AT_data_member_location[DW_OP_plus_uconst 0x27]
    3856                      .dwattr DW$366, DW_AT_accessibility(DW_ACCESS_public)
    3857              DW$367  .dwtag  DW_TAG_member, DW_AT_type(*DW$T$11)
    3858                      .dwattr DW$367, DW_AT_name("spistatus"), DW_AT_symbol_name("_spistatus")
    3859                      .dwattr DW$367, DW_AT_data_member_location[DW_OP_plus_uconst 0x28]
    3860                      .dwattr DW$367, DW_AT_accessibility(DW_ACCESS_public)
    3861              DW$368  .dwtag  DW_TAG_member, DW_AT_type(*DW$T$11)
    3862                      .dwattr DW$368, DW_AT_name("rpm"), DW_AT_symbol_name("_rpm")
    3863                      .dwattr DW$368, DW_AT_data_member_location[DW_OP_plus_uconst 0x29]
    3864                      .dwattr DW$368, DW_AT_accessibility(DW_ACCESS_public)
    3865              DW$369  .dwtag  DW_TAG_member, DW_AT_type(*DW$T$11)
    3866                      .dwattr DW$369, DW_AT_name("slaverqst"), DW_AT_symbol_name("_slaverqst")
    3867                      .dwattr DW$369, DW_AT_data_member_location[DW_OP_plus_uconst 0x2a]
    3868                      .dwattr DW$369, DW_AT_accessibility(DW_ACCESS_public)
    3869              DW$370  .dwtag  DW_TAG_member, DW_AT_type(*DW$T$11)
    3870                      .dwattr DW$370, DW_AT_name("mastermodebutton"), DW_AT_symbol_name("_mastermodebutton")
TMS320C2000 COFF Assembler PC v4.1.3 Thu Aug 18 12:16:06 2016

Tools Copyright (c) 1996-2006 Texas Instruments Incorporated
alarms.asm                                                           PAGE   81

    3871                      .dwattr DW$370, DW_AT_data_member_location[DW_OP_plus_uconst 0x2b]
    3872                      .dwattr DW$370, DW_AT_accessibility(DW_ACCESS_public)
    3873              DW$371  .dwtag  DW_TAG_member, DW_AT_type(*DW$T$11)
    3874                      .dwattr DW$371, DW_AT_name("dcmode"), DW_AT_symbol_name("_dcmode")
    3875                      .dwattr DW$371, DW_AT_data_member_location[DW_OP_plus_uconst 0x2c]
    3876                      .dwattr DW$371, DW_AT_accessibility(DW_ACCESS_public)
    3877              DW$372  .dwtag  DW_TAG_member, DW_AT_type(*DW$T$13)
    3878                      .dwattr DW$372, DW_AT_name("calibrate"), DW_AT_symbol_name("_calibrate")
    3879                      .dwattr DW$372, DW_AT_data_member_location[DW_OP_plus_uconst 0x2e]
    3880                      .dwattr DW$372, DW_AT_accessibility(DW_ACCESS_public)
    3881              DW$373  .dwtag  DW_TAG_member, DW_AT_type(*DW$T$13)
    3882                      .dwattr DW$373, DW_AT_name("calibrate2"), DW_AT_symbol_name("_calibrate2")
    3883                      .dwattr DW$373, DW_AT_data_member_location[DW_OP_plus_uconst 0x30]
    3884                      .dwattr DW$373, DW_AT_accessibility(DW_ACCESS_public)
    3885              DW$374  .dwtag  DW_TAG_member, DW_AT_type(*DW$T$11)
    3886                      .dwattr DW$374, DW_AT_name("alarmreflash"), DW_AT_symbol_name("_alarmreflash")
    3887                      .dwattr DW$374, DW_AT_data_member_location[DW_OP_plus_uconst 0x32]
    3888                      .dwattr DW$374, DW_AT_accessibility(DW_ACCESS_public)
    3889              DW$375  .dwtag  DW_TAG_member, DW_AT_type(*DW$T$11)
    3890                      .dwattr DW$375, DW_AT_name("slowdownreflash"), DW_AT_symbol_name("_slowdownreflash")
    3891                      .dwattr DW$375, DW_AT_data_member_location[DW_OP_plus_uconst 0x33]
    3892                      .dwattr DW$375, DW_AT_accessibility(DW_ACCESS_public)
    3893              DW$376  .dwtag  DW_TAG_member, DW_AT_type(*DW$T$11)
    3894                      .dwattr DW$376, DW_AT_name("wiorqst"), DW_AT_symbol_name("_wiorqst")
    3895                      .dwattr DW$376, DW_AT_data_member_location[DW_OP_plus_uconst 0x34]
    3896                      .dwattr DW$376, DW_AT_accessibility(DW_ACCESS_public)
    3897              DW$377  .dwtag  DW_TAG_member, DW_AT_type(*DW$T$11)
    3898                      .dwattr DW$377, DW_AT_name("rpmtimeout"), DW_AT_symbol_name("_rpmtimeout")
    3899                      .dwattr DW$377, DW_AT_data_member_location[DW_OP_plus_uconst 0x35]
    3900                      .dwattr DW$377, DW_AT_accessibility(DW_ACCESS_public)
    3901              DW$378  .dwtag  DW_TAG_member, DW_AT_type(*DW$T$11)
    3902                      .dwattr DW$378, DW_AT_name("analogoor"), DW_AT_symbol_name("_analogoor")
    3903                      .dwattr DW$378, DW_AT_data_member_location[DW_OP_plus_uconst 0x36]
    3904                      .dwattr DW$378, DW_AT_accessibility(DW_ACCESS_public)
    3905              DW$379  .dwtag  DW_TAG_member, DW_AT_type(*DW$T$11)
    3906                      .dwattr DW$379, DW_AT_name("motioncal"), DW_AT_symbol_name("_motioncal")
    3907                      .dwattr DW$379, DW_AT_data_member_location[DW_OP_plus_uconst 0x37]
    3908                      .dwattr DW$379, DW_AT_accessibility(DW_ACCESS_public)
    3909              DW$380  .dwtag  DW_TAG_member, DW_AT_type(*DW$T$11)
    3910                      .dwattr DW$380, DW_AT_name("framcheck"), DW_AT_symbol_name("_framcheck")
    3911                      .dwattr DW$380, DW_AT_data_member_location[DW_OP_plus_uconst 0x38]
    3912                      .dwattr DW$380, DW_AT_accessibility(DW_ACCESS_public)
    3913              DW$381  .dwtag  DW_TAG_member, DW_AT_type(*DW$T$11)
    3914                      .dwattr DW$381, DW_AT_name("pcmodbus"), DW_AT_symbol_name("_pcmodbus")
    3915                      .dwattr DW$381, DW_AT_data_member_location[DW_OP_plus_uconst 0x39]
    3916                      .dwattr DW$381, DW_AT_accessibility(DW_ACCESS_public)
    3917              DW$382  .dwtag  DW_TAG_member, DW_AT_type(*DW$T$11)
    3918                      .dwattr DW$382, DW_AT_name("statusreflash"), DW_AT_symbol_name("_statusreflash")
    3919                      .dwattr DW$382, DW_AT_data_member_location[DW_OP_plus_uconst 0x3a]
    3920                      .dwattr DW$382, DW_AT_accessibility(DW_ACCESS_public)
    3921              DW$383  .dwtag  DW_TAG_member, DW_AT_type(*DW$T$13)
    3922                      .dwattr DW$383, DW_AT_name("prewarn"), DW_AT_symbol_name("_prewarn")
    3923                      .dwattr DW$383, DW_AT_data_member_location[DW_OP_plus_uconst 0x3c]
    3924                      .dwattr DW$383, DW_AT_accessibility(DW_ACCESS_public)
    3925              DW$384  .dwtag  DW_TAG_member, DW_AT_type(*DW$T$11)
TMS320C2000 COFF Assembler PC v4.1.3 Thu Aug 18 12:16:06 2016

Tools Copyright (c) 1996-2006 Texas Instruments Incorporated
alarms.asm                                                           PAGE   82

    3926                      .dwattr DW$384, DW_AT_name("clocktofram"), DW_AT_symbol_name("_clocktofram")
    3927                      .dwattr DW$384, DW_AT_data_member_location[DW_OP_plus_uconst 0x3e]
    3928                      .dwattr DW$384, DW_AT_accessibility(DW_ACCESS_public)
    3929              DW$385  .dwtag  DW_TAG_member, DW_AT_type(*DW$T$11)
    3930                      .dwattr DW$385, DW_AT_name("debugrapidfast"), DW_AT_symbol_name("_debugrapidfast")
    3931                      .dwattr DW$385, DW_AT_data_member_location[DW_OP_plus_uconst 0x3f]
    3932                      .dwattr DW$385, DW_AT_accessibility(DW_ACCESS_public)
    3933              DW$386  .dwtag  DW_TAG_member, DW_AT_type(*DW$T$11)
    3934                      .dwattr DW$386, DW_AT_name("debugupdate"), DW_AT_symbol_name("_debugupdate")
    3935                      .dwattr DW$386, DW_AT_data_member_location[DW_OP_plus_uconst 0x40]
    3936                      .dwattr DW$386, DW_AT_accessibility(DW_ACCESS_public)
    3937              DW$387  .dwtag  DW_TAG_member, DW_AT_type(*DW$T$11)
    3938                      .dwattr DW$387, DW_AT_name("dircountdown"), DW_AT_symbol_name("_dircountdown")
    3939                      .dwattr DW$387, DW_AT_data_member_location[DW_OP_plus_uconst 0x41]
    3940                      .dwattr DW$387, DW_AT_accessibility(DW_ACCESS_public)
    3941              DW$388  .dwtag  DW_TAG_member, DW_AT_type(*DW$T$11)
    3942                      .dwattr DW$388, DW_AT_name("startup"), DW_AT_symbol_name("_startup")
    3943                      .dwattr DW$388, DW_AT_data_member_location[DW_OP_plus_uconst 0x42]
    3944                      .dwattr DW$388, DW_AT_accessibility(DW_ACCESS_public)
    3945              DW$389  .dwtag  DW_TAG_member, DW_AT_type(*DW$T$11)
    3946                      .dwattr DW$389, DW_AT_name("analogsettle"), DW_AT_symbol_name("_analogsettle")
    3947                      .dwattr DW$389, DW_AT_data_member_location[DW_OP_plus_uconst 0x43]
    3948                      .dwattr DW$389, DW_AT_accessibility(DW_ACCESS_public)
    3949              DW$390  .dwtag  DW_TAG_member, DW_AT_type(*DW$T$11)
    3950                      .dwattr DW$390, DW_AT_name("reprogram"), DW_AT_symbol_name("_reprogram")
    3951                      .dwattr DW$390, DW_AT_data_member_location[DW_OP_plus_uconst 0x44]
    3952                      .dwattr DW$390, DW_AT_accessibility(DW_ACCESS_public)
    3953              DW$391  .dwtag  DW_TAG_member, DW_AT_type(*DW$T$11)
    3954                      .dwattr DW$391, DW_AT_name("reprogramtimeout"), DW_AT_symbol_name("_reprogramtimeout")
    3955                      .dwattr DW$391, DW_AT_data_member_location[DW_OP_plus_uconst 0x45]
    3956                      .dwattr DW$391, DW_AT_accessibility(DW_ACCESS_public)
    3957              DW$392  .dwtag  DW_TAG_member, DW_AT_type(*DW$T$11)
    3958                      .dwattr DW$392, DW_AT_name("dcmodestayalive"), DW_AT_symbol_name("_dcmodestayalive")
    3959                      .dwattr DW$392, DW_AT_data_member_location[DW_OP_plus_uconst 0x46]
    3960                      .dwattr DW$392, DW_AT_accessibility(DW_ACCESS_public)
    3961              DW$393  .dwtag  DW_TAG_member, DW_AT_type(*DW$T$11)
    3962                      .dwattr DW$393, DW_AT_name("biteventchange"), DW_AT_symbol_name("_biteventchange")
    3963                      .dwattr DW$393, DW_AT_data_member_location[DW_OP_plus_uconst 0x47]
    3964                      .dwattr DW$393, DW_AT_accessibility(DW_ACCESS_public)
    3965              DW$394  .dwtag  DW_TAG_member, DW_AT_type(*DW$T$11)
    3966                      .dwattr DW$394, DW_AT_name("iSensorReplace"), DW_AT_symbol_name("_iSensorReplace")
    3967                      .dwattr DW$394, DW_AT_data_member_location[DW_OP_plus_uconst 0x48]
    3968                      .dwattr DW$394, DW_AT_accessibility(DW_ACCESS_public)
    3969              DW$395  .dwtag  DW_TAG_member, DW_AT_type(*DW$T$13)
    3970                      .dwattr DW$395, DW_AT_name("deltarpm15Delay"), DW_AT_symbol_name("_deltarpm15Delay")
    3971                      .dwattr DW$395, DW_AT_data_member_location[DW_OP_plus_uconst 0x4a]
    3972                      .dwattr DW$395, DW_AT_accessibility(DW_ACCESS_public)
    3973                      .dwendtag DW$T$30
    3974              
    3975              
    3976              DW$T$31 .dwtag  DW_TAG_structure_type
    3977                      .dwattr DW$T$31, DW_AT_byte_size(0x01)
    3978              DW$396  .dwtag  DW_TAG_member, DW_AT_type(*DW$T$11)
    3979                      .dwattr DW$396, DW_AT_name("newval"), DW_AT_symbol_name("_newval")
    3980                      .dwattr DW$396, DW_AT_bit_offset(0x0f), DW_AT_bit_size(0x01)
TMS320C2000 COFF Assembler PC v4.1.3 Thu Aug 18 12:16:06 2016

Tools Copyright (c) 1996-2006 Texas Instruments Incorporated
alarms.asm                                                           PAGE   83

    3981                      .dwattr DW$396, DW_AT_data_member_location[DW_OP_plus_uconst 0x0]
    3982                      .dwattr DW$396, DW_AT_accessibility(DW_ACCESS_public)
    3983              DW$397  .dwtag  DW_TAG_member, DW_AT_type(*DW$T$11)
    3984                      .dwattr DW$397, DW_AT_name("calmode"), DW_AT_symbol_name("_calmode")
    3985                      .dwattr DW$397, DW_AT_bit_offset(0x0e), DW_AT_bit_size(0x01)
    3986                      .dwattr DW$397, DW_AT_data_member_location[DW_OP_plus_uconst 0x0]
    3987                      .dwattr DW$397, DW_AT_accessibility(DW_ACCESS_public)
    3988              DW$398  .dwtag  DW_TAG_member, DW_AT_type(*DW$T$11)
    3989                      .dwattr DW$398, DW_AT_name("startcal"), DW_AT_symbol_name("_startcal")
    3990                      .dwattr DW$398, DW_AT_bit_offset(0x0d), DW_AT_bit_size(0x01)
    3991                      .dwattr DW$398, DW_AT_data_member_location[DW_OP_plus_uconst 0x0]
    3992                      .dwattr DW$398, DW_AT_accessibility(DW_ACCESS_public)
    3993              DW$399  .dwtag  DW_TAG_member, DW_AT_type(*DW$T$11)
    3994                      .dwattr DW$399, DW_AT_name("newvalspu2"), DW_AT_symbol_name("_newvalspu2")
    3995                      .dwattr DW$399, DW_AT_bit_offset(0x0c), DW_AT_bit_size(0x01)
    3996                      .dwattr DW$399, DW_AT_data_member_location[DW_OP_plus_uconst 0x0]
    3997                      .dwattr DW$399, DW_AT_accessibility(DW_ACCESS_public)
    3998              DW$400  .dwtag  DW_TAG_member, DW_AT_type(*DW$T$11)
    3999                      .dwattr DW$400, DW_AT_name("unused"), DW_AT_symbol_name("_unused")
    4000                      .dwattr DW$400, DW_AT_bit_offset(0x00), DW_AT_bit_size(0x0c)
    4001                      .dwattr DW$400, DW_AT_data_member_location[DW_OP_plus_uconst 0x0]
    4002                      .dwattr DW$400, DW_AT_accessibility(DW_ACCESS_public)
    4003                      .dwendtag DW$T$31
    4004              
    4005              
    4006              DW$T$32 .dwtag  DW_TAG_structure_type
    4007                      .dwattr DW$T$32, DW_AT_byte_size(0x01)
    4008              DW$401  .dwtag  DW_TAG_member, DW_AT_type(*DW$T$11)
    4009                      .dwattr DW$401, DW_AT_name("slowdowncntrl"), DW_AT_symbol_name("_slowdowncntrl")
    4010                      .dwattr DW$401, DW_AT_bit_offset(0x0f), DW_AT_bit_size(0x01)
    4011                      .dwattr DW$401, DW_AT_data_member_location[DW_OP_plus_uconst 0x0]
    4012                      .dwattr DW$401, DW_AT_accessibility(DW_ACCESS_public)
    4013              DW$402  .dwtag  DW_TAG_member, DW_AT_type(*DW$T$11)
    4014                      .dwattr DW$402, DW_AT_name("unused"), DW_AT_symbol_name("_unused")
    4015                      .dwattr DW$402, DW_AT_bit_offset(0x00), DW_AT_bit_size(0x0f)
    4016                      .dwattr DW$402, DW_AT_data_member_location[DW_OP_plus_uconst 0x0]
    4017                      .dwattr DW$402, DW_AT_accessibility(DW_ACCESS_public)
    4018                      .dwendtag DW$T$32
    4019              
    4020              
    4021              DW$T$36 .dwtag  DW_TAG_structure_type
    4022                      .dwattr DW$T$36, DW_AT_name("tag_cylinderstruct")
    4023                      .dwattr DW$T$36, DW_AT_byte_size(0x04)
    4024              DW$403  .dwtag  DW_TAG_member, DW_AT_type(*DW$T$34)
    4025                      .dwattr DW$403, DW_AT_name("status1"), DW_AT_symbol_name("_status1")
    4026                      .dwattr DW$403, DW_AT_data_member_location[DW_OP_plus_uconst 0x0]
    4027                      .dwattr DW$403, DW_AT_accessibility(DW_ACCESS_public)
    4028              DW$404  .dwtag  DW_TAG_member, DW_AT_type(*DW$T$35)
    4029                      .dwattr DW$404, DW_AT_name("status2"), DW_AT_symbol_name("_status2")
    4030                      .dwattr DW$404, DW_AT_data_member_location[DW_OP_plus_uconst 0x1]
    4031                      .dwattr DW$404, DW_AT_accessibility(DW_ACCESS_public)
    4032              DW$405  .dwtag  DW_TAG_member, DW_AT_type(*DW$T$10)
    4033                      .dwattr DW$405, DW_AT_name("average"), DW_AT_symbol_name("_average")
    4034                      .dwattr DW$405, DW_AT_data_member_location[DW_OP_plus_uconst 0x2]
    4035                      .dwattr DW$405, DW_AT_accessibility(DW_ACCESS_public)
TMS320C2000 COFF Assembler PC v4.1.3 Thu Aug 18 12:16:06 2016

Tools Copyright (c) 1996-2006 Texas Instruments Incorporated
alarms.asm                                                           PAGE   84

    4036              DW$406  .dwtag  DW_TAG_member, DW_AT_type(*DW$T$10)
    4037                      .dwattr DW$406, DW_AT_name("deviation"), DW_AT_symbol_name("_deviation")
    4038                      .dwattr DW$406, DW_AT_data_member_location[DW_OP_plus_uconst 0x3]
    4039                      .dwattr DW$406, DW_AT_accessibility(DW_ACCESS_public)
    4040                      .dwendtag DW$T$36
    4041              
    4042              
    4043              DW$T$40 .dwtag  DW_TAG_structure_type
    4044                      .dwattr DW$T$40, DW_AT_name("tag_sensorstruct")
    4045                      .dwattr DW$T$40, DW_AT_byte_size(0x12)
    4046              DW$407  .dwtag  DW_TAG_member, DW_AT_type(*DW$T$38)
    4047                      .dwattr DW$407, DW_AT_name("status1"), DW_AT_symbol_name("_status1")
    4048                      .dwattr DW$407, DW_AT_data_member_location[DW_OP_plus_uconst 0x0]
    4049                      .dwattr DW$407, DW_AT_accessibility(DW_ACCESS_public)
    4050              DW$408  .dwtag  DW_TAG_member, DW_AT_type(*DW$T$39)
    4051                      .dwattr DW$408, DW_AT_name("status2"), DW_AT_symbol_name("_status2")
    4052                      .dwattr DW$408, DW_AT_data_member_location[DW_OP_plus_uconst 0x1]
    4053                      .dwattr DW$408, DW_AT_accessibility(DW_ACCESS_public)
    4054              DW$409  .dwtag  DW_TAG_member, DW_AT_type(*DW$T$11)
    4055                      .dwattr DW$409, DW_AT_name("newval"), DW_AT_symbol_name("_newval")
    4056                      .dwattr DW$409, DW_AT_data_member_location[DW_OP_plus_uconst 0x2]
    4057                      .dwattr DW$409, DW_AT_accessibility(DW_ACCESS_public)
    4058              DW$410  .dwtag  DW_TAG_member, DW_AT_type(*DW$T$10)
    4059                      .dwattr DW$410, DW_AT_name("val"), DW_AT_symbol_name("_val")
    4060                      .dwattr DW$410, DW_AT_data_member_location[DW_OP_plus_uconst 0x3]
    4061                      .dwattr DW$410, DW_AT_accessibility(DW_ACCESS_public)
    4062              DW$411  .dwtag  DW_TAG_member, DW_AT_type(*DW$T$10)
    4063                      .dwattr DW$411, DW_AT_name("immediateval"), DW_AT_symbol_name("_immediateval")
    4064                      .dwattr DW$411, DW_AT_data_member_location[DW_OP_plus_uconst 0x4]
    4065                      .dwattr DW$411, DW_AT_accessibility(DW_ACCESS_public)
    4066              DW$412  .dwtag  DW_TAG_member, DW_AT_type(*DW$T$10)
    4067                      .dwattr DW$412, DW_AT_name("initialval"), DW_AT_symbol_name("_initialval")
    4068                      .dwattr DW$412, DW_AT_data_member_location[DW_OP_plus_uconst 0x5]
    4069                      .dwattr DW$412, DW_AT_accessibility(DW_ACCESS_public)
    4070              DW$413  .dwtag  DW_TAG_member, DW_AT_type(*DW$T$10)
    4071                      .dwattr DW$413, DW_AT_name("precomp"), DW_AT_symbol_name("_precomp")
    4072                      .dwattr DW$413, DW_AT_data_member_location[DW_OP_plus_uconst 0x6]
    4073                      .dwattr DW$413, DW_AT_accessibility(DW_ACCESS_public)
    4074              DW$414  .dwtag  DW_TAG_member, DW_AT_type(*DW$T$10)
    4075                      .dwattr DW$414, DW_AT_name("postcomp"), DW_AT_symbol_name("_postcomp")
    4076                      .dwattr DW$414, DW_AT_data_member_location[DW_OP_plus_uconst 0x7]
    4077                      .dwattr DW$414, DW_AT_accessibility(DW_ACCESS_public)
    4078              DW$415  .dwtag  DW_TAG_member, DW_AT_type(*DW$T$16)
    4079                      .dwattr DW$415, DW_AT_name("postfilter"), DW_AT_symbol_name("_postfilter")
    4080                      .dwattr DW$415, DW_AT_data_member_location[DW_OP_plus_uconst 0x8]
    4081                      .dwattr DW$415, DW_AT_accessibility(DW_ACCESS_public)
    4082              DW$416  .dwtag  DW_TAG_member, DW_AT_type(*DW$T$10)
    4083                      .dwattr DW$416, DW_AT_name("endresult"), DW_AT_symbol_name("_endresult")
    4084                      .dwattr DW$416, DW_AT_data_member_location[DW_OP_plus_uconst 0xa]
    4085                      .dwattr DW$416, DW_AT_accessibility(DW_ACCESS_public)
    4086              DW$417  .dwtag  DW_TAG_member, DW_AT_type(*DW$T$10)
    4087                      .dwattr DW$417, DW_AT_name("deviation"), DW_AT_symbol_name("_deviation")
    4088                      .dwattr DW$417, DW_AT_data_member_location[DW_OP_plus_uconst 0xb]
    4089                      .dwattr DW$417, DW_AT_accessibility(DW_ACCESS_public)
    4090              DW$418  .dwtag  DW_TAG_member, DW_AT_type(*DW$T$10)
TMS320C2000 COFF Assembler PC v4.1.3 Thu Aug 18 12:16:06 2016

Tools Copyright (c) 1996-2006 Texas Instruments Incorporated
alarms.asm                                                           PAGE   85

    4091                      .dwattr DW$418, DW_AT_name("min"), DW_AT_symbol_name("_min")
    4092                      .dwattr DW$418, DW_AT_data_member_location[DW_OP_plus_uconst 0xc]
    4093                      .dwattr DW$418, DW_AT_accessibility(DW_ACCESS_public)
    4094              DW$419  .dwtag  DW_TAG_member, DW_AT_type(*DW$T$10)
    4095                      .dwattr DW$419, DW_AT_name("max"), DW_AT_symbol_name("_max")
    4096                      .dwattr DW$419, DW_AT_data_member_location[DW_OP_plus_uconst 0xd]
    4097                      .dwattr DW$419, DW_AT_accessibility(DW_ACCESS_public)
    4098              DW$420  .dwtag  DW_TAG_member, DW_AT_type(*DW$T$10)
    4099                      .dwattr DW$420, DW_AT_name("devmin"), DW_AT_symbol_name("_devmin")
    4100                      .dwattr DW$420, DW_AT_data_member_location[DW_OP_plus_uconst 0xe]
    4101                      .dwattr DW$420, DW_AT_accessibility(DW_ACCESS_public)
    4102              DW$421  .dwtag  DW_TAG_member, DW_AT_type(*DW$T$10)
    4103                      .dwattr DW$421, DW_AT_name("devmax"), DW_AT_symbol_name("_devmax")
    4104                      .dwattr DW$421, DW_AT_data_member_location[DW_OP_plus_uconst 0xf]
    4105                      .dwattr DW$421, DW_AT_accessibility(DW_ACCESS_public)
    4106              DW$422  .dwtag  DW_TAG_member, DW_AT_type(*DW$T$11)
    4107                      .dwattr DW$422, DW_AT_name("rpm"), DW_AT_symbol_name("_rpm")
    4108                      .dwattr DW$422, DW_AT_data_member_location[DW_OP_plus_uconst 0x10]
    4109                      .dwattr DW$422, DW_AT_accessibility(DW_ACCESS_public)
    4110              DW$423  .dwtag  DW_TAG_member, DW_AT_type(*DW$T$10)
    4111                      .dwattr DW$423, DW_AT_name("prt"), DW_AT_symbol_name("_prt")
    4112                      .dwattr DW$423, DW_AT_data_member_location[DW_OP_plus_uconst 0x11]
    4113                      .dwattr DW$423, DW_AT_accessibility(DW_ACCESS_public)
    4114                      .dwendtag DW$T$40
    4115              
    4116              DW$T$47 .dwtag  DW_TAG_typedef, DW_AT_name("wioalarmstruct"), DW_AT_type(*DW$T$46)
    4117                      .dwattr DW$T$47, DW_AT_language(DW_LANG_C)
    4118              DW$T$13 .dwtag  DW_TAG_base_type, DW_AT_name("unsigned long")
    4119                      .dwattr DW$T$13, DW_AT_encoding(DW_ATE_unsigned)
    4120                      .dwattr DW$T$13, DW_AT_byte_size(0x02)
    4121              
    4122              DW$T$34 .dwtag  DW_TAG_structure_type
    4123                      .dwattr DW$T$34, DW_AT_byte_size(0x01)
    4124              DW$424  .dwtag  DW_TAG_member, DW_AT_type(*DW$T$11)
    4125                      .dwattr DW$424, DW_AT_name("alarmack"), DW_AT_symbol_name("_alarmack")
    4126                      .dwattr DW$424, DW_AT_bit_offset(0x0f), DW_AT_bit_size(0x01)
    4127                      .dwattr DW$424, DW_AT_data_member_location[DW_OP_plus_uconst 0x0]
    4128                      .dwattr DW$424, DW_AT_accessibility(DW_ACCESS_public)
    4129              DW$425  .dwtag  DW_TAG_member, DW_AT_type(*DW$T$11)
    4130                      .dwattr DW$425, DW_AT_name("unused2"), DW_AT_symbol_name("_unused2")
    4131                      .dwattr DW$425, DW_AT_bit_offset(0x0e), DW_AT_bit_size(0x01)
    4132                      .dwattr DW$425, DW_AT_data_member_location[DW_OP_plus_uconst 0x0]
    4133                      .dwattr DW$425, DW_AT_accessibility(DW_ACCESS_public)
    4134              DW$426  .dwtag  DW_TAG_member, DW_AT_type(*DW$T$11)
    4135                      .dwattr DW$426, DW_AT_name("unused3"), DW_AT_symbol_name("_unused3")
    4136                      .dwattr DW$426, DW_AT_bit_offset(0x0d), DW_AT_bit_size(0x01)
    4137                      .dwattr DW$426, DW_AT_data_member_location[DW_OP_plus_uconst 0x0]
    4138                      .dwattr DW$426, DW_AT_accessibility(DW_ACCESS_public)
    4139              DW$427  .dwtag  DW_TAG_member, DW_AT_type(*DW$T$11)
    4140                      .dwattr DW$427, DW_AT_name("unused4"), DW_AT_symbol_name("_unused4")
    4141                      .dwattr DW$427, DW_AT_bit_offset(0x0c), DW_AT_bit_size(0x01)
    4142                      .dwattr DW$427, DW_AT_data_member_location[DW_OP_plus_uconst 0x0]
    4143                      .dwattr DW$427, DW_AT_accessibility(DW_ACCESS_public)
    4144              DW$428  .dwtag  DW_TAG_member, DW_AT_type(*DW$T$11)
    4145                      .dwattr DW$428, DW_AT_name("unused5"), DW_AT_symbol_name("_unused5")
TMS320C2000 COFF Assembler PC v4.1.3 Thu Aug 18 12:16:06 2016

Tools Copyright (c) 1996-2006 Texas Instruments Incorporated
alarms.asm                                                           PAGE   86

    4146                      .dwattr DW$428, DW_AT_bit_offset(0x0b), DW_AT_bit_size(0x01)
    4147                      .dwattr DW$428, DW_AT_data_member_location[DW_OP_plus_uconst 0x0]
    4148                      .dwattr DW$428, DW_AT_accessibility(DW_ACCESS_public)
    4149              DW$429  .dwtag  DW_TAG_member, DW_AT_type(*DW$T$11)
    4150                      .dwattr DW$429, DW_AT_name("unused6"), DW_AT_symbol_name("_unused6")
    4151                      .dwattr DW$429, DW_AT_bit_offset(0x0a), DW_AT_bit_size(0x01)
    4152                      .dwattr DW$429, DW_AT_data_member_location[DW_OP_plus_uconst 0x0]
    4153                      .dwattr DW$429, DW_AT_accessibility(DW_ACCESS_public)
    4154              DW$430  .dwtag  DW_TAG_member, DW_AT_type(*DW$T$11)
    4155                      .dwattr DW$430, DW_AT_name("unused7"), DW_AT_symbol_name("_unused7")
    4156                      .dwattr DW$430, DW_AT_bit_offset(0x09), DW_AT_bit_size(0x01)
    4157                      .dwattr DW$430, DW_AT_data_member_location[DW_OP_plus_uconst 0x0]
    4158                      .dwattr DW$430, DW_AT_accessibility(DW_ACCESS_public)
    4159              DW$431  .dwtag  DW_TAG_member, DW_AT_type(*DW$T$11)
    4160                      .dwattr DW$431, DW_AT_name("unused8"), DW_AT_symbol_name("_unused8")
    4161                      .dwattr DW$431, DW_AT_bit_offset(0x08), DW_AT_bit_size(0x01)
    4162                      .dwattr DW$431, DW_AT_data_member_location[DW_OP_plus_uconst 0x0]
    4163                      .dwattr DW$431, DW_AT_accessibility(DW_ACCESS_public)
    4164              DW$432  .dwtag  DW_TAG_member, DW_AT_type(*DW$T$11)
    4165                      .dwattr DW$432, DW_AT_name("unused9"), DW_AT_symbol_name("_unused9")
    4166                      .dwattr DW$432, DW_AT_bit_offset(0x07), DW_AT_bit_size(0x01)
    4167                      .dwattr DW$432, DW_AT_data_member_location[DW_OP_plus_uconst 0x0]
    4168                      .dwattr DW$432, DW_AT_accessibility(DW_ACCESS_public)
    4169              DW$433  .dwtag  DW_TAG_member, DW_AT_type(*DW$T$11)
    4170                      .dwattr DW$433, DW_AT_name("unused10"), DW_AT_symbol_name("_unused10")
    4171                      .dwattr DW$433, DW_AT_bit_offset(0x06), DW_AT_bit_size(0x01)
    4172                      .dwattr DW$433, DW_AT_data_member_location[DW_OP_plus_uconst 0x0]
    4173                      .dwattr DW$433, DW_AT_accessibility(DW_ACCESS_public)
    4174              DW$434  .dwtag  DW_TAG_member, DW_AT_type(*DW$T$11)
    4175                      .dwattr DW$434, DW_AT_name("unused11"), DW_AT_symbol_name("_unused11")
    4176                      .dwattr DW$434, DW_AT_bit_offset(0x05), DW_AT_bit_size(0x01)
    4177                      .dwattr DW$434, DW_AT_data_member_location[DW_OP_plus_uconst 0x0]
    4178                      .dwattr DW$434, DW_AT_accessibility(DW_ACCESS_public)
    4179              DW$435  .dwtag  DW_TAG_member, DW_AT_type(*DW$T$11)
    4180                      .dwattr DW$435, DW_AT_name("unused12"), DW_AT_symbol_name("_unused12")
    4181                      .dwattr DW$435, DW_AT_bit_offset(0x04), DW_AT_bit_size(0x01)
    4182                      .dwattr DW$435, DW_AT_data_member_location[DW_OP_plus_uconst 0x0]
    4183                      .dwattr DW$435, DW_AT_accessibility(DW_ACCESS_public)
    4184              DW$436  .dwtag  DW_TAG_member, DW_AT_type(*DW$T$11)
    4185                      .dwattr DW$436, DW_AT_name("unused13"), DW_AT_symbol_name("_unused13")
    4186                      .dwattr DW$436, DW_AT_bit_offset(0x03), DW_AT_bit_size(0x01)
    4187                      .dwattr DW$436, DW_AT_data_member_location[DW_OP_plus_uconst 0x0]
    4188                      .dwattr DW$436, DW_AT_accessibility(DW_ACCESS_public)
    4189              DW$437  .dwtag  DW_TAG_member, DW_AT_type(*DW$T$11)
    4190                      .dwattr DW$437, DW_AT_name("unused14"), DW_AT_symbol_name("_unused14")
    4191                      .dwattr DW$437, DW_AT_bit_offset(0x02), DW_AT_bit_size(0x01)
    4192                      .dwattr DW$437, DW_AT_data_member_location[DW_OP_plus_uconst 0x0]
    4193                      .dwattr DW$437, DW_AT_accessibility(DW_ACCESS_public)
    4194              DW$438  .dwtag  DW_TAG_member, DW_AT_type(*DW$T$11)
    4195                      .dwattr DW$438, DW_AT_name("unused15"), DW_AT_symbol_name("_unused15")
    4196                      .dwattr DW$438, DW_AT_bit_offset(0x01), DW_AT_bit_size(0x01)
    4197                      .dwattr DW$438, DW_AT_data_member_location[DW_OP_plus_uconst 0x0]
    4198                      .dwattr DW$438, DW_AT_accessibility(DW_ACCESS_public)
    4199              DW$439  .dwtag  DW_TAG_member, DW_AT_type(*DW$T$11)
    4200                      .dwattr DW$439, DW_AT_name("unused16"), DW_AT_symbol_name("_unused16")
TMS320C2000 COFF Assembler PC v4.1.3 Thu Aug 18 12:16:06 2016

Tools Copyright (c) 1996-2006 Texas Instruments Incorporated
alarms.asm                                                           PAGE   87

    4201                      .dwattr DW$439, DW_AT_bit_offset(0x00), DW_AT_bit_size(0x01)
    4202                      .dwattr DW$439, DW_AT_data_member_location[DW_OP_plus_uconst 0x0]
    4203                      .dwattr DW$439, DW_AT_accessibility(DW_ACCESS_public)
    4204                      .dwendtag DW$T$34
    4205              
    4206              
    4207              DW$T$35 .dwtag  DW_TAG_structure_type
    4208                      .dwattr DW$T$35, DW_AT_byte_size(0x01)
    4209              DW$440  .dwtag  DW_TAG_member, DW_AT_type(*DW$T$11)
    4210                      .dwattr DW$440, DW_AT_name("alarm"), DW_AT_symbol_name("_alarm")
    4211                      .dwattr DW$440, DW_AT_bit_offset(0x0f), DW_AT_bit_size(0x01)
    4212                      .dwattr DW$440, DW_AT_data_member_location[DW_OP_plus_uconst 0x0]
    4213                      .dwattr DW$440, DW_AT_accessibility(DW_ACCESS_public)
    4214              DW$441  .dwtag  DW_TAG_member, DW_AT_type(*DW$T$11)
    4215                      .dwattr DW$441, DW_AT_name("alarmlatched"), DW_AT_symbol_name("_alarmlatched")
    4216                      .dwattr DW$441, DW_AT_bit_offset(0x0e), DW_AT_bit_size(0x01)
    4217                      .dwattr DW$441, DW_AT_data_member_location[DW_OP_plus_uconst 0x0]
    4218                      .dwattr DW$441, DW_AT_accessibility(DW_ACCESS_public)
    4219              DW$442  .dwtag  DW_TAG_member, DW_AT_type(*DW$T$11)
    4220                      .dwattr DW$442, DW_AT_name("unused3"), DW_AT_symbol_name("_unused3")
    4221                      .dwattr DW$442, DW_AT_bit_offset(0x0d), DW_AT_bit_size(0x01)
    4222                      .dwattr DW$442, DW_AT_data_member_location[DW_OP_plus_uconst 0x0]
    4223                      .dwattr DW$442, DW_AT_accessibility(DW_ACCESS_public)
    4224              DW$443  .dwtag  DW_TAG_member, DW_AT_type(*DW$T$11)
    4225                      .dwattr DW$443, DW_AT_name("unused4"), DW_AT_symbol_name("_unused4")
    4226                      .dwattr DW$443, DW_AT_bit_offset(0x0c), DW_AT_bit_size(0x01)
    4227                      .dwattr DW$443, DW_AT_data_member_location[DW_OP_plus_uconst 0x0]
    4228                      .dwattr DW$443, DW_AT_accessibility(DW_ACCESS_public)
    4229              DW$444  .dwtag  DW_TAG_member, DW_AT_type(*DW$T$11)
    4230                      .dwattr DW$444, DW_AT_name("unused5"), DW_AT_symbol_name("_unused5")
    4231                      .dwattr DW$444, DW_AT_bit_offset(0x0b), DW_AT_bit_size(0x01)
    4232                      .dwattr DW$444, DW_AT_data_member_location[DW_OP_plus_uconst 0x0]
    4233                      .dwattr DW$444, DW_AT_accessibility(DW_ACCESS_public)
    4234              DW$445  .dwtag  DW_TAG_member, DW_AT_type(*DW$T$11)
    4235                      .dwattr DW$445, DW_AT_name("unused6"), DW_AT_symbol_name("_unused6")
    4236                      .dwattr DW$445, DW_AT_bit_offset(0x0a), DW_AT_bit_size(0x01)
    4237                      .dwattr DW$445, DW_AT_data_member_location[DW_OP_plus_uconst 0x0]
    4238                      .dwattr DW$445, DW_AT_accessibility(DW_ACCESS_public)
    4239              DW$446  .dwtag  DW_TAG_member, DW_AT_type(*DW$T$11)
    4240                      .dwattr DW$446, DW_AT_name("unused7"), DW_AT_symbol_name("_unused7")
    4241                      .dwattr DW$446, DW_AT_bit_offset(0x09), DW_AT_bit_size(0x01)
    4242                      .dwattr DW$446, DW_AT_data_member_location[DW_OP_plus_uconst 0x0]
    4243                      .dwattr DW$446, DW_AT_accessibility(DW_ACCESS_public)
    4244              DW$447  .dwtag  DW_TAG_member, DW_AT_type(*DW$T$11)
    4245                      .dwattr DW$447, DW_AT_name("unused8"), DW_AT_symbol_name("_unused8")
    4246                      .dwattr DW$447, DW_AT_bit_offset(0x08), DW_AT_bit_size(0x01)
    4247                      .dwattr DW$447, DW_AT_data_member_location[DW_OP_plus_uconst 0x0]
    4248                      .dwattr DW$447, DW_AT_accessibility(DW_ACCESS_public)
    4249              DW$448  .dwtag  DW_TAG_member, DW_AT_type(*DW$T$11)
    4250                      .dwattr DW$448, DW_AT_name("unused9"), DW_AT_symbol_name("_unused9")
    4251                      .dwattr DW$448, DW_AT_bit_offset(0x07), DW_AT_bit_size(0x01)
    4252                      .dwattr DW$448, DW_AT_data_member_location[DW_OP_plus_uconst 0x0]
    4253                      .dwattr DW$448, DW_AT_accessibility(DW_ACCESS_public)
    4254              DW$449  .dwtag  DW_TAG_member, DW_AT_type(*DW$T$11)
    4255                      .dwattr DW$449, DW_AT_name("unused10"), DW_AT_symbol_name("_unused10")
TMS320C2000 COFF Assembler PC v4.1.3 Thu Aug 18 12:16:06 2016

Tools Copyright (c) 1996-2006 Texas Instruments Incorporated
alarms.asm                                                           PAGE   88

    4256                      .dwattr DW$449, DW_AT_bit_offset(0x06), DW_AT_bit_size(0x01)
    4257                      .dwattr DW$449, DW_AT_data_member_location[DW_OP_plus_uconst 0x0]
    4258                      .dwattr DW$449, DW_AT_accessibility(DW_ACCESS_public)
    4259              DW$450  .dwtag  DW_TAG_member, DW_AT_type(*DW$T$11)
    4260                      .dwattr DW$450, DW_AT_name("unused11"), DW_AT_symbol_name("_unused11")
    4261                      .dwattr DW$450, DW_AT_bit_offset(0x05), DW_AT_bit_size(0x01)
    4262                      .dwattr DW$450, DW_AT_data_member_location[DW_OP_plus_uconst 0x0]
    4263                      .dwattr DW$450, DW_AT_accessibility(DW_ACCESS_public)
    4264              DW$451  .dwtag  DW_TAG_member, DW_AT_type(*DW$T$11)
    4265                      .dwattr DW$451, DW_AT_name("unused12"), DW_AT_symbol_name("_unused12")
    4266                      .dwattr DW$451, DW_AT_bit_offset(0x04), DW_AT_bit_size(0x01)
    4267                      .dwattr DW$451, DW_AT_data_member_location[DW_OP_plus_uconst 0x0]
    4268                      .dwattr DW$451, DW_AT_accessibility(DW_ACCESS_public)
    4269              DW$452  .dwtag  DW_TAG_member, DW_AT_type(*DW$T$11)
    4270                      .dwattr DW$452, DW_AT_name("unused13"), DW_AT_symbol_name("_unused13")
    4271                      .dwattr DW$452, DW_AT_bit_offset(0x03), DW_AT_bit_size(0x01)
    4272                      .dwattr DW$452, DW_AT_data_member_location[DW_OP_plus_uconst 0x0]
    4273                      .dwattr DW$452, DW_AT_accessibility(DW_ACCESS_public)
    4274              DW$453  .dwtag  DW_TAG_member, DW_AT_type(*DW$T$11)
    4275                      .dwattr DW$453, DW_AT_name("unused14"), DW_AT_symbol_name("_unused14")
    4276                      .dwattr DW$453, DW_AT_bit_offset(0x02), DW_AT_bit_size(0x01)
    4277                      .dwattr DW$453, DW_AT_data_member_location[DW_OP_plus_uconst 0x0]
    4278                      .dwattr DW$453, DW_AT_accessibility(DW_ACCESS_public)
    4279              DW$454  .dwtag  DW_TAG_member, DW_AT_type(*DW$T$11)
    4280                      .dwattr DW$454, DW_AT_name("unused15"), DW_AT_symbol_name("_unused15")
    4281                      .dwattr DW$454, DW_AT_bit_offset(0x01), DW_AT_bit_size(0x01)
    4282                      .dwattr DW$454, DW_AT_data_member_location[DW_OP_plus_uconst 0x0]
    4283                      .dwattr DW$454, DW_AT_accessibility(DW_ACCESS_public)
    4284              DW$455  .dwtag  DW_TAG_member, DW_AT_type(*DW$T$11)
    4285                      .dwattr DW$455, DW_AT_name("unused16"), DW_AT_symbol_name("_unused16")
    4286                      .dwattr DW$455, DW_AT_bit_offset(0x00), DW_AT_bit_size(0x01)
    4287                      .dwattr DW$455, DW_AT_data_member_location[DW_OP_plus_uconst 0x0]
    4288                      .dwattr DW$455, DW_AT_accessibility(DW_ACCESS_public)
    4289                      .dwendtag DW$T$35
    4290              
    4291              DW$T$38 .dwtag  DW_TAG_typedef, DW_AT_name("status1struct"), DW_AT_type(*DW$T$37)
    4292                      .dwattr DW$T$38, DW_AT_language(DW_LANG_C)
    4293              
    4294              DW$T$46 .dwtag  DW_TAG_structure_type
    4295                      .dwattr DW$T$46, DW_AT_name("tag_wioalarmstruct")
    4296                      .dwattr DW$T$46, DW_AT_byte_size(0x01)
    4297              DW$456  .dwtag  DW_TAG_member, DW_AT_type(*DW$T$11)
    4298                      .dwattr DW$456, DW_AT_name("alarmupper"), DW_AT_symbol_name("_alarmupper")
    4299                      .dwattr DW$456, DW_AT_bit_offset(0x0f), DW_AT_bit_size(0x01)
    4300                      .dwattr DW$456, DW_AT_data_member_location[DW_OP_plus_uconst 0x0]
    4301                      .dwattr DW$456, DW_AT_accessibility(DW_ACCESS_public)
    4302              DW$457  .dwtag  DW_TAG_member, DW_AT_type(*DW$T$11)
    4303                      .dwattr DW$457, DW_AT_name("alarmupperlatched"), DW_AT_symbol_name("_alarmupperlatched")
    4304                      .dwattr DW$457, DW_AT_bit_offset(0x0e), DW_AT_bit_size(0x01)
    4305                      .dwattr DW$457, DW_AT_data_member_location[DW_OP_plus_uconst 0x0]
    4306                      .dwattr DW$457, DW_AT_accessibility(DW_ACCESS_public)
    4307              DW$458  .dwtag  DW_TAG_member, DW_AT_type(*DW$T$11)
    4308                      .dwattr DW$458, DW_AT_name("alarm"), DW_AT_symbol_name("_alarm")
    4309                      .dwattr DW$458, DW_AT_bit_offset(0x0d), DW_AT_bit_size(0x01)
    4310                      .dwattr DW$458, DW_AT_data_member_location[DW_OP_plus_uconst 0x0]
TMS320C2000 COFF Assembler PC v4.1.3 Thu Aug 18 12:16:06 2016

Tools Copyright (c) 1996-2006 Texas Instruments Incorporated
alarms.asm                                                           PAGE   89

    4311                      .dwattr DW$458, DW_AT_accessibility(DW_ACCESS_public)
    4312              DW$459  .dwtag  DW_TAG_member, DW_AT_type(*DW$T$11)
    4313                      .dwattr DW$459, DW_AT_name("alarmlatched"), DW_AT_symbol_name("_alarmlatched")
    4314                      .dwattr DW$459, DW_AT_bit_offset(0x0c), DW_AT_bit_size(0x01)
    4315                      .dwattr DW$459, DW_AT_data_member_location[DW_OP_plus_uconst 0x0]
    4316                      .dwattr DW$459, DW_AT_accessibility(DW_ACCESS_public)
    4317              DW$460  .dwtag  DW_TAG_member, DW_AT_type(*DW$T$11)
    4318                      .dwattr DW$460, DW_AT_name("comms"), DW_AT_symbol_name("_comms")
    4319                      .dwattr DW$460, DW_AT_bit_offset(0x0b), DW_AT_bit_size(0x01)
    4320                      .dwattr DW$460, DW_AT_data_member_location[DW_OP_plus_uconst 0x0]
    4321                      .dwattr DW$460, DW_AT_accessibility(DW_ACCESS_public)
    4322              DW$461  .dwtag  DW_TAG_member, DW_AT_type(*DW$T$11)
    4323                      .dwattr DW$461, DW_AT_name("commslatched"), DW_AT_symbol_name("_commslatched")
    4324                      .dwattr DW$461, DW_AT_bit_offset(0x0a), DW_AT_bit_size(0x01)
    4325                      .dwattr DW$461, DW_AT_data_member_location[DW_OP_plus_uconst 0x0]
    4326                      .dwattr DW$461, DW_AT_accessibility(DW_ACCESS_public)
    4327              DW$462  .dwtag  DW_TAG_member, DW_AT_type(*DW$T$11)
    4328                      .dwattr DW$462, DW_AT_name("analoglow"), DW_AT_symbol_name("_analoglow")
    4329                      .dwattr DW$462, DW_AT_bit_offset(0x09), DW_AT_bit_size(0x01)
    4330                      .dwattr DW$462, DW_AT_data_member_location[DW_OP_plus_uconst 0x0]
    4331                      .dwattr DW$462, DW_AT_accessibility(DW_ACCESS_public)
    4332              DW$463  .dwtag  DW_TAG_member, DW_AT_type(*DW$T$11)
    4333                      .dwattr DW$463, DW_AT_name("analoghigh"), DW_AT_symbol_name("_analoghigh")
    4334                      .dwattr DW$463, DW_AT_bit_offset(0x08), DW_AT_bit_size(0x01)
    4335                      .dwattr DW$463, DW_AT_data_member_location[DW_OP_plus_uconst 0x0]
    4336                      .dwattr DW$463, DW_AT_accessibility(DW_ACCESS_public)
    4337              DW$464  .dwtag  DW_TAG_member, DW_AT_type(*DW$T$11)
    4338                      .dwattr DW$464, DW_AT_name("unused9"), DW_AT_symbol_name("_unused9")
    4339                      .dwattr DW$464, DW_AT_bit_offset(0x07), DW_AT_bit_size(0x01)
    4340                      .dwattr DW$464, DW_AT_data_member_location[DW_OP_plus_uconst 0x0]
    4341                      .dwattr DW$464, DW_AT_accessibility(DW_ACCESS_public)
    4342              DW$465  .dwtag  DW_TAG_member, DW_AT_type(*DW$T$11)
    4343                      .dwattr DW$465, DW_AT_name("unused10"), DW_AT_symbol_name("_unused10")
    4344                      .dwattr DW$465, DW_AT_bit_offset(0x06), DW_AT_bit_size(0x01)
    4345                      .dwattr DW$465, DW_AT_data_member_location[DW_OP_plus_uconst 0x0]
    4346                      .dwattr DW$465, DW_AT_accessibility(DW_ACCESS_public)
    4347              DW$466  .dwtag  DW_TAG_member, DW_AT_type(*DW$T$11)
    4348                      .dwattr DW$466, DW_AT_name("unused11"), DW_AT_symbol_name("_unused11")
    4349                      .dwattr DW$466, DW_AT_bit_offset(0x05), DW_AT_bit_size(0x01)
    4350                      .dwattr DW$466, DW_AT_data_member_location[DW_OP_plus_uconst 0x0]
    4351                      .dwattr DW$466, DW_AT_accessibility(DW_ACCESS_public)
    4352              DW$467  .dwtag  DW_TAG_member, DW_AT_type(*DW$T$11)
    4353                      .dwattr DW$467, DW_AT_name("unused12"), DW_AT_symbol_name("_unused12")
    4354                      .dwattr DW$467, DW_AT_bit_offset(0x04), DW_AT_bit_size(0x01)
    4355                      .dwattr DW$467, DW_AT_data_member_location[DW_OP_plus_uconst 0x0]
    4356                      .dwattr DW$467, DW_AT_accessibility(DW_ACCESS_public)
    4357              DW$468  .dwtag  DW_TAG_member, DW_AT_type(*DW$T$11)
    4358                      .dwattr DW$468, DW_AT_name("unused13"), DW_AT_symbol_name("_unused13")
    4359                      .dwattr DW$468, DW_AT_bit_offset(0x03), DW_AT_bit_size(0x01)
    4360                      .dwattr DW$468, DW_AT_data_member_location[DW_OP_plus_uconst 0x0]
    4361                      .dwattr DW$468, DW_AT_accessibility(DW_ACCESS_public)
    4362              DW$469  .dwtag  DW_TAG_member, DW_AT_type(*DW$T$11)
    4363                      .dwattr DW$469, DW_AT_name("unused14"), DW_AT_symbol_name("_unused14")
    4364                      .dwattr DW$469, DW_AT_bit_offset(0x02), DW_AT_bit_size(0x01)
    4365                      .dwattr DW$469, DW_AT_data_member_location[DW_OP_plus_uconst 0x0]
TMS320C2000 COFF Assembler PC v4.1.3 Thu Aug 18 12:16:06 2016

Tools Copyright (c) 1996-2006 Texas Instruments Incorporated
alarms.asm                                                           PAGE   90

    4366                      .dwattr DW$469, DW_AT_accessibility(DW_ACCESS_public)
    4367              DW$470  .dwtag  DW_TAG_member, DW_AT_type(*DW$T$11)
    4368                      .dwattr DW$470, DW_AT_name("unused15"), DW_AT_symbol_name("_unused15")
    4369                      .dwattr DW$470, DW_AT_bit_offset(0x01), DW_AT_bit_size(0x01)
    4370                      .dwattr DW$470, DW_AT_data_member_location[DW_OP_plus_uconst 0x0]
    4371                      .dwattr DW$470, DW_AT_accessibility(DW_ACCESS_public)
    4372              DW$471  .dwtag  DW_TAG_member, DW_AT_type(*DW$T$11)
    4373                      .dwattr DW$471, DW_AT_name("unused16"), DW_AT_symbol_name("_unused16")
    4374                      .dwattr DW$471, DW_AT_bit_offset(0x00), DW_AT_bit_size(0x01)
    4375                      .dwattr DW$471, DW_AT_data_member_location[DW_OP_plus_uconst 0x0]
    4376                      .dwattr DW$471, DW_AT_accessibility(DW_ACCESS_public)
    4377                      .dwendtag DW$T$46
    4378              
    4379              
    4380              DW$T$37 .dwtag  DW_TAG_structure_type
    4381                      .dwattr DW$T$37, DW_AT_name("tag_status1struct")
    4382                      .dwattr DW$T$37, DW_AT_byte_size(0x01)
    4383              DW$472  .dwtag  DW_TAG_member, DW_AT_type(*DW$T$11)
    4384                      .dwattr DW$472, DW_AT_name("enabled"), DW_AT_symbol_name("_enabled")
    4385                      .dwattr DW$472, DW_AT_bit_offset(0x0f), DW_AT_bit_size(0x01)
    4386                      .dwattr DW$472, DW_AT_data_member_location[DW_OP_plus_uconst 0x0]
    4387                      .dwattr DW$472, DW_AT_accessibility(DW_ACCESS_public)
    4388              DW$473  .dwtag  DW_TAG_member, DW_AT_type(*DW$T$11)
    4389                      .dwattr DW$473, DW_AT_name("calmode"), DW_AT_symbol_name("_calmode")
    4390                      .dwattr DW$473, DW_AT_bit_offset(0x0e), DW_AT_bit_size(0x01)
    4391                      .dwattr DW$473, DW_AT_data_member_location[DW_OP_plus_uconst 0x0]
    4392                      .dwattr DW$473, DW_AT_accessibility(DW_ACCESS_public)
    4393              DW$474  .dwtag  DW_TAG_member, DW_AT_type(*DW$T$11)
    4394                      .dwattr DW$474, DW_AT_name("alarmmask"), DW_AT_symbol_name("_alarmmask")
    4395                      .dwattr DW$474, DW_AT_bit_offset(0x0d), DW_AT_bit_size(0x01)
    4396                      .dwattr DW$474, DW_AT_data_member_location[DW_OP_plus_uconst 0x0]
    4397                      .dwattr DW$474, DW_AT_accessibility(DW_ACCESS_public)
    4398              DW$475  .dwtag  DW_TAG_member, DW_AT_type(*DW$T$11)
    4399                      .dwattr DW$475, DW_AT_name("dcmode"), DW_AT_symbol_name("_dcmode")
    4400                      .dwattr DW$475, DW_AT_bit_offset(0x0c), DW_AT_bit_size(0x01)
    4401                      .dwattr DW$475, DW_AT_data_member_location[DW_OP_plus_uconst 0x0]
    4402                      .dwattr DW$475, DW_AT_accessibility(DW_ACCESS_public)
    4403              DW$476  .dwtag  DW_TAG_member, DW_AT_type(*DW$T$11)
    4404                      .dwattr DW$476, DW_AT_name("replaced"), DW_AT_symbol_name("_replaced")
    4405                      .dwattr DW$476, DW_AT_bit_offset(0x0b), DW_AT_bit_size(0x01)
    4406                      .dwattr DW$476, DW_AT_data_member_location[DW_OP_plus_uconst 0x0]
    4407                      .dwattr DW$476, DW_AT_accessibility(DW_ACCESS_public)
    4408              DW$477  .dwtag  DW_TAG_member, DW_AT_type(*DW$T$11)
    4409                      .dwattr DW$477, DW_AT_name("excludeslowroll"), DW_AT_symbol_name("_excludeslowroll")
    4410                      .dwattr DW$477, DW_AT_bit_offset(0x0a), DW_AT_bit_size(0x01)
    4411                      .dwattr DW$477, DW_AT_data_member_location[DW_OP_plus_uconst 0x0]
    4412                      .dwattr DW$477, DW_AT_accessibility(DW_ACCESS_public)
    4413              DW$478  .dwtag  DW_TAG_member, DW_AT_type(*DW$T$11)
    4414                      .dwattr DW$478, DW_AT_name("unused7"), DW_AT_symbol_name("_unused7")
    4415                      .dwattr DW$478, DW_AT_bit_offset(0x09), DW_AT_bit_size(0x01)
    4416                      .dwattr DW$478, DW_AT_data_member_location[DW_OP_plus_uconst 0x0]
    4417                      .dwattr DW$478, DW_AT_accessibility(DW_ACCESS_public)
    4418              DW$479  .dwtag  DW_TAG_member, DW_AT_type(*DW$T$11)
    4419                      .dwattr DW$479, DW_AT_name("unused8"), DW_AT_symbol_name("_unused8")
    4420                      .dwattr DW$479, DW_AT_bit_offset(0x08), DW_AT_bit_size(0x01)
TMS320C2000 COFF Assembler PC v4.1.3 Thu Aug 18 12:16:06 2016

Tools Copyright (c) 1996-2006 Texas Instruments Incorporated
alarms.asm                                                           PAGE   91

    4421                      .dwattr DW$479, DW_AT_data_member_location[DW_OP_plus_uconst 0x0]
    4422                      .dwattr DW$479, DW_AT_accessibility(DW_ACCESS_public)
    4423              DW$480  .dwtag  DW_TAG_member, DW_AT_type(*DW$T$11)
    4424                      .dwattr DW$480, DW_AT_name("unused9"), DW_AT_symbol_name("_unused9")
    4425                      .dwattr DW$480, DW_AT_bit_offset(0x07), DW_AT_bit_size(0x01)
    4426                      .dwattr DW$480, DW_AT_data_member_location[DW_OP_plus_uconst 0x0]
    4427                      .dwattr DW$480, DW_AT_accessibility(DW_ACCESS_public)
    4428              DW$481  .dwtag  DW_TAG_member, DW_AT_type(*DW$T$11)
    4429                      .dwattr DW$481, DW_AT_name("unused10"), DW_AT_symbol_name("_unused10")
    4430                      .dwattr DW$481, DW_AT_bit_offset(0x06), DW_AT_bit_size(0x01)
    4431                      .dwattr DW$481, DW_AT_data_member_location[DW_OP_plus_uconst 0x0]
    4432                      .dwattr DW$481, DW_AT_accessibility(DW_ACCESS_public)
    4433              DW$482  .dwtag  DW_TAG_member, DW_AT_type(*DW$T$11)
    4434                      .dwattr DW$482, DW_AT_name("unused11"), DW_AT_symbol_name("_unused11")
    4435                      .dwattr DW$482, DW_AT_bit_offset(0x05), DW_AT_bit_size(0x01)
    4436                      .dwattr DW$482, DW_AT_data_member_location[DW_OP_plus_uconst 0x0]
    4437                      .dwattr DW$482, DW_AT_accessibility(DW_ACCESS_public)
    4438              DW$483  .dwtag  DW_TAG_member, DW_AT_type(*DW$T$11)
    4439                      .dwattr DW$483, DW_AT_name("unused12"), DW_AT_symbol_name("_unused12")
    4440                      .dwattr DW$483, DW_AT_bit_offset(0x04), DW_AT_bit_size(0x01)
    4441                      .dwattr DW$483, DW_AT_data_member_location[DW_OP_plus_uconst 0x0]
    4442                      .dwattr DW$483, DW_AT_accessibility(DW_ACCESS_public)
    4443              DW$484  .dwtag  DW_TAG_member, DW_AT_type(*DW$T$11)
    4444                      .dwattr DW$484, DW_AT_name("unused13"), DW_AT_symbol_name("_unused13")
    4445                      .dwattr DW$484, DW_AT_bit_offset(0x03), DW_AT_bit_size(0x01)
    4446                      .dwattr DW$484, DW_AT_data_member_location[DW_OP_plus_uconst 0x0]
    4447                      .dwattr DW$484, DW_AT_accessibility(DW_ACCESS_public)
    4448              DW$485  .dwtag  DW_TAG_member, DW_AT_type(*DW$T$11)
    4449                      .dwattr DW$485, DW_AT_name("unused14"), DW_AT_symbol_name("_unused14")
    4450                      .dwattr DW$485, DW_AT_bit_offset(0x02), DW_AT_bit_size(0x01)
    4451                      .dwattr DW$485, DW_AT_data_member_location[DW_OP_plus_uconst 0x0]
    4452                      .dwattr DW$485, DW_AT_accessibility(DW_ACCESS_public)
    4453              DW$486  .dwtag  DW_TAG_member, DW_AT_type(*DW$T$11)
    4454                      .dwattr DW$486, DW_AT_name("unused15"), DW_AT_symbol_name("_unused15")
    4455                      .dwattr DW$486, DW_AT_bit_offset(0x01), DW_AT_bit_size(0x01)
    4456                      .dwattr DW$486, DW_AT_data_member_location[DW_OP_plus_uconst 0x0]
    4457                      .dwattr DW$486, DW_AT_accessibility(DW_ACCESS_public)
    4458              DW$487  .dwtag  DW_TAG_member, DW_AT_type(*DW$T$11)
    4459                      .dwattr DW$487, DW_AT_name("unused16"), DW_AT_symbol_name("_unused16")
    4460                      .dwattr DW$487, DW_AT_bit_offset(0x00), DW_AT_bit_size(0x01)
    4461                      .dwattr DW$487, DW_AT_data_member_location[DW_OP_plus_uconst 0x0]
    4462                      .dwattr DW$487, DW_AT_accessibility(DW_ACCESS_public)
    4463                      .dwendtag DW$T$37
    4464              
    4465              
    4466                      .dwattr DW$73, DW_AT_external(0x01)
    4467                      .dwattr DW$88, DW_AT_external(0x01)
    4468                      .dwattr DW$86, DW_AT_external(0x01)
    4469                      .dwattr DW$86, DW_AT_type(*DW$T$11)
    4470                      .dwattr DW$148, DW_AT_external(0x01)
    4471                      .dwattr DW$148, DW_AT_type(*DW$T$10)
    4472                      .dwattr DW$146, DW_AT_external(0x01)
    4473                      .dwattr DW$146, DW_AT_type(*DW$T$10)
    4474                      .dwattr DW$77, DW_AT_external(0x01)
    4475                      .dwattr DW$84, DW_AT_external(0x01)
TMS320C2000 COFF Assembler PC v4.1.3 Thu Aug 18 12:16:06 2016

Tools Copyright (c) 1996-2006 Texas Instruments Incorporated
alarms.asm                                                           PAGE   92

    4476                      .dwattr DW$65, DW_AT_external(0x01)
    4477                      .dwattr DW$47, DW_AT_external(0x01)
    4478                      .dwattr DW$61, DW_AT_external(0x01)
    4479                      .dwattr DW$50, DW_AT_external(0x01)
    4480                      .dwattr DW$50, DW_AT_type(*DW$T$101)
    4481                      .dwattr DW$56, DW_AT_external(0x01)
    4482                      .dwattr DW$56, DW_AT_type(*DW$T$11)
    4483                      .dwattr DW$42, DW_AT_external(0x01)
    4484                      .dwattr DW$72, DW_AT_external(0x01)
    4485                      .dwattr DW$72, DW_AT_type(*DW$T$85)
    4486                      .dwattr DW$62, DW_AT_external(0x01)
    4487                      .dwattr DW$63, DW_AT_external(0x01)
    4488                      .dwattr DW$75, DW_AT_external(0x01)
    4489                      .dwattr DW$82, DW_AT_external(0x01)
    4490                      .dwattr DW$53, DW_AT_external(0x01)
    4491                      .dwattr DW$51, DW_AT_external(0x01)
    4492                      .dwattr DW$51, DW_AT_type(*DW$T$107)
    4493                      .dwattr DW$58, DW_AT_external(0x01)
    4494                      .dwattr DW$79, DW_AT_external(0x01)
    4495                      .dwattr DW$CU, DW_AT_language(DW_LANG_C)
    4496              
    4497              ;***************************************************************
    4498              ;* DWARF REGISTER MAP                                          *
    4499              ;***************************************************************
    4500              
    4501              DW$488  .dwtag  DW_TAG_assign_register, DW_AT_name("AL")
    4502                      .dwattr DW$488, DW_AT_location[DW_OP_reg0]
    4503              DW$489  .dwtag  DW_TAG_assign_register, DW_AT_name("AH")
    4504                      .dwattr DW$489, DW_AT_location[DW_OP_reg1]
    4505              DW$490  .dwtag  DW_TAG_assign_register, DW_AT_name("PL")
    4506                      .dwattr DW$490, DW_AT_location[DW_OP_reg2]
    4507              DW$491  .dwtag  DW_TAG_assign_register, DW_AT_name("PH")
    4508                      .dwattr DW$491, DW_AT_location[DW_OP_reg3]
    4509              DW$492  .dwtag  DW_TAG_assign_register, DW_AT_name("AR0")
    4510                      .dwattr DW$492, DW_AT_location[DW_OP_reg4]
    4511              DW$493  .dwtag  DW_TAG_assign_register, DW_AT_name("XAR0")
    4512                      .dwattr DW$493, DW_AT_location[DW_OP_reg5]
    4513              DW$494  .dwtag  DW_TAG_assign_register, DW_AT_name("AR1")
    4514                      .dwattr DW$494, DW_AT_location[DW_OP_reg6]
    4515              DW$495  .dwtag  DW_TAG_assign_register, DW_AT_name("XAR1")
    4516                      .dwattr DW$495, DW_AT_location[DW_OP_reg7]
    4517              DW$496  .dwtag  DW_TAG_assign_register, DW_AT_name("AR2")
    4518                      .dwattr DW$496, DW_AT_location[DW_OP_reg8]
    4519              DW$497  .dwtag  DW_TAG_assign_register, DW_AT_name("XAR2")
    4520                      .dwattr DW$497, DW_AT_location[DW_OP_reg9]
    4521              DW$498  .dwtag  DW_TAG_assign_register, DW_AT_name("AR3")
    4522                      .dwattr DW$498, DW_AT_location[DW_OP_reg10]
    4523              DW$499  .dwtag  DW_TAG_assign_register, DW_AT_name("XAR3")
    4524                      .dwattr DW$499, DW_AT_location[DW_OP_reg11]
    4525              DW$500  .dwtag  DW_TAG_assign_register, DW_AT_name("AR4")
    4526                      .dwattr DW$500, DW_AT_location[DW_OP_reg12]
    4527              DW$501  .dwtag  DW_TAG_assign_register, DW_AT_name("XAR4")
    4528                      .dwattr DW$501, DW_AT_location[DW_OP_reg13]
    4529              DW$502  .dwtag  DW_TAG_assign_register, DW_AT_name("AR5")
    4530                      .dwattr DW$502, DW_AT_location[DW_OP_reg14]
TMS320C2000 COFF Assembler PC v4.1.3 Thu Aug 18 12:16:06 2016

Tools Copyright (c) 1996-2006 Texas Instruments Incorporated
alarms.asm                                                           PAGE   93

    4531              DW$503  .dwtag  DW_TAG_assign_register, DW_AT_name("XAR5")
    4532                      .dwattr DW$503, DW_AT_location[DW_OP_reg15]
    4533              DW$504  .dwtag  DW_TAG_assign_register, DW_AT_name("AR6")
    4534                      .dwattr DW$504, DW_AT_location[DW_OP_reg16]
    4535              DW$505  .dwtag  DW_TAG_assign_register, DW_AT_name("XAR6")
    4536                      .dwattr DW$505, DW_AT_location[DW_OP_reg17]
    4537              DW$506  .dwtag  DW_TAG_assign_register, DW_AT_name("AR7")
    4538                      .dwattr DW$506, DW_AT_location[DW_OP_reg18]
    4539              DW$507  .dwtag  DW_TAG_assign_register, DW_AT_name("XAR7")
    4540                      .dwattr DW$507, DW_AT_location[DW_OP_reg19]
    4541              DW$508  .dwtag  DW_TAG_assign_register, DW_AT_name("SP")
    4542                      .dwattr DW$508, DW_AT_location[DW_OP_reg20]
    4543              DW$509  .dwtag  DW_TAG_assign_register, DW_AT_name("XT")
    4544                      .dwattr DW$509, DW_AT_location[DW_OP_reg21]
    4545              DW$510  .dwtag  DW_TAG_assign_register, DW_AT_name("T")
    4546                      .dwattr DW$510, DW_AT_location[DW_OP_reg22]
    4547              DW$511  .dwtag  DW_TAG_assign_register, DW_AT_name("ST0")
    4548                      .dwattr DW$511, DW_AT_location[DW_OP_reg23]
    4549              DW$512  .dwtag  DW_TAG_assign_register, DW_AT_name("ST1")
    4550                      .dwattr DW$512, DW_AT_location[DW_OP_reg24]
    4551              DW$513  .dwtag  DW_TAG_assign_register, DW_AT_name("PC")
    4552                      .dwattr DW$513, DW_AT_location[DW_OP_reg25]
    4553              DW$514  .dwtag  DW_TAG_assign_register, DW_AT_name("RPC")
    4554                      .dwattr DW$514, DW_AT_location[DW_OP_reg26]
    4555              DW$515  .dwtag  DW_TAG_assign_register, DW_AT_name("FP")
    4556                      .dwattr DW$515, DW_AT_location[DW_OP_reg27]
    4557              DW$516  .dwtag  DW_TAG_assign_register, DW_AT_name("DP")
    4558                      .dwattr DW$516, DW_AT_location[DW_OP_reg28]
    4559              DW$517  .dwtag  DW_TAG_assign_register, DW_AT_name("SXM")
    4560                      .dwattr DW$517, DW_AT_location[DW_OP_reg29]
    4561              DW$518  .dwtag  DW_TAG_assign_register, DW_AT_name("PM")
    4562                      .dwattr DW$518, DW_AT_location[DW_OP_reg30]
    4563              DW$519  .dwtag  DW_TAG_assign_register, DW_AT_name("OVM")
    4564                      .dwattr DW$519, DW_AT_location[DW_OP_reg31]
    4565              DW$520  .dwtag  DW_TAG_assign_register, DW_AT_name("PAGE0")
    4566                      .dwattr DW$520, DW_AT_location[DW_OP_regx 0x20]
    4567              DW$521  .dwtag  DW_TAG_assign_register, DW_AT_name("AMODE")
    4568                      .dwattr DW$521, DW_AT_location[DW_OP_regx 0x21]
    4569              DW$522  .dwtag  DW_TAG_assign_register, DW_AT_name("IFR")
    4570                      .dwattr DW$522, DW_AT_location[DW_OP_regx 0x22]
    4571              DW$523  .dwtag  DW_TAG_assign_register, DW_AT_name("IER")
    4572                      .dwattr DW$523, DW_AT_location[DW_OP_regx 0x23]
    4573              DW$524  .dwtag  DW_TAG_assign_register, DW_AT_name("IER")
    4574                      .dwattr DW$524, DW_AT_location[DW_OP_regx 0x24]
    4575              DW$525  .dwtag  DW_TAG_assign_register, DW_AT_name("PSEUDO")
    4576                      .dwattr DW$525, DW_AT_location[DW_OP_regx 0x25]
    4577              DW$526  .dwtag  DW_TAG_assign_register, DW_AT_name("PSEUDOH")
    4578                      .dwattr DW$526, DW_AT_location[DW_OP_regx 0x26]
    4579              DW$527  .dwtag  DW_TAG_assign_register, DW_AT_name("VOL")
    4580                      .dwattr DW$527, DW_AT_location[DW_OP_regx 0x27]
    4581              DW$528  .dwtag  DW_TAG_assign_register, DW_AT_name("CIE_RETA")
    4582                      .dwattr DW$528, DW_AT_location[DW_OP_regx 0x28]
    4583                      .dwendtag DW$CU
    4584              

No Assembly Errors, No Assembly Warnings
