******************************************************************************
        TMS320C2000 COFF Linker PC Version 3.07                
******************************************************************************
>> Linked Tue Dec 13 12:23:06 2011

OUTPUT FILE NAME:   <./Debug/BearingWear.out>
ENTRY POINT SYMBOL: "_c_int00"  address: 003f7f00


MEMORY CONFIGURATION

                  name            origin    length      used    attr    fill
         ----------------------  --------  ---------  --------  ----  --------
PAGE  0: RESET                   00000000   00000002  00000000  R   
         FLASHMEM                003d8000   0001ff00  000122aa  RWIX
         BOOT                    003f7f00   00000070  00000046  R   
         BOOTJUMP                003f7ff6   00000002  00000002  R   

PAGE  1: M0RAM                   00000040   000003c0  00000324  RW  
         M1RAM                   00000400   00000400  000001c2  RW  
         L0L1RAM                 00008000   00002000  00001d81  RW  
         H0RAM                   003f8000   00002000  00001f1a  RW  

PAGE  2: SPIREG                  00007040   00000010  00000010  RW  
         SCIAREG                 00007050   0000000f  0000000e  RW  
         GPADATAPORT             000070e0   00000001  00000001  RW  
         GPBDATAPORT             000070e4   00000001  00000001  RW  
         GPDDATAPORT             000070ec   00000001  00000001  RW  
         GPEDATAPORT             000070f0   00000001  00000001  RW  
         GPFDATAPORT             000070f4   00000001  00000001  RW  
         GPGDATAPORT             000070f8   00000001  00000001  RW  
         ADCREG                  00007100   0000001a  0000001a  RW  
         SCIBREG                 00007750   0000000f  0000000e  RW  


SECTION ALLOCATION MAP

 output                                  attributes/
section   page    origin      length       input sections
--------  ----  ----------  ----------   ----------------
.reset     0    00000000    00000002     DSECT
                  00000000    00000002     rts2800_ml.lib : boot.obj (.reset)

.pinit     0    003d8000    00000000     

.cinit     0    003d8000    000000e3     
                  003d8000    00000009     common.obj (.cinit)
                  003d8009    0000000e     core.obj (.cinit)
                  003d8017    0000001d     mmc_mcf.obj (.cinit)
                  003d8034    00000034     pccli.obj (.cinit)
                  003d8068    00000005     port.obj (.cinit)
                  003d806d    00000055     sdcard.obj (.cinit)
                  003d80c2    0000000e     rts2800_ml.lib : exit.obj (.cinit)
                  003d80d0    0000000a                    : _lock.obj (.cinit)
                  003d80da    00000004                    : errno.obj (.cinit)
                  003d80de    00000004                    : memory.obj (.cinit)
                  003d80e2    00000001     --HOLE-- [fill = 0]

.text      0    003d80e3    0000e7e8     
                  003d80e3    000012a3     adc.obj (.text)
                  003d9386    00000550     alarms.obj (.text)
                  003d98d6    000017d8     common.obj (.text)
                  003db0ae    00000358     core.obj (.text)
                  003db406    000003a2     digout.obj (.text)
                  003db7a8    00000016     DSP281x_CodeStartBranch.obj (.text)
                  003db7be    0000117e     fat.obj (.text)
                  003dc93c    000003df     fat_m.obj (.text)
                  003dcd1b    00000198     logging.obj (.text)
                  003dceb3    000018ba     man.obj (.text)
                  003de76d    00000c13     mancal.obj (.text)
                  003df380    000006fc     mmc_mcf.obj (.text)
                  003dfa7c    00000182     params.obj (.text)
                  003dfbfe    00000b58     pccli.obj (.text)
                  003e0756    00000ed9     PCModBus.obj (.text)
                  003e162f    0000009a     port.obj (.text)
                  003e16c9    0000052e     reprog.obj (.text)
                  003e1bf7    0000041c     sci.obj (.text)
                  003e2013    00001434     sdcard.obj (.text)
                  003e3447    0000032e     setup.obj (.text)
                  003e3775    000004f8     slave485.obj (.text)
                  003e3c6d    000005cb     spi.obj (.text)
                  003e4238    000005b6     utils.obj (.text)
                  003e47ee    0000005d     version.obj (.text)
                  003e484b    000003c0     wio.obj (.text)
                  003e4c0b    0000014a     wioprim.obj (.text)
                  003e4d55    0000004b     rts2800_ml.lib : exit.obj (.text)
                  003e4da0    0000009e                    : exp.obj (.text)
                  003e4e3e    0000008c                    : fs_add.obj (.text)
                  003e4eca    00000017                    : fs_cmp.obj (.text)
                  003e4ee1    00000083                    : fs_div.obj (.text)
                  003e4f64    0000005a                    : fs_mpy.obj (.text)
                  003e4fbe    00000005                    : fs_neg.obj (.text)
                  003e4fc3    00000009                    : fs_sub.obj (.text)
                  003e4fcc    00000024                    : fs_toi.obj (.text)
                  003e4ff0    0000001d                    : fs_tou.obj (.text)
                  003e500d    00000032                    : fs_toul.obj (.text)
                  003e503f    00000022                    : i_div.obj (.text)
                  003e5061    0000001a                    : i_tofs.obj (.text)
                  003e507b    0000002a                    : l_div.obj (.text)
                  003e50a5    0000001a                    : l_tofs.obj (.text)
                  003e50bf    00000030                    : ldexp.obj (.text)
                  003e50ef    00000040                    : memcpy.obj (.text)
                  003e512f    00000009                    : memset.obj (.text)
                  003e5138    00000031                    : sprintf.obj (.text)
                  003e5169    00000052                    : sqrt.obj (.text)
                  003e51bb    00000052                    : sscanf.obj (.text)
                  003e520d    0000000d                    : strcat.obj (.text)
                  003e521a    00000008                    : strcmp.obj (.text)
                  003e5222    00000009                    : strcpy.obj (.text)
                  003e522b    0000000d                    : strcspn.obj (.text)
                  003e5238    0000000a                    : strlen.obj (.text)
                  003e5242    00000017                    : strncmp.obj (.text)
                  003e5259    00000018                    : strncpy.obj (.text)
                  003e5271    0000000b                    : u_div.obj (.text)
                  003e527c    00000010                    : u_tofs.obj (.text)
                  003e528c    00000013                    : ul_tofs.obj (.text)
                  003e529f    00000009                    : _lock.obj (.text)
                  003e52a8    000006a6                    : _printfi.obj (.text)
                  003e594e    000004d6                    : _scanfi.obj (.text)
                  003e5e24    00000030                    : atoi.obj (.text)
                  003e5e54    000000d0                    : ecvt.obj (.text)
                  003e5f24    000000cf                    : fcvt.obj (.text)
                  003e5ff3    00000029                    : fd_cmp.obj (.text)
                  003e601c    0000008a                    : fd_div.obj (.text)
                  003e60a6    00000082                    : fd_mpy.obj (.text)
                  003e6128    00000009                    : fd_neg.obj (.text)
                  003e6131    0000000e                    : fd_sub.obj (.text)
                  003e613f    00000021                    : fd_toi.obj (.text)
                  003e6160    0000001f                    : fd_tol.obj (.text)
                  003e617f    0000001d                    : fs_tofd.obj (.text)
                  003e619c    00000019                    : l_tofd.obj (.text)
                  003e61b5    0000002f                    : ltoa.obj (.text)
                  003e61e4    0000000c                    : memccpy.obj (.text)
                  003e61f0    000001d5                    : memory.obj (.text)
                  003e63c5    0000000b                    : strrchr.obj (.text)
                  003e63d0    0000015a                    : strtod.obj (.text)
                  003e652a    000000be                    : strtol.obj (.text)
                  003e65e8    0000018e                    : strtold.obj (.text)
                  003e6776    000000bc                    : strtoul.obj (.text)
                  003e6832    00000099                    : fd_add.obj (.text)

.switch    0    003e68cc    0000003c     
                  003e68cc    00000020     mmc_mcf.obj (.switch)
                  003e68ec    0000001c     adc.obj (.switch)

.const     0    003e6908    0000003c     
                  003e6908    00000014     rts2800_ml.lib : _printfi.obj (.const)
                  003e691c    00000010                    : fcvt.obj (.const)
                  003e692c    00000010                    : ecvt.obj (.const)
                  003e693c    00000008                    : strtold.obj (.const)

.econst    0    003e6944    00003967     
                  003e6944    00001425     pccli.obj (.econst)
                  003e7d69    00000001     --HOLE-- [fill = 0]
                  003e7d6a    00000c53     sdcard.obj (.econst)
                  003e89bd    00000001     --HOLE-- [fill = 0]
                  003e89be    00000699     params.obj (.econst)
                  003e9057    00000001     --HOLE-- [fill = 0]
                  003e9058    000000d2     setup.obj (.econst)
                  003e912a    000000ba     man.obj (.econst)
                  003e91e4    000000b3     alarms.obj (.econst)
                  003e9297    00000001     --HOLE-- [fill = 0]
                  003e9298    000000a0     PCModBus.obj (.econst)
                  003e9338    00000090     mancal.obj (.econst)
                  003e93c8    00000083     utils.obj (.econst)
                  003e944b    00000001     --HOLE-- [fill = 0]
                  003e944c    00000065     adc.obj (.econst)
                  003e94b1    00000001     --HOLE-- [fill = 0]
                  003e94b2    00000061     common.obj (.econst)
                  003e9513    00000001     --HOLE-- [fill = 0]
                  003e9514    00000061     version.obj (.econst)
                  003e9575    00000001     --HOLE-- [fill = 0]
                  003e9576    0000004f     wio.obj (.econst)
                  003e95c5    00000001     --HOLE-- [fill = 0]
                  003e95c6    0000002c     digout.obj (.econst)
                  003e95f2    0000002b     rts2800_ml.lib : _printfi.obj (.econst)
                  003e961d    00000001     --HOLE-- [fill = 0]
                  003e961e    00000029     core.obj (.econst)
                  003e9647    00000001     --HOLE-- [fill = 0]
                  003e9648    00000020     rts2800_ml.lib : strtold.obj (.econst)
                  003e9668    00000020                    : strtod.obj (.econst)
                  003e9688    0000001c     logging.obj (.econst)
                  003e96a4    0000001b     fat.obj (.econst)
                  003e96bf    00000001     --HOLE-- [fill = 0]
                  003e96c0    00000014     wioprim.obj (.econst)
                  003e96d4    000008d6     reprog.obj (.econst)
                  003e9faa    00000200     crctable.obj (.econst)
                  003ea1aa    00000101     rts2800_ml.lib : ctype.obj (.econst)

.boot      0    003f7f00    00000046     
                  003f7f00    00000046     rts2800_ml.lib : boot.obj (.text)

codestart 
*          0    003f7ff6    00000002     
                  003f7ff6    00000002     DSP281x_CodeStartBranch.obj (codestart)

.data      1    00000000    00000000     UNINITIALIZED

.commssection1 
*          1    00000040    00000324     UNINITIALIZED
                  00000040    00000128     sci.obj (.commssection1)
                  00000180    00000110     PCModBus.obj (.commssection1)
                  000002c0    000000a4     pccli.obj (.commssection1)

.adcsection1 
*          1    00000400    00000000     UNINITIALIZED

.bss       1    00000400    00000000     UNINITIALIZED

.stack     1    00000400    000001c2     UNINITIALIZED

.esysmem   1    00008000    00000000     UNINITIALIZED

.ebss      1    00008000    00001d81     UNINITIALIZED
                  00008000    000004fc     man.obj (.ebss)
                  000084fc    00000002     port.obj (.ebss)
                  000084fe    00000001     rts2800_ml.lib : errno.obj (.ebss)
                  00008500    00000339     mancal.obj (.ebss)
                  0000883a    00000006     core.obj (.ebss)
                  00008840    000002c0     mmc_mcf.obj (.ebss)
                  00008b00    00000292     sdcard.obj (.ebss)
                  00008d92    0000001e     common.obj (.ebss)
                  00008db0    0000000a     spi.obj (.ebss)
                  00008dba    00000004     rts2800_ml.lib : _lock.obj (.ebss)
                  00008dc0    0000024a     PCModBus.obj (.ebss)
                  0000900a    0000001e     sci.obj (.ebss)
                  00009028    00000010     reprog.obj (.ebss)
                  00009038    00000003     version.obj (.ebss)
                  00009040    00000200     globals.obj (.ebss)
                  00009240    000001cf     adc.obj (.ebss)
                  00009410    00000019     wio.obj (.ebss)
                  0000942a    00000008     rts2800_ml.lib : memory.obj (.ebss)
                  00009432    0000000d     wioprim.obj (.ebss)
                  00009440    00000080     rts2800_ml.lib : exit.obj (.ebss)
                  000094c0    00000018     pccli.obj (.ebss)
                  000094d8    00000014     utils.obj (.ebss)
                  00009500    00000200     fat.obj (.ebss)
                  00009700    00000190     rts2800_ml.lib : fcvt.obj (.ebss)
                  000098c0    00000190                    : _printfi.obj (.ebss)
                  00009a80    000000c8     slave485.obj (.ebss)
                  00009b80    00000084     logging.obj (.ebss)
                  00009c40    00000064     rts2800_ml.lib : ecvt.obj (.ebss)
                  00009cc0    0000005c     alarms.obj (.ebss)
                  00009d40    00000041     digout.obj (.ebss)

.sysmem    1    003f8000    00000190     UNINITIALIZED

.filesystem 
*          1    003f81c0    00000c80     UNINITIALIZED
                  003f81c0    00000a4a     common.obj (.filesystem)
                  003f8c40    00000200     sdcard.obj (.filesystem)

.mancomp   1    003f8e40    00001068     UNINITIALIZED
                  003f8e40    00001068     man.obj (.mancomp)

.commssection2 
*          1    003f9ec0    000000a2     UNINITIALIZED
                  003f9ec0    000000a2     sci.obj (.commssection2)

.spiregisters 
*          2    00007040    00000010     UNINITIALIZED
                  00007040    00000010     spi.obj (.spiregisters)

.sciportAregisters 
*          2    00007050    0000000e     UNINITIALIZED
                  00007050    0000000e     sci.obj (.sciportAregisters)

.gparegisters 
*          2    000070e0    00000001     UNINITIALIZED
                  000070e0    00000001     core.obj (.gparegisters)

.gpbregisters 
*          2    000070e4    00000001     UNINITIALIZED
                  000070e4    00000001     core.obj (.gpbregisters)

.gpdregisters 
*          2    000070ec    00000001     UNINITIALIZED
                  000070ec    00000001     core.obj (.gpdregisters)

.gperegisters 
*          2    000070f0    00000001     UNINITIALIZED
                  000070f0    00000001     core.obj (.gperegisters)

.gpfregisters 
*          2    000070f4    00000001     UNINITIALIZED
                  000070f4    00000001     core.obj (.gpfregisters)

.gpgregisters 
*          2    000070f8    00000001     UNINITIALIZED
                  000070f8    00000001     core.obj (.gpgregisters)

.adcregisters 
*          2    00007100    0000001a     UNINITIALIZED
                  00007100    0000001a     adc.obj (.adcregisters)

.sciportBregisters 
*          2    00007750    0000000e     UNINITIALIZED
                  00007750    0000000e     sci.obj (.sciportBregisters)


GLOBAL SYMBOLS: SORTED ALPHABETICALLY BY Name 

address    name
--------   ----
00000400   .bss
00000000   .data
003d80e3   .text
003e4d7b   C$$EXIT
003e6832   FD$$ADD
003e5ff3   FD$$CMP
003e601c   FD$$DIV
003e60a6   FD$$MPY
003e6128   FD$$NEG
003e6131   FD$$SUB
003e613f   FD$$TOI
003e6160   FD$$TOL
003e4e3e   FS$$ADD
003e4eca   FS$$CMP
003e4ee1   FS$$DIV
003e4f64   FS$$MPY
003e4fbe   FS$$NEG
003e4fc3   FS$$SUB
003e617f   FS$$TOFD
003e4fcc   FS$$TOI
003e4ff0   FS$$TOU
003e500d   FS$$TOUL
003e503f   I$$DIV
003e5050   I$$MOD
003e5061   I$$TOFS
003e507b   L$$DIV
003e508a   L$$MOD
003e619c   L$$TOFD
003e50a5   L$$TOFS
003e5271   U$$DIV
003e5276   U$$MOD
003e527c   U$$TOFS
003e5098   UL$$DIV
003e509f   UL$$MOD
003e528c   UL$$TOFS
003d8d0c   _ADCChanPtr
003e04cb   _AT25DF041CheckFunc
003dea11   _AccumulateRoughCal
003d97b6   _AlarmEventIDInc
003db59b   _AlarmLevelOP
003db490   _AlarmTestEvent
003db4bc   _AliveStatus
003e35fe   _AllSensorInit
003dfc6c   _AmotHelpFunc
003d8c09   _AnalogOOR
003d9057   _AnalogSLEM
003d879b   _AnalogueInputScaleAllChannels
003dd74e   _ApplyImmOffset
003de549   _ApplyOffset
003e071f   _AsciitoBCD
003e067f   _AsciitoInt
003e0679   _AsciitoSingleChar
003e4424   _BCDTimetoAscii
003e0732   _BCDTimetoAsciiOutonCLI
003e4724   _BCDtoInt
003e471e   _BitClear
003e4719   _BitSet
003e96d4   _BootloaderArray
003e326a   _BuildFileName
003e3331   _BuildTimeStamp
003e44ce   _BytetoIntArray
003dfc16   _CLIBanner
003e1e53   _CLITransmitBuffer
003e9faa   _CRCHiTbl
003ea0aa   _CRCLoTbl
00008900   _CRCtbl
003e0262   _Cal18mAFunc
003de76d   _CalAbort
003e451d   _CalLEDSetup
003e0294   _CalLoop18mAFunc
003e0344   _CalPRTFullScaleFunc
003e0310   _CalPRTZeroFunc
003deadb   _CalProgression
003dd9cc   _CalcAlarmLevel1
003dd9f4   _CalcAlarmLevel2
003e0778   _CalcCRC
003e4d49   _CalcSingleByteChecksum
003e441b   _CalcUIntChecksum
003d8cde   _Calibrate18mA
003d9251   _CalibrateLoop18mA
003d8d92   _CalibratePRT
003e472c   _CalibrationtdUpdate
003e337e   _CalibrationtdtoSDCardFile
003e26f6   _CharStringtoIntString
003e4715   _CheckBitSet
003e1a8a   _CheckEraseProgError
003e1a0c   _CheckEraseProgress
003e3ea4   _CheckFlash
003d8b4b   _CheckForwardAstern
003dee8f   _CheckRoughCalPoints
003d915a   _CheckSLEMRange
003e1a7b   _CheckSPIBusy
003e48c3   _CheckWIORange
003d9872   _ClearAlarmEvent
003d9892   _ClearAlarmEventBit
003d98a7   _ClearAlarmEventonID
003dcd96   _ClearAlarmListandEventLog
003df123   _ClearCalAveragingAlarm
003df132   _ClearCalibrationAlarms
003d8aa7   _ClearEngineDirCal
003d970b   _ClearEventCodeListArea
003dceb3   _ClearMANTable
003dcd80   _ClearMSGQueue
003e2efb   _ClearManCompSequence
003dced2   _ClearSelectiveMANTable
003d93a3   _ClearStatusFlagsforSlave
003e42f1   _ClockProcessing
000094c1   _CommandLen
000094c0   _CommandNum
000094c2   _CommandOffset
003e6944   _Commands
003dfc97   _CommsCheckFunc
003e0826   _CompareCRC
003e43dc   _ConfigCheckVal
003dfbb5   _ConfigurationUpdate
003e06fe   _ConvertDate
003e06e7   _ConvertTime
003e1ba0   _CopyProgramtoRam
003e31a8   _CreateFile
003e2347   _CreateLongTermFilesandHeaders
003e343b   _CreateNewCalibtdFile
003e2a09   _CreateNewEventFile
003e2814   _CreateNewEventMsgFile
003e30cc   _CreateNewLongTermFile
003e3137   _CreateNewMANFile
003e311f   _CreateNewOffsetsFile
003e3113   _CreateNewSettingsFile
003e2feb   _CreateNewShortTermFile
003e312b   _CreateNewStatusFile
003e2334   _CreateShortTermFilesandHeaders
003ddb45   _CylDamageMonSlowDown
003dd5f3   _CylNeighbourRegSet
003de43f   _CylinderAverage
003de1d7   _CylinderDevAlarm
003de4a2   _CylinderDeviation
003dd6bf   _CylinderSum
003d85f5   _DCMode
003d86a4   _DCModeCalcs
003d8688   _DCModeClear
003d8663   _DCModeInit
003d872c   _DCModePeakHold
003d86c5   _DCModeStoreVal
003dfb09   _DamageMonENBChange
003dfbb2   _DamageMonStructUpdate
003e4651   _DateHoursUpdate
003e03ef   _DateSetFunc
003e4601   _DateTimetoInt
003e32c4   _DaysThisYear
003e4696   _DebugAnaUpdate
003dffe8   _DebugSerialFunc
003e1e66   _DebugStringOut
003e40a8   _DeselectSPI
003e413f   _DeselectUart_C
003e41d9   _DeselectUart_D
003e0004   _DisAnalogFunc
003e0181   _DisplayCalValuesFunc
003dfbfe   _DummyFunc
003dd8b7   _DynamicAlarmLevel
003dffb5   _EnableCheckRoughCalFunc
003dfeda   _EnableCompensationFunc
003dff5d   _EnableCylinderAverageFunc
003dff89   _EnableCylinderDeviationFunc
003dff06   _EnableNoisRemovalFunc
003dd4c0   _EnableNoiseFilter
003dfeae   _EnableOffsetFunc
003dff31   _EnableSensorDeviationFunc
003dd38a   _EngineRunTimeUpdate
003e19ca   _EraseSPIFlash
003dce52   _EventACKCompilation
003dcd77   _EventAck
003dcddd   _EventCompilation
003dfd83   _EventInfoFunc
003dcdbf   _EventLogIDInc
003e4354   _FRAMInit
003dfd9b   _FactorySetFunc
003e265f   _FileToClusterSize
003e02d6   _FilterValFunc
003e21e5   _FindFirstLogFile
003dda39   _FindMaxRPMAlarm
003dee1e   _FineCalModeInit
003defd1   _FineCurveCal
003df15d   _FineCurveCalInterpolation
003e47fd   _FirmwareComparison
003dec01   _FirstStageCalCurve
003e35e7   _FlashSetup
003e43fa   _FloattoIntRound
003e3f82   _Fram1ChipCheck
003e3fad   _Fram1MagicNumberRead
003e3fc5   _Fram1MagicNumberWrite
003d93ef   _FramFailure
003e048f   _FramReTestFunc
003e0423   _FramWrTestFunc
003e42c1   _FunctionEnabledSetup
003e2b70   _GeneralSettingstoSDCardFile
003d93b3   _GetAlarmFlags
003dcfb5   _GetCheckedRPM
003dd1c2   _GetCylinderAverageValue
003dd21a   _GetCylinderDeviationValue
003dd164   _GetEndResultValue
003e20fa   _GetFileNumWords
003e20a8   _GetFirstFileNameString
003de8ac   _GetIntervalTimeLeft
003de891   _GetLearningTimeLeft
003dcfd6   _GetModalRPM
003e20d7   _GetNextFileNameString
003d93ce   _GetNoPulseFlag
003de84d   _GetPercentageLeft
003dd150   _GetPostCompValue
003dd159   _GetPostFilteredValue
003dd107   _GetPreCompValue
003dcfa6   _GetRPM
003dd2ba   _GetRPMCompVal
003d9325   _GetRealtimePreCompValue
003d9312   _GetRealtimeuAScaledValue
003dd0fe   _GetScaledValue
003dcf9b   _GetSensorAlarmMask
003dd193   _GetSensorDeviationValue
003dcf63   _GetSensorEnabled
003e47f2   _GetSlaveVersion
003dd29e   _GetStatus2Flags
003d8f0f   _GetVoltageStatus
003d88f8   _GetuASCaledValue
003e0756   _HandleChar
003e0527   _HandleCharExt
003e05d5   _HandleCmd
003dfc41   _HelpFunc
003e1bf7   _Init485Drivers
003d80e3   _InitADC
003de932   _InitCal
003dd2c5   _InitMAN
003d8aec   _InitMotionCal
003db406   _InitOP
003db797   _InitOffboardGPIO
003e3c6d   _InitSPI
003dfdb8   _InitSafeFunc
003d85ce   _InitScalingFactor
003dcf18   _InitSensors
003dcf3f   _InitStatus1Flags
003d9386   _InitSystemAlarms
003e45e2   _InputNumtoString
003dfe5e   _InputResultsFunc
003e34b8   _Int13Isr
003e34ce   _Int14Isr
003e349e   _Int1Isr
003e344b   _Int1Xint1Isr
003e3473   _Int1Xint2Isr
003e34e2   _Int9SciRxIntA
003e3518   _Int9SciRxIntB
003e34fd   _Int9SciTxIntA
003e3533   _Int9SciTxIntB
003d8213   _IntADCIsr
003e35ef   _InternalRamSetup
003dedec   _Interpolate
003e44f6   _InttoByteArray
003d936f   _LoadDCModeChecksDefaults
003ddcb3   _LoadDamagemonDefaults
003e4374   _LoadFRAMfromSD
003e47d2   _LoadFRAMpowerup
003d922f   _LoadSLEMDefaults
003e1eb0   _LoadSendBufferB
003e1fbb   _LoadSendBufferC
003dcd40   _LogEvent
003e17db   _LongLowerReg
003e17c8   _LongUpperReg
003e4238   _LoopCheck
003dfd27   _LoopTimeFunc
003dd40f   _MANAlarmChecks
003df0e3   _MANCalAlarm
003de9ee   _MANCalibrationStages
003dd2a6   _MANCompTable
003e2f01   _MANCompTabletoSDCardFile
003ddd11   _MANModules
003dd778   _MANRefCalcs
003ddbef   _MBNeighbourDamageMonSlowDown
003dd657   _MBNeighbourRegSet
003dd6fe   _MBNeighbourSum
003dcd86   _MSGQueueNumfromPC
00008d92   _MagicNumber
003e39ec   _MasterModeReceive
003e452d   _MasterModeSwitch
003e1b84   _MasterSlaveCodeCopy
003e010d   _MasterSlaveFunc
003e1e6e   _MastertoSlaveSendBuffer
003e4661   _MinsSecsUpdate
00008842   _MmcDrv
003e079b   _ModbusParseCmd
003e457f   _MonthtoStr
003e4576   _NOPDelay
003d97cd   _NextAlarmEventFinder
003de3a7   _NoiseFilterApplied
003dd3ac   _NominalSpeedUpdate
003e01f8   _OffsetFunc
003e2e26   _OffsetstoSDCardFile
003e08b3   _PCModBus
003dfa7c   _PCModifyParameter
003d8e84   _PRTConversion
003e0378   _PRTReadFunc
003e059a   _ParseCmd
003e083a   _ParseHeader
003e381d   _ParseSlaveCmd
003e05fe   _PcCLI
003d8784   _PeaktouAConversion
003db24e   _PerformIsr1
003db3e6   _PerformIsr13
003db3f6   _PerformIsr14
003e1d0e   _PerformSciRxIntA
003e1d67   _PerformSciRxIntB
003e1ffd   _PerformSciRxIntC
003e1d9a   _PerformSciRxIntD
003e1ced   _PerformSciTxIntA
003e1d46   _PerformSciTxIntB
003de8c4   _PowerOutCalRecovery
003de79c   _PowerUpCalInit
003e209d   _PowerUpReadSD
003de5c4   _PreWarnLevelReset
003de5e1   _PreWarningCalc
003de5a6   _PreWarningInit
003de561   _PreWarningPowerUpInit
003de56c   _PrewarnReset
003de719   _PrewarningAlarmReset
003db47f   _ProcessDigitalOP
003e14c9   _ProcessEngineRunT
003e1530   _ProcessFileTransferral
003e147b   _ProcessRegister
003e16f3   _ProcessReprogrammingTransferral
003e3252   _ProcessSDCard
003e3b91   _ProcessSlaveChanResponse
003e1a9a   _ProcessorReProgramInit
003e1864   _ProgramCheckFunc
003e18c6   _ProgramSPIFlashBlock
003d8806   _ProximityScaling
003d8900   _PulseCounterCheck
003d894d   _PulseRPMCalc
003e4671   _RPMCalc
003e015f   _RPMFunc
003d8fe0   _RTCBattery
003d9006   _RTCLowBattAlarm
003de7a5   _ReadAccAverageVal
003de7f9   _ReadAccCalNVMEM
003e3d12   _ReadAllFromEEPROM
003de2eb   _ReadAllSensorStructfromNVMEM
003d8f11   _ReadAnalog
003de7ba   _ReadAverageSpeedAcc
003e1ef6   _ReadCLIChar
003de831   _ReadCalibrationStructfromNVMEM
003e47b3   _ReadCalibrationtdStructfromNVMEM
003e33d5   _ReadCalibrationtdfromSDCardFile
003e3b57   _ReadChannelResults
003e1f07   _ReadCharfromUartA
003e1f2a   _ReadCharfromUartB
003e1f4a   _ReadCharfromUartD
003e3d68   _ReadClockControl
003e3d75   _ReadClockData
003e43d1   _ReadConfigStructfromNVMEM
003d9366   _ReadDCModeChecksSettingsfromNVMEM
003ddcaa   _ReadDamagemonfromNVMEM
003e4193   _ReadDataFromUart_C
003e4229   _ReadDataFromUart_D
003e3d34   _ReadEEPROMStruct
003e3f2f   _ReadEEprom1StatusReg
003dd39a   _ReadEngineStructfromNVMEM
003dcea8   _ReadEvent
003d9796   _ReadEventCodeNVMEM
003dcdb2   _ReadEventLogID
003dcd24   _ReadEventLogVarsStructfromNVMEM
003d97a1   _ReadFirstEventCode
003e2cde   _ReadGeneralSettingsfromSDCardFile
003dcdba   _ReadLastEventID
003de816   _ReadMAN1000NVMEM
003de844   _ReadMANCalfromNVMEM
003de2da   _ReadMANCompTablefromNVMEM
003e2f7a   _ReadMANCompTablefromSDCardFile
003dcdb6   _ReadMSGQueueNum
003e4006   _ReadMemoryEEprom1
003e3f5e   _ReadNVMemory
003de7c9   _ReadNumPoints
003de32c   _ReadOffsetAfromNVMEM
003de350   _ReadOffsetBfromNVMEM
003e2e8a   _ReadOffsetsfromSDCardFile
003e08d1   _ReadPCCommsFlag
003d8df6   _ReadPRT
003de764   _ReadPrewarnStructfromNVMEM
003d921e   _ReadSLEMSettingsfromNVMEM
003de307   _ReadSensorStatusfromNVMEM
003e2b08   _ReadSensorStatusfromSDCardFile
003de7e4   _ReadSpeedCompStructfromNVMEM
003dd295   _ReadStatus1Int
003e4c02   _ReadWIOSettingsfromNVMEM
003e4c3d   _ReadWaterinOilintoBuf
003e2140   _ReadWriteTransferBuffer
003e3fe6   _ReadfromMemoryFRAM
003e4109   _ReceiveByte
003e41a4   _ReceiveByteUART
003e097b   _Registers
003e4342   _ReloadTimeFromFram
003dcd2d   _ReplacementEvents
003e16c9   _ReprogramStartupInit
003e16e0   _ReprogramTimeoutCheck
003e1aff   _Reprogramming
003e185b   _ReprogrammingCalls
003e428e   _ResetCommsCheck
003e42a8   _ResetLoopCheck
003dea8c   _RoughCal
003e1bf4   _RunCodefromRam
000094ca   _RxCharacterFlag
003e1826   _RxStatusfromSlave
003e2a2d   _SDAckUpdate
003e2560   _SDAlarmFileRename
003e42b7   _SDBusyCalls
003e2961   _SDCalcEventLogID
003e3259   _SDCardEraseAllFiles
003e2209   _SDCardInitfromModbus
003e2225   _SDCardInitialise
003e2013   _SDCardLogUpdate
003e3169   _SDCardSetupDirectory
003e206b   _SDCardUpdate
003e2543   _SDDailyFileDeletion
003e2a4c   _SDEventACKtoFile
003e2a15   _SDEventLogDelete
003e2729   _SDEventMessageUpdate
003e2747   _SDEventMessagetoFile
003e2820   _SDEventUpdate
003e2849   _SDEventtoFile
003e268d   _SDLogBinaryData
003e24e3   _SDLogHeader
003e239b   _SDLogUpdate
003dfc02   _SDLongDelete
003e251c   _SDLongTermLogUpdate
003e235a   _SDLongTermSetup
003e25df   _SDOldLogFileDeletion
003e28ed   _SDReadEvent
003e27b5   _SDReadEventMessage
003dfbff   _SDShortDelete
003e2581   _SDShortLogFileDeletion
003e250c   _SDShortTermLogUpdate
003e252c   _SDShortTermOldFileDeletion
003e22bf   _SDShortTermSetup
003e322b   _SDcardError
003d90cb   _SLEMAlarm
003dfbaf   _SLEMUpdate
003e3456   _SPIUart_XMNI
003dfbd3   _SPU2ValUpdate
003d9441   _SPUComms
003e42db   _SPUUnitReset
003dfbaa   _Safe1Update
003e3cf4   _SaveFirmwareStruct
003e3376   _SaveSDSettings
003e3cbd   _SaveSafeGeneric
003e3cfc   _SaveSafeStruct1
003e3d0b   _SaveSafeStruct2
003e434b   _SaveTimetoFram
003e3d03   _SaveXtswplusAnaCal
003e31cb   _SdcardAmotFile
003e00af   _SelectChannelFunc
003e405c   _SelectEEprom1
003e406e   _SelectFlash1
003e4077   _SelectFlash2
003e4080   _SelectFlash3
003e4089   _SelectFlash4
003e4044   _SelectFram1
003e4050   _SelectFram2
003e4092   _SelectRTC
003e4137   _SelectUart_C
003e41d1   _SelectUart_D
003e1e4c   _SendCLIChar
003e1dbb   _SendChar
003e1e00   _SendCharB
003e1fad   _SendCharC
003e1fb4   _SendCharD
003e08d5   _SendResponse
003e3b09   _SendScalingCommand
003e38ae   _SendSlaveResponse
003ddf5f   _SensorAlarm
003de523   _SensorCompensation
003dda54   _SensorDamageMonSlowDown
003de3cc   _SensorDeviation
003de0fe   _SensorDeviationAlarm
003de023   _SensorDeviationSlowDown
003d94ca   _SensorFailure
003dd75d   _SensorImmCompensation
003de362   _SensorNoiseRemoval
003e012a   _SensorScalingFactorFunc
003dde99   _SensorSlowDown
003e2aae   _SensorStatustoSDCardFile
003e087f   _Serial
003e1c27   _SerialPortASetup
003e1c84   _SerialPortBSetup
003e1f71   _SerialPortCSetup
003e1f8c   _SerialPortDSetup
003d9868   _SetAlarmEvent
003dcf84   _SetAlarmMask
003e270d   _SetAllEventMsgs
003e0048   _SetAllFunc
003e00dd   _SetCHValFunc
003dcf6d   _SetCalMode
003dd0de   _SetImmScaledValue
003d93bd   _SetNoPulseFlag
003dd140   _SetPreCompValue
003d87e4   _SetProximityScalingValue
003dd0ce   _SetRPM
003dd27a   _SetRPMChan
003e007f   _SetRPMFunc
003d931a   _SetRealtimePreCompValue
003d92e2   _SetRealtimeuAScaledValue
003dd0ee   _SetScaledValue
003dcf4c   _SetSensorEnabled
003e47ee   _SetSlaveVersion
003d9834   _SetStatusforAlarmEvent
003e4a66   _SetWIOAlarmMask
003d88c8   _SetuAScaledValue
003dfbf3   _SetupAlarmLevels
003dfc07   _SetupCLI
003d8d53   _SetupConstantCurrentMux
003e360d   _SetupDefaultSettings
003dce90   _SetupEventReadBack
003e354e   _SetupInterruptsandTimers
003de913   _SetupLearningModeAlarmLevels
003d8b15   _SetupMotionDir
003dcef9   _SetupNormalModeAlarmLevels
003e3748   _SetupOffsetDefaults
003e35a0   _SetupPIEVectors
003d8c7a   _SetupScaling
003e3725   _SetupSensorStatusDefaults
003e3775   _Slave485Init
003e3799   _Slave485Modbus
003d8201   _SlaveDefaultNotSet
003e3925   _SlaveRegisters
003db488   _SlowDownBlipControl
003db68d   _SlowDownLevelOP
003dfbc0   _SpeedCompStructUpdate
003deca5   _Stage3CalCurve
003db218   _StartupDelay
003dd4e4   _StartupRefReload
003dd272   _Status1Flags
003d93b6   _Status3Flags
003e3c55   _StoreSPU2Status
003e4486   _StringBytetoIntArray
003e4442   _StringInttoByteArray
003d93d4   _SystemChecks
003e0791   _TerminateCmd
003df380   _TestSD
003e022d   _ThresholdFunc
003e03bf   _TimeSetFunc
003db226   _TimerCheck
003e35b5   _TimingSetup
003e40d8   _TransmitByte
003e1787   _TxNowtoSlave
003e17ee   _TxRegtoSlave
003e3447   _UnusedIsr
003e46c0   _UpdateNonVolSafeCheck
003e4c0b   _WIO485Init
003e49d3   _WIOActivityWord
003e4af9   _WIOAlarm
003e4876   _WIOAnalog
003e4886   _WIOAnalogInput
003e4a70   _WIOChecks
003e4b7a   _WIOCommsLost
003e4988   _WIOCommsOORClearDown
003e4a62   _WIOEnabled
003e484b   _WIOInit
003e4a34   _WIOPPMWord
003e4c60   _WIOReceive
003e49a0   _WIOTemperatureWord
003e4a79   _WIOUpperAlarm
003e415c   _WaitforUartTxComplete_C
003e41f2   _WaitforUartTxComplete_D
003db3da   _WatchdogKick
003e4cca   _WaterInOilResponse
003e4c21   _WaterinOil
003e4870   _WioSettingsStructPtr
003e4873   _WioStructPtr
003dfbc7   _WioUpdate
003de7ed   _WriteAccCalNVMEM
003de2e2   _WriteAllSensorStructtoNVMEM
003e416e   _WriteBytetoUart_C
003e4204   _WriteBytetoUart_D
003de827   _WriteCalibrationStructtoNVMEM
003e47a2   _WriteCalibrationtdStructtoNVMEM
003e3daa   _WriteClockData
003e43c4   _WriteConfigStructtoNVMEM
003d9359   _WriteDCModeChecksSettingstoNVMEM
003ddc99   _WriteDamagemontoNVMEM
003e3e31   _WriteDateHrsData
003e3f06   _WriteEnableEEprom1
003e4017   _WriteEnableFram1
003e401f   _WriteEnableFram2
003dd3a3   _WriteEngineStructtoNVMEM
003d977a   _WriteEventCodeNVMEM
003dcd1b   _WriteEventLogVarsStructtoNVMEM
003de805   _WriteMAN1000NVMEM
003de83b   _WriteMANCaltoNVMEM
003de2d2   _WriteMANCompTabletoNVMEM
003e3e6d   _WriteMinsSecsData
003e3f3d   _WriteNVMemory
003de31a   _WriteOffsetAtoNVMEM
003de33e   _WriteOffsetBtoNVMEM
003de75b   _WritePrewarnStructtoNVMEM
003d9211   _WriteSLEMSettingstoNVMEM
003de2f4   _WriteSensorStatustoNVMEM
003de7d7   _WriteSpeedCompStructtoNVMEM
003e3f0e   _WriteStatusRegEEprom1
003e4151   _WriteUartConfig_C
003e41e7   _WriteUartConfig_D
003e4bf5   _WriteWIOSettingstoNVMEM
003e3dfa   _WriteYrMnthData
003e3f1c   _WritetoMemoryEEprom1
003e4027   _WritetoMemoryFRAM
003e4641   _YearMonthUpdate
003e328c   _YearstoSecs
000001c2   __STACK_SIZE
00000190   __SYSMEM_SIZE
00000400   ___bss__
003d8000   ___cinit__
00000000   ___data__
00000000   ___edata__
00000400   ___end__
003e68cb   ___etext__
003e50f2   ___memcpy
003e5110   ___memcpy_ff
003e5106   ___memcpy_fn
003e50fc   ___memcpy_nf
ffffffff   ___pinit__
003d80e3   ___text__
00009444   __cleanup_ptr
003ea1aa   __ctypes_
00009442   __dtors_ptr
003dbf4a   __f_addentry
003da563   __f_alloccluster
003dabd1   __f_check_handle
003da6a6   __f_checklocked
003da6ca   __f_checkreadlocked
003d9930   __f_checkstatus
003da101   __f_clustertopos
003dbaa2   __f_cmp_wname
003da600   __f_dobadblock
003da8e2   __f_emptywritebuffer
003da7e4   __f_emptywritecache
003da9c5   __f_fseek
003d9ee0   __f_getclustervalue
003da492   __f_getcurrsector
003da4f8   __f_getdecluster
003db7be   __f_getdirsector
003d98e5   __f_getlong
003d9a55   __f_getmaxcluster
003d9fad   __f_getvolume
003d98d9   __f_getword
003da53c   __f_initentry
003daf4b   __f_mutex_get
003daf67   __f_mutex_put
003d99d9   __f_readsector
003dab19   __f_removechain
003d9e0c   __f_setclustervalue
003da514   __f_setdecluster
003d98ff   __f_setlong
003d98df   __f_setword
003dab62   __f_updatefileentry
003db7e5   __f_writedirsector
003d9d8b   __f_writefatsector
003d9944   __f_writesector
003db00a   __fn_initseekdivisor
003db07f   __fn_removeseekpos
003db055   __fn_updateseekpos
00008dbc   __lock
003e529f   __nop
003e52a8   __printfi
003e52a0   __register_lock
003e52a4   __register_unlock
003e594e   __scanfi
003f8000   __sys_memory
00008dba   __unlock
003e4d9f   _abort
00009240   _adcdata
00007100   _adcregs
00009cf8   _alarms
00009140   _allsensors
003e7fde   _allsensorsfile
003e7d6a   _amotheader
00008c94   _asciilog
003e4d7d   _atexit
003e5e24   _atoi
003f7f00   _c_int00
003e82f8   _cal_abort
00008500   _calibration
0000911a   _calibrationtd
003e802c   _calibtdfile
003e636e   _calloc
003e8456   _calstage
00008838   _chanUT
00008380   _checkmanalarms
003e6388   _chkheap
00009100   _clocktime
000002c0   _cmdbuf
000094c4   _cmdbufptr
00009122   _config
003e93f8   _configchecklist
000094cb   _confirmation
00009298   _counter
003df3b8   _crc16
00009d63   _cylinderalarm
003e8168   _cylinderdev_alarm
00009180   _cylinders
00009d7e   _damagecylprev
00009d7f   _damagembnprev
00008028   _damagemon
00009d00   _damagemonignore
00009d7c   _damagesingleprev
00008038   _damalarms
003e8744   _damcyl
003e8776   _dammbsum
003e8712   _damsingle
000093be   _dcChan
00009400   _dcmodechecks
00009299   _dcmodeprev
003e8136   _devsensor_alarm
003e8104   _devsensor_slowdown
00009d40   _digout
003e86e0   _digouttest
003e85b4   _direction_cal
00008db0   _dummy
000084d8   _dynalarmlevels
000094cc   _e
003e5e54   _ecvt
00008026   _engine
000094c6   _eocmdbuf
000084fe   _errno
003e8582   _event_normal
003e8015   _eventfile
003e7e74   _eventheader
003e883e   _eventlogcleared
00009bc0   _eventlogentry
00009b81   _eventlogvars
003e8009   _eventmsgfile
003e801f   _eventposfile
003e4d55   _exit
003e4da0   _exp
003f8c40   _f_databuf
003f81c0   _f_filesystem
00008d94   _f_filesystem_initialized
003e166c   _f_getdate
003e162f   _f_getrand
003e1691   _f_gettime
003e16b2   _f_mutex_create
003e16b6   _f_mutex_delete
003e16ba   _f_mutex_get
003e16c3   _f_mutex_put
003daf31   _f_releaseFS
003e5f24   _fcvt
00008b00   _fileregs
00008d40   _find
00009039   _firmware
003e8424   _firmwarechange
00008db2   _flashaddr
00008db6   _flashcheck
003dca45   _fm_chdir
003dc9fa   _fm_chdrive
003dc965   _fm_checkvolume
003dcaf5   _fm_close
003dcc3b   _fm_delete
003dc97d   _fm_delvolume
003dcbf8   _fm_eof
003dcadd   _fm_filelength
003dca8d   _fm_findfirst
003dcaa9   _fm_findnext
003dcb0d   _fm_flush
003dc9a2   _fm_format
003dcce3   _fm_get_oem
003dc980   _fm_get_volume_count
003dc983   _fm_get_volume_list
003dcc53   _fm_getattr
003dcbaa   _fm_getc
003dc9be   _fm_getcwd
003dc9da   _fm_getdcwd
003dca12   _fm_getdrive
003dca29   _fm_getfreespace
003dcc8b   _fm_getlabel
003dcbfb   _fm_gettimedate
003dc93c   _fm_getversion
003dc986   _fm_hardformat
003dc93f   _fm_initvolume
003dca5d   _fm_mkdir
003dcb25   _fm_open
003dcbc3   _fm_putc
003dcb41   _fm_read
003dcac1   _fm_rename
003dcbe0   _fm_rewind
003dca75   _fm_rmdir
003dcb87   _fm_seek
003dcc6f   _fm_setattr
003dcd03   _fm_seteof
003dccab   _fm_setlabel
003dcc1b   _fm_settimedate
003dcba7   _fm_tell
003dccc7   _fm_truncate
003dcb64   _fm_write
003daee9   _fnSetTask
003dbdf9   _fn_chdir
003da52c   _fn_chdrive
003da0a1   _fn_checkvolume
003dabe9   _fn_close
003dc4eb   _fn_delete
003da0a5   _fn_delvolume
003daea7   _fn_eof
003dc194   _fn_filelength
003dbd51   _fn_findfirst
003dbd86   _fn_findnext
003dac2d   _fn_flush
003da3f7   _fn_format
003daf74   _fn_get_oem
003da0d4   _fn_get_volume_count
003da0e9   _fn_get_volume_list
003dc554   _fn_getattr
003daed6   _fn_getc
003dbcf0   _fn_getcwd
003dbc98   _fn_getdcwd
003da52a   _fn_getdrive
003da6f2   _fn_getfreespace
003dc68f   _fn_getlabel
003e16c7   _fn_gettaskID
003dc491   _fn_gettimedate
003d98d6   _fn_getversion
003da360   _fn_hardformat
003da040   _fn_initvolume
003dc056   _fn_mkdir
003dc1d7   _fn_open
003daec2   _fn_putc
003dac63   _fn_read
003dbe67   _fn_rename
003daebb   _fn_rewind
003dc5fb   _fn_rmdir
003dae3c   _fn_seek
003dc5a3   _fn_setattr
003dafab   _fn_seteof
003dc74e   _fn_setlabel
003dc43f   _fn_settimedate
003dae8e   _fn_tell
003dc82f   _fn_truncate
003dad67   _fn_write
00009d75   _framfailprev
003e838e   _framfault1
003e83c0   _framfault2
003e6272   _free
003e638a   _free_memory
003e819a   _full_auto_calibration
00008002   _function
00008d96   _g_multi
000070e0   _gpa
000070e4   _gpb
000070ec   _gpd
000070f0   _gpe
000070f4   _gpf
000070f8   _gpg
000092c0   _inputs
003e50bf   _ldexp
000090bc   _livetime
00009b80   _logging
0000910e   _logtime
00008c80   _longterm
003e8230   _look_up_average_error
0000916e   _loopcheck
003e81fe   _loss_of_comms_spu2
003e61b5   _ltoa
003db0ae   _main
003e6219   _malloc
003f8e40   _man_comptable
00008833   _mancal
003e7ff5   _mancompfile
003e7fff   _mancompfile2
000083c0   _manref
0000839c   _manrefsum
00008ca6   _mansd
003e63a6   _max_free
00008000   _mbupdate
003e61e4   _memccpy
003e50ef   _memcpy
003e512f   _memset
003e61f0   _minit
003dfa51   _mmc_initfunc
003df762   _mmc_readmultiplesector
003df75a   _mmc_readsector
003df772   _mmc_writemultiplesector
003df76a   _mmc_writesector
0000835c   _modalresetcounters
00008340   _modalsetcounters
00008ed2   _modbusackbuffer
00008dc0   _modbuscmdbuf
00008ecc   _modbuscmdbufptr
00008eca   _modbusdummy
00008ecf   _modbusrxchar
00008ecb   _modbusrxcharcount
00008ed0   _modbusupdate
003e93c8   _monthlst
00009111   _motion
00009cdc   _noisefilterLOAD
00008ece   _numbytesexpected
00008300   _offsetA
0000831c   _offsetB
003e84ec   _offset_adjust
003e7fe9   _offsetsfile
00008cc0   _pMsgList
003e835c   _paramchange
003e89be   _parameters
00009d76   _pccommsfailureprev
003e83f2   _pccommsfault
00000180   _pcmodbus
003e8488   _poweron
00008240   _prewarn
003e851e   _prewarn_initiated
000094d6   _prompt
000092b6   _proximityscalingfactor
003e62c3   _realloc
00000040   _receiveA
003f9ec0   _receiveB
00000100   _receiveC
0000900a   _receiveD
00009ae4   _receivingmode
003e867c   _replace_500hrcomplete
003e864a   _replace_50hrcomplete
003e8618   _replacement_cancelled
00009028   _reprogram
00008f00   _responsemsg
000094d8   _rpmdata
00008837   _rpmpointtest
003e8550   _rtc_fault
000092be   _rtcbat
00009d80   _rtcbatprev
003e87da   _rtcbattery
000094c9   _rxchar
000094c8   _rxcharcount
000090c0   _safe1
000090df   _safe2
00007050   _sciportA
00007750   _sciportB
003e7f25   _sdcardcompheader
003e8038   _sdcarddir
003e8262   _sdcardfail
00009d73   _sdcardprev
003e7e94   _sdcardrawheader
00008c4e   _sdsettings
00008040   _sensor
003e80d2   _sensor_alarm
003e81cc   _sensor_calibration
003e806e   _sensor_failure
003e84ba   _sensor_prewarn
003e85e6   _sensor_replacement
003e80a0   _sensor_slowdown
003e86ae   _sensorstatus
0000800a   _sensortempval
0000908c   _settings
003e7fd3   _settingsfile
00008c52   _shortterm
00009b00   _slave485mb
00009d74   _slavefailureprev
00009a80   _slaveresponsemsg
000093c0   _slem
003e87a8   _slemOOR
003e880c   _slemalarm
00009d7b   _slemoorprev
00009d7a   _slemprev
000092b8   _slemsettings
000092b5   _slowdownblipstate
0000881a   _speedcompcoeffs
003df4a1   _spi_drv_change
003df40e   _spigetbit
003df445   _spigetbit32
00007040   _spiregs
003df3e7   _spitxbyte
003df3f6   _spitxlong
003df3eb   _spitxword
003e5138   _sprintf
003e5169   _sqrt
003e51bb   _sscanf
00009cc0   _status3
003e7fc8   _statusfile
00009d47   _statusprevious
003e520d   _strcat
003e521a   _strcmp
003e5222   _strcpy
003e522b   _strcspn
00000300   _stringbuffer
003e5238   _strlen
003e5242   _strncmp
003e5259   _strncpy
003e63c5   _strrchr
003e63d0   _strtod
003e652a   _strtol
003e65e8   _strtold
003e6776   _strtoul
00009040   _timers
000091c0   _transferbuffer
000000d6   _transmitA
003f9f56   _transmitB
00009500   _truncate_tmp
0000943c   _txmode
000093c3   _uArealtimeValue
000093df   _umrealtimeValue
003e9058   _vec
003e9515   _version
003e9514   _versionreg
00009038   _versionregslave
00009412   _waterinoil
00009410   _wio_OORflag
003e82c6   _wio_alarm
003e832a   _wio_comms
003e8294   _wio_upperalarm
00009d71   _wioalarmprev
00009d72   _wioalarmupperprev
00009d79   _wioanaloghighprev
00009d78   _wioanaloglowprev
00009d77   _wiocommsprev
0000943d   _wiolost
00009432   _wioresponsemsg
0000941e   _wiosettings
000090ae   _xtswplusanacal
003d8000   cinit
00000000   edata
00000400   end
003e68cb   etext
ffffffff   pinit


GLOBAL SYMBOLS: SORTED BY Symbol Address 

address    name
--------   ----
00000000   ___edata__
00000000   edata
00000000   ___data__
00000000   .data
00000040   _receiveA
000000d6   _transmitA
00000100   _receiveC
00000180   _pcmodbus
00000190   __SYSMEM_SIZE
000001c2   __STACK_SIZE
000002c0   _cmdbuf
00000300   _stringbuffer
00000400   .bss
00000400   ___bss__
00000400   ___end__
00000400   end
00007040   _spiregs
00007050   _sciportA
000070e0   _gpa
000070e4   _gpb
000070ec   _gpd
000070f0   _gpe
000070f4   _gpf
000070f8   _gpg
00007100   _adcregs
00007750   _sciportB
00008000   _mbupdate
00008002   _function
0000800a   _sensortempval
00008026   _engine
00008028   _damagemon
00008038   _damalarms
00008040   _sensor
00008240   _prewarn
00008300   _offsetA
0000831c   _offsetB
00008340   _modalsetcounters
0000835c   _modalresetcounters
00008380   _checkmanalarms
0000839c   _manrefsum
000083c0   _manref
000084d8   _dynalarmlevels
000084fe   _errno
00008500   _calibration
0000881a   _speedcompcoeffs
00008833   _mancal
00008837   _rpmpointtest
00008838   _chanUT
00008842   _MmcDrv
00008900   _CRCtbl
00008b00   _fileregs
00008c4e   _sdsettings
00008c52   _shortterm
00008c80   _longterm
00008c94   _asciilog
00008ca6   _mansd
00008cc0   _pMsgList
00008d40   _find
00008d92   _MagicNumber
00008d94   _f_filesystem_initialized
00008d96   _g_multi
00008db0   _dummy
00008db2   _flashaddr
00008db6   _flashcheck
00008dba   __unlock
00008dbc   __lock
00008dc0   _modbuscmdbuf
00008eca   _modbusdummy
00008ecb   _modbusrxcharcount
00008ecc   _modbuscmdbufptr
00008ece   _numbytesexpected
00008ecf   _modbusrxchar
00008ed0   _modbusupdate
00008ed2   _modbusackbuffer
00008f00   _responsemsg
0000900a   _receiveD
00009028   _reprogram
00009038   _versionregslave
00009039   _firmware
00009040   _timers
0000908c   _settings
000090ae   _xtswplusanacal
000090bc   _livetime
000090c0   _safe1
000090df   _safe2
00009100   _clocktime
0000910e   _logtime
00009111   _motion
0000911a   _calibrationtd
00009122   _config
00009140   _allsensors
0000916e   _loopcheck
00009180   _cylinders
000091c0   _transferbuffer
00009240   _adcdata
00009298   _counter
00009299   _dcmodeprev
000092b5   _slowdownblipstate
000092b6   _proximityscalingfactor
000092b8   _slemsettings
000092be   _rtcbat
000092c0   _inputs
000093be   _dcChan
000093c0   _slem
000093c3   _uArealtimeValue
000093df   _umrealtimeValue
00009400   _dcmodechecks
00009410   _wio_OORflag
00009412   _waterinoil
0000941e   _wiosettings
00009432   _wioresponsemsg
0000943c   _txmode
0000943d   _wiolost
00009442   __dtors_ptr
00009444   __cleanup_ptr
000094c0   _CommandNum
000094c1   _CommandLen
000094c2   _CommandOffset
000094c4   _cmdbufptr
000094c6   _eocmdbuf
000094c8   _rxcharcount
000094c9   _rxchar
000094ca   _RxCharacterFlag
000094cb   _confirmation
000094cc   _e
000094d6   _prompt
000094d8   _rpmdata
00009500   _truncate_tmp
00009a80   _slaveresponsemsg
00009ae4   _receivingmode
00009b00   _slave485mb
00009b80   _logging
00009b81   _eventlogvars
00009bc0   _eventlogentry
00009cc0   _status3
00009cdc   _noisefilterLOAD
00009cf8   _alarms
00009d00   _damagemonignore
00009d40   _digout
00009d47   _statusprevious
00009d63   _cylinderalarm
00009d71   _wioalarmprev
00009d72   _wioalarmupperprev
00009d73   _sdcardprev
00009d74   _slavefailureprev
00009d75   _framfailprev
00009d76   _pccommsfailureprev
00009d77   _wiocommsprev
00009d78   _wioanaloglowprev
00009d79   _wioanaloghighprev
00009d7a   _slemprev
00009d7b   _slemoorprev
00009d7c   _damagesingleprev
00009d7e   _damagecylprev
00009d7f   _damagembnprev
00009d80   _rtcbatprev
003d8000   ___cinit__
003d8000   cinit
003d80e3   ___text__
003d80e3   _InitADC
003d80e3   .text
003d8201   _SlaveDefaultNotSet
003d8213   _IntADCIsr
003d85ce   _InitScalingFactor
003d85f5   _DCMode
003d8663   _DCModeInit
003d8688   _DCModeClear
003d86a4   _DCModeCalcs
003d86c5   _DCModeStoreVal
003d872c   _DCModePeakHold
003d8784   _PeaktouAConversion
003d879b   _AnalogueInputScaleAllChannels
003d87e4   _SetProximityScalingValue
003d8806   _ProximityScaling
003d88c8   _SetuAScaledValue
003d88f8   _GetuASCaledValue
003d8900   _PulseCounterCheck
003d894d   _PulseRPMCalc
003d8aa7   _ClearEngineDirCal
003d8aec   _InitMotionCal
003d8b15   _SetupMotionDir
003d8b4b   _CheckForwardAstern
003d8c09   _AnalogOOR
003d8c7a   _SetupScaling
003d8cde   _Calibrate18mA
003d8d0c   _ADCChanPtr
003d8d53   _SetupConstantCurrentMux
003d8d92   _CalibratePRT
003d8df6   _ReadPRT
003d8e84   _PRTConversion
003d8f0f   _GetVoltageStatus
003d8f11   _ReadAnalog
003d8fe0   _RTCBattery
003d9006   _RTCLowBattAlarm
003d9057   _AnalogSLEM
003d90cb   _SLEMAlarm
003d915a   _CheckSLEMRange
003d9211   _WriteSLEMSettingstoNVMEM
003d921e   _ReadSLEMSettingsfromNVMEM
003d922f   _LoadSLEMDefaults
003d9251   _CalibrateLoop18mA
003d92e2   _SetRealtimeuAScaledValue
003d9312   _GetRealtimeuAScaledValue
003d931a   _SetRealtimePreCompValue
003d9325   _GetRealtimePreCompValue
003d9359   _WriteDCModeChecksSettingstoNVMEM
003d9366   _ReadDCModeChecksSettingsfromNVMEM
003d936f   _LoadDCModeChecksDefaults
003d9386   _InitSystemAlarms
003d93a3   _ClearStatusFlagsforSlave
003d93b3   _GetAlarmFlags
003d93b6   _Status3Flags
003d93bd   _SetNoPulseFlag
003d93ce   _GetNoPulseFlag
003d93d4   _SystemChecks
003d93ef   _FramFailure
003d9441   _SPUComms
003d94ca   _SensorFailure
003d970b   _ClearEventCodeListArea
003d977a   _WriteEventCodeNVMEM
003d9796   _ReadEventCodeNVMEM
003d97a1   _ReadFirstEventCode
003d97b6   _AlarmEventIDInc
003d97cd   _NextAlarmEventFinder
003d9834   _SetStatusforAlarmEvent
003d9868   _SetAlarmEvent
003d9872   _ClearAlarmEvent
003d9892   _ClearAlarmEventBit
003d98a7   _ClearAlarmEventonID
003d98d6   _fn_getversion
003d98d9   __f_getword
003d98df   __f_setword
003d98e5   __f_getlong
003d98ff   __f_setlong
003d9930   __f_checkstatus
003d9944   __f_writesector
003d99d9   __f_readsector
003d9a55   __f_getmaxcluster
003d9d8b   __f_writefatsector
003d9e0c   __f_setclustervalue
003d9ee0   __f_getclustervalue
003d9fad   __f_getvolume
003da040   _fn_initvolume
003da0a1   _fn_checkvolume
003da0a5   _fn_delvolume
003da0d4   _fn_get_volume_count
003da0e9   _fn_get_volume_list
003da101   __f_clustertopos
003da360   _fn_hardformat
003da3f7   _fn_format
003da492   __f_getcurrsector
003da4f8   __f_getdecluster
003da514   __f_setdecluster
003da52a   _fn_getdrive
003da52c   _fn_chdrive
003da53c   __f_initentry
003da563   __f_alloccluster
003da600   __f_dobadblock
003da6a6   __f_checklocked
003da6ca   __f_checkreadlocked
003da6f2   _fn_getfreespace
003da7e4   __f_emptywritecache
003da8e2   __f_emptywritebuffer
003da9c5   __f_fseek
003dab19   __f_removechain
003dab62   __f_updatefileentry
003dabd1   __f_check_handle
003dabe9   _fn_close
003dac2d   _fn_flush
003dac63   _fn_read
003dad67   _fn_write
003dae3c   _fn_seek
003dae8e   _fn_tell
003daea7   _fn_eof
003daebb   _fn_rewind
003daec2   _fn_putc
003daed6   _fn_getc
003daee9   _fnSetTask
003daf31   _f_releaseFS
003daf4b   __f_mutex_get
003daf67   __f_mutex_put
003daf74   _fn_get_oem
003dafab   _fn_seteof
003db00a   __fn_initseekdivisor
003db055   __fn_updateseekpos
003db07f   __fn_removeseekpos
003db0ae   _main
003db218   _StartupDelay
003db226   _TimerCheck
003db24e   _PerformIsr1
003db3da   _WatchdogKick
003db3e6   _PerformIsr13
003db3f6   _PerformIsr14
003db406   _InitOP
003db47f   _ProcessDigitalOP
003db488   _SlowDownBlipControl
003db490   _AlarmTestEvent
003db4bc   _AliveStatus
003db59b   _AlarmLevelOP
003db68d   _SlowDownLevelOP
003db797   _InitOffboardGPIO
003db7be   __f_getdirsector
003db7e5   __f_writedirsector
003dbaa2   __f_cmp_wname
003dbc98   _fn_getdcwd
003dbcf0   _fn_getcwd
003dbd51   _fn_findfirst
003dbd86   _fn_findnext
003dbdf9   _fn_chdir
003dbe67   _fn_rename
003dbf4a   __f_addentry
003dc056   _fn_mkdir
003dc194   _fn_filelength
003dc1d7   _fn_open
003dc43f   _fn_settimedate
003dc491   _fn_gettimedate
003dc4eb   _fn_delete
003dc554   _fn_getattr
003dc5a3   _fn_setattr
003dc5fb   _fn_rmdir
003dc68f   _fn_getlabel
003dc74e   _fn_setlabel
003dc82f   _fn_truncate
003dc93c   _fm_getversion
003dc93f   _fm_initvolume
003dc965   _fm_checkvolume
003dc97d   _fm_delvolume
003dc980   _fm_get_volume_count
003dc983   _fm_get_volume_list
003dc986   _fm_hardformat
003dc9a2   _fm_format
003dc9be   _fm_getcwd
003dc9da   _fm_getdcwd
003dc9fa   _fm_chdrive
003dca12   _fm_getdrive
003dca29   _fm_getfreespace
003dca45   _fm_chdir
003dca5d   _fm_mkdir
003dca75   _fm_rmdir
003dca8d   _fm_findfirst
003dcaa9   _fm_findnext
003dcac1   _fm_rename
003dcadd   _fm_filelength
003dcaf5   _fm_close
003dcb0d   _fm_flush
003dcb25   _fm_open
003dcb41   _fm_read
003dcb64   _fm_write
003dcb87   _fm_seek
003dcba7   _fm_tell
003dcbaa   _fm_getc
003dcbc3   _fm_putc
003dcbe0   _fm_rewind
003dcbf8   _fm_eof
003dcbfb   _fm_gettimedate
003dcc1b   _fm_settimedate
003dcc3b   _fm_delete
003dcc53   _fm_getattr
003dcc6f   _fm_setattr
003dcc8b   _fm_getlabel
003dccab   _fm_setlabel
003dccc7   _fm_truncate
003dcce3   _fm_get_oem
003dcd03   _fm_seteof
003dcd1b   _WriteEventLogVarsStructtoNVMEM
003dcd24   _ReadEventLogVarsStructfromNVMEM
003dcd2d   _ReplacementEvents
003dcd40   _LogEvent
003dcd77   _EventAck
003dcd80   _ClearMSGQueue
003dcd86   _MSGQueueNumfromPC
003dcd96   _ClearAlarmListandEventLog
003dcdb2   _ReadEventLogID
003dcdb6   _ReadMSGQueueNum
003dcdba   _ReadLastEventID
003dcdbf   _EventLogIDInc
003dcddd   _EventCompilation
003dce52   _EventACKCompilation
003dce90   _SetupEventReadBack
003dcea8   _ReadEvent
003dceb3   _ClearMANTable
003dced2   _ClearSelectiveMANTable
003dcef9   _SetupNormalModeAlarmLevels
003dcf18   _InitSensors
003dcf3f   _InitStatus1Flags
003dcf4c   _SetSensorEnabled
003dcf63   _GetSensorEnabled
003dcf6d   _SetCalMode
003dcf84   _SetAlarmMask
003dcf9b   _GetSensorAlarmMask
003dcfa6   _GetRPM
003dcfb5   _GetCheckedRPM
003dcfd6   _GetModalRPM
003dd0ce   _SetRPM
003dd0de   _SetImmScaledValue
003dd0ee   _SetScaledValue
003dd0fe   _GetScaledValue
003dd107   _GetPreCompValue
003dd140   _SetPreCompValue
003dd150   _GetPostCompValue
003dd159   _GetPostFilteredValue
003dd164   _GetEndResultValue
003dd193   _GetSensorDeviationValue
003dd1c2   _GetCylinderAverageValue
003dd21a   _GetCylinderDeviationValue
003dd272   _Status1Flags
003dd27a   _SetRPMChan
003dd295   _ReadStatus1Int
003dd29e   _GetStatus2Flags
003dd2a6   _MANCompTable
003dd2ba   _GetRPMCompVal
003dd2c5   _InitMAN
003dd38a   _EngineRunTimeUpdate
003dd39a   _ReadEngineStructfromNVMEM
003dd3a3   _WriteEngineStructtoNVMEM
003dd3ac   _NominalSpeedUpdate
003dd40f   _MANAlarmChecks
003dd4c0   _EnableNoiseFilter
003dd4e4   _StartupRefReload
003dd5f3   _CylNeighbourRegSet
003dd657   _MBNeighbourRegSet
003dd6bf   _CylinderSum
003dd6fe   _MBNeighbourSum
003dd74e   _ApplyImmOffset
003dd75d   _SensorImmCompensation
003dd778   _MANRefCalcs
003dd8b7   _DynamicAlarmLevel
003dd9cc   _CalcAlarmLevel1
003dd9f4   _CalcAlarmLevel2
003dda39   _FindMaxRPMAlarm
003dda54   _SensorDamageMonSlowDown
003ddb45   _CylDamageMonSlowDown
003ddbef   _MBNeighbourDamageMonSlowDown
003ddc99   _WriteDamagemontoNVMEM
003ddcaa   _ReadDamagemonfromNVMEM
003ddcb3   _LoadDamagemonDefaults
003ddd11   _MANModules
003dde99   _SensorSlowDown
003ddf5f   _SensorAlarm
003de023   _SensorDeviationSlowDown
003de0fe   _SensorDeviationAlarm
003de1d7   _CylinderDevAlarm
003de2d2   _WriteMANCompTabletoNVMEM
003de2da   _ReadMANCompTablefromNVMEM
003de2e2   _WriteAllSensorStructtoNVMEM
003de2eb   _ReadAllSensorStructfromNVMEM
003de2f4   _WriteSensorStatustoNVMEM
003de307   _ReadSensorStatusfromNVMEM
003de31a   _WriteOffsetAtoNVMEM
003de32c   _ReadOffsetAfromNVMEM
003de33e   _WriteOffsetBtoNVMEM
003de350   _ReadOffsetBfromNVMEM
003de362   _SensorNoiseRemoval
003de3a7   _NoiseFilterApplied
003de3cc   _SensorDeviation
003de43f   _CylinderAverage
003de4a2   _CylinderDeviation
003de523   _SensorCompensation
003de549   _ApplyOffset
003de561   _PreWarningPowerUpInit
003de56c   _PrewarnReset
003de5a6   _PreWarningInit
003de5c4   _PreWarnLevelReset
003de5e1   _PreWarningCalc
003de719   _PrewarningAlarmReset
003de75b   _WritePrewarnStructtoNVMEM
003de764   _ReadPrewarnStructfromNVMEM
003de76d   _CalAbort
003de79c   _PowerUpCalInit
003de7a5   _ReadAccAverageVal
003de7ba   _ReadAverageSpeedAcc
003de7c9   _ReadNumPoints
003de7d7   _WriteSpeedCompStructtoNVMEM
003de7e4   _ReadSpeedCompStructfromNVMEM
003de7ed   _WriteAccCalNVMEM
003de7f9   _ReadAccCalNVMEM
003de805   _WriteMAN1000NVMEM
003de816   _ReadMAN1000NVMEM
003de827   _WriteCalibrationStructtoNVMEM
003de831   _ReadCalibrationStructfromNVMEM
003de83b   _WriteMANCaltoNVMEM
003de844   _ReadMANCalfromNVMEM
003de84d   _GetPercentageLeft
003de891   _GetLearningTimeLeft
003de8ac   _GetIntervalTimeLeft
003de8c4   _PowerOutCalRecovery
003de913   _SetupLearningModeAlarmLevels
003de932   _InitCal
003de9ee   _MANCalibrationStages
003dea11   _AccumulateRoughCal
003dea8c   _RoughCal
003deadb   _CalProgression
003dec01   _FirstStageCalCurve
003deca5   _Stage3CalCurve
003dedec   _Interpolate
003dee1e   _FineCalModeInit
003dee8f   _CheckRoughCalPoints
003defd1   _FineCurveCal
003df0e3   _MANCalAlarm
003df123   _ClearCalAveragingAlarm
003df132   _ClearCalibrationAlarms
003df15d   _FineCurveCalInterpolation
003df380   _TestSD
003df3b8   _crc16
003df3e7   _spitxbyte
003df3eb   _spitxword
003df3f6   _spitxlong
003df40e   _spigetbit
003df445   _spigetbit32
003df4a1   _spi_drv_change
003df75a   _mmc_readsector
003df762   _mmc_readmultiplesector
003df76a   _mmc_writesector
003df772   _mmc_writemultiplesector
003dfa51   _mmc_initfunc
003dfa7c   _PCModifyParameter
003dfb09   _DamageMonENBChange
003dfbaa   _Safe1Update
003dfbaf   _SLEMUpdate
003dfbb2   _DamageMonStructUpdate
003dfbb5   _ConfigurationUpdate
003dfbc0   _SpeedCompStructUpdate
003dfbc7   _WioUpdate
003dfbd3   _SPU2ValUpdate
003dfbf3   _SetupAlarmLevels
003dfbfe   _DummyFunc
003dfbff   _SDShortDelete
003dfc02   _SDLongDelete
003dfc07   _SetupCLI
003dfc16   _CLIBanner
003dfc41   _HelpFunc
003dfc6c   _AmotHelpFunc
003dfc97   _CommsCheckFunc
003dfd27   _LoopTimeFunc
003dfd83   _EventInfoFunc
003dfd9b   _FactorySetFunc
003dfdb8   _InitSafeFunc
003dfe5e   _InputResultsFunc
003dfeae   _EnableOffsetFunc
003dfeda   _EnableCompensationFunc
003dff06   _EnableNoisRemovalFunc
003dff31   _EnableSensorDeviationFunc
003dff5d   _EnableCylinderAverageFunc
003dff89   _EnableCylinderDeviationFunc
003dffb5   _EnableCheckRoughCalFunc
003dffe8   _DebugSerialFunc
003e0004   _DisAnalogFunc
003e0048   _SetAllFunc
003e007f   _SetRPMFunc
003e00af   _SelectChannelFunc
003e00dd   _SetCHValFunc
003e010d   _MasterSlaveFunc
003e012a   _SensorScalingFactorFunc
003e015f   _RPMFunc
003e0181   _DisplayCalValuesFunc
003e01f8   _OffsetFunc
003e022d   _ThresholdFunc
003e0262   _Cal18mAFunc
003e0294   _CalLoop18mAFunc
003e02d6   _FilterValFunc
003e0310   _CalPRTZeroFunc
003e0344   _CalPRTFullScaleFunc
003e0378   _PRTReadFunc
003e03bf   _TimeSetFunc
003e03ef   _DateSetFunc
003e0423   _FramWrTestFunc
003e048f   _FramReTestFunc
003e04cb   _AT25DF041CheckFunc
003e0527   _HandleCharExt
003e059a   _ParseCmd
003e05d5   _HandleCmd
003e05fe   _PcCLI
003e0679   _AsciitoSingleChar
003e067f   _AsciitoInt
003e06e7   _ConvertTime
003e06fe   _ConvertDate
003e071f   _AsciitoBCD
003e0732   _BCDTimetoAsciiOutonCLI
003e0756   _HandleChar
003e0778   _CalcCRC
003e0791   _TerminateCmd
003e079b   _ModbusParseCmd
003e0826   _CompareCRC
003e083a   _ParseHeader
003e087f   _Serial
003e08b3   _PCModBus
003e08d1   _ReadPCCommsFlag
003e08d5   _SendResponse
003e097b   _Registers
003e147b   _ProcessRegister
003e14c9   _ProcessEngineRunT
003e1530   _ProcessFileTransferral
003e162f   _f_getrand
003e166c   _f_getdate
003e1691   _f_gettime
003e16b2   _f_mutex_create
003e16b6   _f_mutex_delete
003e16ba   _f_mutex_get
003e16c3   _f_mutex_put
003e16c7   _fn_gettaskID
003e16c9   _ReprogramStartupInit
003e16e0   _ReprogramTimeoutCheck
003e16f3   _ProcessReprogrammingTransferral
003e1787   _TxNowtoSlave
003e17c8   _LongUpperReg
003e17db   _LongLowerReg
003e17ee   _TxRegtoSlave
003e1826   _RxStatusfromSlave
003e185b   _ReprogrammingCalls
003e1864   _ProgramCheckFunc
003e18c6   _ProgramSPIFlashBlock
003e19ca   _EraseSPIFlash
003e1a0c   _CheckEraseProgress
003e1a7b   _CheckSPIBusy
003e1a8a   _CheckEraseProgError
003e1a9a   _ProcessorReProgramInit
003e1aff   _Reprogramming
003e1b84   _MasterSlaveCodeCopy
003e1ba0   _CopyProgramtoRam
003e1bf4   _RunCodefromRam
003e1bf7   _Init485Drivers
003e1c27   _SerialPortASetup
003e1c84   _SerialPortBSetup
003e1ced   _PerformSciTxIntA
003e1d0e   _PerformSciRxIntA
003e1d46   _PerformSciTxIntB
003e1d67   _PerformSciRxIntB
003e1d9a   _PerformSciRxIntD
003e1dbb   _SendChar
003e1e00   _SendCharB
003e1e4c   _SendCLIChar
003e1e53   _CLITransmitBuffer
003e1e66   _DebugStringOut
003e1e6e   _MastertoSlaveSendBuffer
003e1eb0   _LoadSendBufferB
003e1ef6   _ReadCLIChar
003e1f07   _ReadCharfromUartA
003e1f2a   _ReadCharfromUartB
003e1f4a   _ReadCharfromUartD
003e1f71   _SerialPortCSetup
003e1f8c   _SerialPortDSetup
003e1fad   _SendCharC
003e1fb4   _SendCharD
003e1fbb   _LoadSendBufferC
003e1ffd   _PerformSciRxIntC
003e2013   _SDCardLogUpdate
003e206b   _SDCardUpdate
003e209d   _PowerUpReadSD
003e20a8   _GetFirstFileNameString
003e20d7   _GetNextFileNameString
003e20fa   _GetFileNumWords
003e2140   _ReadWriteTransferBuffer
003e21e5   _FindFirstLogFile
003e2209   _SDCardInitfromModbus
003e2225   _SDCardInitialise
003e22bf   _SDShortTermSetup
003e2334   _CreateShortTermFilesandHeaders
003e2347   _CreateLongTermFilesandHeaders
003e235a   _SDLongTermSetup
003e239b   _SDLogUpdate
003e24e3   _SDLogHeader
003e250c   _SDShortTermLogUpdate
003e251c   _SDLongTermLogUpdate
003e252c   _SDShortTermOldFileDeletion
003e2543   _SDDailyFileDeletion
003e2560   _SDAlarmFileRename
003e2581   _SDShortLogFileDeletion
003e25df   _SDOldLogFileDeletion
003e265f   _FileToClusterSize
003e268d   _SDLogBinaryData
003e26f6   _CharStringtoIntString
003e270d   _SetAllEventMsgs
003e2729   _SDEventMessageUpdate
003e2747   _SDEventMessagetoFile
003e27b5   _SDReadEventMessage
003e2814   _CreateNewEventMsgFile
003e2820   _SDEventUpdate
003e2849   _SDEventtoFile
003e28ed   _SDReadEvent
003e2961   _SDCalcEventLogID
003e2a09   _CreateNewEventFile
003e2a15   _SDEventLogDelete
003e2a2d   _SDAckUpdate
003e2a4c   _SDEventACKtoFile
003e2aae   _SensorStatustoSDCardFile
003e2b08   _ReadSensorStatusfromSDCardFile
003e2b70   _GeneralSettingstoSDCardFile
003e2cde   _ReadGeneralSettingsfromSDCardFile
003e2e26   _OffsetstoSDCardFile
003e2e8a   _ReadOffsetsfromSDCardFile
003e2efb   _ClearManCompSequence
003e2f01   _MANCompTabletoSDCardFile
003e2f7a   _ReadMANCompTablefromSDCardFile
003e2feb   _CreateNewShortTermFile
003e30cc   _CreateNewLongTermFile
003e3113   _CreateNewSettingsFile
003e311f   _CreateNewOffsetsFile
003e312b   _CreateNewStatusFile
003e3137   _CreateNewMANFile
003e3169   _SDCardSetupDirectory
003e31a8   _CreateFile
003e31cb   _SdcardAmotFile
003e322b   _SDcardError
003e3252   _ProcessSDCard
003e3259   _SDCardEraseAllFiles
003e326a   _BuildFileName
003e328c   _YearstoSecs
003e32c4   _DaysThisYear
003e3331   _BuildTimeStamp
003e3376   _SaveSDSettings
003e337e   _CalibrationtdtoSDCardFile
003e33d5   _ReadCalibrationtdfromSDCardFile
003e343b   _CreateNewCalibtdFile
003e3447   _UnusedIsr
003e344b   _Int1Xint1Isr
003e3456   _SPIUart_XMNI
003e3473   _Int1Xint2Isr
003e349e   _Int1Isr
003e34b8   _Int13Isr
003e34ce   _Int14Isr
003e34e2   _Int9SciRxIntA
003e34fd   _Int9SciTxIntA
003e3518   _Int9SciRxIntB
003e3533   _Int9SciTxIntB
003e354e   _SetupInterruptsandTimers
003e35a0   _SetupPIEVectors
003e35b5   _TimingSetup
003e35e7   _FlashSetup
003e35ef   _InternalRamSetup
003e35fe   _AllSensorInit
003e360d   _SetupDefaultSettings
003e3725   _SetupSensorStatusDefaults
003e3748   _SetupOffsetDefaults
003e3775   _Slave485Init
003e3799   _Slave485Modbus
003e381d   _ParseSlaveCmd
003e38ae   _SendSlaveResponse
003e3925   _SlaveRegisters
003e39ec   _MasterModeReceive
003e3b09   _SendScalingCommand
003e3b57   _ReadChannelResults
003e3b91   _ProcessSlaveChanResponse
003e3c55   _StoreSPU2Status
003e3c6d   _InitSPI
003e3cbd   _SaveSafeGeneric
003e3cf4   _SaveFirmwareStruct
003e3cfc   _SaveSafeStruct1
003e3d03   _SaveXtswplusAnaCal
003e3d0b   _SaveSafeStruct2
003e3d12   _ReadAllFromEEPROM
003e3d34   _ReadEEPROMStruct
003e3d68   _ReadClockControl
003e3d75   _ReadClockData
003e3daa   _WriteClockData
003e3dfa   _WriteYrMnthData
003e3e31   _WriteDateHrsData
003e3e6d   _WriteMinsSecsData
003e3ea4   _CheckFlash
003e3f06   _WriteEnableEEprom1
003e3f0e   _WriteStatusRegEEprom1
003e3f1c   _WritetoMemoryEEprom1
003e3f2f   _ReadEEprom1StatusReg
003e3f3d   _WriteNVMemory
003e3f5e   _ReadNVMemory
003e3f82   _Fram1ChipCheck
003e3fad   _Fram1MagicNumberRead
003e3fc5   _Fram1MagicNumberWrite
003e3fe6   _ReadfromMemoryFRAM
003e4006   _ReadMemoryEEprom1
003e4017   _WriteEnableFram1
003e401f   _WriteEnableFram2
003e4027   _WritetoMemoryFRAM
003e4044   _SelectFram1
003e4050   _SelectFram2
003e405c   _SelectEEprom1
003e406e   _SelectFlash1
003e4077   _SelectFlash2
003e4080   _SelectFlash3
003e4089   _SelectFlash4
003e4092   _SelectRTC
003e40a8   _DeselectSPI
003e40d8   _TransmitByte
003e4109   _ReceiveByte
003e4137   _SelectUart_C
003e413f   _DeselectUart_C
003e4151   _WriteUartConfig_C
003e415c   _WaitforUartTxComplete_C
003e416e   _WriteBytetoUart_C
003e4193   _ReadDataFromUart_C
003e41a4   _ReceiveByteUART
003e41d1   _SelectUart_D
003e41d9   _DeselectUart_D
003e41e7   _WriteUartConfig_D
003e41f2   _WaitforUartTxComplete_D
003e4204   _WriteBytetoUart_D
003e4229   _ReadDataFromUart_D
003e4238   _LoopCheck
003e428e   _ResetCommsCheck
003e42a8   _ResetLoopCheck
003e42b7   _SDBusyCalls
003e42c1   _FunctionEnabledSetup
003e42db   _SPUUnitReset
003e42f1   _ClockProcessing
003e4342   _ReloadTimeFromFram
003e434b   _SaveTimetoFram
003e4354   _FRAMInit
003e4374   _LoadFRAMfromSD
003e43c4   _WriteConfigStructtoNVMEM
003e43d1   _ReadConfigStructfromNVMEM
003e43dc   _ConfigCheckVal
003e43fa   _FloattoIntRound
003e441b   _CalcUIntChecksum
003e4424   _BCDTimetoAscii
003e4442   _StringInttoByteArray
003e4486   _StringBytetoIntArray
003e44ce   _BytetoIntArray
003e44f6   _InttoByteArray
003e451d   _CalLEDSetup
003e452d   _MasterModeSwitch
003e4576   _NOPDelay
003e457f   _MonthtoStr
003e45e2   _InputNumtoString
003e4601   _DateTimetoInt
003e4641   _YearMonthUpdate
003e4651   _DateHoursUpdate
003e4661   _MinsSecsUpdate
003e4671   _RPMCalc
003e4696   _DebugAnaUpdate
003e46c0   _UpdateNonVolSafeCheck
003e4715   _CheckBitSet
003e4719   _BitSet
003e471e   _BitClear
003e4724   _BCDtoInt
003e472c   _CalibrationtdUpdate
003e47a2   _WriteCalibrationtdStructtoNVMEM
003e47b3   _ReadCalibrationtdStructfromNVMEM
003e47d2   _LoadFRAMpowerup
003e47ee   _SetSlaveVersion
003e47f2   _GetSlaveVersion
003e47fd   _FirmwareComparison
003e484b   _WIOInit
003e4870   _WioSettingsStructPtr
003e4873   _WioStructPtr
003e4876   _WIOAnalog
003e4886   _WIOAnalogInput
003e48c3   _CheckWIORange
003e4988   _WIOCommsOORClearDown
003e49a0   _WIOTemperatureWord
003e49d3   _WIOActivityWord
003e4a34   _WIOPPMWord
003e4a62   _WIOEnabled
003e4a66   _SetWIOAlarmMask
003e4a70   _WIOChecks
003e4a79   _WIOUpperAlarm
003e4af9   _WIOAlarm
003e4b7a   _WIOCommsLost
003e4bf5   _WriteWIOSettingstoNVMEM
003e4c02   _ReadWIOSettingsfromNVMEM
003e4c0b   _WIO485Init
003e4c21   _WaterinOil
003e4c3d   _ReadWaterinOilintoBuf
003e4c60   _WIOReceive
003e4cca   _WaterInOilResponse
003e4d49   _CalcSingleByteChecksum
003e4d55   _exit
003e4d7b   C$$EXIT
003e4d7d   _atexit
003e4d9f   _abort
003e4da0   _exp
003e4e3e   FS$$ADD
003e4eca   FS$$CMP
003e4ee1   FS$$DIV
003e4f64   FS$$MPY
003e4fbe   FS$$NEG
003e4fc3   FS$$SUB
003e4fcc   FS$$TOI
003e4ff0   FS$$TOU
003e500d   FS$$TOUL
003e503f   I$$DIV
003e5050   I$$MOD
003e5061   I$$TOFS
003e507b   L$$DIV
003e508a   L$$MOD
003e5098   UL$$DIV
003e509f   UL$$MOD
003e50a5   L$$TOFS
003e50bf   _ldexp
003e50ef   _memcpy
003e50f2   ___memcpy
003e50fc   ___memcpy_nf
003e5106   ___memcpy_fn
003e5110   ___memcpy_ff
003e512f   _memset
003e5138   _sprintf
003e5169   _sqrt
003e51bb   _sscanf
003e520d   _strcat
003e521a   _strcmp
003e5222   _strcpy
003e522b   _strcspn
003e5238   _strlen
003e5242   _strncmp
003e5259   _strncpy
003e5271   U$$DIV
003e5276   U$$MOD
003e527c   U$$TOFS
003e528c   UL$$TOFS
003e529f   __nop
003e52a0   __register_lock
003e52a4   __register_unlock
003e52a8   __printfi
003e594e   __scanfi
003e5e24   _atoi
003e5e54   _ecvt
003e5f24   _fcvt
003e5ff3   FD$$CMP
003e601c   FD$$DIV
003e60a6   FD$$MPY
003e6128   FD$$NEG
003e6131   FD$$SUB
003e613f   FD$$TOI
003e6160   FD$$TOL
003e617f   FS$$TOFD
003e619c   L$$TOFD
003e61b5   _ltoa
003e61e4   _memccpy
003e61f0   _minit
003e6219   _malloc
003e6272   _free
003e62c3   _realloc
003e636e   _calloc
003e6388   _chkheap
003e638a   _free_memory
003e63a6   _max_free
003e63c5   _strrchr
003e63d0   _strtod
003e652a   _strtol
003e65e8   _strtold
003e6776   _strtoul
003e6832   FD$$ADD
003e68cb   ___etext__
003e68cb   etext
003e6944   _Commands
003e7d6a   _amotheader
003e7e74   _eventheader
003e7e94   _sdcardrawheader
003e7f25   _sdcardcompheader
003e7fc8   _statusfile
003e7fd3   _settingsfile
003e7fde   _allsensorsfile
003e7fe9   _offsetsfile
003e7ff5   _mancompfile
003e7fff   _mancompfile2
003e8009   _eventmsgfile
003e8015   _eventfile
003e801f   _eventposfile
003e802c   _calibtdfile
003e8038   _sdcarddir
003e806e   _sensor_failure
003e80a0   _sensor_slowdown
003e80d2   _sensor_alarm
003e8104   _devsensor_slowdown
003e8136   _devsensor_alarm
003e8168   _cylinderdev_alarm
003e819a   _full_auto_calibration
003e81cc   _sensor_calibration
003e81fe   _loss_of_comms_spu2
003e8230   _look_up_average_error
003e8262   _sdcardfail
003e8294   _wio_upperalarm
003e82c6   _wio_alarm
003e82f8   _cal_abort
003e832a   _wio_comms
003e835c   _paramchange
003e838e   _framfault1
003e83c0   _framfault2
003e83f2   _pccommsfault
003e8424   _firmwarechange
003e8456   _calstage
003e8488   _poweron
003e84ba   _sensor_prewarn
003e84ec   _offset_adjust
003e851e   _prewarn_initiated
003e8550   _rtc_fault
003e8582   _event_normal
003e85b4   _direction_cal
003e85e6   _sensor_replacement
003e8618   _replacement_cancelled
003e864a   _replace_50hrcomplete
003e867c   _replace_500hrcomplete
003e86ae   _sensorstatus
003e86e0   _digouttest
003e8712   _damsingle
003e8744   _damcyl
003e8776   _dammbsum
003e87a8   _slemOOR
003e87da   _rtcbattery
003e880c   _slemalarm
003e883e   _eventlogcleared
003e89be   _parameters
003e9058   _vec
003e93c8   _monthlst
003e93f8   _configchecklist
003e9514   _versionreg
003e9515   _version
003e96d4   _BootloaderArray
003e9faa   _CRCHiTbl
003ea0aa   _CRCLoTbl
003ea1aa   __ctypes_
003f7f00   _c_int00
003f8000   __sys_memory
003f81c0   _f_filesystem
003f8c40   _f_databuf
003f8e40   _man_comptable
003f9ec0   _receiveB
003f9f56   _transmitB
ffffffff   pinit
ffffffff   ___pinit__

[1018 symbols]
