TMS320C2000 COFF Assembler PC v4.1.3 Thu Aug 18 12:16:11 2016

Tools Copyright (c) 1996-2006 Texas Instruments Incorporated
digout.asm                                                           PAGE    1

       1              ;***************************************************************
       2              ;* TMS320C2000 C/C++ Codegen                         PC v4.1.3 *
       3              ;* Date/Time created: Thu Aug 18 12:16:11 2016                 *
       4              ;***************************************************************
       5                      .compiler_opts --mem_model:code=flat --mem_model:data=large --quiet --silicon_version=28 
       6        0002  FP      .set    XAR2
       7              
       8              DW$CU   .dwtag  DW_TAG_compile_unit
       9                      .dwattr DW$CU, DW_AT_name("digout.c")
      10                      .dwattr DW$CU, DW_AT_producer("TMS320C2000 C/C++ Codegen PC v4.1.3 Copyright (c) 1996-2006 Texas Inst
      11                      .dwattr DW$CU, DW_AT_stmt_list(0x00)
      12                      .dwattr DW$CU, DW_AT_TI_VERSION(0x01)
      13              
      14              DW$1    .dwtag  DW_TAG_subprogram, DW_AT_name("CheckBitSet"), DW_AT_symbol_name("_CheckBitSet")
      15                      .dwattr DW$1, DW_AT_type(*DW$T$10)
      16                      .dwattr DW$1, DW_AT_declaration(0x01)
      17                      .dwattr DW$1, DW_AT_external(0x01)
      18              DW$2    .dwtag  DW_TAG_formal_parameter, DW_AT_type(*DW$T$11)
      19              DW$3    .dwtag  DW_TAG_formal_parameter, DW_AT_type(*DW$T$11)
      20                      .dwendtag DW$1
      21              
      22              
      23              DW$4    .dwtag  DW_TAG_subprogram, DW_AT_name("BitSet"), DW_AT_symbol_name("_BitSet")
      24                      .dwattr DW$4, DW_AT_type(*DW$T$11)
      25                      .dwattr DW$4, DW_AT_declaration(0x01)
      26                      .dwattr DW$4, DW_AT_external(0x01)
      27              DW$5    .dwtag  DW_TAG_formal_parameter, DW_AT_type(*DW$T$11)
      28              DW$6    .dwtag  DW_TAG_formal_parameter, DW_AT_type(*DW$T$11)
      29                      .dwendtag DW$4
      30              
      31              
      32              DW$7    .dwtag  DW_TAG_subprogram, DW_AT_name("BitClear"), DW_AT_symbol_name("_BitClear")
      33                      .dwattr DW$7, DW_AT_type(*DW$T$11)
      34                      .dwattr DW$7, DW_AT_declaration(0x01)
      35                      .dwattr DW$7, DW_AT_external(0x01)
      36              DW$8    .dwtag  DW_TAG_formal_parameter, DW_AT_type(*DW$T$11)
      37              DW$9    .dwtag  DW_TAG_formal_parameter, DW_AT_type(*DW$T$11)
      38                      .dwendtag DW$7
      39              
      40              
      41              DW$10   .dwtag  DW_TAG_subprogram, DW_AT_name("GetStatus2Flags"), DW_AT_symbol_name("_GetStatus2Flags")
      42                      .dwattr DW$10, DW_AT_type(*DW$T$66)
      43                      .dwattr DW$10, DW_AT_declaration(0x01)
      44                      .dwattr DW$10, DW_AT_external(0x01)
      45              DW$11   .dwtag  DW_TAG_formal_parameter, DW_AT_type(*DW$T$11)
      46                      .dwendtag DW$10
      47              
      48              
      49              DW$12   .dwtag  DW_TAG_subprogram, DW_AT_name("WioStructPtr"), DW_AT_symbol_name("_WioStructPtr")
      50                      .dwattr DW$12, DW_AT_type(*DW$T$74)
      51                      .dwattr DW$12, DW_AT_declaration(0x01)
      52                      .dwattr DW$12, DW_AT_external(0x01)
      53              
      54              DW$13   .dwtag  DW_TAG_subprogram, DW_AT_name("WIOEnabled"), DW_AT_symbol_name("_WIOEnabled")
      55                      .dwattr DW$13, DW_AT_type(*DW$T$10)
TMS320C2000 COFF Assembler PC v4.1.3 Thu Aug 18 12:16:11 2016

Tools Copyright (c) 1996-2006 Texas Instruments Incorporated
digout.asm                                                           PAGE    2

      56                      .dwattr DW$13, DW_AT_declaration(0x01)
      57                      .dwattr DW$13, DW_AT_external(0x01)
      58              DW$14   .dwtag  DW_TAG_variable, DW_AT_name("gpb"), DW_AT_symbol_name("_gpb")
      59                      .dwattr DW$14, DW_AT_type(*DW$T$80)
      60                      .dwattr DW$14, DW_AT_declaration(0x01)
      61                      .dwattr DW$14, DW_AT_external(0x01)
      62              DW$15   .dwtag  DW_TAG_variable, DW_AT_name("gpf"), DW_AT_symbol_name("_gpf")
      63                      .dwattr DW$15, DW_AT_type(*DW$T$84)
      64                      .dwattr DW$15, DW_AT_declaration(0x01)
      65                      .dwattr DW$15, DW_AT_external(0x01)
      66              DW$16   .dwtag  DW_TAG_variable, DW_AT_name("settings"), DW_AT_symbol_name("_settings")
      67                      .dwattr DW$16, DW_AT_type(*DW$T$87)
      68                      .dwattr DW$16, DW_AT_declaration(0x01)
      69                      .dwattr DW$16, DW_AT_external(0x01)
      70              DW$17   .dwtag  DW_TAG_variable, DW_AT_name("timers"), DW_AT_symbol_name("_timers")
      71                      .dwattr DW$17, DW_AT_type(*DW$T$89)
      72                      .dwattr DW$17, DW_AT_declaration(0x01)
      73                      .dwattr DW$17, DW_AT_external(0x01)
      74              DW$18   .dwtag  DW_TAG_variable, DW_AT_name("allsensors"), DW_AT_symbol_name("_allsensors")
      75                      .dwattr DW$18, DW_AT_type(*DW$T$91)
      76                      .dwattr DW$18, DW_AT_declaration(0x01)
      77                      .dwattr DW$18, DW_AT_external(0x01)
      78              DW$19   .dwtag  DW_TAG_variable, DW_AT_name("cylinders"), DW_AT_symbol_name("_cylinders")
      79                      .dwattr DW$19, DW_AT_type(*DW$T$93)
      80                      .dwattr DW$19, DW_AT_declaration(0x01)
      81                      .dwattr DW$19, DW_AT_external(0x01)
      82              DW$20   .dwtag  DW_TAG_variable, DW_AT_name("config"), DW_AT_symbol_name("_config")
      83                      .dwattr DW$20, DW_AT_type(*DW$T$96)
      84                      .dwattr DW$20, DW_AT_declaration(0x01)
      85                      .dwattr DW$20, DW_AT_external(0x01)
      86              DW$21   .dwtag  DW_TAG_variable, DW_AT_name("damalarms"), DW_AT_symbol_name("_damalarms")
      87                      .dwattr DW$21, DW_AT_type(*DW$T$97)
      88                      .dwattr DW$21, DW_AT_declaration(0x01)
      89                      .dwattr DW$21, DW_AT_external(0x01)
      90              DW$22   .dwtag  DW_TAG_variable, DW_AT_name("alarms"), DW_AT_symbol_name("_alarms")
      91                      .dwattr DW$22, DW_AT_type(*DW$T$99)
      92                      .dwattr DW$22, DW_AT_declaration(0x01)
      93                      .dwattr DW$22, DW_AT_external(0x01)
      94              DW$23   .dwtag  DW_TAG_variable, DW_AT_name("waterinoil"), DW_AT_symbol_name("_waterinoil")
      95                      .dwattr DW$23, DW_AT_type(*DW$T$73)
      96                      .dwattr DW$23, DW_AT_declaration(0x01)
      97                      .dwattr DW$23, DW_AT_external(0x01)
      98              DW$24   .dwtag  DW_TAG_variable, DW_AT_name("slowdownblipstate"), DW_AT_symbol_name("_slowdownblipstate")
      99                      .dwattr DW$24, DW_AT_type(*DW$T$11)
     100                      .dwattr DW$24, DW_AT_declaration(0x01)
     101                      .dwattr DW$24, DW_AT_external(0x01)
     102              DW$25   .dwtag  DW_TAG_variable, DW_AT_name("slem"), DW_AT_symbol_name("_slem")
     103                      .dwattr DW$25, DW_AT_type(*DW$T$101)
     104                      .dwattr DW$25, DW_AT_declaration(0x01)
     105                      .dwattr DW$25, DW_AT_external(0x01)
     106              DW$26   .dwtag  DW_TAG_variable, DW_AT_name("rtcbat"), DW_AT_symbol_name("_rtcbat")
     107                      .dwattr DW$26, DW_AT_type(*DW$T$103)
     108                      .dwattr DW$26, DW_AT_declaration(0x01)
     109                      .dwattr DW$26, DW_AT_external(0x01)
     110                      .global _digout
TMS320C2000 COFF Assembler PC v4.1.3 Thu Aug 18 12:16:11 2016

Tools Copyright (c) 1996-2006 Texas Instruments Incorporated
digout.asm                                                           PAGE    3

     111 00000000       _digout:        .usect  ".ebss",7,1,0
     112              DW$27   .dwtag  DW_TAG_variable, DW_AT_name("digout"), DW_AT_symbol_name("_digout")
     113                      .dwattr DW$27, DW_AT_location[DW_OP_addr _digout]
     114                      .dwattr DW$27, DW_AT_type(*DW$T$104)
     115                      .dwattr DW$27, DW_AT_external(0x01)
     116                      .global _statusprevious
     117 00000007       _statusprevious:        .usect  ".ebss",28,1,0
     118              DW$28   .dwtag  DW_TAG_variable, DW_AT_name("statusprevious"), DW_AT_symbol_name("_statusprevious")
     119                      .dwattr DW$28, DW_AT_location[DW_OP_addr _statusprevious]
     120                      .dwattr DW$28, DW_AT_type(*DW$T$68)
     121                      .dwattr DW$28, DW_AT_external(0x01)
     122                      .global _cylinderalarm
     123 00000023       _cylinderalarm: .usect  ".ebss",14,1,0
     124              DW$29   .dwtag  DW_TAG_variable, DW_AT_name("cylinderalarm"), DW_AT_symbol_name("_cylinderalarm")
     125                      .dwattr DW$29, DW_AT_location[DW_OP_addr _cylinderalarm]
     126                      .dwattr DW$29, DW_AT_type(*DW$T$31)
     127                      .dwattr DW$29, DW_AT_external(0x01)
     128                      .global _wioalarmprev
     129 00000031       _wioalarmprev:  .usect  ".ebss",1,1,0
     130              DW$30   .dwtag  DW_TAG_variable, DW_AT_name("wioalarmprev"), DW_AT_symbol_name("_wioalarmprev")
     131                      .dwattr DW$30, DW_AT_location[DW_OP_addr _wioalarmprev]
     132                      .dwattr DW$30, DW_AT_type(*DW$T$11)
     133                      .dwattr DW$30, DW_AT_external(0x01)
     134                      .global _wioalarmupperprev
     135 00000032       _wioalarmupperprev:     .usect  ".ebss",1,1,0
     136              DW$31   .dwtag  DW_TAG_variable, DW_AT_name("wioalarmupperprev"), DW_AT_symbol_name("_wioalarmupperprev")
     137                      .dwattr DW$31, DW_AT_location[DW_OP_addr _wioalarmupperprev]
     138                      .dwattr DW$31, DW_AT_type(*DW$T$11)
     139                      .dwattr DW$31, DW_AT_external(0x01)
     140                      .global _sdcardprev
     141 00000033       _sdcardprev:    .usect  ".ebss",1,1,0
     142              DW$32   .dwtag  DW_TAG_variable, DW_AT_name("sdcardprev"), DW_AT_symbol_name("_sdcardprev")
     143                      .dwattr DW$32, DW_AT_location[DW_OP_addr _sdcardprev]
     144                      .dwattr DW$32, DW_AT_type(*DW$T$11)
     145                      .dwattr DW$32, DW_AT_external(0x01)
     146                      .global _slavefailureprev
     147 00000034       _slavefailureprev:      .usect  ".ebss",1,1,0
     148              DW$33   .dwtag  DW_TAG_variable, DW_AT_name("slavefailureprev"), DW_AT_symbol_name("_slavefailureprev")
     149                      .dwattr DW$33, DW_AT_location[DW_OP_addr _slavefailureprev]
     150                      .dwattr DW$33, DW_AT_type(*DW$T$11)
     151                      .dwattr DW$33, DW_AT_external(0x01)
     152                      .global _framfailprev
     153 00000035       _framfailprev:  .usect  ".ebss",1,1,0
     154              DW$34   .dwtag  DW_TAG_variable, DW_AT_name("framfailprev"), DW_AT_symbol_name("_framfailprev")
     155                      .dwattr DW$34, DW_AT_location[DW_OP_addr _framfailprev]
     156                      .dwattr DW$34, DW_AT_type(*DW$T$11)
     157                      .dwattr DW$34, DW_AT_external(0x01)
     158                      .global _pccommsfailureprev
     159 00000036       _pccommsfailureprev:    .usect  ".ebss",1,1,0
     160              DW$35   .dwtag  DW_TAG_variable, DW_AT_name("pccommsfailureprev"), DW_AT_symbol_name("_pccommsfailureprev")
     161                      .dwattr DW$35, DW_AT_location[DW_OP_addr _pccommsfailureprev]
     162                      .dwattr DW$35, DW_AT_type(*DW$T$11)
     163                      .dwattr DW$35, DW_AT_external(0x01)
     164                      .global _wiocommsprev
     165 00000037       _wiocommsprev:  .usect  ".ebss",1,1,0
TMS320C2000 COFF Assembler PC v4.1.3 Thu Aug 18 12:16:11 2016

Tools Copyright (c) 1996-2006 Texas Instruments Incorporated
digout.asm                                                           PAGE    4

     166              DW$36   .dwtag  DW_TAG_variable, DW_AT_name("wiocommsprev"), DW_AT_symbol_name("_wiocommsprev")
     167                      .dwattr DW$36, DW_AT_location[DW_OP_addr _wiocommsprev]
     168                      .dwattr DW$36, DW_AT_type(*DW$T$11)
     169                      .dwattr DW$36, DW_AT_external(0x01)
     170                      .global _wioanaloglowprev
     171 00000038       _wioanaloglowprev:      .usect  ".ebss",1,1,0
     172              DW$37   .dwtag  DW_TAG_variable, DW_AT_name("wioanaloglowprev"), DW_AT_symbol_name("_wioanaloglowprev")
     173                      .dwattr DW$37, DW_AT_location[DW_OP_addr _wioanaloglowprev]
     174                      .dwattr DW$37, DW_AT_type(*DW$T$11)
     175                      .dwattr DW$37, DW_AT_external(0x01)
     176                      .global _wioanaloghighprev
     177 00000039       _wioanaloghighprev:     .usect  ".ebss",1,1,0
     178              DW$38   .dwtag  DW_TAG_variable, DW_AT_name("wioanaloghighprev"), DW_AT_symbol_name("_wioanaloghighprev")
     179                      .dwattr DW$38, DW_AT_location[DW_OP_addr _wioanaloghighprev]
     180                      .dwattr DW$38, DW_AT_type(*DW$T$11)
     181                      .dwattr DW$38, DW_AT_external(0x01)
     182                      .global _slemprev
     183 0000003a       _slemprev:      .usect  ".ebss",1,1,0
     184              DW$39   .dwtag  DW_TAG_variable, DW_AT_name("slemprev"), DW_AT_symbol_name("_slemprev")
     185                      .dwattr DW$39, DW_AT_location[DW_OP_addr _slemprev]
     186                      .dwattr DW$39, DW_AT_type(*DW$T$11)
     187                      .dwattr DW$39, DW_AT_external(0x01)
     188                      .global _slemoorprev
     189 0000003b       _slemoorprev:   .usect  ".ebss",1,1,0
     190              DW$40   .dwtag  DW_TAG_variable, DW_AT_name("slemoorprev"), DW_AT_symbol_name("_slemoorprev")
     191                      .dwattr DW$40, DW_AT_location[DW_OP_addr _slemoorprev]
     192                      .dwattr DW$40, DW_AT_type(*DW$T$11)
     193                      .dwattr DW$40, DW_AT_external(0x01)
     194                      .global _damagesingleprev
     195 0000003c       _damagesingleprev:      .usect  ".ebss",2,1,0
     196              DW$41   .dwtag  DW_TAG_variable, DW_AT_name("damagesingleprev"), DW_AT_symbol_name("_damagesingleprev")
     197                      .dwattr DW$41, DW_AT_location[DW_OP_addr _damagesingleprev]
     198                      .dwattr DW$41, DW_AT_type(*DW$T$46)
     199                      .dwattr DW$41, DW_AT_external(0x01)
     200                      .global _damagecylprev
     201 0000003e       _damagecylprev: .usect  ".ebss",1,1,0
     202              DW$42   .dwtag  DW_TAG_variable, DW_AT_name("damagecylprev"), DW_AT_symbol_name("_damagecylprev")
     203                      .dwattr DW$42, DW_AT_location[DW_OP_addr _damagecylprev]
     204                      .dwattr DW$42, DW_AT_type(*DW$T$11)
     205                      .dwattr DW$42, DW_AT_external(0x01)
     206                      .global _damagembnprev
     207 0000003f       _damagembnprev: .usect  ".ebss",1,1,0
     208              DW$43   .dwtag  DW_TAG_variable, DW_AT_name("damagembnprev"), DW_AT_symbol_name("_damagembnprev")
     209                      .dwattr DW$43, DW_AT_location[DW_OP_addr _damagembnprev]
     210                      .dwattr DW$43, DW_AT_type(*DW$T$11)
     211                      .dwattr DW$43, DW_AT_external(0x01)
     212                      .global _rtcbatprev
     213 00000040       _rtcbatprev:    .usect  ".ebss",1,1,0
     214              DW$44   .dwtag  DW_TAG_variable, DW_AT_name("rtcbatprev"), DW_AT_symbol_name("_rtcbatprev")
     215                      .dwattr DW$44, DW_AT_location[DW_OP_addr _rtcbatprev]
     216                      .dwattr DW$44, DW_AT_type(*DW$T$11)
     217                      .dwattr DW$44, DW_AT_external(0x01)
     218                      .global _tempprev
     219 00000041       _tempprev:      .usect  ".ebss",1,1,0
     220              DW$45   .dwtag  DW_TAG_variable, DW_AT_name("tempprev"), DW_AT_symbol_name("_tempprev")
TMS320C2000 COFF Assembler PC v4.1.3 Thu Aug 18 12:16:11 2016

Tools Copyright (c) 1996-2006 Texas Instruments Incorporated
digout.asm                                                           PAGE    5

     221                      .dwattr DW$45, DW_AT_location[DW_OP_addr _tempprev]
     222                      .dwattr DW$45, DW_AT_type(*DW$T$11)
     223                      .dwattr DW$45, DW_AT_external(0x01)
     224              ;       C:\CCStudio_v3.3\C2000\cgtools\bin\opt2000.exe C:\Users\Andrew\AppData\Local\Temp\TI0362 C:\Users\And
     225              ;       C:\CCStudio_v3.3\C2000\cgtools\bin\ac2000.exe -q -D_INLINE -DLARGE_MODEL -IC:/CCStudio_v3.3/C2000/xda
     226 00000000               .sect   ".text"
     227                      .global _InitOP
     228              
     229              DW$46   .dwtag  DW_TAG_subprogram, DW_AT_name("InitOP"), DW_AT_symbol_name("_InitOP")
     230                      .dwattr DW$46, DW_AT_low_pc(_InitOP)
     231                      .dwattr DW$46, DW_AT_high_pc(0x00)
     232                      .dwattr DW$46, DW_AT_begin_file("digout.c")
     233                      .dwattr DW$46, DW_AT_begin_line(0x36)
     234                      .dwattr DW$46, DW_AT_begin_column(0x06)
     235                      .dwattr DW$46, DW_AT_frame_base[DW_OP_breg20 -2]
     236                      .dwattr DW$46, DW_AT_skeletal(0x01)
     237                      .dwpsn  "digout.c",55,1
     238              
     239              ;***************************************************************
     240              ;* FNAME: _InitOP                       FR SIZE:   0           *
     241              ;*                                                             *
     242              ;* FUNCTION ENVIRONMENT                                        *
     243              ;*                                                             *
     244              ;* FUNCTION PROPERTIES                                         *
     245              ;*                            0 Parameter,  0 Auto,  0 SOE     *
     246              ;***************************************************************
     247              
     248 00000000       _InitOP:
     249 00000000 7622   eallow             ; Enable accesses to PIE control registers
     250 00000001 F5A9          MOV       AL,*(0:0x70d5)        ; |60| 
         00000002 70D5 
     251 00000003 50C0          ORB       AL,#0xc0              ; |60| 
     252 00000004 F4A9          MOV       *(0:0x70d5),AL        ; |60| 
         00000005 70D5 
     253 00000006 7700          NOP
     254 00000007 7700          NOP
     255 00000008 F5A9          MOV       AL,*(0:0x70c5)        ; |61| 
         00000009 70C5 
     256 0000000a 1AA9          OR        AL,#0x8000            ; |61| 
         0000000b 8000 
     257 0000000c F4A9          MOV       *(0:0x70c5),AL        ; |61| 
         0000000d 70C5 
     258 0000000e 761A   edis               ; Disable accesses to PIE control registers
     259 0000000f 761F!         MOVW      DP,#_gpf
         00000010 0000 
     260 00000011 1A00!         OR        @_gpf,#0x0040         ; |64| 
         00000012 0040 
     261 00000013 761F!         MOVW      DP,#_gpf
         00000014 0000 
     262 00000015 1A00!         OR        @_gpf,#0x0080         ; |65| 
         00000016 0080 
     263 00000017 761F!         MOVW      DP,#_gpb
         00000018 0000 
     264 00000019 1800!         AND       @_gpb,#0x7fff         ; |66| 
         0000001a 7FFF 
TMS320C2000 COFF Assembler PC v4.1.3 Thu Aug 18 12:16:11 2016

Tools Copyright (c) 1996-2006 Texas Instruments Incorporated
digout.asm                                                           PAGE    6

     265 0000001b 761F-         MOVW      DP,#_digout
         0000001c 0000 
     266 0000001d 2B00-         MOV       @_digout,#0           ; |68| 
     267 0000001e 761F-         MOVW      DP,#_digout+1
         0000001f 0000 
     268 00000020 2B01-         MOV       @_digout+1,#0         ; |69| 
     269 00000021 761F-         MOVW      DP,#_digout+2
         00000022 0000 
     270 00000023 2B02-         MOV       @_digout+2,#0         ; |70| 
     271 00000024 761F-         MOVW      DP,#_digout+3
         00000025 0000 
     272 00000026 2B03-         MOV       @_digout+3,#0         ; |71| 
     273 00000027 761F-         MOVW      DP,#_digout+4
         00000028 0000 
     274 00000029 2B04-         MOV       @_digout+4,#0         ; |72| 
     275 0000002a 761F-         MOVW      DP,#_digout+5
         0000002b 0000 
     276 0000002c 2B05-         MOV       @_digout+5,#0         ; |73| 
     277 0000002d 761F!         MOVW      DP,#_timers+50
         0000002e 0000 
     278 0000002f 9A00          MOVB      AL,#0
     279 00000030 2B32!         MOV       @_timers+50,#0        ; |75| 
     280                      .dwpsn  "digout.c",77,0
     281 00000031 3B01          SETC      SXM
     282              L1:    
     283              DW$L$_InitOP$2$B:
     284                      .dwpsn  "digout.c",78,0
     285 00000032 85A9          MOV       ACC,AL                ; |80| 
     286 00000033 8F00-         MOVL      XAR4,#_statusprevious ; |80| 
         00000034 0007 
     287 00000035 5601          ADDL      XAR4,ACC
         00000036 00A4 
     288 00000037 9C01          ADDB      AL,#1                 ; |77| 
     289 00000038 521C          CMPB      AL,#28                ; |77| 
     290 00000039 2BC4          MOV       *+XAR4[0],#0          ; |80| 
     291                      .dwpsn  "digout.c",81,0
     292 0000003a 56C4          BF        L1,LT                 ; |77| 
         0000003b FFF8 
     293                      ; branchcc occurs ; |77| 
     294 0000003c       DW$L$_InitOP$2$E:
     295 0000003c 9A00          MOVB      AL,#0
     296                      .dwpsn  "digout.c",83,0
     297 0000003d 3B01          SETC      SXM
     298              L2:    
     299              DW$L$_InitOP$4$B:
     300                      .dwpsn  "digout.c",84,0
     301 0000003e 85A9          MOV       ACC,AL                ; |85| 
     302 0000003f 8F00-         MOVL      XAR4,#_cylinderalarm  ; |85| 
         00000040 0023 
     303 00000041 5601          ADDL      XAR4,ACC
         00000042 00A4 
     304 00000043 9C01          ADDB      AL,#1                 ; |83| 
     305 00000044 520E          CMPB      AL,#14                ; |83| 
     306 00000045 2BC4          MOV       *+XAR4[0],#0          ; |85| 
     307                      .dwpsn  "digout.c",86,0
TMS320C2000 COFF Assembler PC v4.1.3 Thu Aug 18 12:16:11 2016

Tools Copyright (c) 1996-2006 Texas Instruments Incorporated
digout.asm                                                           PAGE    7

     308 00000046 56C4          BF        L2,LT                 ; |83| 
         00000047 FFF8 
     309                      ; branchcc occurs ; |83| 
     310 00000048       DW$L$_InitOP$4$E:
     311 00000048 8F00-         MOVL      XAR4,#_damagesingleprev ; |88| 
         00000049 003C 
     312 0000004a 761F-         MOVW      DP,#_damagecylprev
         0000004b 0000 
     313 0000004c 2BC4          MOV       *+XAR4[0],#0          ; |88| 
     314 0000004d 2BCC          MOV       *+XAR4[1],#0          ; |89| 
     315 0000004e 2B3E-         MOV       @_damagecylprev,#0    ; |90| 
     316 0000004f 761F-         MOVW      DP,#_damagembnprev
         00000050 0000 
     317 00000051 2B3F-         MOV       @_damagembnprev,#0    ; |91| 
     318 00000052 FF69          SPM       #0
     319 00000053 761F-         MOVW      DP,#_wioalarmprev
         00000054 0000 
     320 00000055 2B31-         MOV       @_wioalarmprev,#0     ; |93| 
     321 00000056 761F-         MOVW      DP,#_wioalarmupperprev
         00000057 0000 
     322 00000058 2B32-         MOV       @_wioalarmupperprev,#0 ; |94| 
     323 00000059 761F-         MOVW      DP,#_sdcardprev
         0000005a 0000 
     324 0000005b 2B33-         MOV       @_sdcardprev,#0       ; |95| 
     325 0000005c 761F-         MOVW      DP,#_slavefailureprev
         0000005d 0000 
     326 0000005e 2B34-         MOV       @_slavefailureprev,#0 ; |96| 
     327 0000005f 761F-         MOVW      DP,#_framfailprev
         00000060 0000 
     328 00000061 2B35-         MOV       @_framfailprev,#0     ; |97| 
     329 00000062 761F-         MOVW      DP,#_pccommsfailureprev
         00000063 0000 
     330 00000064 2B36-         MOV       @_pccommsfailureprev,#0 ; |98| 
     331 00000065 761F-         MOVW      DP,#_wiocommsprev
         00000066 0000 
     332 00000067 2B37-         MOV       @_wiocommsprev,#0     ; |99| 
     333 00000068 761F-         MOVW      DP,#_slemprev
         00000069 0000 
     334 0000006a 2B3A-         MOV       @_slemprev,#0         ; |100| 
     335 0000006b 761F-         MOVW      DP,#_slemoorprev
         0000006c 0000 
     336 0000006d 2B3B-         MOV       @_slemoorprev,#0      ; |101| 
     337 0000006e 761F-         MOVW      DP,#_wioanaloglowprev
         0000006f 0000 
     338 00000070 2B38-         MOV       @_wioanaloglowprev,#0 ; |103| 
     339 00000071 761F-         MOVW      DP,#_wioanaloghighprev
         00000072 0000 
     340 00000073 2B39-         MOV       @_wioanaloghighprev,#0 ; |104| 
     341 00000074 761F!         MOVW      DP,#_settings+22
         00000075 0000 
     342 00000076 2816!         MOV       @_settings+22,#15000  ; |108| 
         00000077 3A98 
     343 00000078 761F!         MOVW      DP,#_settings+23
         00000079 0000 
     344 0000007a 2B17!         MOV       @_settings+23,#0      ; |109| 
TMS320C2000 COFF Assembler PC v4.1.3 Thu Aug 18 12:16:11 2016

Tools Copyright (c) 1996-2006 Texas Instruments Incorporated
digout.asm                                                           PAGE    8

     345                      .dwpsn  "digout.c",110,1
     346 0000007b 0006          LRETR
     347                      ; return occurs
     348              
     349              DW$47   .dwtag  DW_TAG_loop
     350                      .dwattr DW$47, DW_AT_name("D:\DEV\Amot\BearingWear\XTSW_V6_20\digout.asm:L2:1:1471518971")
     351                      .dwattr DW$47, DW_AT_begin_file("digout.c")
     352                      .dwattr DW$47, DW_AT_begin_line(0x53)
     353                      .dwattr DW$47, DW_AT_end_line(0x56)
     354              DW$48   .dwtag  DW_TAG_loop_range
     355                      .dwattr DW$48, DW_AT_low_pc(DW$L$_InitOP$4$B)
     356                      .dwattr DW$48, DW_AT_high_pc(DW$L$_InitOP$4$E)
     357                      .dwendtag DW$47
     358              
     359              
     360              DW$49   .dwtag  DW_TAG_loop
     361                      .dwattr DW$49, DW_AT_name("D:\DEV\Amot\BearingWear\XTSW_V6_20\digout.asm:L1:1:1471518971")
     362                      .dwattr DW$49, DW_AT_begin_file("digout.c")
     363                      .dwattr DW$49, DW_AT_begin_line(0x4d)
     364                      .dwattr DW$49, DW_AT_end_line(0x51)
     365              DW$50   .dwtag  DW_TAG_loop_range
     366                      .dwattr DW$50, DW_AT_low_pc(DW$L$_InitOP$2$B)
     367                      .dwattr DW$50, DW_AT_high_pc(DW$L$_InitOP$2$E)
     368                      .dwendtag DW$49
     369              
     370                      .dwattr DW$46, DW_AT_end_file("digout.c")
     371                      .dwattr DW$46, DW_AT_end_line(0x6e)
     372                      .dwattr DW$46, DW_AT_end_column(0x01)
     373                      .dwendtag DW$46
     374              
     375 0000007c               .sect   ".text"
     376                      .global _ProcessDigitalOP
     377              
     378              DW$51   .dwtag  DW_TAG_subprogram, DW_AT_name("ProcessDigitalOP"), DW_AT_symbol_name("_ProcessDigitalOP")
     379                      .dwattr DW$51, DW_AT_low_pc(_ProcessDigitalOP)
     380                      .dwattr DW$51, DW_AT_high_pc(0x00)
     381                      .dwattr DW$51, DW_AT_begin_file("digout.c")
     382                      .dwattr DW$51, DW_AT_begin_line(0x72)
     383                      .dwattr DW$51, DW_AT_begin_column(0x06)
     384                      .dwattr DW$51, DW_AT_frame_base[DW_OP_breg20 -2]
     385                      .dwattr DW$51, DW_AT_skeletal(0x01)
     386                      .dwpsn  "digout.c",115,1
     387              
     388              ;***************************************************************
     389              ;* FNAME: _ProcessDigitalOP             FR SIZE:   0           *
     390              ;*                                                             *
     391              ;* FUNCTION ENVIRONMENT                                        *
     392              ;*                                                             *
     393              ;* FUNCTION PROPERTIES                                         *
     394              ;*                            0 Parameter,  0 Auto,  0 SOE     *
     395              ;***************************************************************
     396              
     397 0000007c       _ProcessDigitalOP:
     398 0000007c 7640'         LCR       #_AliveStatus         ; |119| 
         0000007d 008B 
TMS320C2000 COFF Assembler PC v4.1.3 Thu Aug 18 12:16:11 2016

Tools Copyright (c) 1996-2006 Texas Instruments Incorporated
digout.asm                                                           PAGE    9

     399                      ; call occurs [#_AliveStatus] ; |119| 
     400 0000007e 7640'         LCR       #_AlarmLevelOP        ; |120| 
         0000007f 016D 
     401                      ; call occurs [#_AlarmLevelOP] ; |120| 
     402 00000080 7640'         LCR       #_SlowDownLevelOP     ; |121| 
         00000081 0267 
     403                      ; call occurs [#_SlowDownLevelOP] ; |121| 
     404                      .dwpsn  "digout.c",122,1
     405 00000082 0006          LRETR
     406                      ; return occurs
     407                      .dwattr DW$51, DW_AT_end_file("digout.c")
     408                      .dwattr DW$51, DW_AT_end_line(0x7a)
     409                      .dwattr DW$51, DW_AT_end_column(0x01)
     410                      .dwendtag DW$51
     411              
     412 00000083               .sect   ".text"
     413                      .global _SlowDownBlipControl
     414              
     415              DW$52   .dwtag  DW_TAG_subprogram, DW_AT_name("SlowDownBlipControl"), DW_AT_symbol_name("_SlowDownBlipControl
     416                      .dwattr DW$52, DW_AT_low_pc(_SlowDownBlipControl)
     417                      .dwattr DW$52, DW_AT_high_pc(0x00)
     418                      .dwattr DW$52, DW_AT_begin_file("digout.c")
     419                      .dwattr DW$52, DW_AT_begin_line(0x7f)
     420                      .dwattr DW$52, DW_AT_begin_column(0x06)
     421                      .dwattr DW$52, DW_AT_frame_base[DW_OP_breg20 -2]
     422                      .dwattr DW$52, DW_AT_skeletal(0x01)
     423                      .dwpsn  "digout.c",128,1
     424              
     425              ;***************************************************************
     426              ;* FNAME: _SlowDownBlipControl          FR SIZE:   0           *
     427              ;*                                                             *
     428              ;* FUNCTION ENVIRONMENT                                        *
     429              ;*                                                             *
     430              ;* FUNCTION PROPERTIES                                         *
     431              ;*                            0 Parameter,  0 Auto,  0 SOE     *
     432              ;***************************************************************
     433              
     434 00000083       _SlowDownBlipControl:
     435 00000083 761F!         MOVW      DP,#_slowdownblipstate
         00000084 0000 
     436 00000085 2B00!         MOV       @_slowdownblipstate,#0 ; |129| 
     437 00000086 761F!         MOVW      DP,#_settings+10
         00000087 0000 
     438 00000088 280A!         MOV       @_settings+10,#1      ; |130| 
         00000089 0001 
     439                      .dwpsn  "digout.c",131,1
     440 0000008a 0006          LRETR
     441                      ; return occurs
     442                      .dwattr DW$52, DW_AT_end_file("digout.c")
     443                      .dwattr DW$52, DW_AT_end_line(0x83)
     444                      .dwattr DW$52, DW_AT_end_column(0x01)
     445                      .dwendtag DW$52
     446              
     447 0000008b               .sect   ".text"
     448                      .global _AliveStatus
TMS320C2000 COFF Assembler PC v4.1.3 Thu Aug 18 12:16:11 2016

Tools Copyright (c) 1996-2006 Texas Instruments Incorporated
digout.asm                                                           PAGE   10

     449              
     450              DW$53   .dwtag  DW_TAG_subprogram, DW_AT_name("AliveStatus"), DW_AT_symbol_name("_AliveStatus")
     451                      .dwattr DW$53, DW_AT_low_pc(_AliveStatus)
     452                      .dwattr DW$53, DW_AT_high_pc(0x00)
     453                      .dwattr DW$53, DW_AT_begin_file("digout.c")
     454                      .dwattr DW$53, DW_AT_begin_line(0xa0)
     455                      .dwattr DW$53, DW_AT_begin_column(0x06)
     456                      .dwattr DW$53, DW_AT_frame_base[DW_OP_breg20 -2]
     457                      .dwattr DW$53, DW_AT_skeletal(0x01)
     458                      .dwpsn  "digout.c",161,1
     459              
     460              ;***************************************************************
     461              ;* FNAME: _AliveStatus                  FR SIZE:   0           *
     462              ;*                                                             *
     463              ;* FUNCTION ENVIRONMENT                                        *
     464              ;*                                                             *
     465              ;* FUNCTION PROPERTIES                                         *
     466              ;*                            0 Parameter,  0 Auto,  0 SOE     *
     467              ;***************************************************************
     468              
     469 0000008b       _AliveStatus:
     470 0000008b 761F-         MOVW      DP,#_digout
         0000008c 0000 
     471 0000008d 9200-         MOV       AL,@_digout           ; |165| 
     472 0000008e 5201          CMPB      AL,#1                 ; |165| 
     473 0000008f 56C1          BF        L33,EQ                ; |165| 
         00000090 00DD 
     474                      ; branchcc occurs ; |165| 
     475 00000091 761F!         MOVW      DP,#_config+1
         00000092 0000 
     476 00000093 4001!         TBIT      @_config+1,#0         ; |167| 
     477 00000094 56CC          BF        L32,NTC               ; |167| 
         00000095 00D4 
     478                      ; branchcc occurs ; |167| 
     479 00000096 761F!         MOVW      DP,#_timers+58
         00000097 0000 
     480 00000098 923A!         MOV       AL,@_timers+58        ; |169| 
     481 00000099 56C0          BF        L33,NEQ               ; |169| 
         0000009a 00D3 
     482                      ; branchcc occurs ; |169| 
     483 0000009b 9B01          MOVB      AH,#1                 ; |172| 
     484 0000009c 761F!         MOVW      DP,#_settings+7
         0000009d 0000 
     485 0000009e BE00          MOVB      XAR6,#0
     486 0000009f 9207!         MOV       AL,@_settings+7       ; |173| 
     487 000000a0 EC0D          BF        L4,EQ                 ; |173| 
     488                      ; branchcc occurs ; |173| 
     489 000000a1 9B00          MOVB      AH,#0
     490 000000a2 761F-         MOVW      DP,#_sdcardprev
         000000a3 0000 
     491 000000a4 9233-         MOV       AL,@_sdcardprev       ; |176| 
     492 000000a5 ED02          BF        L3,NEQ                ; |176| 
     493                      ; branchcc occurs ; |176| 
     494 000000a6 BE01          MOVB      XAR6,#1               ; |176| 
     495 000000a7       L3:    
TMS320C2000 COFF Assembler PC v4.1.3 Thu Aug 18 12:16:11 2016

Tools Copyright (c) 1996-2006 Texas Instruments Incorporated
digout.asm                                                           PAGE   11

     496 000000a7 761F-         MOVW      DP,#_sdcardprev
         000000a8 0000 
     497 000000a9 2833-         MOV       @_sdcardprev,#1       ; |176| 
         000000aa 0001 
     498 000000ab 56CF          BF        L5,UNC                ; |177| 
         000000ac 0005 
     499                      ; branch occurs ; |177| 
     500 000000ad       L4:    
     501 000000ad 761F-         MOVW      DP,#_sdcardprev
         000000ae 0000 
     502 000000af 2B33-         MOV       @_sdcardprev,#0       ; |178| 
     503 000000b0       L5:    
     504 000000b0 761F!         MOVW      DP,#_alarms
         000000b1 0000 
     505 000000b2 4100!         TBIT      @_alarms,#1           ; |177| 
     506 000000b3 EF0D          BF        L7,NTC                ; |177| 
     507                      ; branchcc occurs ; |177| 
     508 000000b4 9B00          MOVB      AH,#0
     509 000000b5 761F-         MOVW      DP,#_slavefailureprev
         000000b6 0000 
     510 000000b7 9234-         MOV       AL,@_slavefailureprev ; |182| 
     511 000000b8 ED02          BF        L6,NEQ                ; |182| 
     512                      ; branchcc occurs ; |182| 
     513 000000b9 BE01          MOVB      XAR6,#1               ; |182| 
     514 000000ba       L6:    
     515 000000ba 761F-         MOVW      DP,#_slavefailureprev
         000000bb 0000 
     516 000000bc 2834-         MOV       @_slavefailureprev,#1 ; |182| 
         000000bd 0001 
     517 000000be 56CF          BF        L8,UNC                ; |183| 
         000000bf 0005 
     518                      ; branch occurs ; |183| 
     519 000000c0       L7:    
     520 000000c0 761F-         MOVW      DP,#_slavefailureprev
         000000c1 0000 
     521 000000c2 2B34-         MOV       @_slavefailureprev,#0 ; |184| 
     522 000000c3       L8:    
     523 000000c3 761F!         MOVW      DP,#_alarms
         000000c4 0000 
     524 000000c5 4300!         TBIT      @_alarms,#3           ; |183| 
     525 000000c6 EF0D          BF        L10,NTC               ; |183| 
     526                      ; branchcc occurs ; |183| 
     527 000000c7 9B00          MOVB      AH,#0
     528 000000c8 761F-         MOVW      DP,#_framfailprev
         000000c9 0000 
     529 000000ca 9235-         MOV       AL,@_framfailprev     ; |189| 
     530 000000cb ED02          BF        L9,NEQ                ; |189| 
     531                      ; branchcc occurs ; |189| 
     532 000000cc BE01          MOVB      XAR6,#1               ; |189| 
     533 000000cd       L9:    
     534 000000cd 761F-         MOVW      DP,#_framfailprev
         000000ce 0000 
     535 000000cf 2835-         MOV       @_framfailprev,#1     ; |189| 
         000000d0 0001 
     536 000000d1 56CF          BF        L11,UNC               ; |190| 
TMS320C2000 COFF Assembler PC v4.1.3 Thu Aug 18 12:16:11 2016

Tools Copyright (c) 1996-2006 Texas Instruments Incorporated
digout.asm                                                           PAGE   12

         000000d2 0005 
     537                      ; branch occurs ; |190| 
     538 000000d3       L10:    
     539 000000d3 761F-         MOVW      DP,#_framfailprev
         000000d4 0000 
     540 000000d5 2B35-         MOV       @_framfailprev,#0     ; |191| 
     541 000000d6       L11:    
     542 000000d6 761F!         MOVW      DP,#_alarms
         000000d7 0000 
     543 000000d8 4500!         TBIT      @_alarms,#5           ; |190| 
     544 000000d9 EF0D          BF        L13,NTC               ; |190| 
     545                      ; branchcc occurs ; |190| 
     546 000000da 9B00          MOVB      AH,#0
     547 000000db 761F-         MOVW      DP,#_pccommsfailureprev
         000000dc 0000 
     548 000000dd 9236-         MOV       AL,@_pccommsfailureprev ; |195| 
     549 000000de ED02          BF        L12,NEQ               ; |195| 
     550                      ; branchcc occurs ; |195| 
     551 000000df BE01          MOVB      XAR6,#1               ; |195| 
     552 000000e0       L12:    
     553 000000e0 761F-         MOVW      DP,#_pccommsfailureprev
         000000e1 0000 
     554 000000e2 2836-         MOV       @_pccommsfailureprev,#1 ; |195| 
         000000e3 0001 
     555 000000e4 56CF          BF        L14,UNC               ; |196| 
         000000e5 0005 
     556                      ; branch occurs ; |196| 
     557 000000e6       L13:    
     558 000000e6 761F-         MOVW      DP,#_pccommsfailureprev
         000000e7 0000 
     559 000000e8 2B36-         MOV       @_pccommsfailureprev,#0 ; |197| 
     560 000000e9       L14:    
     561 000000e9 761F!         MOVW      DP,#_waterinoil+11
         000000ea 0000 
     562 000000eb 450B!         TBIT      @_waterinoil+11,#5    ; |196| 
     563 000000ec EF0D          BF        L16,NTC               ; |196| 
     564                      ; branchcc occurs ; |196| 
     565 000000ed 9B00          MOVB      AH,#0
     566 000000ee 761F-         MOVW      DP,#_wiocommsprev
         000000ef 0000 
     567 000000f0 9237-         MOV       AL,@_wiocommsprev     ; |201| 
     568 000000f1 ED02          BF        L15,NEQ               ; |201| 
     569                      ; branchcc occurs ; |201| 
     570 000000f2 BE01          MOVB      XAR6,#1               ; |201| 
     571 000000f3       L15:    
     572 000000f3 761F-         MOVW      DP,#_wiocommsprev
         000000f4 0000 
     573 000000f5 2837-         MOV       @_wiocommsprev,#1     ; |201| 
         000000f6 0001 
     574 000000f7 56CF          BF        L17,UNC               ; |202| 
         000000f8 0005 
     575                      ; branch occurs ; |202| 
     576 000000f9       L16:    
     577 000000f9 761F-         MOVW      DP,#_wiocommsprev
         000000fa 0000 
TMS320C2000 COFF Assembler PC v4.1.3 Thu Aug 18 12:16:11 2016

Tools Copyright (c) 1996-2006 Texas Instruments Incorporated
digout.asm                                                           PAGE   13

     578 000000fb 2B37-         MOV       @_wiocommsprev,#0     ; |203| 
     579 000000fc       L17:    
     580 000000fc 761F!         MOVW      DP,#_waterinoil+11
         000000fd 0000 
     581 000000fe 460B!         TBIT      @_waterinoil+11,#6    ; |202| 
     582 000000ff EF0D          BF        L19,NTC               ; |202| 
     583                      ; branchcc occurs ; |202| 
     584 00000100 9B00          MOVB      AH,#0
     585 00000101 761F-         MOVW      DP,#_wioanaloglowprev
         00000102 0000 
     586 00000103 9238-         MOV       AL,@_wioanaloglowprev ; |208| 
     587 00000104 ED02          BF        L18,NEQ               ; |208| 
     588                      ; branchcc occurs ; |208| 
     589 00000105 BE01          MOVB      XAR6,#1               ; |208| 
     590 00000106       L18:    
     591 00000106 761F-         MOVW      DP,#_wioanaloglowprev
         00000107 0000 
     592 00000108 2838-         MOV       @_wioanaloglowprev,#1 ; |208| 
         00000109 0001 
     593 0000010a 56CF          BF        L20,UNC               ; |209| 
         0000010b 0005 
     594                      ; branch occurs ; |209| 
     595 0000010c       L19:    
     596 0000010c 761F-         MOVW      DP,#_wioanaloglowprev
         0000010d 0000 
     597 0000010e 2B38-         MOV       @_wioanaloglowprev,#0 ; |210| 
     598 0000010f       L20:    
     599 0000010f 761F!         MOVW      DP,#_waterinoil+11
         00000110 0000 
     600 00000111 470B!         TBIT      @_waterinoil+11,#7    ; |209| 
     601 00000112 EF0D          BF        L22,NTC               ; |209| 
     602                      ; branchcc occurs ; |209| 
     603 00000113 9B00          MOVB      AH,#0
     604 00000114 761F-         MOVW      DP,#_wioanaloghighprev
         00000115 0000 
     605 00000116 9239-         MOV       AL,@_wioanaloghighprev ; |214| 
     606 00000117 ED02          BF        L21,NEQ               ; |214| 
     607                      ; branchcc occurs ; |214| 
     608 00000118 BE01          MOVB      XAR6,#1               ; |214| 
     609 00000119       L21:    
     610 00000119 761F-         MOVW      DP,#_wioanaloghighprev
         0000011a 0000 
     611 0000011b 2839-         MOV       @_wioanaloghighprev,#1 ; |214| 
         0000011c 0001 
     612 0000011d 56CF          BF        L23,UNC               ; |215| 
         0000011e 0005 
     613                      ; branch occurs ; |215| 
     614 0000011f       L22:    
     615 0000011f 761F-         MOVW      DP,#_wioanaloghighprev
         00000120 0000 
     616 00000121 2B39-         MOV       @_wioanaloghighprev,#0 ; |216| 
     617 00000122       L23:    
     618 00000122 761F!         MOVW      DP,#_slem+1
         00000123 0000 
     619 00000124 4001!         TBIT      @_slem+1,#0           ; |215| 
TMS320C2000 COFF Assembler PC v4.1.3 Thu Aug 18 12:16:11 2016

Tools Copyright (c) 1996-2006 Texas Instruments Incorporated
digout.asm                                                           PAGE   14

     620 00000125 EF0D          BF        L25,NTC               ; |215| 
     621                      ; branchcc occurs ; |215| 
     622 00000126 9B00          MOVB      AH,#0
     623 00000127 761F-         MOVW      DP,#_slemoorprev
         00000128 0000 
     624 00000129 923B-         MOV       AL,@_slemoorprev      ; |223| 
     625 0000012a ED02          BF        L24,NEQ               ; |223| 
     626                      ; branchcc occurs ; |223| 
     627 0000012b BE01          MOVB      XAR6,#1               ; |223| 
     628 0000012c       L24:    
     629 0000012c 761F-         MOVW      DP,#_slemoorprev
         0000012d 0000 
     630 0000012e 283B-         MOV       @_slemoorprev,#1      ; |223| 
         0000012f 0001 
     631 00000130 56CF          BF        L26,UNC               ; |224| 
         00000131 0005 
     632                      ; branch occurs ; |224| 
     633 00000132       L25:    
     634 00000132 761F-         MOVW      DP,#_slemoorprev
         00000133 0000 
     635 00000134 2B3B-         MOV       @_slemoorprev,#0      ; |225| 
     636 00000135       L26:    
     637 00000135 761F!         MOVW      DP,#_rtcbat+1
         00000136 0000 
     638 00000137 9201!         MOV       AL,@_rtcbat+1         ; |224| 
     639 00000138 5201          CMPB      AL,#1                 ; |224| 
     640 00000139 ED0D          BF        L28,NEQ               ; |224| 
     641                      ; branchcc occurs ; |224| 
     642 0000013a 9B00          MOVB      AH,#0
     643 0000013b 761F-         MOVW      DP,#_rtcbatprev
         0000013c 0001 
     644 0000013d 9200-         MOV       AL,@_rtcbatprev       ; |231| 
     645 0000013e ED02          BF        L27,NEQ               ; |231| 
     646                      ; branchcc occurs ; |231| 
     647 0000013f BE01          MOVB      XAR6,#1               ; |231| 
     648 00000140       L27:    
     649 00000140 761F-         MOVW      DP,#_rtcbatprev
         00000141 0001 
     650 00000142 2800-         MOV       @_rtcbatprev,#1       ; |231| 
         00000143 0001 
     651 00000144 56CF          BF        L29,UNC               ; |232| 
         00000145 0005 
     652                      ; branch occurs ; |232| 
     653 00000146       L28:    
     654 00000146 761F-         MOVW      DP,#_rtcbatprev
         00000147 0001 
     655 00000148 2B00-         MOV       @_rtcbatprev,#0       ; |233| 
     656 00000149       L29:    
     657 00000149 92A6          MOV       AL,AR6
     658 0000014a 5201          CMPB      AL,#1                 ; |232| 
     659 0000014b EC05          BF        L30,EQ                ; |232| 
     660                      ; branchcc occurs ; |232| 
     661 0000014c 5301          CMPB      AH,#1                 ; |244| 
     662 0000014d ED15          BF        L31,NEQ               ; |244| 
     663                      ; branchcc occurs ; |244| 
TMS320C2000 COFF Assembler PC v4.1.3 Thu Aug 18 12:16:11 2016

Tools Copyright (c) 1996-2006 Texas Instruments Incorporated
digout.asm                                                           PAGE   15

     664 0000014e 56CF          BF        L32,UNC               ; |244| 
         0000014f 001A 
     665                      ; branch occurs ; |244| 
     666 00000150       L30:    
     667 00000150 761F!         MOVW      DP,#_gpf
         00000151 0000 
     668 00000152 4600!         TBIT      @_gpf,#6              ; |237| 
     669 00000153 EE0F          BF        L31,TC                ; |237| 
     670                      ; branchcc occurs ; |237| 
     671 00000154 761F!         MOVW      DP,#_gpf
         00000155 0000 
     672 00000156 1A00!         OR        @_gpf,#0x0040         ; |240| 
         00000157 0040 
     673 00000158 761F!         MOVW      DP,#_allsensors+6
         00000159 0000 
     674 0000015a 2D06!         MOV       T,@_allsensors+6      ; |241| 
     675 0000015b 35C8          MPYB      ACC,T,#200            ; |241| 
     676 0000015c 761F!         MOVW      DP,#_timers+58
         0000015d 0000 
     677 0000015e 963A!         MOV       @_timers+58,AL        ; |241| 
     678 0000015f 7700          NOP
     679 00000160 56CF          BF        L33,UNC               ; |241| 
         00000161 000C 
     680                      ; branch occurs ; |241| 
     681 00000162       L31:    
     682 00000162 761F!         MOVW      DP,#_gpf
         00000163 0000 
     683 00000164 1800!         AND       @_gpf,#0xffbf         ; |237| 
         00000165 FFBF 
     684 00000166 56CF          BF        L33,UNC               ; |237| 
         00000167 0006 
     685                      ; branch occurs ; |237| 
     686 00000168       L32:    
     687 00000168 761F!         MOVW      DP,#_gpf
         00000169 0000 
     688 0000016a 1A00!         OR        @_gpf,#0x0040         ; |248| 
         0000016b 0040 
     689              L33:    
     690                      .dwpsn  "digout.c",250,1
     691 0000016c 0006          LRETR
     692                      ; return occurs
     693                      .dwattr DW$53, DW_AT_end_file("digout.c")
     694                      .dwattr DW$53, DW_AT_end_line(0xfa)
     695                      .dwattr DW$53, DW_AT_end_column(0x01)
     696                      .dwendtag DW$53
     697              
     698 0000016d               .sect   ".text"
     699                      .global _AlarmLevelOP
     700              
     701              DW$54   .dwtag  DW_TAG_subprogram, DW_AT_name("AlarmLevelOP"), DW_AT_symbol_name("_AlarmLevelOP")
     702                      .dwattr DW$54, DW_AT_low_pc(_AlarmLevelOP)
     703                      .dwattr DW$54, DW_AT_high_pc(0x00)
     704                      .dwattr DW$54, DW_AT_begin_file("digout.c")
     705                      .dwattr DW$54, DW_AT_begin_line(0x100)
     706                      .dwattr DW$54, DW_AT_begin_column(0x06)
TMS320C2000 COFF Assembler PC v4.1.3 Thu Aug 18 12:16:11 2016

Tools Copyright (c) 1996-2006 Texas Instruments Incorporated
digout.asm                                                           PAGE   16

     707                      .dwattr DW$54, DW_AT_frame_base[DW_OP_breg20 -8]
     708                      .dwattr DW$54, DW_AT_skeletal(0x01)
     709                      .dwpsn  "digout.c",257,1
     710              
     711              ;***************************************************************
     712              ;* FNAME: _AlarmLevelOP                 FR SIZE:   6           *
     713              ;*                                                             *
     714              ;* FUNCTION ENVIRONMENT                                        *
     715              ;*                                                             *
     716              ;* FUNCTION PROPERTIES                                         *
     717              ;*                            0 Parameter,  0 Auto,  6 SOE     *
     718              ;***************************************************************
     719              
     720 0000016d       _AlarmLevelOP:
     721 0000016d B2BD          MOVL      *SP++,XAR1
     722 0000016e 761F-         MOVW      DP,#_digout
         0000016f 0000 
     723 00000170 AABD          MOVL      *SP++,XAR2
     724 00000171 A2BD          MOVL      *SP++,XAR3
     725 00000172 9200-         MOV       AL,@_digout           ; |264| 
     726 00000173 5201          CMPB      AL,#1                 ; |264| 
     727 00000174 56C1          BF        L68,EQ                ; |264| 
         00000175 00EF 
     728                      ; branchcc occurs ; |264| 
     729 00000176 761F!         MOVW      DP,#_config+1
         00000177 0000 
     730 00000178 4101!         TBIT      @_config+1,#1         ; |267| 
     731 00000179 56CC          BF        L67,NTC               ; |267| 
         0000017a 00E6 
     732                      ; branchcc occurs ; |267| 
     733 0000017b 761F!         MOVW      DP,#_settings+29
         0000017c 0000 
     734 0000017d 921D!         MOV       AL,@_settings+29      ; |270| 
     735 0000017e 5201          CMPB      AL,#1                 ; |270| 
     736 0000017f 56C1          BF        L66,EQ                ; |270| 
         00000180 00DA 
     737                      ; branchcc occurs ; |270| 
     738 00000181 761F!         MOVW      DP,#_timers+50
         00000182 0000 
     739 00000183 9232!         MOV       AL,@_timers+50        ; |276| 
     740 00000184 56C0          BF        L68,NEQ               ; |276| 
         00000185 00DF 
     741                      ; branchcc occurs ; |276| 
     742 00000186 761F!         MOVW      DP,#_allsensors
         00000187 0000 
     743 00000188 D300          MOVB      XAR3,#0
     744 00000189 D201          MOVB      XAR2,#1               ; |278| 
     745 0000018a D100          MOVB      XAR1,#0
     746 0000018b 9200!         MOV       AL,@_allsensors       ; |280| 
     747 0000018c EC51          BF        L50,EQ                ; |280| 
     748                      ; branchcc occurs ; |280| 
     749              L34:    
     750              DW$L$_AlarmLevelOP$6$B:
     751                      .dwpsn  "digout.c",281,0
     752 0000018d 92A1          MOV       AL,AR1                ; |282| 
TMS320C2000 COFF Assembler PC v4.1.3 Thu Aug 18 12:16:11 2016

Tools Copyright (c) 1996-2006 Texas Instruments Incorporated
digout.asm                                                           PAGE   17

     753 0000018e 7640!         LCR       #_GetStatus2Flags     ; |282| 
         0000018f 0000 
     754                      ; call occurs [#_GetStatus2Flags] ; |282| 
     755 00000190 92C4          MOV       AL,*+XAR4[0]          ; |282| 
     756 00000191 CDA9          AND       AH,AL,#0x0020         ; |285| 
         00000192 0020 
     757 00000193 EC0B          BF        L36,EQ                ; |285| 
     758                      ; branchcc occurs ; |285| 
     759 00000194       DW$L$_AlarmLevelOP$6$E:
     760 00000194       DW$L$_AlarmLevelOP$7$B:
     761 00000194 8F00-         MOVL      XAR4,#_statusprevious ; |288| 
         00000195 0007 
     762 00000196 D200          MOVB      XAR2,#0
     763 00000197 459C          TBIT      *+XAR4[AR1],#5        ; |288| 
     764 00000198 EE02          BF        L35,TC                ; |288| 
     765                      ; branchcc occurs ; |288| 
     766 00000199       DW$L$_AlarmLevelOP$7$E:
     767 00000199       DW$L$_AlarmLevelOP$8$B:
     768 00000199 D301          MOVB      XAR3,#1               ; |288| 
     769 0000019a       DW$L$_AlarmLevelOP$8$E:
     770 0000019a       L35:    
     771 0000019a       DW$L$_AlarmLevelOP$9$B:
     772 0000019a 1A9C          OR        *+XAR4[AR1],#0x0020   ; |288| 
         0000019b 0020 
     773 0000019c 56CF          BF        L37,UNC               ; |289| 
         0000019d 0006 
     774                      ; branch occurs ; |289| 
     775 0000019e       DW$L$_AlarmLevelOP$9$E:
     776 0000019e       L36:    
     777 0000019e       DW$L$_AlarmLevelOP$10$B:
     778 0000019e 8F00-         MOVL      XAR4,#_statusprevious ; |290| 
         0000019f 0007 
     779 000001a0 189C          AND       *+XAR4[AR1],#0xffdf   ; |290| 
         000001a1 FFDF 
     780 000001a2       DW$L$_AlarmLevelOP$10$E:
     781 000001a2       L37:    
     782 000001a2       DW$L$_AlarmLevelOP$11$B:
     783 000001a2 CDA9          AND       AH,AL,#0x0080         ; |289| 
         000001a3 0080 
     784 000001a4 EC09          BF        L39,EQ                ; |289| 
     785                      ; branchcc occurs ; |289| 
     786 000001a5       DW$L$_AlarmLevelOP$11$E:
     787 000001a5       DW$L$_AlarmLevelOP$12$B:
     788 000001a5 479C          TBIT      *+XAR4[AR1],#7        ; |294| 
     789 000001a6 D200          MOVB      XAR2,#0
     790 000001a7 EE02          BF        L38,TC                ; |294| 
     791                      ; branchcc occurs ; |294| 
     792 000001a8       DW$L$_AlarmLevelOP$12$E:
     793 000001a8       DW$L$_AlarmLevelOP$13$B:
     794 000001a8 D301          MOVB      XAR3,#1               ; |294| 
     795 000001a9       DW$L$_AlarmLevelOP$13$E:
     796 000001a9       L38:    
     797 000001a9       DW$L$_AlarmLevelOP$14$B:
     798 000001a9 1A9C          OR        *+XAR4[AR1],#0x0080   ; |294| 
         000001aa 0080 
TMS320C2000 COFF Assembler PC v4.1.3 Thu Aug 18 12:16:11 2016

Tools Copyright (c) 1996-2006 Texas Instruments Incorporated
digout.asm                                                           PAGE   18

     799 000001ab 56CF          BF        L40,UNC               ; |295| 
         000001ac 0004 
     800                      ; branch occurs ; |295| 
     801 000001ad       DW$L$_AlarmLevelOP$14$E:
     802 000001ad       L39:    
     803 000001ad       DW$L$_AlarmLevelOP$15$B:
     804 000001ad 189C          AND       *+XAR4[AR1],#0xff7f   ; |296| 
         000001ae FF7F 
     805 000001af       DW$L$_AlarmLevelOP$15$E:
     806 000001af       L40:    
     807 000001af       DW$L$_AlarmLevelOP$16$B:
     808 000001af CDA9          AND       AH,AL,#0x0002         ; |295| 
         000001b0 0002 
     809 000001b1 EC09          BF        L42,EQ                ; |295| 
     810                      ; branchcc occurs ; |295| 
     811 000001b2       DW$L$_AlarmLevelOP$16$E:
     812 000001b2       DW$L$_AlarmLevelOP$17$B:
     813 000001b2 419C          TBIT      *+XAR4[AR1],#1        ; |300| 
     814 000001b3 D200          MOVB      XAR2,#0
     815 000001b4 EE02          BF        L41,TC                ; |300| 
     816                      ; branchcc occurs ; |300| 
     817 000001b5       DW$L$_AlarmLevelOP$17$E:
     818 000001b5       DW$L$_AlarmLevelOP$18$B:
     819 000001b5 D301          MOVB      XAR3,#1               ; |300| 
     820 000001b6       DW$L$_AlarmLevelOP$18$E:
     821 000001b6       L41:    
     822 000001b6       DW$L$_AlarmLevelOP$19$B:
     823 000001b6 1A9C          OR        *+XAR4[AR1],#0x0002   ; |300| 
         000001b7 0002 
     824 000001b8 56CF          BF        L43,UNC               ; |301| 
         000001b9 0004 
     825                      ; branch occurs ; |301| 
     826 000001ba       DW$L$_AlarmLevelOP$19$E:
     827 000001ba       L42:    
     828 000001ba       DW$L$_AlarmLevelOP$20$B:
     829 000001ba 189C          AND       *+XAR4[AR1],#0xfffd   ; |302| 
         000001bb FFFD 
     830 000001bc       DW$L$_AlarmLevelOP$20$E:
     831 000001bc       L43:    
     832 000001bc       DW$L$_AlarmLevelOP$21$B:
     833 000001bc CDA9          AND       AH,AL,#0x0800         ; |301| 
         000001bd 0800 
     834 000001be EC09          BF        L45,EQ                ; |301| 
     835                      ; branchcc occurs ; |301| 
     836 000001bf       DW$L$_AlarmLevelOP$21$E:
     837 000001bf       DW$L$_AlarmLevelOP$22$B:
     838 000001bf 4B9C          TBIT      *+XAR4[AR1],#11       ; |306| 
     839 000001c0 D200          MOVB      XAR2,#0
     840 000001c1 EE02          BF        L44,TC                ; |306| 
     841                      ; branchcc occurs ; |306| 
     842 000001c2       DW$L$_AlarmLevelOP$22$E:
     843 000001c2       DW$L$_AlarmLevelOP$23$B:
     844 000001c2 D301          MOVB      XAR3,#1               ; |306| 
     845 000001c3       DW$L$_AlarmLevelOP$23$E:
     846 000001c3       L44:    
TMS320C2000 COFF Assembler PC v4.1.3 Thu Aug 18 12:16:11 2016

Tools Copyright (c) 1996-2006 Texas Instruments Incorporated
digout.asm                                                           PAGE   19

     847 000001c3       DW$L$_AlarmLevelOP$24$B:
     848 000001c3 1A9C          OR        *+XAR4[AR1],#0x0800   ; |306| 
         000001c4 0800 
     849 000001c5 56CF          BF        L46,UNC               ; |307| 
         000001c6 0004 
     850                      ; branch occurs ; |307| 
     851 000001c7       DW$L$_AlarmLevelOP$24$E:
     852 000001c7       L45:    
     853 000001c7       DW$L$_AlarmLevelOP$25$B:
     854 000001c7 189C          AND       *+XAR4[AR1],#0xf7ff   ; |308| 
         000001c8 F7FF 
     855 000001c9       DW$L$_AlarmLevelOP$25$E:
     856 000001c9       L46:    
     857 000001c9       DW$L$_AlarmLevelOP$26$B:
     858 000001c9 CCA9          AND       AL,AL,#0x2000         ; |307| 
         000001ca 2000 
     859 000001cb EC09          BF        L48,EQ                ; |307| 
     860                      ; branchcc occurs ; |307| 
     861 000001cc       DW$L$_AlarmLevelOP$26$E:
     862 000001cc       DW$L$_AlarmLevelOP$27$B:
     863 000001cc 4D9C          TBIT      *+XAR4[AR1],#13       ; |312| 
     864 000001cd D200          MOVB      XAR2,#0
     865 000001ce EE02          BF        L47,TC                ; |312| 
     866                      ; branchcc occurs ; |312| 
     867 000001cf       DW$L$_AlarmLevelOP$27$E:
     868 000001cf       DW$L$_AlarmLevelOP$28$B:
     869 000001cf D301          MOVB      XAR3,#1               ; |312| 
     870 000001d0       DW$L$_AlarmLevelOP$28$E:
     871 000001d0       L47:    
     872 000001d0       DW$L$_AlarmLevelOP$29$B:
     873 000001d0 1A9C          OR        *+XAR4[AR1],#0x2000   ; |312| 
         000001d1 2000 
     874 000001d2 56CF          BF        L49,UNC               ; |313| 
         000001d3 0004 
     875                      ; branch occurs ; |313| 
     876 000001d4       DW$L$_AlarmLevelOP$29$E:
     877 000001d4       L48:    
     878 000001d4       DW$L$_AlarmLevelOP$30$B:
     879 000001d4 189C          AND       *+XAR4[AR1],#0xdfff   ; |314| 
         000001d5 DFFF 
     880 000001d6       DW$L$_AlarmLevelOP$30$E:
     881 000001d6       L49:    
     882 000001d6       DW$L$_AlarmLevelOP$31$B:
     883 000001d6 D901          ADDB      XAR1,#1               ; |280| 
     884 000001d7 761F!         MOVW      DP,#_allsensors
         000001d8 0000 
     885 000001d9 92A1          MOV       AL,AR1                ; |280| 
     886 000001da 5400!         CMP       AL,@_allsensors       ; |280| 
     887                      .dwpsn  "digout.c",315,0
     888 000001db 56C8          BF        L34,LO                ; |280| 
         000001dc FFB2 
     889                      ; branchcc occurs ; |280| 
     890 000001dd       DW$L$_AlarmLevelOP$31$E:
     891 000001dd       L50:    
     892 000001dd 761F!         MOVW      DP,#_allsensors
TMS320C2000 COFF Assembler PC v4.1.3 Thu Aug 18 12:16:11 2016

Tools Copyright (c) 1996-2006 Texas Instruments Incorporated
digout.asm                                                           PAGE   20

         000001de 0000 
     893 000001df D100          MOVB      XAR1,#0
     894 000001e0 CC00!         AND       AL,@_allsensors,#0xfffe ; |316| 
         000001e1 FFFE 
     895 000001e2 EC1E          BF        L55,EQ                ; |316| 
     896                      ; branchcc occurs ; |316| 
     897              L51:    
     898              DW$L$_AlarmLevelOP$33$B:
     899                      .dwpsn  "digout.c",317,0
     900 000001e3 0EA1          MOVU      ACC,AR1
     901 000001e4 8F00!         MOVL      XAR4,#_cylinders+1    ; |318| 
         000001e5 0001 
     902 000001e6 FF31          LSL       ACC,2                 ; |318| 
     903 000001e7 5601          ADDL      XAR4,ACC
         000001e8 00A4 
     904 000001e9 41C4          TBIT      *+XAR4[0],#1          ; |318| 
     905 000001ea EF0B          BF        L53,NTC               ; |318| 
     906                      ; branchcc occurs ; |318| 
     907 000001eb       DW$L$_AlarmLevelOP$33$E:
     908 000001eb       DW$L$_AlarmLevelOP$34$B:
     909 000001eb 8F00-         MOVL      XAR4,#_cylinderalarm  ; |321| 
         000001ec 0023 
     910 000001ed D200          MOVB      XAR2,#0
     911 000001ee 929C          MOV       AL,*+XAR4[AR1]        ; |321| 
     912 000001ef ED02          BF        L52,NEQ               ; |321| 
     913                      ; branchcc occurs ; |321| 
     914 000001f0       DW$L$_AlarmLevelOP$34$E:
     915 000001f0       DW$L$_AlarmLevelOP$35$B:
     916 000001f0 D301          MOVB      XAR3,#1               ; |321| 
     917 000001f1       DW$L$_AlarmLevelOP$35$E:
     918 000001f1       L52:    
     919 000001f1       DW$L$_AlarmLevelOP$36$B:
     920 000001f1 289C          MOV       *+XAR4[AR1],#1        ; |321| 
         000001f2 0001 
     921 000001f3 56CF          BF        L54,UNC               ; |322| 
         000001f4 0005 
     922                      ; branch occurs ; |322| 
     923 000001f5       DW$L$_AlarmLevelOP$36$E:
     924 000001f5       L53:    
     925 000001f5       DW$L$_AlarmLevelOP$37$B:
     926 000001f5 8F00-         MOVL      XAR4,#_cylinderalarm  ; |323| 
         000001f6 0023 
     927 000001f7 2B9C          MOV       *+XAR4[AR1],#0        ; |323| 
     928 000001f8       DW$L$_AlarmLevelOP$37$E:
     929 000001f8       L54:    
     930 000001f8       DW$L$_AlarmLevelOP$38$B:
     931 000001f8 761F!         MOVW      DP,#_allsensors
         000001f9 0000 
     932 000001fa D901          ADDB      XAR1,#1               ; |316| 
     933 000001fb 9200!         MOV       AL,@_allsensors       ; |316| 
     934 000001fc FFC0          LSR       AL,1                  ; |316| 
     935 000001fd 54A1          CMP       AL,AR1                ; |316| 
     936                      .dwpsn  "digout.c",324,0
     937 000001fe 56C6          BF        L51,HI                ; |316| 
         000001ff FFE5 
TMS320C2000 COFF Assembler PC v4.1.3 Thu Aug 18 12:16:11 2016

Tools Copyright (c) 1996-2006 Texas Instruments Incorporated
digout.asm                                                           PAGE   21

     938                      ; branchcc occurs ; |316| 
     939 00000200       DW$L$_AlarmLevelOP$38$E:
     940 00000200       L55:    
     941 00000200 7640!         LCR       #_WIOEnabled          ; |325| 
         00000201 0000 
     942                      ; call occurs [#_WIOEnabled] ; |325| 
     943 00000202 5200          CMPB      AL,#0                 ; |325| 
     944 00000203 EC2A          BF        L61,EQ                ; |325| 
     945                      ; branchcc occurs ; |325| 
     946 00000204 7640!         LCR       #_WioStructPtr        ; |327| 
         00000205 0000 
     947                      ; call occurs [#_WioStructPtr] ; |327| 
     948 00000206 D00B          MOVB      XAR0,#11              ; |328| 
     949 00000207 9294          MOV       AL,*+XAR4[AR0]        ; |328| 
     950 00000208 CDA9          AND       AH,AL,#0x0008         ; |328| 
         00000209 0008 
     951 0000020a ED08          BF        L56,NEQ               ; |328| 
     952                      ; branchcc occurs ; |328| 
     953 0000020b 761F-         MOVW      DP,#_wioalarmprev
         0000020c 0000 
     954 0000020d 9002          ANDB      AL,#2                 ; |333| 
     955 0000020e 2B31-         MOV       @_wioalarmprev,#0     ; |333| 
     956 0000020f ED0F          BF        L58,NEQ               ; |333| 
     957                      ; branchcc occurs ; |333| 
     958 00000210 56CF          BF        L60,UNC               ; |333| 
         00000211 001A 
     959                      ; branch occurs ; |333| 
     960 00000212       L56:    
     961 00000212 761F-         MOVW      DP,#_wioalarmprev
         00000213 0000 
     962 00000214 D200          MOVB      XAR2,#0
     963 00000215 9231-         MOV       AL,@_wioalarmprev     ; |331| 
     964 00000216 ED02          BF        L57,NEQ               ; |331| 
     965                      ; branchcc occurs ; |331| 
     966 00000217 D301          MOVB      XAR3,#1               ; |331| 
     967 00000218       L57:    
     968 00000218 761F-         MOVW      DP,#_wioalarmprev
         00000219 0000 
     969 0000021a 2831-         MOV       @_wioalarmprev,#1     ; |331| 
         0000021b 0001 
     970 0000021c 4194          TBIT      *+XAR4[AR0],#1        ; |332| 
     971 0000021d EF0D          BF        L60,NTC               ; |332| 
     972                      ; branchcc occurs ; |332| 
     973 0000021e       L58:    
     974 0000021e 761F-         MOVW      DP,#_wioalarmupperprev
         0000021f 0000 
     975 00000220 D200          MOVB      XAR2,#0
     976 00000221 9232-         MOV       AL,@_wioalarmupperprev ; |337| 
     977 00000222 ED02          BF        L59,NEQ               ; |337| 
     978                      ; branchcc occurs ; |337| 
     979 00000223 D301          MOVB      XAR3,#1               ; |337| 
     980 00000224       L59:    
     981 00000224 761F-         MOVW      DP,#_wioalarmupperprev
         00000225 0000 
     982 00000226 2832-         MOV       @_wioalarmupperprev,#1 ; |337| 
TMS320C2000 COFF Assembler PC v4.1.3 Thu Aug 18 12:16:11 2016

Tools Copyright (c) 1996-2006 Texas Instruments Incorporated
digout.asm                                                           PAGE   22

         00000227 0001 
     983 00000228 56CF          BF        L61,UNC               ; |338| 
         00000229 0005 
     984                      ; branch occurs ; |338| 
     985 0000022a       L60:    
     986 0000022a 761F-         MOVW      DP,#_wioalarmupperprev
         0000022b 0000 
     987 0000022c 2B32-         MOV       @_wioalarmupperprev,#0 ; |339| 
     988 0000022d       L61:    
     989 0000022d 761F!         MOVW      DP,#_slem+1
         0000022e 0000 
     990 0000022f 4101!         TBIT      @_slem+1,#1           ; |342| 
     991 00000230 EF0D          BF        L63,NTC               ; |342| 
     992                      ; branchcc occurs ; |342| 
     993 00000231 761F-         MOVW      DP,#_slemprev
         00000232 0000 
     994 00000233 D200          MOVB      XAR2,#0
     995 00000234 923A-         MOV       AL,@_slemprev         ; |345| 
     996 00000235 ED02          BF        L62,NEQ               ; |345| 
     997                      ; branchcc occurs ; |345| 
     998 00000236 D301          MOVB      XAR3,#1               ; |345| 
     999 00000237       L62:    
    1000 00000237 761F-         MOVW      DP,#_slemprev
         00000238 0000 
    1001 00000239 283A-         MOV       @_slemprev,#1         ; |345| 
         0000023a 0001 
    1002 0000023b 56CF          BF        L64,UNC               ; |346| 
         0000023c 0005 
    1003                      ; branch occurs ; |346| 
    1004 0000023d       L63:    
    1005 0000023d 761F-         MOVW      DP,#_slemprev
         0000023e 0000 
    1006 0000023f 2B3A-         MOV       @_slemprev,#0         ; |347| 
    1007 00000240       L64:    
    1008 00000240 92A3          MOV       AL,AR3
    1009 00000241 5201          CMPB      AL,#1                 ; |346| 
    1010 00000242 EC06          BF        L65,EQ                ; |346| 
    1011                      ; branchcc occurs ; |346| 
    1012 00000243 92A2          MOV       AL,AR2
    1013 00000244 5201          CMPB      AL,#1                 ; |362| 
    1014 00000245 ED14          BF        L66,NEQ               ; |362| 
    1015                      ; branchcc occurs ; |362| 
    1016 00000246 56CF          BF        L67,UNC               ; |362| 
         00000247 0019 
    1017                      ; branch occurs ; |362| 
    1018 00000248       L65:    
    1019 00000248 761F!         MOVW      DP,#_gpf
         00000249 0000 
    1020 0000024a 4700!         TBIT      @_gpf,#7              ; |352| 
    1021 0000024b EE0E          BF        L66,TC                ; |352| 
    1022                      ; branchcc occurs ; |352| 
    1023 0000024c 761F!         MOVW      DP,#_gpf
         0000024d 0000 
    1024 0000024e 1A00!         OR        @_gpf,#0x0080         ; |358| 
         0000024f 0080 
TMS320C2000 COFF Assembler PC v4.1.3 Thu Aug 18 12:16:11 2016

Tools Copyright (c) 1996-2006 Texas Instruments Incorporated
digout.asm                                                           PAGE   23

    1025 00000250 761F!         MOVW      DP,#_allsensors+6
         00000251 0000 
    1026 00000252 2D06!         MOV       T,@_allsensors+6      ; |359| 
    1027 00000253 35C8          MPYB      ACC,T,#200            ; |359| 
    1028 00000254 761F!         MOVW      DP,#_timers+50
         00000255 0000 
    1029 00000256 9632!         MOV       @_timers+50,AL        ; |359| 
    1030 00000257 56CF          BF        L68,UNC               ; |359| 
         00000258 000C 
    1031                      ; branch occurs ; |359| 
    1032 00000259       L66:    
    1033 00000259 761F!         MOVW      DP,#_gpf
         0000025a 0000 
    1034 0000025b 1800!         AND       @_gpf,#0xff7f         ; |272| 
         0000025c FF7F 
    1035 0000025d 56CF          BF        L68,UNC               ; |273| 
         0000025e 0006 
    1036                      ; branch occurs ; |273| 
    1037 0000025f       L67:    
    1038 0000025f 761F!         MOVW      DP,#_gpf
         00000260 0000 
    1039 00000261 1A00!         OR        @_gpf,#0x0080         ; |367| 
         00000262 0080 
    1040 00000263       L68:    
    1041 00000263 82BE          MOVL      XAR3,*--SP
    1042 00000264 86BE          MOVL      XAR2,*--SP
    1043 00000265 8BBE          MOVL      XAR1,*--SP
    1044                      .dwpsn  "digout.c",369,1
    1045 00000266 0006          LRETR
    1046                      ; return occurs
    1047              
    1048              DW$55   .dwtag  DW_TAG_loop
    1049                      .dwattr DW$55, DW_AT_name("D:\DEV\Amot\BearingWear\XTSW_V6_20\digout.asm:L51:1:1471518971")
    1050                      .dwattr DW$55, DW_AT_begin_file("digout.c")
    1051                      .dwattr DW$55, DW_AT_begin_line(0x13c)
    1052                      .dwattr DW$55, DW_AT_end_line(0x144)
    1053              DW$56   .dwtag  DW_TAG_loop_range
    1054                      .dwattr DW$56, DW_AT_low_pc(DW$L$_AlarmLevelOP$33$B)
    1055                      .dwattr DW$56, DW_AT_high_pc(DW$L$_AlarmLevelOP$33$E)
    1056              DW$57   .dwtag  DW_TAG_loop_range
    1057                      .dwattr DW$57, DW_AT_low_pc(DW$L$_AlarmLevelOP$34$B)
    1058                      .dwattr DW$57, DW_AT_high_pc(DW$L$_AlarmLevelOP$34$E)
    1059              DW$58   .dwtag  DW_TAG_loop_range
    1060                      .dwattr DW$58, DW_AT_low_pc(DW$L$_AlarmLevelOP$35$B)
    1061                      .dwattr DW$58, DW_AT_high_pc(DW$L$_AlarmLevelOP$35$E)
    1062              DW$59   .dwtag  DW_TAG_loop_range
    1063                      .dwattr DW$59, DW_AT_low_pc(DW$L$_AlarmLevelOP$36$B)
    1064                      .dwattr DW$59, DW_AT_high_pc(DW$L$_AlarmLevelOP$36$E)
    1065              DW$60   .dwtag  DW_TAG_loop_range
    1066                      .dwattr DW$60, DW_AT_low_pc(DW$L$_AlarmLevelOP$37$B)
    1067                      .dwattr DW$60, DW_AT_high_pc(DW$L$_AlarmLevelOP$37$E)
    1068              DW$61   .dwtag  DW_TAG_loop_range
    1069                      .dwattr DW$61, DW_AT_low_pc(DW$L$_AlarmLevelOP$38$B)
    1070                      .dwattr DW$61, DW_AT_high_pc(DW$L$_AlarmLevelOP$38$E)
    1071                      .dwendtag DW$55
TMS320C2000 COFF Assembler PC v4.1.3 Thu Aug 18 12:16:11 2016

Tools Copyright (c) 1996-2006 Texas Instruments Incorporated
digout.asm                                                           PAGE   24

    1072              
    1073              
    1074              DW$62   .dwtag  DW_TAG_loop
    1075                      .dwattr DW$62, DW_AT_name("D:\DEV\Amot\BearingWear\XTSW_V6_20\digout.asm:L34:1:1471518971")
    1076                      .dwattr DW$62, DW_AT_begin_file("digout.c")
    1077                      .dwattr DW$62, DW_AT_begin_line(0x118)
    1078                      .dwattr DW$62, DW_AT_end_line(0x13b)
    1079              DW$63   .dwtag  DW_TAG_loop_range
    1080                      .dwattr DW$63, DW_AT_low_pc(DW$L$_AlarmLevelOP$6$B)
    1081                      .dwattr DW$63, DW_AT_high_pc(DW$L$_AlarmLevelOP$6$E)
    1082              DW$64   .dwtag  DW_TAG_loop_range
    1083                      .dwattr DW$64, DW_AT_low_pc(DW$L$_AlarmLevelOP$7$B)
    1084                      .dwattr DW$64, DW_AT_high_pc(DW$L$_AlarmLevelOP$7$E)
    1085              DW$65   .dwtag  DW_TAG_loop_range
    1086                      .dwattr DW$65, DW_AT_low_pc(DW$L$_AlarmLevelOP$8$B)
    1087                      .dwattr DW$65, DW_AT_high_pc(DW$L$_AlarmLevelOP$8$E)
    1088              DW$66   .dwtag  DW_TAG_loop_range
    1089                      .dwattr DW$66, DW_AT_low_pc(DW$L$_AlarmLevelOP$9$B)
    1090                      .dwattr DW$66, DW_AT_high_pc(DW$L$_AlarmLevelOP$9$E)
    1091              DW$67   .dwtag  DW_TAG_loop_range
    1092                      .dwattr DW$67, DW_AT_low_pc(DW$L$_AlarmLevelOP$10$B)
    1093                      .dwattr DW$67, DW_AT_high_pc(DW$L$_AlarmLevelOP$10$E)
    1094              DW$68   .dwtag  DW_TAG_loop_range
    1095                      .dwattr DW$68, DW_AT_low_pc(DW$L$_AlarmLevelOP$11$B)
    1096                      .dwattr DW$68, DW_AT_high_pc(DW$L$_AlarmLevelOP$11$E)
    1097              DW$69   .dwtag  DW_TAG_loop_range
    1098                      .dwattr DW$69, DW_AT_low_pc(DW$L$_AlarmLevelOP$12$B)
    1099                      .dwattr DW$69, DW_AT_high_pc(DW$L$_AlarmLevelOP$12$E)
    1100              DW$70   .dwtag  DW_TAG_loop_range
    1101                      .dwattr DW$70, DW_AT_low_pc(DW$L$_AlarmLevelOP$13$B)
    1102                      .dwattr DW$70, DW_AT_high_pc(DW$L$_AlarmLevelOP$13$E)
    1103              DW$71   .dwtag  DW_TAG_loop_range
    1104                      .dwattr DW$71, DW_AT_low_pc(DW$L$_AlarmLevelOP$14$B)
    1105                      .dwattr DW$71, DW_AT_high_pc(DW$L$_AlarmLevelOP$14$E)
    1106              DW$72   .dwtag  DW_TAG_loop_range
    1107                      .dwattr DW$72, DW_AT_low_pc(DW$L$_AlarmLevelOP$15$B)
    1108                      .dwattr DW$72, DW_AT_high_pc(DW$L$_AlarmLevelOP$15$E)
    1109              DW$73   .dwtag  DW_TAG_loop_range
    1110                      .dwattr DW$73, DW_AT_low_pc(DW$L$_AlarmLevelOP$16$B)
    1111                      .dwattr DW$73, DW_AT_high_pc(DW$L$_AlarmLevelOP$16$E)
    1112              DW$74   .dwtag  DW_TAG_loop_range
    1113                      .dwattr DW$74, DW_AT_low_pc(DW$L$_AlarmLevelOP$17$B)
    1114                      .dwattr DW$74, DW_AT_high_pc(DW$L$_AlarmLevelOP$17$E)
    1115              DW$75   .dwtag  DW_TAG_loop_range
    1116                      .dwattr DW$75, DW_AT_low_pc(DW$L$_AlarmLevelOP$18$B)
    1117                      .dwattr DW$75, DW_AT_high_pc(DW$L$_AlarmLevelOP$18$E)
    1118              DW$76   .dwtag  DW_TAG_loop_range
    1119                      .dwattr DW$76, DW_AT_low_pc(DW$L$_AlarmLevelOP$19$B)
    1120                      .dwattr DW$76, DW_AT_high_pc(DW$L$_AlarmLevelOP$19$E)
    1121              DW$77   .dwtag  DW_TAG_loop_range
    1122                      .dwattr DW$77, DW_AT_low_pc(DW$L$_AlarmLevelOP$20$B)
    1123                      .dwattr DW$77, DW_AT_high_pc(DW$L$_AlarmLevelOP$20$E)
    1124              DW$78   .dwtag  DW_TAG_loop_range
    1125                      .dwattr DW$78, DW_AT_low_pc(DW$L$_AlarmLevelOP$21$B)
    1126                      .dwattr DW$78, DW_AT_high_pc(DW$L$_AlarmLevelOP$21$E)
TMS320C2000 COFF Assembler PC v4.1.3 Thu Aug 18 12:16:11 2016

Tools Copyright (c) 1996-2006 Texas Instruments Incorporated
digout.asm                                                           PAGE   25

    1127              DW$79   .dwtag  DW_TAG_loop_range
    1128                      .dwattr DW$79, DW_AT_low_pc(DW$L$_AlarmLevelOP$22$B)
    1129                      .dwattr DW$79, DW_AT_high_pc(DW$L$_AlarmLevelOP$22$E)
    1130              DW$80   .dwtag  DW_TAG_loop_range
    1131                      .dwattr DW$80, DW_AT_low_pc(DW$L$_AlarmLevelOP$23$B)
    1132                      .dwattr DW$80, DW_AT_high_pc(DW$L$_AlarmLevelOP$23$E)
    1133              DW$81   .dwtag  DW_TAG_loop_range
    1134                      .dwattr DW$81, DW_AT_low_pc(DW$L$_AlarmLevelOP$24$B)
    1135                      .dwattr DW$81, DW_AT_high_pc(DW$L$_AlarmLevelOP$24$E)
    1136              DW$82   .dwtag  DW_TAG_loop_range
    1137                      .dwattr DW$82, DW_AT_low_pc(DW$L$_AlarmLevelOP$25$B)
    1138                      .dwattr DW$82, DW_AT_high_pc(DW$L$_AlarmLevelOP$25$E)
    1139              DW$83   .dwtag  DW_TAG_loop_range
    1140                      .dwattr DW$83, DW_AT_low_pc(DW$L$_AlarmLevelOP$26$B)
    1141                      .dwattr DW$83, DW_AT_high_pc(DW$L$_AlarmLevelOP$26$E)
    1142              DW$84   .dwtag  DW_TAG_loop_range
    1143                      .dwattr DW$84, DW_AT_low_pc(DW$L$_AlarmLevelOP$27$B)
    1144                      .dwattr DW$84, DW_AT_high_pc(DW$L$_AlarmLevelOP$27$E)
    1145              DW$85   .dwtag  DW_TAG_loop_range
    1146                      .dwattr DW$85, DW_AT_low_pc(DW$L$_AlarmLevelOP$28$B)
    1147                      .dwattr DW$85, DW_AT_high_pc(DW$L$_AlarmLevelOP$28$E)
    1148              DW$86   .dwtag  DW_TAG_loop_range
    1149                      .dwattr DW$86, DW_AT_low_pc(DW$L$_AlarmLevelOP$29$B)
    1150                      .dwattr DW$86, DW_AT_high_pc(DW$L$_AlarmLevelOP$29$E)
    1151              DW$87   .dwtag  DW_TAG_loop_range
    1152                      .dwattr DW$87, DW_AT_low_pc(DW$L$_AlarmLevelOP$30$B)
    1153                      .dwattr DW$87, DW_AT_high_pc(DW$L$_AlarmLevelOP$30$E)
    1154              DW$88   .dwtag  DW_TAG_loop_range
    1155                      .dwattr DW$88, DW_AT_low_pc(DW$L$_AlarmLevelOP$31$B)
    1156                      .dwattr DW$88, DW_AT_high_pc(DW$L$_AlarmLevelOP$31$E)
    1157                      .dwendtag DW$62
    1158              
    1159                      .dwattr DW$54, DW_AT_end_file("digout.c")
    1160                      .dwattr DW$54, DW_AT_end_line(0x171)
    1161                      .dwattr DW$54, DW_AT_end_column(0x01)
    1162                      .dwendtag DW$54
    1163              
    1164 00000267               .sect   ".text"
    1165                      .global _SlowDownLevelOP
    1166              
    1167              DW$89   .dwtag  DW_TAG_subprogram, DW_AT_name("SlowDownLevelOP"), DW_AT_symbol_name("_SlowDownLevelOP")
    1168                      .dwattr DW$89, DW_AT_low_pc(_SlowDownLevelOP)
    1169                      .dwattr DW$89, DW_AT_high_pc(0x00)
    1170                      .dwattr DW$89, DW_AT_begin_file("digout.c")
    1171                      .dwattr DW$89, DW_AT_begin_line(0x178)
    1172                      .dwattr DW$89, DW_AT_begin_column(0x06)
    1173                      .dwattr DW$89, DW_AT_frame_base[DW_OP_breg20 -10]
    1174                      .dwattr DW$89, DW_AT_skeletal(0x01)
    1175                      .dwpsn  "digout.c",377,1
    1176              
    1177              ;***************************************************************
    1178              ;* FNAME: _SlowDownLevelOP              FR SIZE:   8           *
    1179              ;*                                                             *
    1180              ;* FUNCTION ENVIRONMENT                                        *
    1181              ;*                                                             *
TMS320C2000 COFF Assembler PC v4.1.3 Thu Aug 18 12:16:11 2016

Tools Copyright (c) 1996-2006 Texas Instruments Incorporated
digout.asm                                                           PAGE   26

    1182              ;* FUNCTION PROPERTIES                                         *
    1183              ;*                            0 Parameter,  1 Auto,  6 SOE     *
    1184              ;***************************************************************
    1185              
    1186 00000267       _SlowDownLevelOP:
    1187 00000267 B2BD          MOVL      *SP++,XAR1
    1188 00000268 761F-         MOVW      DP,#_digout
         00000269 0000 
    1189 0000026a AABD          MOVL      *SP++,XAR2
    1190 0000026b A2BD          MOVL      *SP++,XAR3
    1191 0000026c 9200-         MOV       AL,@_digout           ; |383| 
    1192 0000026d 5201          CMPB      AL,#1                 ; |383| 
    1193 0000026e FE02          ADDB      SP,#2
    1194 0000026f 56C1          BF        L96,EQ                ; |383| 
         00000270 010A 
    1195                      ; branchcc occurs ; |383| 
    1196 00000271 761F!         MOVW      DP,#_config+1
         00000272 0000 
    1197 00000273 4201!         TBIT      @_config+1,#2         ; |386| 
    1198 00000274 56CC          BF        L95,NTC               ; |386| 
         00000275 0102 
    1199                      ; branchcc occurs ; |386| 
    1200 00000276 761F!         MOVW      DP,#_settings+30
         00000277 0000 
    1201 00000278 921E!         MOV       AL,@_settings+30      ; |389| 
    1202 00000279 5201          CMPB      AL,#1                 ; |389| 
    1203 0000027a 56C1          BF        L94,EQ                ; |389| 
         0000027b 00F6 
    1204                      ; branchcc occurs ; |389| 
    1205 0000027c 761F!         MOVW      DP,#_timers+51
         0000027d 0000 
    1206 0000027e 9233!         MOV       AL,@_timers+51        ; |395| 
    1207 0000027f 56C0          BF        L96,NEQ               ; |395| 
         00000280 00FA 
    1208                      ; branchcc occurs ; |395| 
    1209 00000281 761F!         MOVW      DP,#_allsensors
         00000282 0000 
    1210 00000283 2B41          MOV       *-SP[1],#0            ; |398| 
    1211 00000284 D201          MOVB      XAR2,#1               ; |397| 
    1212 00000285 D100          MOVB      XAR1,#0
    1213 00000286 9200!         MOV       AL,@_allsensors       ; |399| 
    1214 00000287 EC7E          BF        L84,EQ                ; |399| 
    1215                      ; branchcc occurs ; |399| 
    1216              L69:    
    1217              DW$L$_SlowDownLevelOP$6$B:
    1218                      .dwpsn  "digout.c",400,0
    1219 00000288 92A1          MOV       AL,AR1                ; |401| 
    1220 00000289 7640!         LCR       #_GetStatus2Flags     ; |401| 
         0000028a 0000 
    1221                      ; call occurs [#_GetStatus2Flags] ; |401| 
    1222 0000028b 92C4          MOV       AL,*+XAR4[0]          ; |401| 
    1223 0000028c CDA9          AND       AH,AL,#0x0008         ; |403| 
         0000028d 0008 
    1224 0000028e EC0C          BF        L71,EQ                ; |403| 
    1225                      ; branchcc occurs ; |403| 
TMS320C2000 COFF Assembler PC v4.1.3 Thu Aug 18 12:16:11 2016

Tools Copyright (c) 1996-2006 Texas Instruments Incorporated
digout.asm                                                           PAGE   27

    1226 0000028f       DW$L$_SlowDownLevelOP$6$E:
    1227 0000028f       DW$L$_SlowDownLevelOP$7$B:
    1228 0000028f 8F00-         MOVL      XAR4,#_statusprevious ; |406| 
         00000290 0007 
    1229 00000291 D200          MOVB      XAR2,#0
    1230 00000292 439C          TBIT      *+XAR4[AR1],#3        ; |406| 
    1231 00000293 EE03          BF        L70,TC                ; |406| 
    1232                      ; branchcc occurs ; |406| 
    1233 00000294       DW$L$_SlowDownLevelOP$7$E:
    1234 00000294       DW$L$_SlowDownLevelOP$8$B:
    1235 00000294 2841          MOV       *-SP[1],#1            ; |406| 
         00000295 0001 
    1236 00000296       DW$L$_SlowDownLevelOP$8$E:
    1237 00000296       L70:    
    1238 00000296       DW$L$_SlowDownLevelOP$9$B:
    1239 00000296 1A9C          OR        *+XAR4[AR1],#0x0008   ; |406| 
         00000297 0008 
    1240 00000298 56CF          BF        L72,UNC               ; |407| 
         00000299 0006 
    1241                      ; branch occurs ; |407| 
    1242 0000029a       DW$L$_SlowDownLevelOP$9$E:
    1243 0000029a       L71:    
    1244 0000029a       DW$L$_SlowDownLevelOP$10$B:
    1245 0000029a 8F00-         MOVL      XAR4,#_statusprevious ; |408| 
         0000029b 0007 
    1246 0000029c 189C          AND       *+XAR4[AR1],#0xfff7   ; |408| 
         0000029d FFF7 
    1247 0000029e       DW$L$_SlowDownLevelOP$10$E:
    1248 0000029e       L72:    
    1249 0000029e       DW$L$_SlowDownLevelOP$11$B:
    1250 0000029e CCA9          AND       AL,AL,#0x0200         ; |407| 
         0000029f 0200 
    1251 000002a0 EC0A          BF        L74,EQ                ; |407| 
    1252                      ; branchcc occurs ; |407| 
    1253 000002a1       DW$L$_SlowDownLevelOP$11$E:
    1254 000002a1       DW$L$_SlowDownLevelOP$12$B:
    1255 000002a1 499C          TBIT      *+XAR4[AR1],#9        ; |412| 
    1256 000002a2 D200          MOVB      XAR2,#0
    1257 000002a3 EE03          BF        L73,TC                ; |412| 
    1258                      ; branchcc occurs ; |412| 
    1259 000002a4       DW$L$_SlowDownLevelOP$12$E:
    1260 000002a4       DW$L$_SlowDownLevelOP$13$B:
    1261 000002a4 2841          MOV       *-SP[1],#1            ; |412| 
         000002a5 0001 
    1262 000002a6       DW$L$_SlowDownLevelOP$13$E:
    1263 000002a6       L73:    
    1264 000002a6       DW$L$_SlowDownLevelOP$14$B:
    1265 000002a6 1A9C          OR        *+XAR4[AR1],#0x0200   ; |412| 
         000002a7 0200 
    1266 000002a8 56CF          BF        L75,UNC               ; |413| 
         000002a9 0004 
    1267                      ; branch occurs ; |413| 
    1268 000002aa       DW$L$_SlowDownLevelOP$14$E:
    1269 000002aa       L74:    
    1270 000002aa       DW$L$_SlowDownLevelOP$15$B:
TMS320C2000 COFF Assembler PC v4.1.3 Thu Aug 18 12:16:11 2016

Tools Copyright (c) 1996-2006 Texas Instruments Incorporated
digout.asm                                                           PAGE   28

    1271 000002aa 189C          AND       *+XAR4[AR1],#0xfdff   ; |414| 
         000002ab FDFF 
    1272 000002ac       DW$L$_SlowDownLevelOP$15$E:
    1273 000002ac       L75:    
    1274 000002ac       DW$L$_SlowDownLevelOP$16$B:
    1275 000002ac 92A1          MOV       AL,AR1
    1276 000002ad 5210          CMPB      AL,#16                ; |413| 
    1277 000002ae 56C8          BF        L79,LO                ; |413| 
         000002af 002C 
    1278                      ; branchcc occurs ; |413| 
    1279 000002b0       DW$L$_SlowDownLevelOP$16$E:
    1280 000002b0       DW$L$_SlowDownLevelOP$17$B:
    1281 000002b0 9CF0          ADDB      AL,#-16
    1282 000002b1 5BA9          MOVZ      AR3,AL                ; |429| 
    1283 000002b2 761F!         MOVW      DP,#_damalarms+1
         000002b3 0000 
    1284 000002b4 9201!         MOV       AL,@_damalarms+1      ; |429| 
    1285 000002b5 93A3          MOV       AH,AR3                ; |429| 
    1286 000002b6 7640!         LCR       #_CheckBitSet         ; |429| 
         000002b7 0000 
    1287                      ; call occurs [#_CheckBitSet] ; |429| 
    1288 000002b8 5201          CMPB      AL,#1                 ; |429| 
    1289 000002b9 ED15          BF        L77,NEQ               ; |429| 
    1290                      ; branchcc occurs ; |429| 
    1291 000002ba       DW$L$_SlowDownLevelOP$17$E:
    1292 000002ba       DW$L$_SlowDownLevelOP$18$B:
    1293 000002ba 761F-         MOVW      DP,#_damagesingleprev+1
         000002bb 0000 
    1294 000002bc 923D-         MOV       AL,@_damagesingleprev+1 ; |432| 
    1295 000002bd 93A3          MOV       AH,AR3                ; |432| 
    1296 000002be 7640!         LCR       #_CheckBitSet         ; |432| 
         000002bf 0000 
    1297                      ; call occurs [#_CheckBitSet] ; |432| 
    1298 000002c0 D200          MOVB      XAR2,#0
    1299 000002c1 5200          CMPB      AL,#0                 ; |432| 
    1300 000002c2 ED03          BF        L76,NEQ               ; |432| 
    1301                      ; branchcc occurs ; |432| 
    1302 000002c3       DW$L$_SlowDownLevelOP$18$E:
    1303 000002c3       DW$L$_SlowDownLevelOP$19$B:
    1304 000002c3 2841          MOV       *-SP[1],#1            ; |432| 
         000002c4 0001 
    1305 000002c5       DW$L$_SlowDownLevelOP$19$E:
    1306 000002c5       L76:    
    1307 000002c5       DW$L$_SlowDownLevelOP$20$B:
    1308 000002c5 761F-         MOVW      DP,#_damagesingleprev+1
         000002c6 0000 
    1309 000002c7 923D-         MOV       AL,@_damagesingleprev+1 ; |432| 
    1310 000002c8 93A1          MOV       AH,AR1                ; |432| 
    1311 000002c9 9DF0          ADDB      AH,#-16
    1312 000002ca 7640!         LCR       #_BitSet              ; |432| 
         000002cb 0000 
    1313                      ; call occurs [#_BitSet] ; |432| 
    1314 000002cc 56CF          BF        L78,UNC               ; |433| 
         000002cd 0009 
    1315                      ; branch occurs ; |433| 
TMS320C2000 COFF Assembler PC v4.1.3 Thu Aug 18 12:16:11 2016

Tools Copyright (c) 1996-2006 Texas Instruments Incorporated
digout.asm                                                           PAGE   29

    1316 000002ce       DW$L$_SlowDownLevelOP$20$E:
    1317 000002ce       L77:    
    1318 000002ce       DW$L$_SlowDownLevelOP$21$B:
    1319 000002ce 761F-         MOVW      DP,#_damagesingleprev+1
         000002cf 0000 
    1320 000002d0 923D-         MOV       AL,@_damagesingleprev+1 ; |434| 
    1321 000002d1 93A1          MOV       AH,AR1                ; |434| 
    1322 000002d2 9DF0          ADDB      AH,#-16
    1323 000002d3 7640!         LCR       #_BitClear            ; |434| 
         000002d4 0000 
    1324                      ; call occurs [#_BitClear] ; |434| 
    1325 000002d5       DW$L$_SlowDownLevelOP$21$E:
    1326 000002d5       L78:    
    1327 000002d5       DW$L$_SlowDownLevelOP$22$B:
    1328 000002d5 761F-         MOVW      DP,#_damagesingleprev+1
         000002d6 0000 
    1329 000002d7 963D-         MOV       @_damagesingleprev+1,AL ; |434| 
    1330 000002d8 56CF          BF        L83,UNC               ; |434| 
         000002d9 0026 
    1331                      ; branch occurs ; |434| 
    1332 000002da       DW$L$_SlowDownLevelOP$22$E:
    1333 000002da       L79:    
    1334 000002da       DW$L$_SlowDownLevelOP$23$B:
    1335 000002da 761F!         MOVW      DP,#_damalarms
         000002db 0000 
    1336 000002dc 9200!         MOV       AL,@_damalarms        ; |419| 
    1337 000002dd 93A1          MOV       AH,AR1                ; |419| 
    1338 000002de 7640!         LCR       #_CheckBitSet         ; |419| 
         000002df 0000 
    1339                      ; call occurs [#_CheckBitSet] ; |419| 
    1340 000002e0 5201          CMPB      AL,#1                 ; |419| 
    1341 000002e1 ED14          BF        L81,NEQ               ; |419| 
    1342                      ; branchcc occurs ; |419| 
    1343 000002e2       DW$L$_SlowDownLevelOP$23$E:
    1344 000002e2       DW$L$_SlowDownLevelOP$24$B:
    1345 000002e2 761F-         MOVW      DP,#_damagesingleprev
         000002e3 0000 
    1346 000002e4 923C-         MOV       AL,@_damagesingleprev ; |422| 
    1347 000002e5 93A1          MOV       AH,AR1                ; |422| 
    1348 000002e6 7640!         LCR       #_CheckBitSet         ; |422| 
         000002e7 0000 
    1349                      ; call occurs [#_CheckBitSet] ; |422| 
    1350 000002e8 D200          MOVB      XAR2,#0
    1351 000002e9 5200          CMPB      AL,#0                 ; |422| 
    1352 000002ea ED03          BF        L80,NEQ               ; |422| 
    1353                      ; branchcc occurs ; |422| 
    1354 000002eb       DW$L$_SlowDownLevelOP$24$E:
    1355 000002eb       DW$L$_SlowDownLevelOP$25$B:
    1356 000002eb 2841          MOV       *-SP[1],#1            ; |422| 
         000002ec 0001 
    1357 000002ed       DW$L$_SlowDownLevelOP$25$E:
    1358 000002ed       L80:    
    1359 000002ed       DW$L$_SlowDownLevelOP$26$B:
    1360 000002ed 761F-         MOVW      DP,#_damagesingleprev
         000002ee 0000 
TMS320C2000 COFF Assembler PC v4.1.3 Thu Aug 18 12:16:11 2016

Tools Copyright (c) 1996-2006 Texas Instruments Incorporated
digout.asm                                                           PAGE   30

    1361 000002ef 923C-         MOV       AL,@_damagesingleprev ; |422| 
    1362 000002f0 93A1          MOV       AH,AR1                ; |422| 
    1363 000002f1 7640!         LCR       #_BitSet              ; |422| 
         000002f2 0000 
    1364                      ; call occurs [#_BitSet] ; |422| 
    1365 000002f3 56CF          BF        L82,UNC               ; |423| 
         000002f4 0008 
    1366                      ; branch occurs ; |423| 
    1367 000002f5       DW$L$_SlowDownLevelOP$26$E:
    1368 000002f5       L81:    
    1369 000002f5       DW$L$_SlowDownLevelOP$27$B:
    1370 000002f5 761F-         MOVW      DP,#_damagesingleprev
         000002f6 0000 
    1371 000002f7 923C-         MOV       AL,@_damagesingleprev ; |424| 
    1372 000002f8 93A1          MOV       AH,AR1                ; |424| 
    1373 000002f9 7640!         LCR       #_BitClear            ; |424| 
         000002fa 0000 
    1374                      ; call occurs [#_BitClear] ; |424| 
    1375 000002fb       DW$L$_SlowDownLevelOP$27$E:
    1376 000002fb       L82:    
    1377 000002fb       DW$L$_SlowDownLevelOP$28$B:
    1378 000002fb 761F-         MOVW      DP,#_damagesingleprev
         000002fc 0000 
    1379 000002fd 963C-         MOV       @_damagesingleprev,AL ; |424| 
    1380 000002fe       DW$L$_SlowDownLevelOP$28$E:
    1381 000002fe       L83:    
    1382 000002fe       DW$L$_SlowDownLevelOP$29$B:
    1383 000002fe D901          ADDB      XAR1,#1               ; |399| 
    1384 000002ff 761F!         MOVW      DP,#_allsensors
         00000300 0000 
    1385 00000301 92A1          MOV       AL,AR1                ; |399| 
    1386 00000302 5400!         CMP       AL,@_allsensors       ; |399| 
    1387                      .dwpsn  "digout.c",437,0
    1388 00000303 56C8          BF        L69,LO                ; |399| 
         00000304 FF85 
    1389                      ; branchcc occurs ; |399| 
    1390 00000305       DW$L$_SlowDownLevelOP$29$E:
    1391 00000305       L84:    
    1392 00000305 761F!         MOVW      DP,#_allsensors
         00000306 0000 
    1393 00000307 D100          MOVB      XAR1,#0
    1394 00000308 CC00!         AND       AL,@_allsensors,#0xfffe ; |439| 
         00000309 FFFE 
    1395 0000030a EC51          BF        L92,EQ                ; |439| 
    1396                      ; branchcc occurs ; |439| 
    1397              L85:    
    1398              DW$L$_SlowDownLevelOP$31$B:
    1399                      .dwpsn  "digout.c",440,0
    1400 0000030b 761F!         MOVW      DP,#_damalarms+2
         0000030c 0000 
    1401 0000030d 9202!         MOV       AL,@_damalarms+2      ; |441| 
    1402 0000030e 93A1          MOV       AH,AR1                ; |441| 
    1403 0000030f 7640!         LCR       #_CheckBitSet         ; |441| 
         00000310 0000 
    1404                      ; call occurs [#_CheckBitSet] ; |441| 
TMS320C2000 COFF Assembler PC v4.1.3 Thu Aug 18 12:16:11 2016

Tools Copyright (c) 1996-2006 Texas Instruments Incorporated
digout.asm                                                           PAGE   31

    1405 00000311 5201          CMPB      AL,#1                 ; |441| 
    1406 00000312 ED14          BF        L87,NEQ               ; |441| 
    1407                      ; branchcc occurs ; |441| 
    1408 00000313       DW$L$_SlowDownLevelOP$31$E:
    1409 00000313       DW$L$_SlowDownLevelOP$32$B:
    1410 00000313 761F-         MOVW      DP,#_damagecylprev
         00000314 0000 
    1411 00000315 923E-         MOV       AL,@_damagecylprev    ; |444| 
    1412 00000316 93A1          MOV       AH,AR1                ; |444| 
    1413 00000317 7640!         LCR       #_CheckBitSet         ; |444| 
         00000318 0000 
    1414                      ; call occurs [#_CheckBitSet] ; |444| 
    1415 00000319 D200          MOVB      XAR2,#0
    1416 0000031a 5200          CMPB      AL,#0                 ; |444| 
    1417 0000031b ED03          BF        L86,NEQ               ; |444| 
    1418                      ; branchcc occurs ; |444| 
    1419 0000031c       DW$L$_SlowDownLevelOP$32$E:
    1420 0000031c       DW$L$_SlowDownLevelOP$33$B:
    1421 0000031c 2841          MOV       *-SP[1],#1            ; |444| 
         0000031d 0001 
    1422 0000031e       DW$L$_SlowDownLevelOP$33$E:
    1423 0000031e       L86:    
    1424 0000031e       DW$L$_SlowDownLevelOP$34$B:
    1425 0000031e 761F-         MOVW      DP,#_damagecylprev
         0000031f 0000 
    1426 00000320 923E-         MOV       AL,@_damagecylprev    ; |444| 
    1427 00000321 93A1          MOV       AH,AR1                ; |444| 
    1428 00000322 7640!         LCR       #_BitSet              ; |444| 
         00000323 0000 
    1429                      ; call occurs [#_BitSet] ; |444| 
    1430 00000324 56CF          BF        L88,UNC               ; |445| 
         00000325 0008 
    1431                      ; branch occurs ; |445| 
    1432 00000326       DW$L$_SlowDownLevelOP$34$E:
    1433 00000326       L87:    
    1434 00000326       DW$L$_SlowDownLevelOP$35$B:
    1435 00000326 761F-         MOVW      DP,#_damagecylprev
         00000327 0000 
    1436 00000328 923E-         MOV       AL,@_damagecylprev    ; |446| 
    1437 00000329 93A1          MOV       AH,AR1                ; |446| 
    1438 0000032a 7640!         LCR       #_BitClear            ; |446| 
         0000032b 0000 
    1439                      ; call occurs [#_BitClear] ; |446| 
    1440 0000032c       DW$L$_SlowDownLevelOP$35$E:
    1441 0000032c       L88:    
    1442 0000032c       DW$L$_SlowDownLevelOP$36$B:
    1443 0000032c 761F-         MOVW      DP,#_damagecylprev
         0000032d 0000 
    1444 0000032e 963E-         MOV       @_damagecylprev,AL    ; |446| 
    1445 0000032f 761F!         MOVW      DP,#_damalarms+3
         00000330 0000 
    1446 00000331 9203!         MOV       AL,@_damalarms+3      ; |447| 
    1447 00000332 93A1          MOV       AH,AR1                ; |447| 
    1448 00000333 7640!         LCR       #_CheckBitSet         ; |447| 
         00000334 0000 
TMS320C2000 COFF Assembler PC v4.1.3 Thu Aug 18 12:16:11 2016

Tools Copyright (c) 1996-2006 Texas Instruments Incorporated
digout.asm                                                           PAGE   32

    1449                      ; call occurs [#_CheckBitSet] ; |447| 
    1450 00000335 5201          CMPB      AL,#1                 ; |447| 
    1451 00000336 ED14          BF        L90,NEQ               ; |447| 
    1452                      ; branchcc occurs ; |447| 
    1453 00000337       DW$L$_SlowDownLevelOP$36$E:
    1454 00000337       DW$L$_SlowDownLevelOP$37$B:
    1455 00000337 761F-         MOVW      DP,#_damagembnprev
         00000338 0000 
    1456 00000339 923F-         MOV       AL,@_damagembnprev    ; |450| 
    1457 0000033a 93A1          MOV       AH,AR1                ; |450| 
    1458 0000033b 7640!         LCR       #_CheckBitSet         ; |450| 
         0000033c 0000 
    1459                      ; call occurs [#_CheckBitSet] ; |450| 
    1460 0000033d D200          MOVB      XAR2,#0
    1461 0000033e 5200          CMPB      AL,#0                 ; |450| 
    1462 0000033f ED03          BF        L89,NEQ               ; |450| 
    1463                      ; branchcc occurs ; |450| 
    1464 00000340       DW$L$_SlowDownLevelOP$37$E:
    1465 00000340       DW$L$_SlowDownLevelOP$38$B:
    1466 00000340 2841          MOV       *-SP[1],#1            ; |450| 
         00000341 0001 
    1467 00000342       DW$L$_SlowDownLevelOP$38$E:
    1468 00000342       L89:    
    1469 00000342       DW$L$_SlowDownLevelOP$39$B:
    1470 00000342 761F-         MOVW      DP,#_damagembnprev
         00000343 0000 
    1471 00000344 923F-         MOV       AL,@_damagembnprev    ; |450| 
    1472 00000345 93A1          MOV       AH,AR1                ; |450| 
    1473 00000346 7640!         LCR       #_BitSet              ; |450| 
         00000347 0000 
    1474                      ; call occurs [#_BitSet] ; |450| 
    1475 00000348 56CF          BF        L91,UNC               ; |451| 
         00000349 0008 
    1476                      ; branch occurs ; |451| 
    1477 0000034a       DW$L$_SlowDownLevelOP$39$E:
    1478 0000034a       L90:    
    1479 0000034a       DW$L$_SlowDownLevelOP$40$B:
    1480 0000034a 761F-         MOVW      DP,#_damagembnprev
         0000034b 0000 
    1481 0000034c 923F-         MOV       AL,@_damagembnprev    ; |452| 
    1482 0000034d 93A1          MOV       AH,AR1                ; |452| 
    1483 0000034e 7640!         LCR       #_BitClear            ; |452| 
         0000034f 0000 
    1484                      ; call occurs [#_BitClear] ; |452| 
    1485 00000350       DW$L$_SlowDownLevelOP$40$E:
    1486 00000350       L91:    
    1487 00000350       DW$L$_SlowDownLevelOP$41$B:
    1488 00000350 761F-         MOVW      DP,#_damagembnprev
         00000351 0000 
    1489 00000352 963F-         MOV       @_damagembnprev,AL    ; |452| 
    1490 00000353 D901          ADDB      XAR1,#1               ; |439| 
    1491 00000354 761F!         MOVW      DP,#_allsensors
         00000355 0000 
    1492 00000356 9200!         MOV       AL,@_allsensors       ; |439| 
    1493 00000357 FFC0          LSR       AL,1                  ; |439| 
TMS320C2000 COFF Assembler PC v4.1.3 Thu Aug 18 12:16:11 2016

Tools Copyright (c) 1996-2006 Texas Instruments Incorporated
digout.asm                                                           PAGE   33

    1494 00000358 54A1          CMP       AL,AR1                ; |439| 
    1495                      .dwpsn  "digout.c",454,0
    1496 00000359 56C6          BF        L85,HI                ; |439| 
         0000035a FFB2 
    1497                      ; branchcc occurs ; |439| 
    1498 0000035b       DW$L$_SlowDownLevelOP$41$E:
    1499 0000035b       L92:    
    1500 0000035b 9241          MOV       AL,*-SP[1]
    1501 0000035c 5201          CMPB      AL,#1                 ; |456| 
    1502 0000035d EC06          BF        L93,EQ                ; |456| 
    1503                      ; branchcc occurs ; |456| 
    1504 0000035e 92A2          MOV       AL,AR2
    1505 0000035f 5201          CMPB      AL,#1                 ; |466| 
    1506 00000360 ED10          BF        L94,NEQ               ; |466| 
    1507                      ; branchcc occurs ; |466| 
    1508 00000361 56CF          BF        L95,UNC               ; |466| 
         00000362 0015 
    1509                      ; branch occurs ; |466| 
    1510 00000363       L93:    
    1511 00000363 761F!         MOVW      DP,#_settings+23
         00000364 0000 
    1512 00000365 9217!         MOV       AL,@_settings+23      ; |458| 
    1513 00000366 EC0A          BF        L94,EQ                ; |458| 
    1514                      ; branchcc occurs ; |458| 
    1515 00000367 761F!         MOVW      DP,#_allsensors+6
         00000368 0000 
    1516 00000369 2D06!         MOV       T,@_allsensors+6      ; |463| 
    1517 0000036a 35C8          MPYB      ACC,T,#200            ; |463| 
    1518 0000036b 761F!         MOVW      DP,#_timers+51
         0000036c 0000 
    1519 0000036d 9633!         MOV       @_timers+51,AL        ; |463| 
    1520 0000036e 56CF          BF        L95,UNC               ; |463| 
         0000036f 0008 
    1521                      ; branch occurs ; |463| 
    1522 00000370       L94:    
    1523 00000370 761F!         MOVW      DP,#_settings+23
         00000371 0000 
    1524 00000372 2817!         MOV       @_settings+23,#1      ; |391| 
         00000373 0001 
    1525 00000374 56CF          BF        L96,UNC               ; |392| 
         00000375 0005 
    1526                      ; branch occurs ; |392| 
    1527 00000376       L95:    
    1528 00000376 761F!         MOVW      DP,#_settings+23
         00000377 0000 
    1529 00000378 2B17!         MOV       @_settings+23,#0      ; |477| 
    1530 00000379       L96:    
    1531 00000379 FE82          SUBB      SP,#2
    1532 0000037a 82BE          MOVL      XAR3,*--SP
    1533 0000037b 86BE          MOVL      XAR2,*--SP
    1534 0000037c 8BBE          MOVL      XAR1,*--SP
    1535                      .dwpsn  "digout.c",482,1
    1536 0000037d 0006          LRETR
    1537                      ; return occurs
    1538              
TMS320C2000 COFF Assembler PC v4.1.3 Thu Aug 18 12:16:11 2016

Tools Copyright (c) 1996-2006 Texas Instruments Incorporated
digout.asm                                                           PAGE   34

    1539              DW$90   .dwtag  DW_TAG_loop
    1540                      .dwattr DW$90, DW_AT_name("D:\DEV\Amot\BearingWear\XTSW_V6_20\digout.asm:L85:1:1471518971")
    1541                      .dwattr DW$90, DW_AT_begin_file("digout.c")
    1542                      .dwattr DW$90, DW_AT_begin_line(0x1b7)
    1543                      .dwattr DW$90, DW_AT_end_line(0x1c6)
    1544              DW$91   .dwtag  DW_TAG_loop_range
    1545                      .dwattr DW$91, DW_AT_low_pc(DW$L$_SlowDownLevelOP$31$B)
    1546                      .dwattr DW$91, DW_AT_high_pc(DW$L$_SlowDownLevelOP$31$E)
    1547              DW$92   .dwtag  DW_TAG_loop_range
    1548                      .dwattr DW$92, DW_AT_low_pc(DW$L$_SlowDownLevelOP$32$B)
    1549                      .dwattr DW$92, DW_AT_high_pc(DW$L$_SlowDownLevelOP$32$E)
    1550              DW$93   .dwtag  DW_TAG_loop_range
    1551                      .dwattr DW$93, DW_AT_low_pc(DW$L$_SlowDownLevelOP$33$B)
    1552                      .dwattr DW$93, DW_AT_high_pc(DW$L$_SlowDownLevelOP$33$E)
    1553              DW$94   .dwtag  DW_TAG_loop_range
    1554                      .dwattr DW$94, DW_AT_low_pc(DW$L$_SlowDownLevelOP$34$B)
    1555                      .dwattr DW$94, DW_AT_high_pc(DW$L$_SlowDownLevelOP$34$E)
    1556              DW$95   .dwtag  DW_TAG_loop_range
    1557                      .dwattr DW$95, DW_AT_low_pc(DW$L$_SlowDownLevelOP$35$B)
    1558                      .dwattr DW$95, DW_AT_high_pc(DW$L$_SlowDownLevelOP$35$E)
    1559              DW$96   .dwtag  DW_TAG_loop_range
    1560                      .dwattr DW$96, DW_AT_low_pc(DW$L$_SlowDownLevelOP$36$B)
    1561                      .dwattr DW$96, DW_AT_high_pc(DW$L$_SlowDownLevelOP$36$E)
    1562              DW$97   .dwtag  DW_TAG_loop_range
    1563                      .dwattr DW$97, DW_AT_low_pc(DW$L$_SlowDownLevelOP$37$B)
    1564                      .dwattr DW$97, DW_AT_high_pc(DW$L$_SlowDownLevelOP$37$E)
    1565              DW$98   .dwtag  DW_TAG_loop_range
    1566                      .dwattr DW$98, DW_AT_low_pc(DW$L$_SlowDownLevelOP$38$B)
    1567                      .dwattr DW$98, DW_AT_high_pc(DW$L$_SlowDownLevelOP$38$E)
    1568              DW$99   .dwtag  DW_TAG_loop_range
    1569                      .dwattr DW$99, DW_AT_low_pc(DW$L$_SlowDownLevelOP$39$B)
    1570                      .dwattr DW$99, DW_AT_high_pc(DW$L$_SlowDownLevelOP$39$E)
    1571              DW$100  .dwtag  DW_TAG_loop_range
    1572                      .dwattr DW$100, DW_AT_low_pc(DW$L$_SlowDownLevelOP$40$B)
    1573                      .dwattr DW$100, DW_AT_high_pc(DW$L$_SlowDownLevelOP$40$E)
    1574              DW$101  .dwtag  DW_TAG_loop_range
    1575                      .dwattr DW$101, DW_AT_low_pc(DW$L$_SlowDownLevelOP$41$B)
    1576                      .dwattr DW$101, DW_AT_high_pc(DW$L$_SlowDownLevelOP$41$E)
    1577                      .dwendtag DW$90
    1578              
    1579              
    1580              DW$102  .dwtag  DW_TAG_loop
    1581                      .dwattr DW$102, DW_AT_name("D:\DEV\Amot\BearingWear\XTSW_V6_20\digout.asm:L69:1:1471518971")
    1582                      .dwattr DW$102, DW_AT_begin_file("digout.c")
    1583                      .dwattr DW$102, DW_AT_begin_line(0x18f)
    1584                      .dwattr DW$102, DW_AT_end_line(0x1b5)
    1585              DW$103  .dwtag  DW_TAG_loop_range
    1586                      .dwattr DW$103, DW_AT_low_pc(DW$L$_SlowDownLevelOP$6$B)
    1587                      .dwattr DW$103, DW_AT_high_pc(DW$L$_SlowDownLevelOP$6$E)
    1588              DW$104  .dwtag  DW_TAG_loop_range
    1589                      .dwattr DW$104, DW_AT_low_pc(DW$L$_SlowDownLevelOP$23$B)
    1590                      .dwattr DW$104, DW_AT_high_pc(DW$L$_SlowDownLevelOP$23$E)
    1591              DW$105  .dwtag  DW_TAG_loop_range
    1592                      .dwattr DW$105, DW_AT_low_pc(DW$L$_SlowDownLevelOP$24$B)
    1593                      .dwattr DW$105, DW_AT_high_pc(DW$L$_SlowDownLevelOP$24$E)
TMS320C2000 COFF Assembler PC v4.1.3 Thu Aug 18 12:16:11 2016

Tools Copyright (c) 1996-2006 Texas Instruments Incorporated
digout.asm                                                           PAGE   35

    1594              DW$106  .dwtag  DW_TAG_loop_range
    1595                      .dwattr DW$106, DW_AT_low_pc(DW$L$_SlowDownLevelOP$25$B)
    1596                      .dwattr DW$106, DW_AT_high_pc(DW$L$_SlowDownLevelOP$25$E)
    1597              DW$107  .dwtag  DW_TAG_loop_range
    1598                      .dwattr DW$107, DW_AT_low_pc(DW$L$_SlowDownLevelOP$26$B)
    1599                      .dwattr DW$107, DW_AT_high_pc(DW$L$_SlowDownLevelOP$26$E)
    1600              DW$108  .dwtag  DW_TAG_loop_range
    1601                      .dwattr DW$108, DW_AT_low_pc(DW$L$_SlowDownLevelOP$27$B)
    1602                      .dwattr DW$108, DW_AT_high_pc(DW$L$_SlowDownLevelOP$27$E)
    1603              DW$109  .dwtag  DW_TAG_loop_range
    1604                      .dwattr DW$109, DW_AT_low_pc(DW$L$_SlowDownLevelOP$7$B)
    1605                      .dwattr DW$109, DW_AT_high_pc(DW$L$_SlowDownLevelOP$7$E)
    1606              DW$110  .dwtag  DW_TAG_loop_range
    1607                      .dwattr DW$110, DW_AT_low_pc(DW$L$_SlowDownLevelOP$8$B)
    1608                      .dwattr DW$110, DW_AT_high_pc(DW$L$_SlowDownLevelOP$8$E)
    1609              DW$111  .dwtag  DW_TAG_loop_range
    1610                      .dwattr DW$111, DW_AT_low_pc(DW$L$_SlowDownLevelOP$9$B)
    1611                      .dwattr DW$111, DW_AT_high_pc(DW$L$_SlowDownLevelOP$9$E)
    1612              DW$112  .dwtag  DW_TAG_loop_range
    1613                      .dwattr DW$112, DW_AT_low_pc(DW$L$_SlowDownLevelOP$10$B)
    1614                      .dwattr DW$112, DW_AT_high_pc(DW$L$_SlowDownLevelOP$10$E)
    1615              DW$113  .dwtag  DW_TAG_loop_range
    1616                      .dwattr DW$113, DW_AT_low_pc(DW$L$_SlowDownLevelOP$11$B)
    1617                      .dwattr DW$113, DW_AT_high_pc(DW$L$_SlowDownLevelOP$11$E)
    1618              DW$114  .dwtag  DW_TAG_loop_range
    1619                      .dwattr DW$114, DW_AT_low_pc(DW$L$_SlowDownLevelOP$12$B)
    1620                      .dwattr DW$114, DW_AT_high_pc(DW$L$_SlowDownLevelOP$12$E)
    1621              DW$115  .dwtag  DW_TAG_loop_range
    1622                      .dwattr DW$115, DW_AT_low_pc(DW$L$_SlowDownLevelOP$13$B)
    1623                      .dwattr DW$115, DW_AT_high_pc(DW$L$_SlowDownLevelOP$13$E)
    1624              DW$116  .dwtag  DW_TAG_loop_range
    1625                      .dwattr DW$116, DW_AT_low_pc(DW$L$_SlowDownLevelOP$14$B)
    1626                      .dwattr DW$116, DW_AT_high_pc(DW$L$_SlowDownLevelOP$14$E)
    1627              DW$117  .dwtag  DW_TAG_loop_range
    1628                      .dwattr DW$117, DW_AT_low_pc(DW$L$_SlowDownLevelOP$15$B)
    1629                      .dwattr DW$117, DW_AT_high_pc(DW$L$_SlowDownLevelOP$15$E)
    1630              DW$118  .dwtag  DW_TAG_loop_range
    1631                      .dwattr DW$118, DW_AT_low_pc(DW$L$_SlowDownLevelOP$16$B)
    1632                      .dwattr DW$118, DW_AT_high_pc(DW$L$_SlowDownLevelOP$16$E)
    1633              DW$119  .dwtag  DW_TAG_loop_range
    1634                      .dwattr DW$119, DW_AT_low_pc(DW$L$_SlowDownLevelOP$17$B)
    1635                      .dwattr DW$119, DW_AT_high_pc(DW$L$_SlowDownLevelOP$17$E)
    1636              DW$120  .dwtag  DW_TAG_loop_range
    1637                      .dwattr DW$120, DW_AT_low_pc(DW$L$_SlowDownLevelOP$18$B)
    1638                      .dwattr DW$120, DW_AT_high_pc(DW$L$_SlowDownLevelOP$18$E)
    1639              DW$121  .dwtag  DW_TAG_loop_range
    1640                      .dwattr DW$121, DW_AT_low_pc(DW$L$_SlowDownLevelOP$19$B)
    1641                      .dwattr DW$121, DW_AT_high_pc(DW$L$_SlowDownLevelOP$19$E)
    1642              DW$122  .dwtag  DW_TAG_loop_range
    1643                      .dwattr DW$122, DW_AT_low_pc(DW$L$_SlowDownLevelOP$20$B)
    1644                      .dwattr DW$122, DW_AT_high_pc(DW$L$_SlowDownLevelOP$20$E)
    1645              DW$123  .dwtag  DW_TAG_loop_range
    1646                      .dwattr DW$123, DW_AT_low_pc(DW$L$_SlowDownLevelOP$21$B)
    1647                      .dwattr DW$123, DW_AT_high_pc(DW$L$_SlowDownLevelOP$21$E)
    1648              DW$124  .dwtag  DW_TAG_loop_range
TMS320C2000 COFF Assembler PC v4.1.3 Thu Aug 18 12:16:11 2016

Tools Copyright (c) 1996-2006 Texas Instruments Incorporated
digout.asm                                                           PAGE   36

    1649                      .dwattr DW$124, DW_AT_low_pc(DW$L$_SlowDownLevelOP$22$B)
    1650                      .dwattr DW$124, DW_AT_high_pc(DW$L$_SlowDownLevelOP$22$E)
    1651              DW$125  .dwtag  DW_TAG_loop_range
    1652                      .dwattr DW$125, DW_AT_low_pc(DW$L$_SlowDownLevelOP$28$B)
    1653                      .dwattr DW$125, DW_AT_high_pc(DW$L$_SlowDownLevelOP$28$E)
    1654              DW$126  .dwtag  DW_TAG_loop_range
    1655                      .dwattr DW$126, DW_AT_low_pc(DW$L$_SlowDownLevelOP$29$B)
    1656                      .dwattr DW$126, DW_AT_high_pc(DW$L$_SlowDownLevelOP$29$E)
    1657                      .dwendtag DW$102
    1658              
    1659                      .dwattr DW$89, DW_AT_end_file("digout.c")
    1660                      .dwattr DW$89, DW_AT_end_line(0x1e2)
    1661                      .dwattr DW$89, DW_AT_end_column(0x01)
    1662                      .dwendtag DW$89
    1663              
    1664 0000037e               .sect   ".text"
    1665                      .global _InitOffboardGPIO
    1666              
    1667              DW$127  .dwtag  DW_TAG_subprogram, DW_AT_name("InitOffboardGPIO"), DW_AT_symbol_name("_InitOffboardGPIO")
    1668                      .dwattr DW$127, DW_AT_low_pc(_InitOffboardGPIO)
    1669                      .dwattr DW$127, DW_AT_high_pc(0x00)
    1670                      .dwattr DW$127, DW_AT_begin_file("digout.c")
    1671                      .dwattr DW$127, DW_AT_begin_line(0x1e7)
    1672                      .dwattr DW$127, DW_AT_begin_column(0x06)
    1673                      .dwattr DW$127, DW_AT_frame_base[DW_OP_breg20 -2]
    1674                      .dwattr DW$127, DW_AT_skeletal(0x01)
    1675                      .dwpsn  "digout.c",488,1
    1676              
    1677              ;***************************************************************
    1678              ;* FNAME: _InitOffboardGPIO             FR SIZE:   0           *
    1679              ;*                                                             *
    1680              ;* FUNCTION ENVIRONMENT                                        *
    1681              ;*                                                             *
    1682              ;* FUNCTION PROPERTIES                                         *
    1683              ;*                            0 Parameter,  0 Auto,  0 SOE     *
    1684              ;***************************************************************
    1685              
    1686 0000037e       _InitOffboardGPIO:
    1687 0000037e 7622   eallow             ; Enable accesses to PIE control registers
    1688 0000037f F5A9          MOV       AL,*(0:0x70c5)        ; |492| 
         00000380 70C5 
    1689 00000381 1AA9          OR        AL,#0x2c00            ; |492| 
         00000382 2C00 
    1690 00000383 F4A9          MOV       *(0:0x70c5),AL        ; |492| 
         00000384 70C5 
    1691 00000385 761A   edis               ; Disable accesses to PIE control registers
    1692 00000386 FF69          SPM       #0
    1693 00000387 761F!         MOVW      DP,#_gpb
         00000388 0000 
    1694 00000389 1A00!         OR        @_gpb,#0x0400         ; |496| 
         0000038a 0400 
    1695 0000038b 761F!         MOVW      DP,#_gpb
         0000038c 0000 
    1696 0000038d 1A00!         OR        @_gpb,#0x0800         ; |497| 
         0000038e 0800 
TMS320C2000 COFF Assembler PC v4.1.3 Thu Aug 18 12:16:11 2016

Tools Copyright (c) 1996-2006 Texas Instruments Incorporated
digout.asm                                                           PAGE   37

    1697 0000038f 761F!         MOVW      DP,#_gpb
         00000390 0000 
    1698 00000391 1800!         AND       @_gpb,#0xdfff         ; |499| 
         00000392 DFFF 
    1699                      .dwpsn  "digout.c",501,1
    1700 00000393 0006          LRETR
    1701                      ; return occurs
    1702                      .dwattr DW$127, DW_AT_end_file("digout.c")
    1703                      .dwattr DW$127, DW_AT_end_line(0x1f5)
    1704                      .dwattr DW$127, DW_AT_end_column(0x01)
    1705                      .dwendtag DW$127
    1706              
    1707              ;***************************************************************
    1708              ;* UNDEFINED EXTERNAL REFERENCES                               *
    1709              ;***************************************************************
    1710                      .global _CheckBitSet
    1711                      .global _BitSet
    1712                      .global _BitClear
    1713                      .global _GetStatus2Flags
    1714                      .global _WioStructPtr
    1715                      .global _WIOEnabled
    1716                      .global _gpb
    1717                      .global _gpf
    1718                      .global _settings
    1719                      .global _timers
    1720                      .global _allsensors
    1721                      .global _cylinders
    1722                      .global _config
    1723                      .global _damalarms
    1724                      .global _alarms
    1725                      .global _waterinoil
    1726                      .global _slowdownblipstate
    1727                      .global _slem
    1728                      .global _rtcbat
    1729              
    1730              ;***************************************************************
    1731              ;* TYPE INFORMATION                                            *
    1732              ;***************************************************************
    1733              
    1734              DW$T$54 .dwtag  DW_TAG_subroutine_type
    1735                      .dwattr DW$T$54, DW_AT_language(DW_LANG_C)
    1736              DW$T$10 .dwtag  DW_TAG_base_type, DW_AT_name("int")
    1737                      .dwattr DW$T$10, DW_AT_encoding(DW_ATE_signed)
    1738                      .dwattr DW$T$10, DW_AT_byte_size(0x01)
    1739              
    1740              DW$T$56 .dwtag  DW_TAG_subroutine_type, DW_AT_type(*DW$T$10)
    1741                      .dwattr DW$T$56, DW_AT_language(DW_LANG_C)
    1742              DW$128  .dwtag  DW_TAG_formal_parameter, DW_AT_type(*DW$T$11)
    1743              DW$129  .dwtag  DW_TAG_formal_parameter, DW_AT_type(*DW$T$11)
    1744                      .dwendtag DW$T$56
    1745              
    1746              
    1747              DW$T$58 .dwtag  DW_TAG_subroutine_type, DW_AT_type(*DW$T$10)
    1748                      .dwattr DW$T$58, DW_AT_language(DW_LANG_C)
    1749              DW$T$11 .dwtag  DW_TAG_base_type, DW_AT_name("unsigned int")
TMS320C2000 COFF Assembler PC v4.1.3 Thu Aug 18 12:16:11 2016

Tools Copyright (c) 1996-2006 Texas Instruments Incorporated
digout.asm                                                           PAGE   38

    1750                      .dwattr DW$T$11, DW_AT_encoding(DW_ATE_unsigned)
    1751                      .dwattr DW$T$11, DW_AT_byte_size(0x01)
    1752              
    1753              DW$T$31 .dwtag  DW_TAG_array_type, DW_AT_type(*DW$T$11)
    1754                      .dwattr DW$T$31, DW_AT_language(DW_LANG_C)
    1755                      .dwattr DW$T$31, DW_AT_byte_size(0x0e)
    1756              DW$130  .dwtag  DW_TAG_subrange_type
    1757                      .dwattr DW$130, DW_AT_upper_bound(0x0d)
    1758                      .dwendtag DW$T$31
    1759              
    1760              
    1761              DW$T$46 .dwtag  DW_TAG_array_type, DW_AT_type(*DW$T$11)
    1762                      .dwattr DW$T$46, DW_AT_language(DW_LANG_C)
    1763                      .dwattr DW$T$46, DW_AT_byte_size(0x02)
    1764              DW$131  .dwtag  DW_TAG_subrange_type
    1765                      .dwattr DW$131, DW_AT_upper_bound(0x01)
    1766                      .dwendtag DW$T$46
    1767              
    1768              
    1769              DW$T$61 .dwtag  DW_TAG_subroutine_type, DW_AT_type(*DW$T$11)
    1770                      .dwattr DW$T$61, DW_AT_language(DW_LANG_C)
    1771              DW$132  .dwtag  DW_TAG_formal_parameter, DW_AT_type(*DW$T$11)
    1772              DW$133  .dwtag  DW_TAG_formal_parameter, DW_AT_type(*DW$T$11)
    1773                      .dwendtag DW$T$61
    1774              
    1775              DW$T$66 .dwtag  DW_TAG_pointer_type, DW_AT_type(*DW$T$65)
    1776                      .dwattr DW$T$66, DW_AT_address_class(0x16)
    1777              
    1778              DW$T$67 .dwtag  DW_TAG_subroutine_type, DW_AT_type(*DW$T$66)
    1779                      .dwattr DW$T$67, DW_AT_language(DW_LANG_C)
    1780              DW$134  .dwtag  DW_TAG_formal_parameter, DW_AT_type(*DW$T$11)
    1781                      .dwendtag DW$T$67
    1782              
    1783              
    1784              DW$T$68 .dwtag  DW_TAG_array_type, DW_AT_type(*DW$T$65)
    1785                      .dwattr DW$T$68, DW_AT_language(DW_LANG_C)
    1786                      .dwattr DW$T$68, DW_AT_byte_size(0x1c)
    1787              DW$135  .dwtag  DW_TAG_subrange_type
    1788                      .dwattr DW$135, DW_AT_upper_bound(0x1b)
    1789                      .dwendtag DW$T$68
    1790              
    1791              DW$T$73 .dwtag  DW_TAG_typedef, DW_AT_name("waterinoilstruct"), DW_AT_type(*DW$T$22)
    1792                      .dwattr DW$T$73, DW_AT_language(DW_LANG_C)
    1793              DW$T$74 .dwtag  DW_TAG_pointer_type, DW_AT_type(*DW$T$73)
    1794                      .dwattr DW$T$74, DW_AT_address_class(0x16)
    1795              
    1796              DW$T$75 .dwtag  DW_TAG_subroutine_type, DW_AT_type(*DW$T$74)
    1797                      .dwattr DW$T$75, DW_AT_language(DW_LANG_C)
    1798              DW$136  .dwtag  DW_TAG_far_type
    1799                      .dwattr DW$136, DW_AT_type(*DW$T$79)
    1800              DW$T$80 .dwtag  DW_TAG_volatile_type
    1801                      .dwattr DW$T$80, DW_AT_type(*DW$136)
    1802              DW$137  .dwtag  DW_TAG_far_type
    1803                      .dwattr DW$137, DW_AT_type(*DW$T$83)
    1804              DW$T$84 .dwtag  DW_TAG_volatile_type
TMS320C2000 COFF Assembler PC v4.1.3 Thu Aug 18 12:16:11 2016

Tools Copyright (c) 1996-2006 Texas Instruments Incorporated
digout.asm                                                           PAGE   39

    1805                      .dwattr DW$T$84, DW_AT_type(*DW$137)
    1806              DW$T$87 .dwtag  DW_TAG_typedef, DW_AT_name("settingsstruct"), DW_AT_type(*DW$T$30)
    1807                      .dwattr DW$T$87, DW_AT_language(DW_LANG_C)
    1808              DW$138  .dwtag  DW_TAG_far_type
    1809                      .dwattr DW$138, DW_AT_type(*DW$T$88)
    1810              DW$T$89 .dwtag  DW_TAG_volatile_type
    1811                      .dwattr DW$T$89, DW_AT_type(*DW$138)
    1812              DW$T$91 .dwtag  DW_TAG_typedef, DW_AT_name("allsensorstruct"), DW_AT_type(*DW$T$35)
    1813                      .dwattr DW$T$91, DW_AT_language(DW_LANG_C)
    1814              
    1815              DW$T$93 .dwtag  DW_TAG_array_type, DW_AT_type(*DW$T$92)
    1816                      .dwattr DW$T$93, DW_AT_language(DW_LANG_C)
    1817                      .dwattr DW$T$93, DW_AT_byte_size(0x38)
    1818              DW$139  .dwtag  DW_TAG_subrange_type
    1819                      .dwattr DW$139, DW_AT_upper_bound(0x0d)
    1820                      .dwendtag DW$T$93
    1821              
    1822              DW$T$96 .dwtag  DW_TAG_typedef, DW_AT_name("configstruct"), DW_AT_type(*DW$T$45)
    1823                      .dwattr DW$T$96, DW_AT_language(DW_LANG_C)
    1824              DW$T$97 .dwtag  DW_TAG_typedef, DW_AT_name("damalarmsstruct"), DW_AT_type(*DW$T$47)
    1825                      .dwattr DW$T$97, DW_AT_language(DW_LANG_C)
    1826              DW$T$99 .dwtag  DW_TAG_typedef, DW_AT_name("alarmsstruct"), DW_AT_type(*DW$T$48)
    1827                      .dwattr DW$T$99, DW_AT_language(DW_LANG_C)
    1828              DW$T$101        .dwtag  DW_TAG_typedef, DW_AT_name("slemstruct"), DW_AT_type(*DW$T$50)
    1829                      .dwattr DW$T$101, DW_AT_language(DW_LANG_C)
    1830              DW$T$103        .dwtag  DW_TAG_typedef, DW_AT_name("rtcbatstruct"), DW_AT_type(*DW$T$52)
    1831                      .dwattr DW$T$103, DW_AT_language(DW_LANG_C)
    1832              DW$T$104        .dwtag  DW_TAG_typedef, DW_AT_name("digoutstruct"), DW_AT_type(*DW$T$53)
    1833                      .dwattr DW$T$104, DW_AT_language(DW_LANG_C)
    1834              DW$T$65 .dwtag  DW_TAG_typedef, DW_AT_name("sensoralarmstruct"), DW_AT_type(*DW$T$19)
    1835                      .dwattr DW$T$65, DW_AT_language(DW_LANG_C)
    1836              
    1837              DW$T$22 .dwtag  DW_TAG_structure_type
    1838                      .dwattr DW$T$22, DW_AT_name("tag_waterinoilstruct")
    1839                      .dwattr DW$T$22, DW_AT_byte_size(0x0c)
    1840              DW$140  .dwtag  DW_TAG_member, DW_AT_type(*DW$T$11)
    1841                      .dwattr DW$140, DW_AT_name("netadd"), DW_AT_symbol_name("_netadd")
    1842                      .dwattr DW$140, DW_AT_data_member_location[DW_OP_plus_uconst 0x0]
    1843                      .dwattr DW$140, DW_AT_accessibility(DW_ACCESS_public)
    1844              DW$141  .dwtag  DW_TAG_member, DW_AT_type(*DW$T$16)
    1845                      .dwattr DW$141, DW_AT_name("temperature"), DW_AT_symbol_name("_temperature")
    1846                      .dwattr DW$141, DW_AT_data_member_location[DW_OP_plus_uconst 0x2]
    1847                      .dwattr DW$141, DW_AT_accessibility(DW_ACCESS_public)
    1848              DW$142  .dwtag  DW_TAG_member, DW_AT_type(*DW$T$16)
    1849                      .dwattr DW$142, DW_AT_name("activity"), DW_AT_symbol_name("_activity")
    1850                      .dwattr DW$142, DW_AT_data_member_location[DW_OP_plus_uconst 0x4]
    1851                      .dwattr DW$142, DW_AT_accessibility(DW_ACCESS_public)
    1852              DW$143  .dwtag  DW_TAG_member, DW_AT_type(*DW$T$16)
    1853                      .dwattr DW$143, DW_AT_name("content"), DW_AT_symbol_name("_content")
    1854                      .dwattr DW$143, DW_AT_data_member_location[DW_OP_plus_uconst 0x6]
    1855                      .dwattr DW$143, DW_AT_accessibility(DW_ACCESS_public)
    1856              DW$144  .dwtag  DW_TAG_member, DW_AT_type(*DW$T$10)
    1857                      .dwattr DW$144, DW_AT_name("temperature_int"), DW_AT_symbol_name("_temperature_int")
    1858                      .dwattr DW$144, DW_AT_data_member_location[DW_OP_plus_uconst 0x8]
    1859                      .dwattr DW$144, DW_AT_accessibility(DW_ACCESS_public)
TMS320C2000 COFF Assembler PC v4.1.3 Thu Aug 18 12:16:11 2016

Tools Copyright (c) 1996-2006 Texas Instruments Incorporated
digout.asm                                                           PAGE   40

    1860              DW$145  .dwtag  DW_TAG_member, DW_AT_type(*DW$T$10)
    1861                      .dwattr DW$145, DW_AT_name("activity_int"), DW_AT_symbol_name("_activity_int")
    1862                      .dwattr DW$145, DW_AT_data_member_location[DW_OP_plus_uconst 0x9]
    1863                      .dwattr DW$145, DW_AT_accessibility(DW_ACCESS_public)
    1864              DW$146  .dwtag  DW_TAG_member, DW_AT_type(*DW$T$10)
    1865                      .dwattr DW$146, DW_AT_name("content_int"), DW_AT_symbol_name("_content_int")
    1866                      .dwattr DW$146, DW_AT_data_member_location[DW_OP_plus_uconst 0xa]
    1867                      .dwattr DW$146, DW_AT_accessibility(DW_ACCESS_public)
    1868              DW$147  .dwtag  DW_TAG_member, DW_AT_type(*DW$T$21)
    1869                      .dwattr DW$147, DW_AT_name("wioalarms"), DW_AT_symbol_name("_wioalarms")
    1870                      .dwattr DW$147, DW_AT_data_member_location[DW_OP_plus_uconst 0xb]
    1871                      .dwattr DW$147, DW_AT_accessibility(DW_ACCESS_public)
    1872                      .dwendtag DW$T$22
    1873              
    1874              DW$T$79 .dwtag  DW_TAG_typedef, DW_AT_name("gpbport"), DW_AT_type(*DW$T$25)
    1875                      .dwattr DW$T$79, DW_AT_language(DW_LANG_C)
    1876              DW$T$83 .dwtag  DW_TAG_typedef, DW_AT_name("gpfport"), DW_AT_type(*DW$T$28)
    1877                      .dwattr DW$T$83, DW_AT_language(DW_LANG_C)
    1878              
    1879              DW$T$30 .dwtag  DW_TAG_structure_type
    1880                      .dwattr DW$T$30, DW_AT_name("tag_settingsstruct")
    1881                      .dwattr DW$T$30, DW_AT_byte_size(0x24)
    1882              DW$148  .dwtag  DW_TAG_member, DW_AT_type(*DW$T$11)
    1883                      .dwattr DW$148, DW_AT_name("watchdog"), DW_AT_symbol_name("_watchdog")
    1884                      .dwattr DW$148, DW_AT_data_member_location[DW_OP_plus_uconst 0x0]
    1885                      .dwattr DW$148, DW_AT_accessibility(DW_ACCESS_public)
    1886              DW$149  .dwtag  DW_TAG_member, DW_AT_type(*DW$T$11)
    1887                      .dwattr DW$149, DW_AT_name("ledflashflag"), DW_AT_symbol_name("_ledflashflag")
    1888                      .dwattr DW$149, DW_AT_data_member_location[DW_OP_plus_uconst 0x1]
    1889                      .dwattr DW$149, DW_AT_accessibility(DW_ACCESS_public)
    1890              DW$150  .dwtag  DW_TAG_member, DW_AT_type(*DW$T$11)
    1891                      .dwattr DW$150, DW_AT_name("updatesafe"), DW_AT_symbol_name("_updatesafe")
    1892                      .dwattr DW$150, DW_AT_data_member_location[DW_OP_plus_uconst 0x2]
    1893                      .dwattr DW$150, DW_AT_accessibility(DW_ACCESS_public)
    1894              DW$151  .dwtag  DW_TAG_member, DW_AT_type(*DW$T$11)
    1895                      .dwattr DW$151, DW_AT_name("tableconfigtype"), DW_AT_symbol_name("_tableconfigtype")
    1896                      .dwattr DW$151, DW_AT_data_member_location[DW_OP_plus_uconst 0x3]
    1897                      .dwattr DW$151, DW_AT_accessibility(DW_ACCESS_public)
    1898              DW$152  .dwtag  DW_TAG_member, DW_AT_type(*DW$T$11)
    1899                      .dwattr DW$152, DW_AT_name("caltableconfigtype"), DW_AT_symbol_name("_caltableconfigtype")
    1900                      .dwattr DW$152, DW_AT_data_member_location[DW_OP_plus_uconst 0x4]
    1901                      .dwattr DW$152, DW_AT_accessibility(DW_ACCESS_public)
    1902              DW$153  .dwtag  DW_TAG_member, DW_AT_type(*DW$T$11)
    1903                      .dwattr DW$153, DW_AT_name("eventmsgid"), DW_AT_symbol_name("_eventmsgid")
    1904                      .dwattr DW$153, DW_AT_data_member_location[DW_OP_plus_uconst 0x5]
    1905                      .dwattr DW$153, DW_AT_accessibility(DW_ACCESS_public)
    1906              DW$154  .dwtag  DW_TAG_member, DW_AT_type(*DW$T$11)
    1907                      .dwattr DW$154, DW_AT_name("configoperationcomplete"), DW_AT_symbol_name("_configoperationcomplete")
    1908                      .dwattr DW$154, DW_AT_data_member_location[DW_OP_plus_uconst 0x6]
    1909                      .dwattr DW$154, DW_AT_accessibility(DW_ACCESS_public)
    1910              DW$155  .dwtag  DW_TAG_member, DW_AT_type(*DW$T$11)
    1911                      .dwattr DW$155, DW_AT_name("sdcarderr"), DW_AT_symbol_name("_sdcarderr")
    1912                      .dwattr DW$155, DW_AT_data_member_location[DW_OP_plus_uconst 0x7]
    1913                      .dwattr DW$155, DW_AT_accessibility(DW_ACCESS_public)
    1914              DW$156  .dwtag  DW_TAG_member, DW_AT_type(*DW$T$11)
TMS320C2000 COFF Assembler PC v4.1.3 Thu Aug 18 12:16:11 2016

Tools Copyright (c) 1996-2006 Texas Instruments Incorporated
digout.asm                                                           PAGE   41

    1915                      .dwattr DW$156, DW_AT_name("sderase"), DW_AT_symbol_name("_sderase")
    1916                      .dwattr DW$156, DW_AT_data_member_location[DW_OP_plus_uconst 0x8]
    1917                      .dwattr DW$156, DW_AT_accessibility(DW_ACCESS_public)
    1918              DW$157  .dwtag  DW_TAG_member, DW_AT_type(*DW$T$11)
    1919                      .dwattr DW$157, DW_AT_name("sdreinit"), DW_AT_symbol_name("_sdreinit")
    1920                      .dwattr DW$157, DW_AT_data_member_location[DW_OP_plus_uconst 0x9]
    1921                      .dwattr DW$157, DW_AT_accessibility(DW_ACCESS_public)
    1922              DW$158  .dwtag  DW_TAG_member, DW_AT_type(*DW$T$11)
    1923                      .dwattr DW$158, DW_AT_name("sdcardupdate"), DW_AT_symbol_name("_sdcardupdate")
    1924                      .dwattr DW$158, DW_AT_data_member_location[DW_OP_plus_uconst 0xa]
    1925                      .dwattr DW$158, DW_AT_accessibility(DW_ACCESS_public)
    1926              DW$159  .dwtag  DW_TAG_member, DW_AT_type(*DW$T$11)
    1927                      .dwattr DW$159, DW_AT_name("cardreadflag"), DW_AT_symbol_name("_cardreadflag")
    1928                      .dwattr DW$159, DW_AT_data_member_location[DW_OP_plus_uconst 0xb]
    1929                      .dwattr DW$159, DW_AT_accessibility(DW_ACCESS_public)
    1930              DW$160  .dwtag  DW_TAG_member, DW_AT_type(*DW$T$11)
    1931                      .dwattr DW$160, DW_AT_name("ignore"), DW_AT_symbol_name("_ignore")
    1932                      .dwattr DW$160, DW_AT_data_member_location[DW_OP_plus_uconst 0xc]
    1933                      .dwattr DW$160, DW_AT_accessibility(DW_ACCESS_public)
    1934              DW$161  .dwtag  DW_TAG_member, DW_AT_type(*DW$T$11)
    1935                      .dwattr DW$161, DW_AT_name("dcmode"), DW_AT_symbol_name("_dcmode")
    1936                      .dwattr DW$161, DW_AT_data_member_location[DW_OP_plus_uconst 0xd]
    1937                      .dwattr DW$161, DW_AT_accessibility(DW_ACCESS_public)
    1938              DW$162  .dwtag  DW_TAG_member, DW_AT_type(*DW$T$11)
    1939                      .dwattr DW$162, DW_AT_name("spiinuse"), DW_AT_symbol_name("_spiinuse")
    1940                      .dwattr DW$162, DW_AT_data_member_location[DW_OP_plus_uconst 0xe]
    1941                      .dwattr DW$162, DW_AT_accessibility(DW_ACCESS_public)
    1942              DW$163  .dwtag  DW_TAG_member, DW_AT_type(*DW$T$11)
    1943                      .dwattr DW$163, DW_AT_name("dcpeakhold"), DW_AT_symbol_name("_dcpeakhold")
    1944                      .dwattr DW$163, DW_AT_data_member_location[DW_OP_plus_uconst 0xf]
    1945                      .dwattr DW$163, DW_AT_accessibility(DW_ACCESS_public)
    1946              DW$164  .dwtag  DW_TAG_member, DW_AT_type(*DW$T$11)
    1947                      .dwattr DW$164, DW_AT_name("dcpause"), DW_AT_symbol_name("_dcpause")
    1948                      .dwattr DW$164, DW_AT_data_member_location[DW_OP_plus_uconst 0x10]
    1949                      .dwattr DW$164, DW_AT_accessibility(DW_ACCESS_public)
    1950              DW$165  .dwtag  DW_TAG_member, DW_AT_type(*DW$T$11)
    1951                      .dwattr DW$165, DW_AT_name("mastermode"), DW_AT_symbol_name("_mastermode")
    1952                      .dwattr DW$165, DW_AT_data_member_location[DW_OP_plus_uconst 0x11]
    1953                      .dwattr DW$165, DW_AT_accessibility(DW_ACCESS_public)
    1954              DW$166  .dwtag  DW_TAG_member, DW_AT_type(*DW$T$11)
    1955                      .dwattr DW$166, DW_AT_name("updatescaling"), DW_AT_symbol_name("_updatescaling")
    1956                      .dwattr DW$166, DW_AT_data_member_location[DW_OP_plus_uconst 0x12]
    1957                      .dwattr DW$166, DW_AT_accessibility(DW_ACCESS_public)
    1958              DW$167  .dwtag  DW_TAG_member, DW_AT_type(*DW$T$11)
    1959                      .dwattr DW$167, DW_AT_name("forwardasternflag"), DW_AT_symbol_name("_forwardasternflag")
    1960                      .dwattr DW$167, DW_AT_data_member_location[DW_OP_plus_uconst 0x13]
    1961                      .dwattr DW$167, DW_AT_accessibility(DW_ACCESS_public)
    1962              DW$168  .dwtag  DW_TAG_member, DW_AT_type(*DW$T$11)
    1963                      .dwattr DW$168, DW_AT_name("initprogress"), DW_AT_symbol_name("_initprogress")
    1964                      .dwattr DW$168, DW_AT_data_member_location[DW_OP_plus_uconst 0x14]
    1965                      .dwattr DW$168, DW_AT_accessibility(DW_ACCESS_public)
    1966              DW$169  .dwtag  DW_TAG_member, DW_AT_type(*DW$T$11)
    1967                      .dwattr DW$169, DW_AT_name("dircountdown"), DW_AT_symbol_name("_dircountdown")
    1968                      .dwattr DW$169, DW_AT_data_member_location[DW_OP_plus_uconst 0x15]
    1969                      .dwattr DW$169, DW_AT_accessibility(DW_ACCESS_public)
TMS320C2000 COFF Assembler PC v4.1.3 Thu Aug 18 12:16:11 2016

Tools Copyright (c) 1996-2006 Texas Instruments Incorporated
digout.asm                                                           PAGE   42

    1970              DW$170  .dwtag  DW_TAG_member, DW_AT_type(*DW$T$11)
    1971                      .dwattr DW$170, DW_AT_name("slowdowncounter"), DW_AT_symbol_name("_slowdowncounter")
    1972                      .dwattr DW$170, DW_AT_data_member_location[DW_OP_plus_uconst 0x16]
    1973                      .dwattr DW$170, DW_AT_accessibility(DW_ACCESS_public)
    1974              DW$171  .dwtag  DW_TAG_member, DW_AT_type(*DW$T$11)
    1975                      .dwattr DW$171, DW_AT_name("slowdowncondition"), DW_AT_symbol_name("_slowdowncondition")
    1976                      .dwattr DW$171, DW_AT_data_member_location[DW_OP_plus_uconst 0x17]
    1977                      .dwattr DW$171, DW_AT_accessibility(DW_ACCESS_public)
    1978              DW$172  .dwtag  DW_TAG_member, DW_AT_type(*DW$T$11)
    1979                      .dwattr DW$172, DW_AT_name("slowdownlevel"), DW_AT_symbol_name("_slowdownlevel")
    1980                      .dwattr DW$172, DW_AT_data_member_location[DW_OP_plus_uconst 0x18]
    1981                      .dwattr DW$172, DW_AT_accessibility(DW_ACCESS_public)
    1982              DW$173  .dwtag  DW_TAG_member, DW_AT_type(*DW$T$11)
    1983                      .dwattr DW$173, DW_AT_name("alarmlevel"), DW_AT_symbol_name("_alarmlevel")
    1984                      .dwattr DW$173, DW_AT_data_member_location[DW_OP_plus_uconst 0x19]
    1985                      .dwattr DW$173, DW_AT_accessibility(DW_ACCESS_public)
    1986              DW$174  .dwtag  DW_TAG_member, DW_AT_type(*DW$T$11)
    1987                      .dwattr DW$174, DW_AT_name("slowdowndevlevel"), DW_AT_symbol_name("_slowdowndevlevel")
    1988                      .dwattr DW$174, DW_AT_data_member_location[DW_OP_plus_uconst 0x1a]
    1989                      .dwattr DW$174, DW_AT_accessibility(DW_ACCESS_public)
    1990              DW$175  .dwtag  DW_TAG_member, DW_AT_type(*DW$T$11)
    1991                      .dwattr DW$175, DW_AT_name("alarmdevlevel"), DW_AT_symbol_name("_alarmdevlevel")
    1992                      .dwattr DW$175, DW_AT_data_member_location[DW_OP_plus_uconst 0x1b]
    1993                      .dwattr DW$175, DW_AT_accessibility(DW_ACCESS_public)
    1994              DW$176  .dwtag  DW_TAG_member, DW_AT_type(*DW$T$11)
    1995                      .dwattr DW$176, DW_AT_name("cylinderalarmlevel"), DW_AT_symbol_name("_cylinderalarmlevel")
    1996                      .dwattr DW$176, DW_AT_data_member_location[DW_OP_plus_uconst 0x1c]
    1997                      .dwattr DW$176, DW_AT_accessibility(DW_ACCESS_public)
    1998              DW$177  .dwtag  DW_TAG_member, DW_AT_type(*DW$T$11)
    1999                      .dwattr DW$177, DW_AT_name("temperaturealarm"), DW_AT_symbol_name("_temperaturealarm")
    2000                      .dwattr DW$177, DW_AT_data_member_location[DW_OP_plus_uconst 0x1d]
    2001                      .dwattr DW$177, DW_AT_accessibility(DW_ACCESS_public)
    2002              DW$178  .dwtag  DW_TAG_member, DW_AT_type(*DW$T$11)
    2003                      .dwattr DW$178, DW_AT_name("temperatureslowdown"), DW_AT_symbol_name("_temperatureslowdown")
    2004                      .dwattr DW$178, DW_AT_data_member_location[DW_OP_plus_uconst 0x1e]
    2005                      .dwattr DW$178, DW_AT_accessibility(DW_ACCESS_public)
    2006              DW$179  .dwtag  DW_TAG_member, DW_AT_type(*DW$T$29)
    2007                      .dwattr DW$179, DW_AT_name("anadebug"), DW_AT_symbol_name("_anadebug")
    2008                      .dwattr DW$179, DW_AT_data_member_location[DW_OP_plus_uconst 0x1f]
    2009                      .dwattr DW$179, DW_AT_accessibility(DW_ACCESS_public)
    2010              DW$180  .dwtag  DW_TAG_member, DW_AT_type(*DW$T$11)
    2011                      .dwattr DW$180, DW_AT_name("serialdebug"), DW_AT_symbol_name("_serialdebug")
    2012                      .dwattr DW$180, DW_AT_data_member_location[DW_OP_plus_uconst 0x21]
    2013                      .dwattr DW$180, DW_AT_accessibility(DW_ACCESS_public)
    2014              DW$181  .dwtag  DW_TAG_member, DW_AT_type(*DW$T$11)
    2015                      .dwattr DW$181, DW_AT_name("timerrunning"), DW_AT_symbol_name("_timerrunning")
    2016                      .dwattr DW$181, DW_AT_data_member_location[DW_OP_plus_uconst 0x22]
    2017                      .dwattr DW$181, DW_AT_accessibility(DW_ACCESS_public)
    2018              DW$182  .dwtag  DW_TAG_member, DW_AT_type(*DW$T$11)
    2019                      .dwattr DW$182, DW_AT_name("rpm"), DW_AT_symbol_name("_rpm")
    2020                      .dwattr DW$182, DW_AT_data_member_location[DW_OP_plus_uconst 0x23]
    2021                      .dwattr DW$182, DW_AT_accessibility(DW_ACCESS_public)
    2022                      .dwendtag DW$T$30
    2023              
    2024              DW$T$88 .dwtag  DW_TAG_typedef, DW_AT_name("timersstruct"), DW_AT_type(*DW$T$32)
TMS320C2000 COFF Assembler PC v4.1.3 Thu Aug 18 12:16:11 2016

Tools Copyright (c) 1996-2006 Texas Instruments Incorporated
digout.asm                                                           PAGE   43

    2025                      .dwattr DW$T$88, DW_AT_language(DW_LANG_C)
    2026              
    2027              DW$T$35 .dwtag  DW_TAG_structure_type
    2028                      .dwattr DW$T$35, DW_AT_name("tag_allsensorstruct")
    2029                      .dwattr DW$T$35, DW_AT_byte_size(0x2d)
    2030              DW$183  .dwtag  DW_TAG_member, DW_AT_type(*DW$T$11)
    2031                      .dwattr DW$183, DW_AT_name("numsensors"), DW_AT_symbol_name("_numsensors")
    2032                      .dwattr DW$183, DW_AT_data_member_location[DW_OP_plus_uconst 0x0]
    2033                      .dwattr DW$183, DW_AT_accessibility(DW_ACCESS_public)
    2034              DW$184  .dwtag  DW_TAG_member, DW_AT_type(*DW$T$11)
    2035                      .dwattr DW$184, DW_AT_name("numsensorsspu1"), DW_AT_symbol_name("_numsensorsspu1")
    2036                      .dwattr DW$184, DW_AT_data_member_location[DW_OP_plus_uconst 0x1]
    2037                      .dwattr DW$184, DW_AT_accessibility(DW_ACCESS_public)
    2038              DW$185  .dwtag  DW_TAG_member, DW_AT_type(*DW$T$11)
    2039                      .dwattr DW$185, DW_AT_name("numsensorsspu2"), DW_AT_symbol_name("_numsensorsspu2")
    2040                      .dwattr DW$185, DW_AT_data_member_location[DW_OP_plus_uconst 0x2]
    2041                      .dwattr DW$185, DW_AT_accessibility(DW_ACCESS_public)
    2042              DW$186  .dwtag  DW_TAG_member, DW_AT_type(*DW$T$11)
    2043                      .dwattr DW$186, DW_AT_name("nominalspeed"), DW_AT_symbol_name("_nominalspeed")
    2044                      .dwattr DW$186, DW_AT_data_member_location[DW_OP_plus_uconst 0x3]
    2045                      .dwattr DW$186, DW_AT_accessibility(DW_ACCESS_public)
    2046              DW$187  .dwtag  DW_TAG_member, DW_AT_type(*DW$T$11)
    2047                      .dwattr DW$187, DW_AT_name("rpmmin"), DW_AT_symbol_name("_rpmmin")
    2048                      .dwattr DW$187, DW_AT_data_member_location[DW_OP_plus_uconst 0x4]
    2049                      .dwattr DW$187, DW_AT_accessibility(DW_ACCESS_public)
    2050              DW$188  .dwtag  DW_TAG_member, DW_AT_type(*DW$T$11)
    2051                      .dwattr DW$188, DW_AT_name("rpmmax"), DW_AT_symbol_name("_rpmmax")
    2052                      .dwattr DW$188, DW_AT_data_member_location[DW_OP_plus_uconst 0x5]
    2053                      .dwattr DW$188, DW_AT_accessibility(DW_ACCESS_public)
    2054              DW$189  .dwtag  DW_TAG_member, DW_AT_type(*DW$T$11)
    2055                      .dwattr DW$189, DW_AT_name("reflash"), DW_AT_symbol_name("_reflash")
    2056                      .dwattr DW$189, DW_AT_data_member_location[DW_OP_plus_uconst 0x6]
    2057                      .dwattr DW$189, DW_AT_accessibility(DW_ACCESS_public)
    2058              DW$190  .dwtag  DW_TAG_member, DW_AT_type(*DW$T$10)
    2059                      .dwattr DW$190, DW_AT_name("sensorhysteresis"), DW_AT_symbol_name("_sensorhysteresis")
    2060                      .dwattr DW$190, DW_AT_data_member_location[DW_OP_plus_uconst 0x7]
    2061                      .dwattr DW$190, DW_AT_accessibility(DW_ACCESS_public)
    2062              DW$191  .dwtag  DW_TAG_member, DW_AT_type(*DW$T$10)
    2063                      .dwattr DW$191, DW_AT_name("cylinderhysteresis"), DW_AT_symbol_name("_cylinderhysteresis")
    2064                      .dwattr DW$191, DW_AT_data_member_location[DW_OP_plus_uconst 0x8]
    2065                      .dwattr DW$191, DW_AT_accessibility(DW_ACCESS_public)
    2066              DW$192  .dwtag  DW_TAG_member, DW_AT_type(*DW$T$11)
    2067                      .dwattr DW$192, DW_AT_name("slowdownlevel"), DW_AT_symbol_name("_slowdownlevel")
    2068                      .dwattr DW$192, DW_AT_data_member_location[DW_OP_plus_uconst 0x9]
    2069                      .dwattr DW$192, DW_AT_accessibility(DW_ACCESS_public)
    2070              DW$193  .dwtag  DW_TAG_member, DW_AT_type(*DW$T$11)
    2071                      .dwattr DW$193, DW_AT_name("alarmlevel"), DW_AT_symbol_name("_alarmlevel")
    2072                      .dwattr DW$193, DW_AT_data_member_location[DW_OP_plus_uconst 0xa]
    2073                      .dwattr DW$193, DW_AT_accessibility(DW_ACCESS_public)
    2074              DW$194  .dwtag  DW_TAG_member, DW_AT_type(*DW$T$11)
    2075                      .dwattr DW$194, DW_AT_name("slowdowndevcallevel"), DW_AT_symbol_name("_slowdowndevcallevel")
    2076                      .dwattr DW$194, DW_AT_data_member_location[DW_OP_plus_uconst 0xb]
    2077                      .dwattr DW$194, DW_AT_accessibility(DW_ACCESS_public)
    2078              DW$195  .dwtag  DW_TAG_member, DW_AT_type(*DW$T$11)
    2079                      .dwattr DW$195, DW_AT_name("alarmdevcallevel"), DW_AT_symbol_name("_alarmdevcallevel")
TMS320C2000 COFF Assembler PC v4.1.3 Thu Aug 18 12:16:11 2016

Tools Copyright (c) 1996-2006 Texas Instruments Incorporated
digout.asm                                                           PAGE   44

    2080                      .dwattr DW$195, DW_AT_data_member_location[DW_OP_plus_uconst 0xc]
    2081                      .dwattr DW$195, DW_AT_accessibility(DW_ACCESS_public)
    2082              DW$196  .dwtag  DW_TAG_member, DW_AT_type(*DW$T$11)
    2083                      .dwattr DW$196, DW_AT_name("slowdowndevlevel"), DW_AT_symbol_name("_slowdowndevlevel")
    2084                      .dwattr DW$196, DW_AT_data_member_location[DW_OP_plus_uconst 0xd]
    2085                      .dwattr DW$196, DW_AT_accessibility(DW_ACCESS_public)
    2086              DW$197  .dwtag  DW_TAG_member, DW_AT_type(*DW$T$11)
    2087                      .dwattr DW$197, DW_AT_name("alarmdevlevel"), DW_AT_symbol_name("_alarmdevlevel")
    2088                      .dwattr DW$197, DW_AT_data_member_location[DW_OP_plus_uconst 0xe]
    2089                      .dwattr DW$197, DW_AT_accessibility(DW_ACCESS_public)
    2090              DW$198  .dwtag  DW_TAG_member, DW_AT_type(*DW$T$11)
    2091                      .dwattr DW$198, DW_AT_name("cylinderalarmlevel"), DW_AT_symbol_name("_cylinderalarmlevel")
    2092                      .dwattr DW$198, DW_AT_data_member_location[DW_OP_plus_uconst 0xf]
    2093                      .dwattr DW$198, DW_AT_accessibility(DW_ACCESS_public)
    2094              DW$199  .dwtag  DW_TAG_member, DW_AT_type(*DW$T$33)
    2095                      .dwattr DW$199, DW_AT_name("flags"), DW_AT_symbol_name("_flags")
    2096                      .dwattr DW$199, DW_AT_data_member_location[DW_OP_plus_uconst 0x10]
    2097                      .dwattr DW$199, DW_AT_accessibility(DW_ACCESS_public)
    2098              DW$200  .dwtag  DW_TAG_member, DW_AT_type(*DW$T$11)
    2099                      .dwattr DW$200, DW_AT_name("slowdownack"), DW_AT_symbol_name("_slowdownack")
    2100                      .dwattr DW$200, DW_AT_data_member_location[DW_OP_plus_uconst 0x11]
    2101                      .dwattr DW$200, DW_AT_accessibility(DW_ACCESS_public)
    2102              DW$201  .dwtag  DW_TAG_member, DW_AT_type(*DW$T$11)
    2103                      .dwattr DW$201, DW_AT_name("alarmack"), DW_AT_symbol_name("_alarmack")
    2104                      .dwattr DW$201, DW_AT_data_member_location[DW_OP_plus_uconst 0x12]
    2105                      .dwattr DW$201, DW_AT_accessibility(DW_ACCESS_public)
    2106              DW$202  .dwtag  DW_TAG_member, DW_AT_type(*DW$T$11)
    2107                      .dwattr DW$202, DW_AT_name("maxmintimer"), DW_AT_symbol_name("_maxmintimer")
    2108                      .dwattr DW$202, DW_AT_data_member_location[DW_OP_plus_uconst 0x13]
    2109                      .dwattr DW$202, DW_AT_accessibility(DW_ACCESS_public)
    2110              DW$203  .dwtag  DW_TAG_member, DW_AT_type(*DW$T$11)
    2111                      .dwattr DW$203, DW_AT_name("enginedircal"), DW_AT_symbol_name("_enginedircal")
    2112                      .dwattr DW$203, DW_AT_data_member_location[DW_OP_plus_uconst 0x14]
    2113                      .dwattr DW$203, DW_AT_accessibility(DW_ACCESS_public)
    2114              DW$204  .dwtag  DW_TAG_member, DW_AT_type(*DW$T$31)
    2115                      .dwattr DW$204, DW_AT_name("dirorder"), DW_AT_symbol_name("_dirorder")
    2116                      .dwattr DW$204, DW_AT_data_member_location[DW_OP_plus_uconst 0x15]
    2117                      .dwattr DW$204, DW_AT_accessibility(DW_ACCESS_public)
    2118              DW$205  .dwtag  DW_TAG_member, DW_AT_type(*DW$T$11)
    2119                      .dwattr DW$205, DW_AT_name("prewarningtimer"), DW_AT_symbol_name("_prewarningtimer")
    2120                      .dwattr DW$205, DW_AT_data_member_location[DW_OP_plus_uconst 0x23]
    2121                      .dwattr DW$205, DW_AT_accessibility(DW_ACCESS_public)
    2122              DW$206  .dwtag  DW_TAG_member, DW_AT_type(*DW$T$11)
    2123                      .dwattr DW$206, DW_AT_name("prewarninglevel"), DW_AT_symbol_name("_prewarninglevel")
    2124                      .dwattr DW$206, DW_AT_data_member_location[DW_OP_plus_uconst 0x24]
    2125                      .dwattr DW$206, DW_AT_accessibility(DW_ACCESS_public)
    2126              DW$207  .dwtag  DW_TAG_member, DW_AT_type(*DW$T$11)
    2127                      .dwattr DW$207, DW_AT_name("rpmlimit"), DW_AT_symbol_name("_rpmlimit")
    2128                      .dwattr DW$207, DW_AT_data_member_location[DW_OP_plus_uconst 0x25]
    2129                      .dwattr DW$207, DW_AT_accessibility(DW_ACCESS_public)
    2130              DW$208  .dwtag  DW_TAG_member, DW_AT_type(*DW$T$11)
    2131                      .dwattr DW$208, DW_AT_name("dsss"), DW_AT_symbol_name("_dsss")
    2132                      .dwattr DW$208, DW_AT_data_member_location[DW_OP_plus_uconst 0x26]
    2133                      .dwattr DW$208, DW_AT_accessibility(DW_ACCESS_public)
    2134              DW$209  .dwtag  DW_TAG_member, DW_AT_type(*DW$T$11)
TMS320C2000 COFF Assembler PC v4.1.3 Thu Aug 18 12:16:11 2016

Tools Copyright (c) 1996-2006 Texas Instruments Incorporated
digout.asm                                                           PAGE   45

    2135                      .dwattr DW$209, DW_AT_name("slowdowncallevel"), DW_AT_symbol_name("_slowdowncallevel")
    2136                      .dwattr DW$209, DW_AT_data_member_location[DW_OP_plus_uconst 0x27]
    2137                      .dwattr DW$209, DW_AT_accessibility(DW_ACCESS_public)
    2138              DW$210  .dwtag  DW_TAG_member, DW_AT_type(*DW$T$11)
    2139                      .dwattr DW$210, DW_AT_name("alarmcallevel"), DW_AT_symbol_name("_alarmcallevel")
    2140                      .dwattr DW$210, DW_AT_data_member_location[DW_OP_plus_uconst 0x28]
    2141                      .dwattr DW$210, DW_AT_accessibility(DW_ACCESS_public)
    2142              DW$211  .dwtag  DW_TAG_member, DW_AT_type(*DW$T$11)
    2143                      .dwattr DW$211, DW_AT_name("cylinderalarmcallevel"), DW_AT_symbol_name("_cylinderalarmcallevel")
    2144                      .dwattr DW$211, DW_AT_data_member_location[DW_OP_plus_uconst 0x29]
    2145                      .dwattr DW$211, DW_AT_accessibility(DW_ACCESS_public)
    2146              DW$212  .dwtag  DW_TAG_member, DW_AT_type(*DW$T$34)
    2147                      .dwattr DW$212, DW_AT_name("bits"), DW_AT_symbol_name("_bits")
    2148                      .dwattr DW$212, DW_AT_data_member_location[DW_OP_plus_uconst 0x2a]
    2149                      .dwattr DW$212, DW_AT_accessibility(DW_ACCESS_public)
    2150              DW$213  .dwtag  DW_TAG_member, DW_AT_type(*DW$T$11)
    2151                      .dwattr DW$213, DW_AT_name("iBarredVibrationSpeedLow"), DW_AT_symbol_name("_iBarredVibrationSpeedLow"
    2152                      .dwattr DW$213, DW_AT_data_member_location[DW_OP_plus_uconst 0x2b]
    2153                      .dwattr DW$213, DW_AT_accessibility(DW_ACCESS_public)
    2154              DW$214  .dwtag  DW_TAG_member, DW_AT_type(*DW$T$11)
    2155                      .dwattr DW$214, DW_AT_name("iBarredVibrationSpeedHigh"), DW_AT_symbol_name("_iBarredVibrationSpeedHig
    2156                      .dwattr DW$214, DW_AT_data_member_location[DW_OP_plus_uconst 0x2c]
    2157                      .dwattr DW$214, DW_AT_accessibility(DW_ACCESS_public)
    2158                      .dwendtag DW$T$35
    2159              
    2160              DW$T$92 .dwtag  DW_TAG_typedef, DW_AT_name("cylinderstruct"), DW_AT_type(*DW$T$38)
    2161                      .dwattr DW$T$92, DW_AT_language(DW_LANG_C)
    2162              
    2163              DW$T$45 .dwtag  DW_TAG_structure_type
    2164                      .dwattr DW$T$45, DW_AT_name("tag_configstruct")
    2165                      .dwattr DW$T$45, DW_AT_byte_size(0x18)
    2166              DW$215  .dwtag  DW_TAG_member, DW_AT_type(*DW$T$39)
    2167                      .dwattr DW$215, DW_AT_name("filter"), DW_AT_symbol_name("_filter")
    2168                      .dwattr DW$215, DW_AT_data_member_location[DW_OP_plus_uconst 0x0]
    2169                      .dwattr DW$215, DW_AT_accessibility(DW_ACCESS_public)
    2170              DW$216  .dwtag  DW_TAG_member, DW_AT_type(*DW$T$40)
    2171                      .dwattr DW$216, DW_AT_name("alarmenable"), DW_AT_symbol_name("_alarmenable")
    2172                      .dwattr DW$216, DW_AT_data_member_location[DW_OP_plus_uconst 0x1]
    2173                      .dwattr DW$216, DW_AT_accessibility(DW_ACCESS_public)
    2174              DW$217  .dwtag  DW_TAG_member, DW_AT_type(*DW$T$41)
    2175                      .dwattr DW$217, DW_AT_name("trendmax"), DW_AT_symbol_name("_trendmax")
    2176                      .dwattr DW$217, DW_AT_data_member_location[DW_OP_plus_uconst 0x2]
    2177                      .dwattr DW$217, DW_AT_accessibility(DW_ACCESS_public)
    2178              DW$218  .dwtag  DW_TAG_member, DW_AT_type(*DW$T$42)
    2179                      .dwattr DW$218, DW_AT_name("inputs"), DW_AT_symbol_name("_inputs")
    2180                      .dwattr DW$218, DW_AT_data_member_location[DW_OP_plus_uconst 0x3]
    2181                      .dwattr DW$218, DW_AT_accessibility(DW_ACCESS_public)
    2182              DW$219  .dwtag  DW_TAG_member, DW_AT_type(*DW$T$43)
    2183                      .dwattr DW$219, DW_AT_name("sdsettings"), DW_AT_symbol_name("_sdsettings")
    2184                      .dwattr DW$219, DW_AT_data_member_location[DW_OP_plus_uconst 0x6]
    2185                      .dwattr DW$219, DW_AT_accessibility(DW_ACCESS_public)
    2186              DW$220  .dwtag  DW_TAG_member, DW_AT_type(*DW$T$44)
    2187                      .dwattr DW$220, DW_AT_name("comms"), DW_AT_symbol_name("_comms")
    2188                      .dwattr DW$220, DW_AT_data_member_location[DW_OP_plus_uconst 0x8]
    2189                      .dwattr DW$220, DW_AT_accessibility(DW_ACCESS_public)
TMS320C2000 COFF Assembler PC v4.1.3 Thu Aug 18 12:16:11 2016

Tools Copyright (c) 1996-2006 Texas Instruments Incorporated
digout.asm                                                           PAGE   46

    2190                      .dwendtag DW$T$45
    2191              
    2192              
    2193              DW$T$47 .dwtag  DW_TAG_structure_type
    2194                      .dwattr DW$T$47, DW_AT_name("tag_damalarmsstruct")
    2195                      .dwattr DW$T$47, DW_AT_byte_size(0x04)
    2196              DW$221  .dwtag  DW_TAG_member, DW_AT_type(*DW$T$46)
    2197                      .dwattr DW$221, DW_AT_name("single"), DW_AT_symbol_name("_single")
    2198                      .dwattr DW$221, DW_AT_data_member_location[DW_OP_plus_uconst 0x0]
    2199                      .dwattr DW$221, DW_AT_accessibility(DW_ACCESS_public)
    2200              DW$222  .dwtag  DW_TAG_member, DW_AT_type(*DW$T$11)
    2201                      .dwattr DW$222, DW_AT_name("cylinder"), DW_AT_symbol_name("_cylinder")
    2202                      .dwattr DW$222, DW_AT_data_member_location[DW_OP_plus_uconst 0x2]
    2203                      .dwattr DW$222, DW_AT_accessibility(DW_ACCESS_public)
    2204              DW$223  .dwtag  DW_TAG_member, DW_AT_type(*DW$T$11)
    2205                      .dwattr DW$223, DW_AT_name("mbneighbour"), DW_AT_symbol_name("_mbneighbour")
    2206                      .dwattr DW$223, DW_AT_data_member_location[DW_OP_plus_uconst 0x3]
    2207                      .dwattr DW$223, DW_AT_accessibility(DW_ACCESS_public)
    2208                      .dwendtag DW$T$47
    2209              
    2210              
    2211              DW$T$48 .dwtag  DW_TAG_structure_type
    2212                      .dwattr DW$T$48, DW_AT_name("tag_alarmsstruct")
    2213                      .dwattr DW$T$48, DW_AT_byte_size(0x01)
    2214              DW$224  .dwtag  DW_TAG_member, DW_AT_type(*DW$T$11)
    2215                      .dwattr DW$224, DW_AT_name("slavefailure"), DW_AT_symbol_name("_slavefailure")
    2216                      .dwattr DW$224, DW_AT_bit_offset(0x0f), DW_AT_bit_size(0x01)
    2217                      .dwattr DW$224, DW_AT_data_member_location[DW_OP_plus_uconst 0x0]
    2218                      .dwattr DW$224, DW_AT_accessibility(DW_ACCESS_public)
    2219              DW$225  .dwtag  DW_TAG_member, DW_AT_type(*DW$T$11)
    2220                      .dwattr DW$225, DW_AT_name("slavefailurelatched"), DW_AT_symbol_name("_slavefailurelatched")
    2221                      .dwattr DW$225, DW_AT_bit_offset(0x0e), DW_AT_bit_size(0x01)
    2222                      .dwattr DW$225, DW_AT_data_member_location[DW_OP_plus_uconst 0x0]
    2223                      .dwattr DW$225, DW_AT_accessibility(DW_ACCESS_public)
    2224              DW$226  .dwtag  DW_TAG_member, DW_AT_type(*DW$T$11)
    2225                      .dwattr DW$226, DW_AT_name("framfailure"), DW_AT_symbol_name("_framfailure")
    2226                      .dwattr DW$226, DW_AT_bit_offset(0x0d), DW_AT_bit_size(0x01)
    2227                      .dwattr DW$226, DW_AT_data_member_location[DW_OP_plus_uconst 0x0]
    2228                      .dwattr DW$226, DW_AT_accessibility(DW_ACCESS_public)
    2229              DW$227  .dwtag  DW_TAG_member, DW_AT_type(*DW$T$11)
    2230                      .dwattr DW$227, DW_AT_name("framfailurelatched"), DW_AT_symbol_name("_framfailurelatched")
    2231                      .dwattr DW$227, DW_AT_bit_offset(0x0c), DW_AT_bit_size(0x01)
    2232                      .dwattr DW$227, DW_AT_data_member_location[DW_OP_plus_uconst 0x0]
    2233                      .dwattr DW$227, DW_AT_accessibility(DW_ACCESS_public)
    2234              DW$228  .dwtag  DW_TAG_member, DW_AT_type(*DW$T$11)
    2235                      .dwattr DW$228, DW_AT_name("pccommsfailure"), DW_AT_symbol_name("_pccommsfailure")
    2236                      .dwattr DW$228, DW_AT_bit_offset(0x0b), DW_AT_bit_size(0x01)
    2237                      .dwattr DW$228, DW_AT_data_member_location[DW_OP_plus_uconst 0x0]
    2238                      .dwattr DW$228, DW_AT_accessibility(DW_ACCESS_public)
    2239              DW$229  .dwtag  DW_TAG_member, DW_AT_type(*DW$T$11)
    2240                      .dwattr DW$229, DW_AT_name("pccommsfailurelatched"), DW_AT_symbol_name("_pccommsfailurelatched")
    2241                      .dwattr DW$229, DW_AT_bit_offset(0x0a), DW_AT_bit_size(0x01)
    2242                      .dwattr DW$229, DW_AT_data_member_location[DW_OP_plus_uconst 0x0]
    2243                      .dwattr DW$229, DW_AT_accessibility(DW_ACCESS_public)
    2244              DW$230  .dwtag  DW_TAG_member, DW_AT_type(*DW$T$11)
TMS320C2000 COFF Assembler PC v4.1.3 Thu Aug 18 12:16:11 2016

Tools Copyright (c) 1996-2006 Texas Instruments Incorporated
digout.asm                                                           PAGE   47

    2245                      .dwattr DW$230, DW_AT_name("unused7"), DW_AT_symbol_name("_unused7")
    2246                      .dwattr DW$230, DW_AT_bit_offset(0x09), DW_AT_bit_size(0x01)
    2247                      .dwattr DW$230, DW_AT_data_member_location[DW_OP_plus_uconst 0x0]
    2248                      .dwattr DW$230, DW_AT_accessibility(DW_ACCESS_public)
    2249              DW$231  .dwtag  DW_TAG_member, DW_AT_type(*DW$T$11)
    2250                      .dwattr DW$231, DW_AT_name("unused8"), DW_AT_symbol_name("_unused8")
    2251                      .dwattr DW$231, DW_AT_bit_offset(0x08), DW_AT_bit_size(0x01)
    2252                      .dwattr DW$231, DW_AT_data_member_location[DW_OP_plus_uconst 0x0]
    2253                      .dwattr DW$231, DW_AT_accessibility(DW_ACCESS_public)
    2254              DW$232  .dwtag  DW_TAG_member, DW_AT_type(*DW$T$11)
    2255                      .dwattr DW$232, DW_AT_name("unused9"), DW_AT_symbol_name("_unused9")
    2256                      .dwattr DW$232, DW_AT_bit_offset(0x07), DW_AT_bit_size(0x01)
    2257                      .dwattr DW$232, DW_AT_data_member_location[DW_OP_plus_uconst 0x0]
    2258                      .dwattr DW$232, DW_AT_accessibility(DW_ACCESS_public)
    2259              DW$233  .dwtag  DW_TAG_member, DW_AT_type(*DW$T$11)
    2260                      .dwattr DW$233, DW_AT_name("unused10"), DW_AT_symbol_name("_unused10")
    2261                      .dwattr DW$233, DW_AT_bit_offset(0x06), DW_AT_bit_size(0x01)
    2262                      .dwattr DW$233, DW_AT_data_member_location[DW_OP_plus_uconst 0x0]
    2263                      .dwattr DW$233, DW_AT_accessibility(DW_ACCESS_public)
    2264              DW$234  .dwtag  DW_TAG_member, DW_AT_type(*DW$T$11)
    2265                      .dwattr DW$234, DW_AT_name("unused11"), DW_AT_symbol_name("_unused11")
    2266                      .dwattr DW$234, DW_AT_bit_offset(0x05), DW_AT_bit_size(0x01)
    2267                      .dwattr DW$234, DW_AT_data_member_location[DW_OP_plus_uconst 0x0]
    2268                      .dwattr DW$234, DW_AT_accessibility(DW_ACCESS_public)
    2269              DW$235  .dwtag  DW_TAG_member, DW_AT_type(*DW$T$11)
    2270                      .dwattr DW$235, DW_AT_name("unused12"), DW_AT_symbol_name("_unused12")
    2271                      .dwattr DW$235, DW_AT_bit_offset(0x04), DW_AT_bit_size(0x01)
    2272                      .dwattr DW$235, DW_AT_data_member_location[DW_OP_plus_uconst 0x0]
    2273                      .dwattr DW$235, DW_AT_accessibility(DW_ACCESS_public)
    2274              DW$236  .dwtag  DW_TAG_member, DW_AT_type(*DW$T$11)
    2275                      .dwattr DW$236, DW_AT_name("unused13"), DW_AT_symbol_name("_unused13")
    2276                      .dwattr DW$236, DW_AT_bit_offset(0x03), DW_AT_bit_size(0x01)
    2277                      .dwattr DW$236, DW_AT_data_member_location[DW_OP_plus_uconst 0x0]
    2278                      .dwattr DW$236, DW_AT_accessibility(DW_ACCESS_public)
    2279              DW$237  .dwtag  DW_TAG_member, DW_AT_type(*DW$T$11)
    2280                      .dwattr DW$237, DW_AT_name("unused14"), DW_AT_symbol_name("_unused14")
    2281                      .dwattr DW$237, DW_AT_bit_offset(0x02), DW_AT_bit_size(0x01)
    2282                      .dwattr DW$237, DW_AT_data_member_location[DW_OP_plus_uconst 0x0]
    2283                      .dwattr DW$237, DW_AT_accessibility(DW_ACCESS_public)
    2284              DW$238  .dwtag  DW_TAG_member, DW_AT_type(*DW$T$11)
    2285                      .dwattr DW$238, DW_AT_name("unused15"), DW_AT_symbol_name("_unused15")
    2286                      .dwattr DW$238, DW_AT_bit_offset(0x01), DW_AT_bit_size(0x01)
    2287                      .dwattr DW$238, DW_AT_data_member_location[DW_OP_plus_uconst 0x0]
    2288                      .dwattr DW$238, DW_AT_accessibility(DW_ACCESS_public)
    2289              DW$239  .dwtag  DW_TAG_member, DW_AT_type(*DW$T$11)
    2290                      .dwattr DW$239, DW_AT_name("unused16"), DW_AT_symbol_name("_unused16")
    2291                      .dwattr DW$239, DW_AT_bit_offset(0x00), DW_AT_bit_size(0x01)
    2292                      .dwattr DW$239, DW_AT_data_member_location[DW_OP_plus_uconst 0x0]
    2293                      .dwattr DW$239, DW_AT_accessibility(DW_ACCESS_public)
    2294                      .dwendtag DW$T$48
    2295              
    2296              
    2297              DW$T$50 .dwtag  DW_TAG_structure_type
    2298                      .dwattr DW$T$50, DW_AT_name("tag_slemsstruct")
    2299                      .dwattr DW$T$50, DW_AT_byte_size(0x03)
TMS320C2000 COFF Assembler PC v4.1.3 Thu Aug 18 12:16:11 2016

Tools Copyright (c) 1996-2006 Texas Instruments Incorporated
digout.asm                                                           PAGE   48

    2300              DW$240  .dwtag  DW_TAG_member, DW_AT_type(*DW$T$10)
    2301                      .dwattr DW$240, DW_AT_name("mV"), DW_AT_symbol_name("_mV")
    2302                      .dwattr DW$240, DW_AT_data_member_location[DW_OP_plus_uconst 0x0]
    2303                      .dwattr DW$240, DW_AT_accessibility(DW_ACCESS_public)
    2304              DW$241  .dwtag  DW_TAG_member, DW_AT_type(*DW$T$49)
    2305                      .dwattr DW$241, DW_AT_name("alarms"), DW_AT_symbol_name("_alarms")
    2306                      .dwattr DW$241, DW_AT_data_member_location[DW_OP_plus_uconst 0x1]
    2307                      .dwattr DW$241, DW_AT_accessibility(DW_ACCESS_public)
    2308              DW$242  .dwtag  DW_TAG_member, DW_AT_type(*DW$T$11)
    2309                      .dwattr DW$242, DW_AT_name("levelcount"), DW_AT_symbol_name("_levelcount")
    2310                      .dwattr DW$242, DW_AT_data_member_location[DW_OP_plus_uconst 0x2]
    2311                      .dwattr DW$242, DW_AT_accessibility(DW_ACCESS_public)
    2312                      .dwendtag DW$T$50
    2313              
    2314              
    2315              DW$T$52 .dwtag  DW_TAG_structure_type
    2316                      .dwattr DW$T$52, DW_AT_name("tag_rtcbatstruct")
    2317                      .dwattr DW$T$52, DW_AT_byte_size(0x02)
    2318              DW$243  .dwtag  DW_TAG_member, DW_AT_type(*DW$T$10)
    2319                      .dwattr DW$243, DW_AT_name("mV"), DW_AT_symbol_name("_mV")
    2320                      .dwattr DW$243, DW_AT_data_member_location[DW_OP_plus_uconst 0x0]
    2321                      .dwattr DW$243, DW_AT_accessibility(DW_ACCESS_public)
    2322              DW$244  .dwtag  DW_TAG_member, DW_AT_type(*DW$T$51)
    2323                      .dwattr DW$244, DW_AT_name("alarms"), DW_AT_symbol_name("_alarms")
    2324                      .dwattr DW$244, DW_AT_data_member_location[DW_OP_plus_uconst 0x1]
    2325                      .dwattr DW$244, DW_AT_accessibility(DW_ACCESS_public)
    2326                      .dwendtag DW$T$52
    2327              
    2328              
    2329              DW$T$53 .dwtag  DW_TAG_structure_type
    2330                      .dwattr DW$T$53, DW_AT_byte_size(0x07)
    2331              DW$245  .dwtag  DW_TAG_member, DW_AT_type(*DW$T$11)
    2332                      .dwattr DW$245, DW_AT_name("outputtestmode"), DW_AT_symbol_name("_outputtestmode")
    2333                      .dwattr DW$245, DW_AT_data_member_location[DW_OP_plus_uconst 0x0]
    2334                      .dwattr DW$245, DW_AT_accessibility(DW_ACCESS_public)
    2335              DW$246  .dwtag  DW_TAG_member, DW_AT_type(*DW$T$11)
    2336                      .dwattr DW$246, DW_AT_name("previousstatus"), DW_AT_symbol_name("_previousstatus")
    2337                      .dwattr DW$246, DW_AT_data_member_location[DW_OP_plus_uconst 0x1]
    2338                      .dwattr DW$246, DW_AT_accessibility(DW_ACCESS_public)
    2339              DW$247  .dwtag  DW_TAG_member, DW_AT_type(*DW$T$11)
    2340                      .dwattr DW$247, DW_AT_name("previousslowdown"), DW_AT_symbol_name("_previousslowdown")
    2341                      .dwattr DW$247, DW_AT_data_member_location[DW_OP_plus_uconst 0x2]
    2342                      .dwattr DW$247, DW_AT_accessibility(DW_ACCESS_public)
    2343              DW$248  .dwtag  DW_TAG_member, DW_AT_type(*DW$T$11)
    2344                      .dwattr DW$248, DW_AT_name("previousalarm"), DW_AT_symbol_name("_previousalarm")
    2345                      .dwattr DW$248, DW_AT_data_member_location[DW_OP_plus_uconst 0x3]
    2346                      .dwattr DW$248, DW_AT_accessibility(DW_ACCESS_public)
    2347              DW$249  .dwtag  DW_TAG_member, DW_AT_type(*DW$T$11)
    2348                      .dwattr DW$249, DW_AT_name("slowdownreflash"), DW_AT_symbol_name("_slowdownreflash")
    2349                      .dwattr DW$249, DW_AT_data_member_location[DW_OP_plus_uconst 0x4]
    2350                      .dwattr DW$249, DW_AT_accessibility(DW_ACCESS_public)
    2351              DW$250  .dwtag  DW_TAG_member, DW_AT_type(*DW$T$11)
    2352                      .dwattr DW$250, DW_AT_name("alarmreflash"), DW_AT_symbol_name("_alarmreflash")
    2353                      .dwattr DW$250, DW_AT_data_member_location[DW_OP_plus_uconst 0x5]
    2354                      .dwattr DW$250, DW_AT_accessibility(DW_ACCESS_public)
TMS320C2000 COFF Assembler PC v4.1.3 Thu Aug 18 12:16:11 2016

Tools Copyright (c) 1996-2006 Texas Instruments Incorporated
digout.asm                                                           PAGE   49

    2355              DW$251  .dwtag  DW_TAG_member, DW_AT_type(*DW$T$11)
    2356                      .dwattr DW$251, DW_AT_name("statusreflash"), DW_AT_symbol_name("_statusreflash")
    2357                      .dwattr DW$251, DW_AT_data_member_location[DW_OP_plus_uconst 0x6]
    2358                      .dwattr DW$251, DW_AT_accessibility(DW_ACCESS_public)
    2359                      .dwendtag DW$T$53
    2360              
    2361              DW$T$16 .dwtag  DW_TAG_base_type, DW_AT_name("float")
    2362                      .dwattr DW$T$16, DW_AT_encoding(DW_ATE_float)
    2363                      .dwattr DW$T$16, DW_AT_byte_size(0x02)
    2364              
    2365              DW$T$19 .dwtag  DW_TAG_structure_type
    2366                      .dwattr DW$T$19, DW_AT_name("tag_sensoralarmstruct")
    2367                      .dwattr DW$T$19, DW_AT_byte_size(0x01)
    2368              DW$252  .dwtag  DW_TAG_member, DW_AT_type(*DW$T$11)
    2369                      .dwattr DW$252, DW_AT_name("failure"), DW_AT_symbol_name("_failure")
    2370                      .dwattr DW$252, DW_AT_bit_offset(0x0f), DW_AT_bit_size(0x01)
    2371                      .dwattr DW$252, DW_AT_data_member_location[DW_OP_plus_uconst 0x0]
    2372                      .dwattr DW$252, DW_AT_accessibility(DW_ACCESS_public)
    2373              DW$253  .dwtag  DW_TAG_member, DW_AT_type(*DW$T$11)
    2374                      .dwattr DW$253, DW_AT_name("failurelatched"), DW_AT_symbol_name("_failurelatched")
    2375                      .dwattr DW$253, DW_AT_bit_offset(0x0e), DW_AT_bit_size(0x01)
    2376                      .dwattr DW$253, DW_AT_data_member_location[DW_OP_plus_uconst 0x0]
    2377                      .dwattr DW$253, DW_AT_accessibility(DW_ACCESS_public)
    2378              DW$254  .dwtag  DW_TAG_member, DW_AT_type(*DW$T$11)
    2379                      .dwattr DW$254, DW_AT_name("slowdown"), DW_AT_symbol_name("_slowdown")
    2380                      .dwattr DW$254, DW_AT_bit_offset(0x0d), DW_AT_bit_size(0x01)
    2381                      .dwattr DW$254, DW_AT_data_member_location[DW_OP_plus_uconst 0x0]
    2382                      .dwattr DW$254, DW_AT_accessibility(DW_ACCESS_public)
    2383              DW$255  .dwtag  DW_TAG_member, DW_AT_type(*DW$T$11)
    2384                      .dwattr DW$255, DW_AT_name("slowdownlatched"), DW_AT_symbol_name("_slowdownlatched")
    2385                      .dwattr DW$255, DW_AT_bit_offset(0x0c), DW_AT_bit_size(0x01)
    2386                      .dwattr DW$255, DW_AT_data_member_location[DW_OP_plus_uconst 0x0]
    2387                      .dwattr DW$255, DW_AT_accessibility(DW_ACCESS_public)
    2388              DW$256  .dwtag  DW_TAG_member, DW_AT_type(*DW$T$11)
    2389                      .dwattr DW$256, DW_AT_name("alarm"), DW_AT_symbol_name("_alarm")
    2390                      .dwattr DW$256, DW_AT_bit_offset(0x0b), DW_AT_bit_size(0x01)
    2391                      .dwattr DW$256, DW_AT_data_member_location[DW_OP_plus_uconst 0x0]
    2392                      .dwattr DW$256, DW_AT_accessibility(DW_ACCESS_public)
    2393              DW$257  .dwtag  DW_TAG_member, DW_AT_type(*DW$T$11)
    2394                      .dwattr DW$257, DW_AT_name("alarmlatched"), DW_AT_symbol_name("_alarmlatched")
    2395                      .dwattr DW$257, DW_AT_bit_offset(0x0a), DW_AT_bit_size(0x01)
    2396                      .dwattr DW$257, DW_AT_data_member_location[DW_OP_plus_uconst 0x0]
    2397                      .dwattr DW$257, DW_AT_accessibility(DW_ACCESS_public)
    2398              DW$258  .dwtag  DW_TAG_member, DW_AT_type(*DW$T$11)
    2399                      .dwattr DW$258, DW_AT_name("devalarm"), DW_AT_symbol_name("_devalarm")
    2400                      .dwattr DW$258, DW_AT_bit_offset(0x09), DW_AT_bit_size(0x01)
    2401                      .dwattr DW$258, DW_AT_data_member_location[DW_OP_plus_uconst 0x0]
    2402                      .dwattr DW$258, DW_AT_accessibility(DW_ACCESS_public)
    2403              DW$259  .dwtag  DW_TAG_member, DW_AT_type(*DW$T$11)
    2404                      .dwattr DW$259, DW_AT_name("devalarmlatched"), DW_AT_symbol_name("_devalarmlatched")
    2405                      .dwattr DW$259, DW_AT_bit_offset(0x08), DW_AT_bit_size(0x01)
    2406                      .dwattr DW$259, DW_AT_data_member_location[DW_OP_plus_uconst 0x0]
    2407                      .dwattr DW$259, DW_AT_accessibility(DW_ACCESS_public)
    2408              DW$260  .dwtag  DW_TAG_member, DW_AT_type(*DW$T$11)
    2409                      .dwattr DW$260, DW_AT_name("devslow"), DW_AT_symbol_name("_devslow")
TMS320C2000 COFF Assembler PC v4.1.3 Thu Aug 18 12:16:11 2016

Tools Copyright (c) 1996-2006 Texas Instruments Incorporated
digout.asm                                                           PAGE   50

    2410                      .dwattr DW$260, DW_AT_bit_offset(0x07), DW_AT_bit_size(0x01)
    2411                      .dwattr DW$260, DW_AT_data_member_location[DW_OP_plus_uconst 0x0]
    2412                      .dwattr DW$260, DW_AT_accessibility(DW_ACCESS_public)
    2413              DW$261  .dwtag  DW_TAG_member, DW_AT_type(*DW$T$11)
    2414                      .dwattr DW$261, DW_AT_name("devslowlatched"), DW_AT_symbol_name("_devslowlatched")
    2415                      .dwattr DW$261, DW_AT_bit_offset(0x06), DW_AT_bit_size(0x01)
    2416                      .dwattr DW$261, DW_AT_data_member_location[DW_OP_plus_uconst 0x0]
    2417                      .dwattr DW$261, DW_AT_accessibility(DW_ACCESS_public)
    2418              DW$262  .dwtag  DW_TAG_member, DW_AT_type(*DW$T$11)
    2419                      .dwattr DW$262, DW_AT_name("calibration"), DW_AT_symbol_name("_calibration")
    2420                      .dwattr DW$262, DW_AT_bit_offset(0x05), DW_AT_bit_size(0x01)
    2421                      .dwattr DW$262, DW_AT_data_member_location[DW_OP_plus_uconst 0x0]
    2422                      .dwattr DW$262, DW_AT_accessibility(DW_ACCESS_public)
    2423              DW$263  .dwtag  DW_TAG_member, DW_AT_type(*DW$T$11)
    2424                      .dwattr DW$263, DW_AT_name("calibrationlatched"), DW_AT_symbol_name("_calibrationlatched")
    2425                      .dwattr DW$263, DW_AT_bit_offset(0x04), DW_AT_bit_size(0x01)
    2426                      .dwattr DW$263, DW_AT_data_member_location[DW_OP_plus_uconst 0x0]
    2427                      .dwattr DW$263, DW_AT_accessibility(DW_ACCESS_public)
    2428              DW$264  .dwtag  DW_TAG_member, DW_AT_type(*DW$T$11)
    2429                      .dwattr DW$264, DW_AT_name("prewarning"), DW_AT_symbol_name("_prewarning")
    2430                      .dwattr DW$264, DW_AT_bit_offset(0x03), DW_AT_bit_size(0x01)
    2431                      .dwattr DW$264, DW_AT_data_member_location[DW_OP_plus_uconst 0x0]
    2432                      .dwattr DW$264, DW_AT_accessibility(DW_ACCESS_public)
    2433              DW$265  .dwtag  DW_TAG_member, DW_AT_type(*DW$T$11)
    2434                      .dwattr DW$265, DW_AT_name("prewarninglatched"), DW_AT_symbol_name("_prewarninglatched")
    2435                      .dwattr DW$265, DW_AT_bit_offset(0x02), DW_AT_bit_size(0x01)
    2436                      .dwattr DW$265, DW_AT_data_member_location[DW_OP_plus_uconst 0x0]
    2437                      .dwattr DW$265, DW_AT_accessibility(DW_ACCESS_public)
    2438              DW$266  .dwtag  DW_TAG_member, DW_AT_type(*DW$T$11)
    2439                      .dwattr DW$266, DW_AT_name("unused15"), DW_AT_symbol_name("_unused15")
    2440                      .dwattr DW$266, DW_AT_bit_offset(0x01), DW_AT_bit_size(0x01)
    2441                      .dwattr DW$266, DW_AT_data_member_location[DW_OP_plus_uconst 0x0]
    2442                      .dwattr DW$266, DW_AT_accessibility(DW_ACCESS_public)
    2443              DW$267  .dwtag  DW_TAG_member, DW_AT_type(*DW$T$11)
    2444                      .dwattr DW$267, DW_AT_name("unused16"), DW_AT_symbol_name("_unused16")
    2445                      .dwattr DW$267, DW_AT_bit_offset(0x00), DW_AT_bit_size(0x01)
    2446                      .dwattr DW$267, DW_AT_data_member_location[DW_OP_plus_uconst 0x0]
    2447                      .dwattr DW$267, DW_AT_accessibility(DW_ACCESS_public)
    2448                      .dwendtag DW$T$19
    2449              
    2450              DW$T$21 .dwtag  DW_TAG_typedef, DW_AT_name("wioalarmstruct"), DW_AT_type(*DW$T$20)
    2451                      .dwattr DW$T$21, DW_AT_language(DW_LANG_C)
    2452              
    2453              DW$T$25 .dwtag  DW_TAG_structure_type
    2454                      .dwattr DW$T$25, DW_AT_name("taggpbport")
    2455                      .dwattr DW$T$25, DW_AT_byte_size(0x01)
    2456              DW$268  .dwtag  DW_TAG_member, DW_AT_type(*DW$T$24)
    2457                      .dwattr DW$268, DW_AT_name("selunion"), DW_AT_symbol_name("_selunion")
    2458                      .dwattr DW$268, DW_AT_data_member_location[DW_OP_plus_uconst 0x0]
    2459                      .dwattr DW$268, DW_AT_accessibility(DW_ACCESS_public)
    2460                      .dwendtag DW$T$25
    2461              
    2462              
    2463              DW$T$28 .dwtag  DW_TAG_structure_type
    2464                      .dwattr DW$T$28, DW_AT_name("taggpfport")
TMS320C2000 COFF Assembler PC v4.1.3 Thu Aug 18 12:16:11 2016

Tools Copyright (c) 1996-2006 Texas Instruments Incorporated
digout.asm                                                           PAGE   51

    2465                      .dwattr DW$T$28, DW_AT_byte_size(0x01)
    2466              DW$269  .dwtag  DW_TAG_member, DW_AT_type(*DW$T$27)
    2467                      .dwattr DW$269, DW_AT_name("selunion"), DW_AT_symbol_name("_selunion")
    2468                      .dwattr DW$269, DW_AT_data_member_location[DW_OP_plus_uconst 0x0]
    2469                      .dwattr DW$269, DW_AT_accessibility(DW_ACCESS_public)
    2470                      .dwendtag DW$T$28
    2471              
    2472              
    2473              DW$T$29 .dwtag  DW_TAG_structure_type
    2474                      .dwattr DW$T$29, DW_AT_byte_size(0x02)
    2475              DW$270  .dwtag  DW_TAG_member, DW_AT_type(*DW$T$11)
    2476                      .dwattr DW$270, DW_AT_name("enb"), DW_AT_symbol_name("_enb")
    2477                      .dwattr DW$270, DW_AT_data_member_location[DW_OP_plus_uconst 0x0]
    2478                      .dwattr DW$270, DW_AT_accessibility(DW_ACCESS_public)
    2479              DW$271  .dwtag  DW_TAG_member, DW_AT_type(*DW$T$11)
    2480                      .dwattr DW$271, DW_AT_name("chan"), DW_AT_symbol_name("_chan")
    2481                      .dwattr DW$271, DW_AT_data_member_location[DW_OP_plus_uconst 0x1]
    2482                      .dwattr DW$271, DW_AT_accessibility(DW_ACCESS_public)
    2483                      .dwendtag DW$T$29
    2484              
    2485              
    2486              DW$T$32 .dwtag  DW_TAG_structure_type
    2487                      .dwattr DW$T$32, DW_AT_name("tag_timers")
    2488                      .dwattr DW$T$32, DW_AT_byte_size(0x4c)
    2489              DW$272  .dwtag  DW_TAG_member, DW_AT_type(*DW$T$11)
    2490                      .dwattr DW$272, DW_AT_name("update"), DW_AT_symbol_name("_update")
    2491                      .dwattr DW$272, DW_AT_data_member_location[DW_OP_plus_uconst 0x0]
    2492                      .dwattr DW$272, DW_AT_accessibility(DW_ACCESS_public)
    2493              DW$273  .dwtag  DW_TAG_member, DW_AT_type(*DW$T$11)
    2494                      .dwattr DW$273, DW_AT_name("general"), DW_AT_symbol_name("_general")
    2495                      .dwattr DW$273, DW_AT_data_member_location[DW_OP_plus_uconst 0x1]
    2496                      .dwattr DW$273, DW_AT_accessibility(DW_ACCESS_public)
    2497              DW$274  .dwtag  DW_TAG_member, DW_AT_type(*DW$T$11)
    2498                      .dwattr DW$274, DW_AT_name("rxcharTimeout"), DW_AT_symbol_name("_rxcharTimeout")
    2499                      .dwattr DW$274, DW_AT_data_member_location[DW_OP_plus_uconst 0x2]
    2500                      .dwattr DW$274, DW_AT_accessibility(DW_ACCESS_public)
    2501              DW$275  .dwtag  DW_TAG_member, DW_AT_type(*DW$T$11)
    2502                      .dwattr DW$275, DW_AT_name("wiorxtimeout"), DW_AT_symbol_name("_wiorxtimeout")
    2503                      .dwattr DW$275, DW_AT_data_member_location[DW_OP_plus_uconst 0x3]
    2504                      .dwattr DW$275, DW_AT_accessibility(DW_ACCESS_public)
    2505              DW$276  .dwtag  DW_TAG_member, DW_AT_type(*DW$T$11)
    2506                      .dwattr DW$276, DW_AT_name("wiomasterrxtimeout"), DW_AT_symbol_name("_wiomasterrxtimeout")
    2507                      .dwattr DW$276, DW_AT_data_member_location[DW_OP_plus_uconst 0x4]
    2508                      .dwattr DW$276, DW_AT_accessibility(DW_ACCESS_public)
    2509              DW$277  .dwtag  DW_TAG_member, DW_AT_type(*DW$T$11)
    2510                      .dwattr DW$277, DW_AT_name("masterrxtimeout"), DW_AT_symbol_name("_masterrxtimeout")
    2511                      .dwattr DW$277, DW_AT_data_member_location[DW_OP_plus_uconst 0x5]
    2512                      .dwattr DW$277, DW_AT_accessibility(DW_ACCESS_public)
    2513              DW$278  .dwtag  DW_TAG_member, DW_AT_type(*DW$T$11)
    2514                      .dwattr DW$278, DW_AT_name("slaverxtimeout"), DW_AT_symbol_name("_slaverxtimeout")
    2515                      .dwattr DW$278, DW_AT_data_member_location[DW_OP_plus_uconst 0x6]
    2516                      .dwattr DW$278, DW_AT_accessibility(DW_ACCESS_public)
    2517              DW$279  .dwtag  DW_TAG_member, DW_AT_type(*DW$T$11)
    2518                      .dwattr DW$279, DW_AT_name("sectick"), DW_AT_symbol_name("_sectick")
    2519                      .dwattr DW$279, DW_AT_data_member_location[DW_OP_plus_uconst 0x7]
TMS320C2000 COFF Assembler PC v4.1.3 Thu Aug 18 12:16:11 2016

Tools Copyright (c) 1996-2006 Texas Instruments Incorporated
digout.asm                                                           PAGE   52

    2520                      .dwattr DW$279, DW_AT_accessibility(DW_ACCESS_public)
    2521              DW$280  .dwtag  DW_TAG_member, DW_AT_type(*DW$T$11)
    2522                      .dwattr DW$280, DW_AT_name("ledflash"), DW_AT_symbol_name("_ledflash")
    2523                      .dwattr DW$280, DW_AT_data_member_location[DW_OP_plus_uconst 0x8]
    2524                      .dwattr DW$280, DW_AT_accessibility(DW_ACCESS_public)
    2525              DW$281  .dwtag  DW_TAG_member, DW_AT_type(*DW$T$11)
    2526                      .dwattr DW$281, DW_AT_name("prtsettle"), DW_AT_symbol_name("_prtsettle")
    2527                      .dwattr DW$281, DW_AT_data_member_location[DW_OP_plus_uconst 0x9]
    2528                      .dwattr DW$281, DW_AT_accessibility(DW_ACCESS_public)
    2529              DW$282  .dwtag  DW_TAG_member, DW_AT_type(*DW$T$31)
    2530                      .dwattr DW$282, DW_AT_name("chantimeout"), DW_AT_symbol_name("_chantimeout")
    2531                      .dwattr DW$282, DW_AT_data_member_location[DW_OP_plus_uconst 0xa]
    2532                      .dwattr DW$282, DW_AT_accessibility(DW_ACCESS_public)
    2533              DW$283  .dwtag  DW_TAG_member, DW_AT_type(*DW$T$31)
    2534                      .dwattr DW$283, DW_AT_name("chanwait"), DW_AT_symbol_name("_chanwait")
    2535                      .dwattr DW$283, DW_AT_data_member_location[DW_OP_plus_uconst 0x18]
    2536                      .dwattr DW$283, DW_AT_accessibility(DW_ACCESS_public)
    2537              DW$284  .dwtag  DW_TAG_member, DW_AT_type(*DW$T$11)
    2538                      .dwattr DW$284, DW_AT_name("pcrxtimeout"), DW_AT_symbol_name("_pcrxtimeout")
    2539                      .dwattr DW$284, DW_AT_data_member_location[DW_OP_plus_uconst 0x26]
    2540                      .dwattr DW$284, DW_AT_accessibility(DW_ACCESS_public)
    2541              DW$285  .dwtag  DW_TAG_member, DW_AT_type(*DW$T$11)
    2542                      .dwattr DW$285, DW_AT_name("pctxtimeout"), DW_AT_symbol_name("_pctxtimeout")
    2543                      .dwattr DW$285, DW_AT_data_member_location[DW_OP_plus_uconst 0x27]
    2544                      .dwattr DW$285, DW_AT_accessibility(DW_ACCESS_public)
    2545              DW$286  .dwtag  DW_TAG_member, DW_AT_type(*DW$T$11)
    2546                      .dwattr DW$286, DW_AT_name("spistatus"), DW_AT_symbol_name("_spistatus")
    2547                      .dwattr DW$286, DW_AT_data_member_location[DW_OP_plus_uconst 0x28]
    2548                      .dwattr DW$286, DW_AT_accessibility(DW_ACCESS_public)
    2549              DW$287  .dwtag  DW_TAG_member, DW_AT_type(*DW$T$11)
    2550                      .dwattr DW$287, DW_AT_name("rpm"), DW_AT_symbol_name("_rpm")
    2551                      .dwattr DW$287, DW_AT_data_member_location[DW_OP_plus_uconst 0x29]
    2552                      .dwattr DW$287, DW_AT_accessibility(DW_ACCESS_public)
    2553              DW$288  .dwtag  DW_TAG_member, DW_AT_type(*DW$T$11)
    2554                      .dwattr DW$288, DW_AT_name("slaverqst"), DW_AT_symbol_name("_slaverqst")
    2555                      .dwattr DW$288, DW_AT_data_member_location[DW_OP_plus_uconst 0x2a]
    2556                      .dwattr DW$288, DW_AT_accessibility(DW_ACCESS_public)
    2557              DW$289  .dwtag  DW_TAG_member, DW_AT_type(*DW$T$11)
    2558                      .dwattr DW$289, DW_AT_name("mastermodebutton"), DW_AT_symbol_name("_mastermodebutton")
    2559                      .dwattr DW$289, DW_AT_data_member_location[DW_OP_plus_uconst 0x2b]
    2560                      .dwattr DW$289, DW_AT_accessibility(DW_ACCESS_public)
    2561              DW$290  .dwtag  DW_TAG_member, DW_AT_type(*DW$T$11)
    2562                      .dwattr DW$290, DW_AT_name("dcmode"), DW_AT_symbol_name("_dcmode")
    2563                      .dwattr DW$290, DW_AT_data_member_location[DW_OP_plus_uconst 0x2c]
    2564                      .dwattr DW$290, DW_AT_accessibility(DW_ACCESS_public)
    2565              DW$291  .dwtag  DW_TAG_member, DW_AT_type(*DW$T$13)
    2566                      .dwattr DW$291, DW_AT_name("calibrate"), DW_AT_symbol_name("_calibrate")
    2567                      .dwattr DW$291, DW_AT_data_member_location[DW_OP_plus_uconst 0x2e]
    2568                      .dwattr DW$291, DW_AT_accessibility(DW_ACCESS_public)
    2569              DW$292  .dwtag  DW_TAG_member, DW_AT_type(*DW$T$13)
    2570                      .dwattr DW$292, DW_AT_name("calibrate2"), DW_AT_symbol_name("_calibrate2")
    2571                      .dwattr DW$292, DW_AT_data_member_location[DW_OP_plus_uconst 0x30]
    2572                      .dwattr DW$292, DW_AT_accessibility(DW_ACCESS_public)
    2573              DW$293  .dwtag  DW_TAG_member, DW_AT_type(*DW$T$11)
    2574                      .dwattr DW$293, DW_AT_name("alarmreflash"), DW_AT_symbol_name("_alarmreflash")
TMS320C2000 COFF Assembler PC v4.1.3 Thu Aug 18 12:16:11 2016

Tools Copyright (c) 1996-2006 Texas Instruments Incorporated
digout.asm                                                           PAGE   53

    2575                      .dwattr DW$293, DW_AT_data_member_location[DW_OP_plus_uconst 0x32]
    2576                      .dwattr DW$293, DW_AT_accessibility(DW_ACCESS_public)
    2577              DW$294  .dwtag  DW_TAG_member, DW_AT_type(*DW$T$11)
    2578                      .dwattr DW$294, DW_AT_name("slowdownreflash"), DW_AT_symbol_name("_slowdownreflash")
    2579                      .dwattr DW$294, DW_AT_data_member_location[DW_OP_plus_uconst 0x33]
    2580                      .dwattr DW$294, DW_AT_accessibility(DW_ACCESS_public)
    2581              DW$295  .dwtag  DW_TAG_member, DW_AT_type(*DW$T$11)
    2582                      .dwattr DW$295, DW_AT_name("wiorqst"), DW_AT_symbol_name("_wiorqst")
    2583                      .dwattr DW$295, DW_AT_data_member_location[DW_OP_plus_uconst 0x34]
    2584                      .dwattr DW$295, DW_AT_accessibility(DW_ACCESS_public)
    2585              DW$296  .dwtag  DW_TAG_member, DW_AT_type(*DW$T$11)
    2586                      .dwattr DW$296, DW_AT_name("rpmtimeout"), DW_AT_symbol_name("_rpmtimeout")
    2587                      .dwattr DW$296, DW_AT_data_member_location[DW_OP_plus_uconst 0x35]
    2588                      .dwattr DW$296, DW_AT_accessibility(DW_ACCESS_public)
    2589              DW$297  .dwtag  DW_TAG_member, DW_AT_type(*DW$T$11)
    2590                      .dwattr DW$297, DW_AT_name("analogoor"), DW_AT_symbol_name("_analogoor")
    2591                      .dwattr DW$297, DW_AT_data_member_location[DW_OP_plus_uconst 0x36]
    2592                      .dwattr DW$297, DW_AT_accessibility(DW_ACCESS_public)
    2593              DW$298  .dwtag  DW_TAG_member, DW_AT_type(*DW$T$11)
    2594                      .dwattr DW$298, DW_AT_name("motioncal"), DW_AT_symbol_name("_motioncal")
    2595                      .dwattr DW$298, DW_AT_data_member_location[DW_OP_plus_uconst 0x37]
    2596                      .dwattr DW$298, DW_AT_accessibility(DW_ACCESS_public)
    2597              DW$299  .dwtag  DW_TAG_member, DW_AT_type(*DW$T$11)
    2598                      .dwattr DW$299, DW_AT_name("framcheck"), DW_AT_symbol_name("_framcheck")
    2599                      .dwattr DW$299, DW_AT_data_member_location[DW_OP_plus_uconst 0x38]
    2600                      .dwattr DW$299, DW_AT_accessibility(DW_ACCESS_public)
    2601              DW$300  .dwtag  DW_TAG_member, DW_AT_type(*DW$T$11)
    2602                      .dwattr DW$300, DW_AT_name("pcmodbus"), DW_AT_symbol_name("_pcmodbus")
    2603                      .dwattr DW$300, DW_AT_data_member_location[DW_OP_plus_uconst 0x39]
    2604                      .dwattr DW$300, DW_AT_accessibility(DW_ACCESS_public)
    2605              DW$301  .dwtag  DW_TAG_member, DW_AT_type(*DW$T$11)
    2606                      .dwattr DW$301, DW_AT_name("statusreflash"), DW_AT_symbol_name("_statusreflash")
    2607                      .dwattr DW$301, DW_AT_data_member_location[DW_OP_plus_uconst 0x3a]
    2608                      .dwattr DW$301, DW_AT_accessibility(DW_ACCESS_public)
    2609              DW$302  .dwtag  DW_TAG_member, DW_AT_type(*DW$T$13)
    2610                      .dwattr DW$302, DW_AT_name("prewarn"), DW_AT_symbol_name("_prewarn")
    2611                      .dwattr DW$302, DW_AT_data_member_location[DW_OP_plus_uconst 0x3c]
    2612                      .dwattr DW$302, DW_AT_accessibility(DW_ACCESS_public)
    2613              DW$303  .dwtag  DW_TAG_member, DW_AT_type(*DW$T$11)
    2614                      .dwattr DW$303, DW_AT_name("clocktofram"), DW_AT_symbol_name("_clocktofram")
    2615                      .dwattr DW$303, DW_AT_data_member_location[DW_OP_plus_uconst 0x3e]
    2616                      .dwattr DW$303, DW_AT_accessibility(DW_ACCESS_public)
    2617              DW$304  .dwtag  DW_TAG_member, DW_AT_type(*DW$T$11)
    2618                      .dwattr DW$304, DW_AT_name("debugrapidfast"), DW_AT_symbol_name("_debugrapidfast")
    2619                      .dwattr DW$304, DW_AT_data_member_location[DW_OP_plus_uconst 0x3f]
    2620                      .dwattr DW$304, DW_AT_accessibility(DW_ACCESS_public)
    2621              DW$305  .dwtag  DW_TAG_member, DW_AT_type(*DW$T$11)
    2622                      .dwattr DW$305, DW_AT_name("debugupdate"), DW_AT_symbol_name("_debugupdate")
    2623                      .dwattr DW$305, DW_AT_data_member_location[DW_OP_plus_uconst 0x40]
    2624                      .dwattr DW$305, DW_AT_accessibility(DW_ACCESS_public)
    2625              DW$306  .dwtag  DW_TAG_member, DW_AT_type(*DW$T$11)
    2626                      .dwattr DW$306, DW_AT_name("dircountdown"), DW_AT_symbol_name("_dircountdown")
    2627                      .dwattr DW$306, DW_AT_data_member_location[DW_OP_plus_uconst 0x41]
    2628                      .dwattr DW$306, DW_AT_accessibility(DW_ACCESS_public)
    2629              DW$307  .dwtag  DW_TAG_member, DW_AT_type(*DW$T$11)
TMS320C2000 COFF Assembler PC v4.1.3 Thu Aug 18 12:16:11 2016

Tools Copyright (c) 1996-2006 Texas Instruments Incorporated
digout.asm                                                           PAGE   54

    2630                      .dwattr DW$307, DW_AT_name("startup"), DW_AT_symbol_name("_startup")
    2631                      .dwattr DW$307, DW_AT_data_member_location[DW_OP_plus_uconst 0x42]
    2632                      .dwattr DW$307, DW_AT_accessibility(DW_ACCESS_public)
    2633              DW$308  .dwtag  DW_TAG_member, DW_AT_type(*DW$T$11)
    2634                      .dwattr DW$308, DW_AT_name("analogsettle"), DW_AT_symbol_name("_analogsettle")
    2635                      .dwattr DW$308, DW_AT_data_member_location[DW_OP_plus_uconst 0x43]
    2636                      .dwattr DW$308, DW_AT_accessibility(DW_ACCESS_public)
    2637              DW$309  .dwtag  DW_TAG_member, DW_AT_type(*DW$T$11)
    2638                      .dwattr DW$309, DW_AT_name("reprogram"), DW_AT_symbol_name("_reprogram")
    2639                      .dwattr DW$309, DW_AT_data_member_location[DW_OP_plus_uconst 0x44]
    2640                      .dwattr DW$309, DW_AT_accessibility(DW_ACCESS_public)
    2641              DW$310  .dwtag  DW_TAG_member, DW_AT_type(*DW$T$11)
    2642                      .dwattr DW$310, DW_AT_name("reprogramtimeout"), DW_AT_symbol_name("_reprogramtimeout")
    2643                      .dwattr DW$310, DW_AT_data_member_location[DW_OP_plus_uconst 0x45]
    2644                      .dwattr DW$310, DW_AT_accessibility(DW_ACCESS_public)
    2645              DW$311  .dwtag  DW_TAG_member, DW_AT_type(*DW$T$11)
    2646                      .dwattr DW$311, DW_AT_name("dcmodestayalive"), DW_AT_symbol_name("_dcmodestayalive")
    2647                      .dwattr DW$311, DW_AT_data_member_location[DW_OP_plus_uconst 0x46]
    2648                      .dwattr DW$311, DW_AT_accessibility(DW_ACCESS_public)
    2649              DW$312  .dwtag  DW_TAG_member, DW_AT_type(*DW$T$11)
    2650                      .dwattr DW$312, DW_AT_name("biteventchange"), DW_AT_symbol_name("_biteventchange")
    2651                      .dwattr DW$312, DW_AT_data_member_location[DW_OP_plus_uconst 0x47]
    2652                      .dwattr DW$312, DW_AT_accessibility(DW_ACCESS_public)
    2653              DW$313  .dwtag  DW_TAG_member, DW_AT_type(*DW$T$11)
    2654                      .dwattr DW$313, DW_AT_name("iSensorReplace"), DW_AT_symbol_name("_iSensorReplace")
    2655                      .dwattr DW$313, DW_AT_data_member_location[DW_OP_plus_uconst 0x48]
    2656                      .dwattr DW$313, DW_AT_accessibility(DW_ACCESS_public)
    2657              DW$314  .dwtag  DW_TAG_member, DW_AT_type(*DW$T$13)
    2658                      .dwattr DW$314, DW_AT_name("deltarpm15Delay"), DW_AT_symbol_name("_deltarpm15Delay")
    2659                      .dwattr DW$314, DW_AT_data_member_location[DW_OP_plus_uconst 0x4a]
    2660                      .dwattr DW$314, DW_AT_accessibility(DW_ACCESS_public)
    2661                      .dwendtag DW$T$32
    2662              
    2663              
    2664              DW$T$33 .dwtag  DW_TAG_structure_type
    2665                      .dwattr DW$T$33, DW_AT_byte_size(0x01)
    2666              DW$315  .dwtag  DW_TAG_member, DW_AT_type(*DW$T$11)
    2667                      .dwattr DW$315, DW_AT_name("newval"), DW_AT_symbol_name("_newval")
    2668                      .dwattr DW$315, DW_AT_bit_offset(0x0f), DW_AT_bit_size(0x01)
    2669                      .dwattr DW$315, DW_AT_data_member_location[DW_OP_plus_uconst 0x0]
    2670                      .dwattr DW$315, DW_AT_accessibility(DW_ACCESS_public)
    2671              DW$316  .dwtag  DW_TAG_member, DW_AT_type(*DW$T$11)
    2672                      .dwattr DW$316, DW_AT_name("calmode"), DW_AT_symbol_name("_calmode")
    2673                      .dwattr DW$316, DW_AT_bit_offset(0x0e), DW_AT_bit_size(0x01)
    2674                      .dwattr DW$316, DW_AT_data_member_location[DW_OP_plus_uconst 0x0]
    2675                      .dwattr DW$316, DW_AT_accessibility(DW_ACCESS_public)
    2676              DW$317  .dwtag  DW_TAG_member, DW_AT_type(*DW$T$11)
    2677                      .dwattr DW$317, DW_AT_name("startcal"), DW_AT_symbol_name("_startcal")
    2678                      .dwattr DW$317, DW_AT_bit_offset(0x0d), DW_AT_bit_size(0x01)
    2679                      .dwattr DW$317, DW_AT_data_member_location[DW_OP_plus_uconst 0x0]
    2680                      .dwattr DW$317, DW_AT_accessibility(DW_ACCESS_public)
    2681              DW$318  .dwtag  DW_TAG_member, DW_AT_type(*DW$T$11)
    2682                      .dwattr DW$318, DW_AT_name("newvalspu2"), DW_AT_symbol_name("_newvalspu2")
    2683                      .dwattr DW$318, DW_AT_bit_offset(0x0c), DW_AT_bit_size(0x01)
    2684                      .dwattr DW$318, DW_AT_data_member_location[DW_OP_plus_uconst 0x0]
TMS320C2000 COFF Assembler PC v4.1.3 Thu Aug 18 12:16:11 2016

Tools Copyright (c) 1996-2006 Texas Instruments Incorporated
digout.asm                                                           PAGE   55

    2685                      .dwattr DW$318, DW_AT_accessibility(DW_ACCESS_public)
    2686              DW$319  .dwtag  DW_TAG_member, DW_AT_type(*DW$T$11)
    2687                      .dwattr DW$319, DW_AT_name("unused"), DW_AT_symbol_name("_unused")
    2688                      .dwattr DW$319, DW_AT_bit_offset(0x00), DW_AT_bit_size(0x0c)
    2689                      .dwattr DW$319, DW_AT_data_member_location[DW_OP_plus_uconst 0x0]
    2690                      .dwattr DW$319, DW_AT_accessibility(DW_ACCESS_public)
    2691                      .dwendtag DW$T$33
    2692              
    2693              
    2694              DW$T$34 .dwtag  DW_TAG_structure_type
    2695                      .dwattr DW$T$34, DW_AT_byte_size(0x01)
    2696              DW$320  .dwtag  DW_TAG_member, DW_AT_type(*DW$T$11)
    2697                      .dwattr DW$320, DW_AT_name("slowdowncntrl"), DW_AT_symbol_name("_slowdowncntrl")
    2698                      .dwattr DW$320, DW_AT_bit_offset(0x0f), DW_AT_bit_size(0x01)
    2699                      .dwattr DW$320, DW_AT_data_member_location[DW_OP_plus_uconst 0x0]
    2700                      .dwattr DW$320, DW_AT_accessibility(DW_ACCESS_public)
    2701              DW$321  .dwtag  DW_TAG_member, DW_AT_type(*DW$T$11)
    2702                      .dwattr DW$321, DW_AT_name("unused"), DW_AT_symbol_name("_unused")
    2703                      .dwattr DW$321, DW_AT_bit_offset(0x00), DW_AT_bit_size(0x0f)
    2704                      .dwattr DW$321, DW_AT_data_member_location[DW_OP_plus_uconst 0x0]
    2705                      .dwattr DW$321, DW_AT_accessibility(DW_ACCESS_public)
    2706                      .dwendtag DW$T$34
    2707              
    2708              
    2709              DW$T$38 .dwtag  DW_TAG_structure_type
    2710                      .dwattr DW$T$38, DW_AT_name("tag_cylinderstruct")
    2711                      .dwattr DW$T$38, DW_AT_byte_size(0x04)
    2712              DW$322  .dwtag  DW_TAG_member, DW_AT_type(*DW$T$36)
    2713                      .dwattr DW$322, DW_AT_name("status1"), DW_AT_symbol_name("_status1")
    2714                      .dwattr DW$322, DW_AT_data_member_location[DW_OP_plus_uconst 0x0]
    2715                      .dwattr DW$322, DW_AT_accessibility(DW_ACCESS_public)
    2716              DW$323  .dwtag  DW_TAG_member, DW_AT_type(*DW$T$37)
    2717                      .dwattr DW$323, DW_AT_name("status2"), DW_AT_symbol_name("_status2")
    2718                      .dwattr DW$323, DW_AT_data_member_location[DW_OP_plus_uconst 0x1]
    2719                      .dwattr DW$323, DW_AT_accessibility(DW_ACCESS_public)
    2720              DW$324  .dwtag  DW_TAG_member, DW_AT_type(*DW$T$10)
    2721                      .dwattr DW$324, DW_AT_name("average"), DW_AT_symbol_name("_average")
    2722                      .dwattr DW$324, DW_AT_data_member_location[DW_OP_plus_uconst 0x2]
    2723                      .dwattr DW$324, DW_AT_accessibility(DW_ACCESS_public)
    2724              DW$325  .dwtag  DW_TAG_member, DW_AT_type(*DW$T$10)
    2725                      .dwattr DW$325, DW_AT_name("deviation"), DW_AT_symbol_name("_deviation")
    2726                      .dwattr DW$325, DW_AT_data_member_location[DW_OP_plus_uconst 0x3]
    2727                      .dwattr DW$325, DW_AT_accessibility(DW_ACCESS_public)
    2728                      .dwendtag DW$T$38
    2729              
    2730              
    2731              DW$T$39 .dwtag  DW_TAG_structure_type
    2732                      .dwattr DW$T$39, DW_AT_byte_size(0x01)
    2733              DW$326  .dwtag  DW_TAG_member, DW_AT_type(*DW$T$11)
    2734                      .dwattr DW$326, DW_AT_name("inputtap"), DW_AT_symbol_name("_inputtap")
    2735                      .dwattr DW$326, DW_AT_data_member_location[DW_OP_plus_uconst 0x0]
    2736                      .dwattr DW$326, DW_AT_accessibility(DW_ACCESS_public)
    2737                      .dwendtag DW$T$39
    2738              
    2739              
TMS320C2000 COFF Assembler PC v4.1.3 Thu Aug 18 12:16:11 2016

Tools Copyright (c) 1996-2006 Texas Instruments Incorporated
digout.asm                                                           PAGE   56

    2740              DW$T$40 .dwtag  DW_TAG_structure_type
    2741                      .dwattr DW$T$40, DW_AT_byte_size(0x01)
    2742              DW$327  .dwtag  DW_TAG_member, DW_AT_type(*DW$T$11)
    2743                      .dwattr DW$327, DW_AT_name("bitmap"), DW_AT_symbol_name("_bitmap")
    2744                      .dwattr DW$327, DW_AT_data_member_location[DW_OP_plus_uconst 0x0]
    2745                      .dwattr DW$327, DW_AT_accessibility(DW_ACCESS_public)
    2746                      .dwendtag DW$T$40
    2747              
    2748              
    2749              DW$T$41 .dwtag  DW_TAG_structure_type
    2750                      .dwattr DW$T$41, DW_AT_byte_size(0x01)
    2751              DW$328  .dwtag  DW_TAG_member, DW_AT_type(*DW$T$11)
    2752                      .dwattr DW$328, DW_AT_name("graphvalue"), DW_AT_symbol_name("_graphvalue")
    2753                      .dwattr DW$328, DW_AT_data_member_location[DW_OP_plus_uconst 0x0]
    2754                      .dwattr DW$328, DW_AT_accessibility(DW_ACCESS_public)
    2755                      .dwendtag DW$T$41
    2756              
    2757              
    2758              DW$T$42 .dwtag  DW_TAG_structure_type
    2759                      .dwattr DW$T$42, DW_AT_byte_size(0x03)
    2760              DW$329  .dwtag  DW_TAG_member, DW_AT_type(*DW$T$11)
    2761                      .dwattr DW$329, DW_AT_name("chanlowthreshold"), DW_AT_symbol_name("_chanlowthreshold")
    2762                      .dwattr DW$329, DW_AT_data_member_location[DW_OP_plus_uconst 0x0]
    2763                      .dwattr DW$329, DW_AT_accessibility(DW_ACCESS_public)
    2764              DW$330  .dwtag  DW_TAG_member, DW_AT_type(*DW$T$11)
    2765                      .dwattr DW$330, DW_AT_name("chanhighthreshold"), DW_AT_symbol_name("_chanhighthreshold")
    2766                      .dwattr DW$330, DW_AT_data_member_location[DW_OP_plus_uconst 0x1]
    2767                      .dwattr DW$330, DW_AT_accessibility(DW_ACCESS_public)
    2768              DW$331  .dwtag  DW_TAG_member, DW_AT_type(*DW$T$11)
    2769                      .dwattr DW$331, DW_AT_name("sensorscalingfactor"), DW_AT_symbol_name("_sensorscalingfactor")
    2770                      .dwattr DW$331, DW_AT_data_member_location[DW_OP_plus_uconst 0x2]
    2771                      .dwattr DW$331, DW_AT_accessibility(DW_ACCESS_public)
    2772                      .dwendtag DW$T$42
    2773              
    2774              
    2775              DW$T$43 .dwtag  DW_TAG_structure_type
    2776                      .dwattr DW$T$43, DW_AT_byte_size(0x02)
    2777              DW$332  .dwtag  DW_TAG_member, DW_AT_type(*DW$T$11)
    2778                      .dwattr DW$332, DW_AT_name("shortlrate"), DW_AT_symbol_name("_shortlrate")
    2779                      .dwattr DW$332, DW_AT_data_member_location[DW_OP_plus_uconst 0x0]
    2780                      .dwattr DW$332, DW_AT_accessibility(DW_ACCESS_public)
    2781              DW$333  .dwtag  DW_TAG_member, DW_AT_type(*DW$T$11)
    2782                      .dwattr DW$333, DW_AT_name("longlrate"), DW_AT_symbol_name("_longlrate")
    2783                      .dwattr DW$333, DW_AT_data_member_location[DW_OP_plus_uconst 0x1]
    2784                      .dwattr DW$333, DW_AT_accessibility(DW_ACCESS_public)
    2785                      .dwendtag DW$T$43
    2786              
    2787              
    2788              DW$T$44 .dwtag  DW_TAG_structure_type
    2789                      .dwattr DW$T$44, DW_AT_byte_size(0x10)
    2790              DW$334  .dwtag  DW_TAG_member, DW_AT_type(*DW$T$13)
    2791                      .dwattr DW$334, DW_AT_name("wiorequest"), DW_AT_symbol_name("_wiorequest")
    2792                      .dwattr DW$334, DW_AT_data_member_location[DW_OP_plus_uconst 0x0]
    2793                      .dwattr DW$334, DW_AT_accessibility(DW_ACCESS_public)
    2794              DW$335  .dwtag  DW_TAG_member, DW_AT_type(*DW$T$13)
TMS320C2000 COFF Assembler PC v4.1.3 Thu Aug 18 12:16:11 2016

Tools Copyright (c) 1996-2006 Texas Instruments Incorporated
digout.asm                                                           PAGE   57

    2795                      .dwattr DW$335, DW_AT_name("wiocancelled"), DW_AT_symbol_name("_wiocancelled")
    2796                      .dwattr DW$335, DW_AT_data_member_location[DW_OP_plus_uconst 0x2]
    2797                      .dwattr DW$335, DW_AT_accessibility(DW_ACCESS_public)
    2798              DW$336  .dwtag  DW_TAG_member, DW_AT_type(*DW$T$13)
    2799                      .dwattr DW$336, DW_AT_name("wioreceived"), DW_AT_symbol_name("_wioreceived")
    2800                      .dwattr DW$336, DW_AT_data_member_location[DW_OP_plus_uconst 0x4]
    2801                      .dwattr DW$336, DW_AT_accessibility(DW_ACCESS_public)
    2802              DW$337  .dwtag  DW_TAG_member, DW_AT_type(*DW$T$13)
    2803                      .dwattr DW$337, DW_AT_name("slaverequest"), DW_AT_symbol_name("_slaverequest")
    2804                      .dwattr DW$337, DW_AT_data_member_location[DW_OP_plus_uconst 0x6]
    2805                      .dwattr DW$337, DW_AT_accessibility(DW_ACCESS_public)
    2806              DW$338  .dwtag  DW_TAG_member, DW_AT_type(*DW$T$13)
    2807                      .dwattr DW$338, DW_AT_name("slavereceived"), DW_AT_symbol_name("_slavereceived")
    2808                      .dwattr DW$338, DW_AT_data_member_location[DW_OP_plus_uconst 0x8]
    2809                      .dwattr DW$338, DW_AT_accessibility(DW_ACCESS_public)
    2810              DW$339  .dwtag  DW_TAG_member, DW_AT_type(*DW$T$13)
    2811                      .dwattr DW$339, DW_AT_name("slaveretry"), DW_AT_symbol_name("_slaveretry")
    2812                      .dwattr DW$339, DW_AT_data_member_location[DW_OP_plus_uconst 0xa]
    2813                      .dwattr DW$339, DW_AT_accessibility(DW_ACCESS_public)
    2814              DW$340  .dwtag  DW_TAG_member, DW_AT_type(*DW$T$13)
    2815                      .dwattr DW$340, DW_AT_name("pcrequest"), DW_AT_symbol_name("_pcrequest")
    2816                      .dwattr DW$340, DW_AT_data_member_location[DW_OP_plus_uconst 0xc]
    2817                      .dwattr DW$340, DW_AT_accessibility(DW_ACCESS_public)
    2818              DW$341  .dwtag  DW_TAG_member, DW_AT_type(*DW$T$13)
    2819                      .dwattr DW$341, DW_AT_name("pcreqtimeout"), DW_AT_symbol_name("_pcreqtimeout")
    2820                      .dwattr DW$341, DW_AT_data_member_location[DW_OP_plus_uconst 0xe]
    2821                      .dwattr DW$341, DW_AT_accessibility(DW_ACCESS_public)
    2822                      .dwendtag DW$T$44
    2823              
    2824              
    2825              DW$T$49 .dwtag  DW_TAG_structure_type
    2826                      .dwattr DW$T$49, DW_AT_byte_size(0x01)
    2827              DW$342  .dwtag  DW_TAG_member, DW_AT_type(*DW$T$11)
    2828                      .dwattr DW$342, DW_AT_name("oor"), DW_AT_symbol_name("_oor")
    2829                      .dwattr DW$342, DW_AT_bit_offset(0x0f), DW_AT_bit_size(0x01)
    2830                      .dwattr DW$342, DW_AT_data_member_location[DW_OP_plus_uconst 0x0]
    2831                      .dwattr DW$342, DW_AT_accessibility(DW_ACCESS_public)
    2832              DW$343  .dwtag  DW_TAG_member, DW_AT_type(*DW$T$11)
    2833                      .dwattr DW$343, DW_AT_name("alarm"), DW_AT_symbol_name("_alarm")
    2834                      .dwattr DW$343, DW_AT_bit_offset(0x0e), DW_AT_bit_size(0x01)
    2835                      .dwattr DW$343, DW_AT_data_member_location[DW_OP_plus_uconst 0x0]
    2836                      .dwattr DW$343, DW_AT_accessibility(DW_ACCESS_public)
    2837              DW$344  .dwtag  DW_TAG_member, DW_AT_type(*DW$T$11)
    2838                      .dwattr DW$344, DW_AT_name("unused"), DW_AT_symbol_name("_unused")
    2839                      .dwattr DW$344, DW_AT_bit_offset(0x00), DW_AT_bit_size(0x0e)
    2840                      .dwattr DW$344, DW_AT_data_member_location[DW_OP_plus_uconst 0x0]
    2841                      .dwattr DW$344, DW_AT_accessibility(DW_ACCESS_public)
    2842                      .dwendtag DW$T$49
    2843              
    2844              
    2845              DW$T$51 .dwtag  DW_TAG_structure_type
    2846                      .dwattr DW$T$51, DW_AT_byte_size(0x01)
    2847              DW$345  .dwtag  DW_TAG_member, DW_AT_type(*DW$T$11)
    2848                      .dwattr DW$345, DW_AT_name("low"), DW_AT_symbol_name("_low")
    2849                      .dwattr DW$345, DW_AT_data_member_location[DW_OP_plus_uconst 0x0]
TMS320C2000 COFF Assembler PC v4.1.3 Thu Aug 18 12:16:11 2016

Tools Copyright (c) 1996-2006 Texas Instruments Incorporated
digout.asm                                                           PAGE   58

    2850                      .dwattr DW$345, DW_AT_accessibility(DW_ACCESS_public)
    2851                      .dwendtag DW$T$51
    2852              
    2853              DW$T$13 .dwtag  DW_TAG_base_type, DW_AT_name("unsigned long")
    2854                      .dwattr DW$T$13, DW_AT_encoding(DW_ATE_unsigned)
    2855                      .dwattr DW$T$13, DW_AT_byte_size(0x02)
    2856              
    2857              DW$T$20 .dwtag  DW_TAG_structure_type
    2858                      .dwattr DW$T$20, DW_AT_name("tag_wioalarmstruct")
    2859                      .dwattr DW$T$20, DW_AT_byte_size(0x01)
    2860              DW$346  .dwtag  DW_TAG_member, DW_AT_type(*DW$T$11)
    2861                      .dwattr DW$346, DW_AT_name("alarmupper"), DW_AT_symbol_name("_alarmupper")
    2862                      .dwattr DW$346, DW_AT_bit_offset(0x0f), DW_AT_bit_size(0x01)
    2863                      .dwattr DW$346, DW_AT_data_member_location[DW_OP_plus_uconst 0x0]
    2864                      .dwattr DW$346, DW_AT_accessibility(DW_ACCESS_public)
    2865              DW$347  .dwtag  DW_TAG_member, DW_AT_type(*DW$T$11)
    2866                      .dwattr DW$347, DW_AT_name("alarmupperlatched"), DW_AT_symbol_name("_alarmupperlatched")
    2867                      .dwattr DW$347, DW_AT_bit_offset(0x0e), DW_AT_bit_size(0x01)
    2868                      .dwattr DW$347, DW_AT_data_member_location[DW_OP_plus_uconst 0x0]
    2869                      .dwattr DW$347, DW_AT_accessibility(DW_ACCESS_public)
    2870              DW$348  .dwtag  DW_TAG_member, DW_AT_type(*DW$T$11)
    2871                      .dwattr DW$348, DW_AT_name("alarm"), DW_AT_symbol_name("_alarm")
    2872                      .dwattr DW$348, DW_AT_bit_offset(0x0d), DW_AT_bit_size(0x01)
    2873                      .dwattr DW$348, DW_AT_data_member_location[DW_OP_plus_uconst 0x0]
    2874                      .dwattr DW$348, DW_AT_accessibility(DW_ACCESS_public)
    2875              DW$349  .dwtag  DW_TAG_member, DW_AT_type(*DW$T$11)
    2876                      .dwattr DW$349, DW_AT_name("alarmlatched"), DW_AT_symbol_name("_alarmlatched")
    2877                      .dwattr DW$349, DW_AT_bit_offset(0x0c), DW_AT_bit_size(0x01)
    2878                      .dwattr DW$349, DW_AT_data_member_location[DW_OP_plus_uconst 0x0]
    2879                      .dwattr DW$349, DW_AT_accessibility(DW_ACCESS_public)
    2880              DW$350  .dwtag  DW_TAG_member, DW_AT_type(*DW$T$11)
    2881                      .dwattr DW$350, DW_AT_name("comms"), DW_AT_symbol_name("_comms")
    2882                      .dwattr DW$350, DW_AT_bit_offset(0x0b), DW_AT_bit_size(0x01)
    2883                      .dwattr DW$350, DW_AT_data_member_location[DW_OP_plus_uconst 0x0]
    2884                      .dwattr DW$350, DW_AT_accessibility(DW_ACCESS_public)
    2885              DW$351  .dwtag  DW_TAG_member, DW_AT_type(*DW$T$11)
    2886                      .dwattr DW$351, DW_AT_name("commslatched"), DW_AT_symbol_name("_commslatched")
    2887                      .dwattr DW$351, DW_AT_bit_offset(0x0a), DW_AT_bit_size(0x01)
    2888                      .dwattr DW$351, DW_AT_data_member_location[DW_OP_plus_uconst 0x0]
    2889                      .dwattr DW$351, DW_AT_accessibility(DW_ACCESS_public)
    2890              DW$352  .dwtag  DW_TAG_member, DW_AT_type(*DW$T$11)
    2891                      .dwattr DW$352, DW_AT_name("analoglow"), DW_AT_symbol_name("_analoglow")
    2892                      .dwattr DW$352, DW_AT_bit_offset(0x09), DW_AT_bit_size(0x01)
    2893                      .dwattr DW$352, DW_AT_data_member_location[DW_OP_plus_uconst 0x0]
    2894                      .dwattr DW$352, DW_AT_accessibility(DW_ACCESS_public)
    2895              DW$353  .dwtag  DW_TAG_member, DW_AT_type(*DW$T$11)
    2896                      .dwattr DW$353, DW_AT_name("analoghigh"), DW_AT_symbol_name("_analoghigh")
    2897                      .dwattr DW$353, DW_AT_bit_offset(0x08), DW_AT_bit_size(0x01)
    2898                      .dwattr DW$353, DW_AT_data_member_location[DW_OP_plus_uconst 0x0]
    2899                      .dwattr DW$353, DW_AT_accessibility(DW_ACCESS_public)
    2900              DW$354  .dwtag  DW_TAG_member, DW_AT_type(*DW$T$11)
    2901                      .dwattr DW$354, DW_AT_name("unused9"), DW_AT_symbol_name("_unused9")
    2902                      .dwattr DW$354, DW_AT_bit_offset(0x07), DW_AT_bit_size(0x01)
    2903                      .dwattr DW$354, DW_AT_data_member_location[DW_OP_plus_uconst 0x0]
    2904                      .dwattr DW$354, DW_AT_accessibility(DW_ACCESS_public)
TMS320C2000 COFF Assembler PC v4.1.3 Thu Aug 18 12:16:11 2016

Tools Copyright (c) 1996-2006 Texas Instruments Incorporated
digout.asm                                                           PAGE   59

    2905              DW$355  .dwtag  DW_TAG_member, DW_AT_type(*DW$T$11)
    2906                      .dwattr DW$355, DW_AT_name("unused10"), DW_AT_symbol_name("_unused10")
    2907                      .dwattr DW$355, DW_AT_bit_offset(0x06), DW_AT_bit_size(0x01)
    2908                      .dwattr DW$355, DW_AT_data_member_location[DW_OP_plus_uconst 0x0]
    2909                      .dwattr DW$355, DW_AT_accessibility(DW_ACCESS_public)
    2910              DW$356  .dwtag  DW_TAG_member, DW_AT_type(*DW$T$11)
    2911                      .dwattr DW$356, DW_AT_name("unused11"), DW_AT_symbol_name("_unused11")
    2912                      .dwattr DW$356, DW_AT_bit_offset(0x05), DW_AT_bit_size(0x01)
    2913                      .dwattr DW$356, DW_AT_data_member_location[DW_OP_plus_uconst 0x0]
    2914                      .dwattr DW$356, DW_AT_accessibility(DW_ACCESS_public)
    2915              DW$357  .dwtag  DW_TAG_member, DW_AT_type(*DW$T$11)
    2916                      .dwattr DW$357, DW_AT_name("unused12"), DW_AT_symbol_name("_unused12")
    2917                      .dwattr DW$357, DW_AT_bit_offset(0x04), DW_AT_bit_size(0x01)
    2918                      .dwattr DW$357, DW_AT_data_member_location[DW_OP_plus_uconst 0x0]
    2919                      .dwattr DW$357, DW_AT_accessibility(DW_ACCESS_public)
    2920              DW$358  .dwtag  DW_TAG_member, DW_AT_type(*DW$T$11)
    2921                      .dwattr DW$358, DW_AT_name("unused13"), DW_AT_symbol_name("_unused13")
    2922                      .dwattr DW$358, DW_AT_bit_offset(0x03), DW_AT_bit_size(0x01)
    2923                      .dwattr DW$358, DW_AT_data_member_location[DW_OP_plus_uconst 0x0]
    2924                      .dwattr DW$358, DW_AT_accessibility(DW_ACCESS_public)
    2925              DW$359  .dwtag  DW_TAG_member, DW_AT_type(*DW$T$11)
    2926                      .dwattr DW$359, DW_AT_name("unused14"), DW_AT_symbol_name("_unused14")
    2927                      .dwattr DW$359, DW_AT_bit_offset(0x02), DW_AT_bit_size(0x01)
    2928                      .dwattr DW$359, DW_AT_data_member_location[DW_OP_plus_uconst 0x0]
    2929                      .dwattr DW$359, DW_AT_accessibility(DW_ACCESS_public)
    2930              DW$360  .dwtag  DW_TAG_member, DW_AT_type(*DW$T$11)
    2931                      .dwattr DW$360, DW_AT_name("unused15"), DW_AT_symbol_name("_unused15")
    2932                      .dwattr DW$360, DW_AT_bit_offset(0x01), DW_AT_bit_size(0x01)
    2933                      .dwattr DW$360, DW_AT_data_member_location[DW_OP_plus_uconst 0x0]
    2934                      .dwattr DW$360, DW_AT_accessibility(DW_ACCESS_public)
    2935              DW$361  .dwtag  DW_TAG_member, DW_AT_type(*DW$T$11)
    2936                      .dwattr DW$361, DW_AT_name("unused16"), DW_AT_symbol_name("_unused16")
    2937                      .dwattr DW$361, DW_AT_bit_offset(0x00), DW_AT_bit_size(0x01)
    2938                      .dwattr DW$361, DW_AT_data_member_location[DW_OP_plus_uconst 0x0]
    2939                      .dwattr DW$361, DW_AT_accessibility(DW_ACCESS_public)
    2940                      .dwendtag DW$T$20
    2941              
    2942              
    2943              DW$T$24 .dwtag  DW_TAG_union_type
    2944                      .dwattr DW$T$24, DW_AT_byte_size(0x01)
    2945              DW$362  .dwtag  DW_TAG_member, DW_AT_type(*DW$T$11)
    2946                      .dwattr DW$362, DW_AT_name("port"), DW_AT_symbol_name("_port")
    2947                      .dwattr DW$362, DW_AT_data_member_location[DW_OP_plus_uconst 0x0]
    2948                      .dwattr DW$362, DW_AT_accessibility(DW_ACCESS_public)
    2949              DW$363  .dwtag  DW_TAG_member, DW_AT_type(*DW$T$23)
    2950                      .dwattr DW$363, DW_AT_name("bits"), DW_AT_symbol_name("_bits")
    2951                      .dwattr DW$363, DW_AT_data_member_location[DW_OP_plus_uconst 0x0]
    2952                      .dwattr DW$363, DW_AT_accessibility(DW_ACCESS_public)
    2953                      .dwendtag DW$T$24
    2954              
    2955              
    2956              DW$T$27 .dwtag  DW_TAG_union_type
    2957                      .dwattr DW$T$27, DW_AT_byte_size(0x01)
    2958              DW$364  .dwtag  DW_TAG_member, DW_AT_type(*DW$T$11)
    2959                      .dwattr DW$364, DW_AT_name("port"), DW_AT_symbol_name("_port")
TMS320C2000 COFF Assembler PC v4.1.3 Thu Aug 18 12:16:11 2016

Tools Copyright (c) 1996-2006 Texas Instruments Incorporated
digout.asm                                                           PAGE   60

    2960                      .dwattr DW$364, DW_AT_data_member_location[DW_OP_plus_uconst 0x0]
    2961                      .dwattr DW$364, DW_AT_accessibility(DW_ACCESS_public)
    2962              DW$365  .dwtag  DW_TAG_member, DW_AT_type(*DW$T$26)
    2963                      .dwattr DW$365, DW_AT_name("bits"), DW_AT_symbol_name("_bits")
    2964                      .dwattr DW$365, DW_AT_data_member_location[DW_OP_plus_uconst 0x0]
    2965                      .dwattr DW$365, DW_AT_accessibility(DW_ACCESS_public)
    2966                      .dwendtag DW$T$27
    2967              
    2968              
    2969              DW$T$36 .dwtag  DW_TAG_structure_type
    2970                      .dwattr DW$T$36, DW_AT_byte_size(0x01)
    2971              DW$366  .dwtag  DW_TAG_member, DW_AT_type(*DW$T$11)
    2972                      .dwattr DW$366, DW_AT_name("alarmack"), DW_AT_symbol_name("_alarmack")
    2973                      .dwattr DW$366, DW_AT_bit_offset(0x0f), DW_AT_bit_size(0x01)
    2974                      .dwattr DW$366, DW_AT_data_member_location[DW_OP_plus_uconst 0x0]
    2975                      .dwattr DW$366, DW_AT_accessibility(DW_ACCESS_public)
    2976              DW$367  .dwtag  DW_TAG_member, DW_AT_type(*DW$T$11)
    2977                      .dwattr DW$367, DW_AT_name("unused2"), DW_AT_symbol_name("_unused2")
    2978                      .dwattr DW$367, DW_AT_bit_offset(0x0e), DW_AT_bit_size(0x01)
    2979                      .dwattr DW$367, DW_AT_data_member_location[DW_OP_plus_uconst 0x0]
    2980                      .dwattr DW$367, DW_AT_accessibility(DW_ACCESS_public)
    2981              DW$368  .dwtag  DW_TAG_member, DW_AT_type(*DW$T$11)
    2982                      .dwattr DW$368, DW_AT_name("unused3"), DW_AT_symbol_name("_unused3")
    2983                      .dwattr DW$368, DW_AT_bit_offset(0x0d), DW_AT_bit_size(0x01)
    2984                      .dwattr DW$368, DW_AT_data_member_location[DW_OP_plus_uconst 0x0]
    2985                      .dwattr DW$368, DW_AT_accessibility(DW_ACCESS_public)
    2986              DW$369  .dwtag  DW_TAG_member, DW_AT_type(*DW$T$11)
    2987                      .dwattr DW$369, DW_AT_name("unused4"), DW_AT_symbol_name("_unused4")
    2988                      .dwattr DW$369, DW_AT_bit_offset(0x0c), DW_AT_bit_size(0x01)
    2989                      .dwattr DW$369, DW_AT_data_member_location[DW_OP_plus_uconst 0x0]
    2990                      .dwattr DW$369, DW_AT_accessibility(DW_ACCESS_public)
    2991              DW$370  .dwtag  DW_TAG_member, DW_AT_type(*DW$T$11)
    2992                      .dwattr DW$370, DW_AT_name("unused5"), DW_AT_symbol_name("_unused5")
    2993                      .dwattr DW$370, DW_AT_bit_offset(0x0b), DW_AT_bit_size(0x01)
    2994                      .dwattr DW$370, DW_AT_data_member_location[DW_OP_plus_uconst 0x0]
    2995                      .dwattr DW$370, DW_AT_accessibility(DW_ACCESS_public)
    2996              DW$371  .dwtag  DW_TAG_member, DW_AT_type(*DW$T$11)
    2997                      .dwattr DW$371, DW_AT_name("unused6"), DW_AT_symbol_name("_unused6")
    2998                      .dwattr DW$371, DW_AT_bit_offset(0x0a), DW_AT_bit_size(0x01)
    2999                      .dwattr DW$371, DW_AT_data_member_location[DW_OP_plus_uconst 0x0]
    3000                      .dwattr DW$371, DW_AT_accessibility(DW_ACCESS_public)
    3001              DW$372  .dwtag  DW_TAG_member, DW_AT_type(*DW$T$11)
    3002                      .dwattr DW$372, DW_AT_name("unused7"), DW_AT_symbol_name("_unused7")
    3003                      .dwattr DW$372, DW_AT_bit_offset(0x09), DW_AT_bit_size(0x01)
    3004                      .dwattr DW$372, DW_AT_data_member_location[DW_OP_plus_uconst 0x0]
    3005                      .dwattr DW$372, DW_AT_accessibility(DW_ACCESS_public)
    3006              DW$373  .dwtag  DW_TAG_member, DW_AT_type(*DW$T$11)
    3007                      .dwattr DW$373, DW_AT_name("unused8"), DW_AT_symbol_name("_unused8")
    3008                      .dwattr DW$373, DW_AT_bit_offset(0x08), DW_AT_bit_size(0x01)
    3009                      .dwattr DW$373, DW_AT_data_member_location[DW_OP_plus_uconst 0x0]
    3010                      .dwattr DW$373, DW_AT_accessibility(DW_ACCESS_public)
    3011              DW$374  .dwtag  DW_TAG_member, DW_AT_type(*DW$T$11)
    3012                      .dwattr DW$374, DW_AT_name("unused9"), DW_AT_symbol_name("_unused9")
    3013                      .dwattr DW$374, DW_AT_bit_offset(0x07), DW_AT_bit_size(0x01)
    3014                      .dwattr DW$374, DW_AT_data_member_location[DW_OP_plus_uconst 0x0]
TMS320C2000 COFF Assembler PC v4.1.3 Thu Aug 18 12:16:11 2016

Tools Copyright (c) 1996-2006 Texas Instruments Incorporated
digout.asm                                                           PAGE   61

    3015                      .dwattr DW$374, DW_AT_accessibility(DW_ACCESS_public)
    3016              DW$375  .dwtag  DW_TAG_member, DW_AT_type(*DW$T$11)
    3017                      .dwattr DW$375, DW_AT_name("unused10"), DW_AT_symbol_name("_unused10")
    3018                      .dwattr DW$375, DW_AT_bit_offset(0x06), DW_AT_bit_size(0x01)
    3019                      .dwattr DW$375, DW_AT_data_member_location[DW_OP_plus_uconst 0x0]
    3020                      .dwattr DW$375, DW_AT_accessibility(DW_ACCESS_public)
    3021              DW$376  .dwtag  DW_TAG_member, DW_AT_type(*DW$T$11)
    3022                      .dwattr DW$376, DW_AT_name("unused11"), DW_AT_symbol_name("_unused11")
    3023                      .dwattr DW$376, DW_AT_bit_offset(0x05), DW_AT_bit_size(0x01)
    3024                      .dwattr DW$376, DW_AT_data_member_location[DW_OP_plus_uconst 0x0]
    3025                      .dwattr DW$376, DW_AT_accessibility(DW_ACCESS_public)
    3026              DW$377  .dwtag  DW_TAG_member, DW_AT_type(*DW$T$11)
    3027                      .dwattr DW$377, DW_AT_name("unused12"), DW_AT_symbol_name("_unused12")
    3028                      .dwattr DW$377, DW_AT_bit_offset(0x04), DW_AT_bit_size(0x01)
    3029                      .dwattr DW$377, DW_AT_data_member_location[DW_OP_plus_uconst 0x0]
    3030                      .dwattr DW$377, DW_AT_accessibility(DW_ACCESS_public)
    3031              DW$378  .dwtag  DW_TAG_member, DW_AT_type(*DW$T$11)
    3032                      .dwattr DW$378, DW_AT_name("unused13"), DW_AT_symbol_name("_unused13")
    3033                      .dwattr DW$378, DW_AT_bit_offset(0x03), DW_AT_bit_size(0x01)
    3034                      .dwattr DW$378, DW_AT_data_member_location[DW_OP_plus_uconst 0x0]
    3035                      .dwattr DW$378, DW_AT_accessibility(DW_ACCESS_public)
    3036              DW$379  .dwtag  DW_TAG_member, DW_AT_type(*DW$T$11)
    3037                      .dwattr DW$379, DW_AT_name("unused14"), DW_AT_symbol_name("_unused14")
    3038                      .dwattr DW$379, DW_AT_bit_offset(0x02), DW_AT_bit_size(0x01)
    3039                      .dwattr DW$379, DW_AT_data_member_location[DW_OP_plus_uconst 0x0]
    3040                      .dwattr DW$379, DW_AT_accessibility(DW_ACCESS_public)
    3041              DW$380  .dwtag  DW_TAG_member, DW_AT_type(*DW$T$11)
    3042                      .dwattr DW$380, DW_AT_name("unused15"), DW_AT_symbol_name("_unused15")
    3043                      .dwattr DW$380, DW_AT_bit_offset(0x01), DW_AT_bit_size(0x01)
    3044                      .dwattr DW$380, DW_AT_data_member_location[DW_OP_plus_uconst 0x0]
    3045                      .dwattr DW$380, DW_AT_accessibility(DW_ACCESS_public)
    3046              DW$381  .dwtag  DW_TAG_member, DW_AT_type(*DW$T$11)
    3047                      .dwattr DW$381, DW_AT_name("unused16"), DW_AT_symbol_name("_unused16")
    3048                      .dwattr DW$381, DW_AT_bit_offset(0x00), DW_AT_bit_size(0x01)
    3049                      .dwattr DW$381, DW_AT_data_member_location[DW_OP_plus_uconst 0x0]
    3050                      .dwattr DW$381, DW_AT_accessibility(DW_ACCESS_public)
    3051                      .dwendtag DW$T$36
    3052              
    3053              
    3054              DW$T$37 .dwtag  DW_TAG_structure_type
    3055                      .dwattr DW$T$37, DW_AT_byte_size(0x01)
    3056              DW$382  .dwtag  DW_TAG_member, DW_AT_type(*DW$T$11)
    3057                      .dwattr DW$382, DW_AT_name("alarm"), DW_AT_symbol_name("_alarm")
    3058                      .dwattr DW$382, DW_AT_bit_offset(0x0f), DW_AT_bit_size(0x01)
    3059                      .dwattr DW$382, DW_AT_data_member_location[DW_OP_plus_uconst 0x0]
    3060                      .dwattr DW$382, DW_AT_accessibility(DW_ACCESS_public)
    3061              DW$383  .dwtag  DW_TAG_member, DW_AT_type(*DW$T$11)
    3062                      .dwattr DW$383, DW_AT_name("alarmlatched"), DW_AT_symbol_name("_alarmlatched")
    3063                      .dwattr DW$383, DW_AT_bit_offset(0x0e), DW_AT_bit_size(0x01)
    3064                      .dwattr DW$383, DW_AT_data_member_location[DW_OP_plus_uconst 0x0]
    3065                      .dwattr DW$383, DW_AT_accessibility(DW_ACCESS_public)
    3066              DW$384  .dwtag  DW_TAG_member, DW_AT_type(*DW$T$11)
    3067                      .dwattr DW$384, DW_AT_name("unused3"), DW_AT_symbol_name("_unused3")
    3068                      .dwattr DW$384, DW_AT_bit_offset(0x0d), DW_AT_bit_size(0x01)
    3069                      .dwattr DW$384, DW_AT_data_member_location[DW_OP_plus_uconst 0x0]
TMS320C2000 COFF Assembler PC v4.1.3 Thu Aug 18 12:16:11 2016

Tools Copyright (c) 1996-2006 Texas Instruments Incorporated
digout.asm                                                           PAGE   62

    3070                      .dwattr DW$384, DW_AT_accessibility(DW_ACCESS_public)
    3071              DW$385  .dwtag  DW_TAG_member, DW_AT_type(*DW$T$11)
    3072                      .dwattr DW$385, DW_AT_name("unused4"), DW_AT_symbol_name("_unused4")
    3073                      .dwattr DW$385, DW_AT_bit_offset(0x0c), DW_AT_bit_size(0x01)
    3074                      .dwattr DW$385, DW_AT_data_member_location[DW_OP_plus_uconst 0x0]
    3075                      .dwattr DW$385, DW_AT_accessibility(DW_ACCESS_public)
    3076              DW$386  .dwtag  DW_TAG_member, DW_AT_type(*DW$T$11)
    3077                      .dwattr DW$386, DW_AT_name("unused5"), DW_AT_symbol_name("_unused5")
    3078                      .dwattr DW$386, DW_AT_bit_offset(0x0b), DW_AT_bit_size(0x01)
    3079                      .dwattr DW$386, DW_AT_data_member_location[DW_OP_plus_uconst 0x0]
    3080                      .dwattr DW$386, DW_AT_accessibility(DW_ACCESS_public)
    3081              DW$387  .dwtag  DW_TAG_member, DW_AT_type(*DW$T$11)
    3082                      .dwattr DW$387, DW_AT_name("unused6"), DW_AT_symbol_name("_unused6")
    3083                      .dwattr DW$387, DW_AT_bit_offset(0x0a), DW_AT_bit_size(0x01)
    3084                      .dwattr DW$387, DW_AT_data_member_location[DW_OP_plus_uconst 0x0]
    3085                      .dwattr DW$387, DW_AT_accessibility(DW_ACCESS_public)
    3086              DW$388  .dwtag  DW_TAG_member, DW_AT_type(*DW$T$11)
    3087                      .dwattr DW$388, DW_AT_name("unused7"), DW_AT_symbol_name("_unused7")
    3088                      .dwattr DW$388, DW_AT_bit_offset(0x09), DW_AT_bit_size(0x01)
    3089                      .dwattr DW$388, DW_AT_data_member_location[DW_OP_plus_uconst 0x0]
    3090                      .dwattr DW$388, DW_AT_accessibility(DW_ACCESS_public)
    3091              DW$389  .dwtag  DW_TAG_member, DW_AT_type(*DW$T$11)
    3092                      .dwattr DW$389, DW_AT_name("unused8"), DW_AT_symbol_name("_unused8")
    3093                      .dwattr DW$389, DW_AT_bit_offset(0x08), DW_AT_bit_size(0x01)
    3094                      .dwattr DW$389, DW_AT_data_member_location[DW_OP_plus_uconst 0x0]
    3095                      .dwattr DW$389, DW_AT_accessibility(DW_ACCESS_public)
    3096              DW$390  .dwtag  DW_TAG_member, DW_AT_type(*DW$T$11)
    3097                      .dwattr DW$390, DW_AT_name("unused9"), DW_AT_symbol_name("_unused9")
    3098                      .dwattr DW$390, DW_AT_bit_offset(0x07), DW_AT_bit_size(0x01)
    3099                      .dwattr DW$390, DW_AT_data_member_location[DW_OP_plus_uconst 0x0]
    3100                      .dwattr DW$390, DW_AT_accessibility(DW_ACCESS_public)
    3101              DW$391  .dwtag  DW_TAG_member, DW_AT_type(*DW$T$11)
    3102                      .dwattr DW$391, DW_AT_name("unused10"), DW_AT_symbol_name("_unused10")
    3103                      .dwattr DW$391, DW_AT_bit_offset(0x06), DW_AT_bit_size(0x01)
    3104                      .dwattr DW$391, DW_AT_data_member_location[DW_OP_plus_uconst 0x0]
    3105                      .dwattr DW$391, DW_AT_accessibility(DW_ACCESS_public)
    3106              DW$392  .dwtag  DW_TAG_member, DW_AT_type(*DW$T$11)
    3107                      .dwattr DW$392, DW_AT_name("unused11"), DW_AT_symbol_name("_unused11")
    3108                      .dwattr DW$392, DW_AT_bit_offset(0x05), DW_AT_bit_size(0x01)
    3109                      .dwattr DW$392, DW_AT_data_member_location[DW_OP_plus_uconst 0x0]
    3110                      .dwattr DW$392, DW_AT_accessibility(DW_ACCESS_public)
    3111              DW$393  .dwtag  DW_TAG_member, DW_AT_type(*DW$T$11)
    3112                      .dwattr DW$393, DW_AT_name("unused12"), DW_AT_symbol_name("_unused12")
    3113                      .dwattr DW$393, DW_AT_bit_offset(0x04), DW_AT_bit_size(0x01)
    3114                      .dwattr DW$393, DW_AT_data_member_location[DW_OP_plus_uconst 0x0]
    3115                      .dwattr DW$393, DW_AT_accessibility(DW_ACCESS_public)
    3116              DW$394  .dwtag  DW_TAG_member, DW_AT_type(*DW$T$11)
    3117                      .dwattr DW$394, DW_AT_name("unused13"), DW_AT_symbol_name("_unused13")
    3118                      .dwattr DW$394, DW_AT_bit_offset(0x03), DW_AT_bit_size(0x01)
    3119                      .dwattr DW$394, DW_AT_data_member_location[DW_OP_plus_uconst 0x0]
    3120                      .dwattr DW$394, DW_AT_accessibility(DW_ACCESS_public)
    3121              DW$395  .dwtag  DW_TAG_member, DW_AT_type(*DW$T$11)
    3122                      .dwattr DW$395, DW_AT_name("unused14"), DW_AT_symbol_name("_unused14")
    3123                      .dwattr DW$395, DW_AT_bit_offset(0x02), DW_AT_bit_size(0x01)
    3124                      .dwattr DW$395, DW_AT_data_member_location[DW_OP_plus_uconst 0x0]
TMS320C2000 COFF Assembler PC v4.1.3 Thu Aug 18 12:16:11 2016

Tools Copyright (c) 1996-2006 Texas Instruments Incorporated
digout.asm                                                           PAGE   63

    3125                      .dwattr DW$395, DW_AT_accessibility(DW_ACCESS_public)
    3126              DW$396  .dwtag  DW_TAG_member, DW_AT_type(*DW$T$11)
    3127                      .dwattr DW$396, DW_AT_name("unused15"), DW_AT_symbol_name("_unused15")
    3128                      .dwattr DW$396, DW_AT_bit_offset(0x01), DW_AT_bit_size(0x01)
    3129                      .dwattr DW$396, DW_AT_data_member_location[DW_OP_plus_uconst 0x0]
    3130                      .dwattr DW$396, DW_AT_accessibility(DW_ACCESS_public)
    3131              DW$397  .dwtag  DW_TAG_member, DW_AT_type(*DW$T$11)
    3132                      .dwattr DW$397, DW_AT_name("unused16"), DW_AT_symbol_name("_unused16")
    3133                      .dwattr DW$397, DW_AT_bit_offset(0x00), DW_AT_bit_size(0x01)
    3134                      .dwattr DW$397, DW_AT_data_member_location[DW_OP_plus_uconst 0x0]
    3135                      .dwattr DW$397, DW_AT_accessibility(DW_ACCESS_public)
    3136                      .dwendtag DW$T$37
    3137              
    3138              
    3139              DW$T$23 .dwtag  DW_TAG_structure_type
    3140                      .dwattr DW$T$23, DW_AT_byte_size(0x01)
    3141              DW$398  .dwtag  DW_TAG_member, DW_AT_type(*DW$T$11)
    3142                      .dwattr DW$398, DW_AT_name("s12"), DW_AT_symbol_name("_s12")
    3143                      .dwattr DW$398, DW_AT_bit_offset(0x0f), DW_AT_bit_size(0x01)
    3144                      .dwattr DW$398, DW_AT_data_member_location[DW_OP_plus_uconst 0x0]
    3145                      .dwattr DW$398, DW_AT_accessibility(DW_ACCESS_public)
    3146              DW$399  .dwtag  DW_TAG_member, DW_AT_type(*DW$T$11)
    3147                      .dwattr DW$399, DW_AT_name("s13"), DW_AT_symbol_name("_s13")
    3148                      .dwattr DW$399, DW_AT_bit_offset(0x0e), DW_AT_bit_size(0x01)
    3149                      .dwattr DW$399, DW_AT_data_member_location[DW_OP_plus_uconst 0x0]
    3150                      .dwattr DW$399, DW_AT_accessibility(DW_ACCESS_public)
    3151              DW$400  .dwtag  DW_TAG_member, DW_AT_type(*DW$T$11)
    3152                      .dwattr DW$400, DW_AT_name("s14"), DW_AT_symbol_name("_s14")
    3153                      .dwattr DW$400, DW_AT_bit_offset(0x0d), DW_AT_bit_size(0x01)
    3154                      .dwattr DW$400, DW_AT_data_member_location[DW_OP_plus_uconst 0x0]
    3155                      .dwattr DW$400, DW_AT_accessibility(DW_ACCESS_public)
    3156              DW$401  .dwtag  DW_TAG_member, DW_AT_type(*DW$T$11)
    3157                      .dwattr DW$401, DW_AT_name("s15"), DW_AT_symbol_name("_s15")
    3158                      .dwattr DW$401, DW_AT_bit_offset(0x0c), DW_AT_bit_size(0x01)
    3159                      .dwattr DW$401, DW_AT_data_member_location[DW_OP_plus_uconst 0x0]
    3160                      .dwattr DW$401, DW_AT_accessibility(DW_ACCESS_public)
    3161              DW$402  .dwtag  DW_TAG_member, DW_AT_type(*DW$T$11)
    3162                      .dwattr DW$402, DW_AT_name("s16"), DW_AT_symbol_name("_s16")
    3163                      .dwattr DW$402, DW_AT_bit_offset(0x0b), DW_AT_bit_size(0x01)
    3164                      .dwattr DW$402, DW_AT_data_member_location[DW_OP_plus_uconst 0x0]
    3165                      .dwattr DW$402, DW_AT_accessibility(DW_ACCESS_public)
    3166              DW$403  .dwtag  DW_TAG_member, DW_AT_type(*DW$T$11)
    3167                      .dwattr DW$403, DW_AT_name("s17"), DW_AT_symbol_name("_s17")
    3168                      .dwattr DW$403, DW_AT_bit_offset(0x0a), DW_AT_bit_size(0x01)
    3169                      .dwattr DW$403, DW_AT_data_member_location[DW_OP_plus_uconst 0x0]
    3170                      .dwattr DW$403, DW_AT_accessibility(DW_ACCESS_public)
    3171              DW$404  .dwtag  DW_TAG_member, DW_AT_type(*DW$T$11)
    3172                      .dwattr DW$404, DW_AT_name("s18"), DW_AT_symbol_name("_s18")
    3173                      .dwattr DW$404, DW_AT_bit_offset(0x09), DW_AT_bit_size(0x01)
    3174                      .dwattr DW$404, DW_AT_data_member_location[DW_OP_plus_uconst 0x0]
    3175                      .dwattr DW$404, DW_AT_accessibility(DW_ACCESS_public)
    3176              DW$405  .dwtag  DW_TAG_member, DW_AT_type(*DW$T$11)
    3177                      .dwattr DW$405, DW_AT_name("s19"), DW_AT_symbol_name("_s19")
    3178                      .dwattr DW$405, DW_AT_bit_offset(0x08), DW_AT_bit_size(0x01)
    3179                      .dwattr DW$405, DW_AT_data_member_location[DW_OP_plus_uconst 0x0]
TMS320C2000 COFF Assembler PC v4.1.3 Thu Aug 18 12:16:11 2016

Tools Copyright (c) 1996-2006 Texas Instruments Incorporated
digout.asm                                                           PAGE   64

    3180                      .dwattr DW$405, DW_AT_accessibility(DW_ACCESS_public)
    3181              DW$406  .dwtag  DW_TAG_member, DW_AT_type(*DW$T$11)
    3182                      .dwattr DW$406, DW_AT_name("disp485txen"), DW_AT_symbol_name("_disp485txen")
    3183                      .dwattr DW$406, DW_AT_bit_offset(0x07), DW_AT_bit_size(0x01)
    3184                      .dwattr DW$406, DW_AT_data_member_location[DW_OP_plus_uconst 0x0]
    3185                      .dwattr DW$406, DW_AT_accessibility(DW_ACCESS_public)
    3186              DW$407  .dwtag  DW_TAG_member, DW_AT_type(*DW$T$11)
    3187                      .dwattr DW$407, DW_AT_name("disp485rxen"), DW_AT_symbol_name("_disp485rxen")
    3188                      .dwattr DW$407, DW_AT_bit_offset(0x06), DW_AT_bit_size(0x01)
    3189                      .dwattr DW$407, DW_AT_data_member_location[DW_OP_plus_uconst 0x0]
    3190                      .dwattr DW$407, DW_AT_accessibility(DW_ACCESS_public)
    3191              DW$408  .dwtag  DW_TAG_member, DW_AT_type(*DW$T$11)
    3192                      .dwattr DW$408, DW_AT_name("gpio1"), DW_AT_symbol_name("_gpio1")
    3193                      .dwattr DW$408, DW_AT_bit_offset(0x05), DW_AT_bit_size(0x01)
    3194                      .dwattr DW$408, DW_AT_data_member_location[DW_OP_plus_uconst 0x0]
    3195                      .dwattr DW$408, DW_AT_accessibility(DW_ACCESS_public)
    3196              DW$409  .dwtag  DW_TAG_member, DW_AT_type(*DW$T$11)
    3197                      .dwattr DW$409, DW_AT_name("gpio2"), DW_AT_symbol_name("_gpio2")
    3198                      .dwattr DW$409, DW_AT_bit_offset(0x04), DW_AT_bit_size(0x01)
    3199                      .dwattr DW$409, DW_AT_data_member_location[DW_OP_plus_uconst 0x0]
    3200                      .dwattr DW$409, DW_AT_accessibility(DW_ACCESS_public)
    3201              DW$410  .dwtag  DW_TAG_member, DW_AT_type(*DW$T$11)
    3202                      .dwattr DW$410, DW_AT_name("gpio3"), DW_AT_symbol_name("_gpio3")
    3203                      .dwattr DW$410, DW_AT_bit_offset(0x03), DW_AT_bit_size(0x01)
    3204                      .dwattr DW$410, DW_AT_data_member_location[DW_OP_plus_uconst 0x0]
    3205                      .dwattr DW$410, DW_AT_accessibility(DW_ACCESS_public)
    3206              DW$411  .dwtag  DW_TAG_member, DW_AT_type(*DW$T$11)
    3207                      .dwattr DW$411, DW_AT_name("gpio4"), DW_AT_symbol_name("_gpio4")
    3208                      .dwattr DW$411, DW_AT_bit_offset(0x02), DW_AT_bit_size(0x01)
    3209                      .dwattr DW$411, DW_AT_data_member_location[DW_OP_plus_uconst 0x0]
    3210                      .dwattr DW$411, DW_AT_accessibility(DW_ACCESS_public)
    3211              DW$412  .dwtag  DW_TAG_member, DW_AT_type(*DW$T$11)
    3212                      .dwattr DW$412, DW_AT_name("rtccs"), DW_AT_symbol_name("_rtccs")
    3213                      .dwattr DW$412, DW_AT_bit_offset(0x01), DW_AT_bit_size(0x01)
    3214                      .dwattr DW$412, DW_AT_data_member_location[DW_OP_plus_uconst 0x0]
    3215                      .dwattr DW$412, DW_AT_accessibility(DW_ACCESS_public)
    3216              DW$413  .dwtag  DW_TAG_member, DW_AT_type(*DW$T$11)
    3217                      .dwattr DW$413, DW_AT_name("op3"), DW_AT_symbol_name("_op3")
    3218                      .dwattr DW$413, DW_AT_bit_offset(0x00), DW_AT_bit_size(0x01)
    3219                      .dwattr DW$413, DW_AT_data_member_location[DW_OP_plus_uconst 0x0]
    3220                      .dwattr DW$413, DW_AT_accessibility(DW_ACCESS_public)
    3221                      .dwendtag DW$T$23
    3222              
    3223              
    3224              DW$T$26 .dwtag  DW_TAG_structure_type
    3225                      .dwattr DW$T$26, DW_AT_byte_size(0x01)
    3226              DW$414  .dwtag  DW_TAG_member, DW_AT_type(*DW$T$11)
    3227                      .dwattr DW$414, DW_AT_name("spimo"), DW_AT_symbol_name("_spimo")
    3228                      .dwattr DW$414, DW_AT_bit_offset(0x0f), DW_AT_bit_size(0x01)
    3229                      .dwattr DW$414, DW_AT_data_member_location[DW_OP_plus_uconst 0x0]
    3230                      .dwattr DW$414, DW_AT_accessibility(DW_ACCESS_public)
    3231              DW$415  .dwtag  DW_TAG_member, DW_AT_type(*DW$T$11)
    3232                      .dwattr DW$415, DW_AT_name("spimi"), DW_AT_symbol_name("_spimi")
    3233                      .dwattr DW$415, DW_AT_bit_offset(0x0e), DW_AT_bit_size(0x01)
    3234                      .dwattr DW$415, DW_AT_data_member_location[DW_OP_plus_uconst 0x0]
TMS320C2000 COFF Assembler PC v4.1.3 Thu Aug 18 12:16:11 2016

Tools Copyright (c) 1996-2006 Texas Instruments Incorporated
digout.asm                                                           PAGE   65

    3235                      .dwattr DW$415, DW_AT_accessibility(DW_ACCESS_public)
    3236              DW$416  .dwtag  DW_TAG_member, DW_AT_type(*DW$T$11)
    3237                      .dwattr DW$416, DW_AT_name("spiclk"), DW_AT_symbol_name("_spiclk")
    3238                      .dwattr DW$416, DW_AT_bit_offset(0x0d), DW_AT_bit_size(0x01)
    3239                      .dwattr DW$416, DW_AT_data_member_location[DW_OP_plus_uconst 0x0]
    3240                      .dwattr DW$416, DW_AT_accessibility(DW_ACCESS_public)
    3241              DW$417  .dwtag  DW_TAG_member, DW_AT_type(*DW$T$11)
    3242                      .dwattr DW$417, DW_AT_name("spiste"), DW_AT_symbol_name("_spiste")
    3243                      .dwattr DW$417, DW_AT_bit_offset(0x0c), DW_AT_bit_size(0x01)
    3244                      .dwattr DW$417, DW_AT_data_member_location[DW_OP_plus_uconst 0x0]
    3245                      .dwattr DW$417, DW_AT_accessibility(DW_ACCESS_public)
    3246              DW$418  .dwtag  DW_TAG_member, DW_AT_type(*DW$T$11)
    3247                      .dwattr DW$418, DW_AT_name("scitxa"), DW_AT_symbol_name("_scitxa")
    3248                      .dwattr DW$418, DW_AT_bit_offset(0x0b), DW_AT_bit_size(0x01)
    3249                      .dwattr DW$418, DW_AT_data_member_location[DW_OP_plus_uconst 0x0]
    3250                      .dwattr DW$418, DW_AT_accessibility(DW_ACCESS_public)
    3251              DW$419  .dwtag  DW_TAG_member, DW_AT_type(*DW$T$11)
    3252                      .dwattr DW$419, DW_AT_name("scirxa"), DW_AT_symbol_name("_scirxa")
    3253                      .dwattr DW$419, DW_AT_bit_offset(0x0a), DW_AT_bit_size(0x01)
    3254                      .dwattr DW$419, DW_AT_data_member_location[DW_OP_plus_uconst 0x0]
    3255                      .dwattr DW$419, DW_AT_accessibility(DW_ACCESS_public)
    3256              DW$420  .dwtag  DW_TAG_member, DW_AT_type(*DW$T$11)
    3257                      .dwattr DW$420, DW_AT_name("op1"), DW_AT_symbol_name("_op1")
    3258                      .dwattr DW$420, DW_AT_bit_offset(0x09), DW_AT_bit_size(0x01)
    3259                      .dwattr DW$420, DW_AT_data_member_location[DW_OP_plus_uconst 0x0]
    3260                      .dwattr DW$420, DW_AT_accessibility(DW_ACCESS_public)
    3261              DW$421  .dwtag  DW_TAG_member, DW_AT_type(*DW$T$11)
    3262                      .dwattr DW$421, DW_AT_name("op2"), DW_AT_symbol_name("_op2")
    3263                      .dwattr DW$421, DW_AT_bit_offset(0x08), DW_AT_bit_size(0x01)
    3264                      .dwattr DW$421, DW_AT_data_member_location[DW_OP_plus_uconst 0x0]
    3265                      .dwattr DW$421, DW_AT_accessibility(DW_ACCESS_public)
    3266              DW$422  .dwtag  DW_TAG_member, DW_AT_type(*DW$T$11)
    3267                      .dwattr DW$422, DW_AT_name("spiselect1"), DW_AT_symbol_name("_spiselect1")
    3268                      .dwattr DW$422, DW_AT_bit_offset(0x07), DW_AT_bit_size(0x01)
    3269                      .dwattr DW$422, DW_AT_data_member_location[DW_OP_plus_uconst 0x0]
    3270                      .dwattr DW$422, DW_AT_accessibility(DW_ACCESS_public)
    3271              DW$423  .dwtag  DW_TAG_member, DW_AT_type(*DW$T$11)
    3272                      .dwattr DW$423, DW_AT_name("spiselect2"), DW_AT_symbol_name("_spiselect2")
    3273                      .dwattr DW$423, DW_AT_bit_offset(0x06), DW_AT_bit_size(0x01)
    3274                      .dwattr DW$423, DW_AT_data_member_location[DW_OP_plus_uconst 0x0]
    3275                      .dwattr DW$423, DW_AT_accessibility(DW_ACCESS_public)
    3276              DW$424  .dwtag  DW_TAG_member, DW_AT_type(*DW$T$11)
    3277                      .dwattr DW$424, DW_AT_name("spiselect3"), DW_AT_symbol_name("_spiselect3")
    3278                      .dwattr DW$424, DW_AT_bit_offset(0x05), DW_AT_bit_size(0x01)
    3279                      .dwattr DW$424, DW_AT_data_member_location[DW_OP_plus_uconst 0x0]
    3280                      .dwattr DW$424, DW_AT_accessibility(DW_ACCESS_public)
    3281              DW$425  .dwtag  DW_TAG_member, DW_AT_type(*DW$T$11)
    3282                      .dwattr DW$425, DW_AT_name("pc485rxen"), DW_AT_symbol_name("_pc485rxen")
    3283                      .dwattr DW$425, DW_AT_bit_offset(0x04), DW_AT_bit_size(0x01)
    3284                      .dwattr DW$425, DW_AT_data_member_location[DW_OP_plus_uconst 0x0]
    3285                      .dwattr DW$425, DW_AT_accessibility(DW_ACCESS_public)
    3286              DW$426  .dwtag  DW_TAG_member, DW_AT_type(*DW$T$11)
    3287                      .dwattr DW$426, DW_AT_name("pc485txen"), DW_AT_symbol_name("_pc485txen")
    3288                      .dwattr DW$426, DW_AT_bit_offset(0x03), DW_AT_bit_size(0x01)
    3289                      .dwattr DW$426, DW_AT_data_member_location[DW_OP_plus_uconst 0x0]
TMS320C2000 COFF Assembler PC v4.1.3 Thu Aug 18 12:16:11 2016

Tools Copyright (c) 1996-2006 Texas Instruments Incorporated
digout.asm                                                           PAGE   66

    3290                      .dwattr DW$426, DW_AT_accessibility(DW_ACCESS_public)
    3291              DW$427  .dwtag  DW_TAG_member, DW_AT_type(*DW$T$11)
    3292                      .dwattr DW$427, DW_AT_name("modeselect"), DW_AT_symbol_name("_modeselect")
    3293                      .dwattr DW$427, DW_AT_bit_offset(0x02), DW_AT_bit_size(0x01)
    3294                      .dwattr DW$427, DW_AT_data_member_location[DW_OP_plus_uconst 0x0]
    3295                      .dwattr DW$427, DW_AT_accessibility(DW_ACCESS_public)
    3296              DW$428  .dwtag  DW_TAG_member, DW_AT_type(*DW$T$11)
    3297                      .dwattr DW$428, DW_AT_name("xf_xplldis"), DW_AT_symbol_name("_xf_xplldis")
    3298                      .dwattr DW$428, DW_AT_bit_offset(0x01), DW_AT_bit_size(0x01)
    3299                      .dwattr DW$428, DW_AT_data_member_location[DW_OP_plus_uconst 0x0]
    3300                      .dwattr DW$428, DW_AT_accessibility(DW_ACCESS_public)
    3301              DW$429  .dwtag  DW_TAG_member, DW_AT_type(*DW$T$11)
    3302                      .dwattr DW$429, DW_AT_name("notused3"), DW_AT_symbol_name("_notused3")
    3303                      .dwattr DW$429, DW_AT_bit_offset(0x00), DW_AT_bit_size(0x01)
    3304                      .dwattr DW$429, DW_AT_data_member_location[DW_OP_plus_uconst 0x0]
    3305                      .dwattr DW$429, DW_AT_accessibility(DW_ACCESS_public)
    3306                      .dwendtag DW$T$26
    3307              
    3308              
    3309                      .dwattr DW$54, DW_AT_external(0x01)
    3310                      .dwattr DW$53, DW_AT_external(0x01)
    3311                      .dwattr DW$46, DW_AT_external(0x01)
    3312                      .dwattr DW$127, DW_AT_external(0x01)
    3313                      .dwattr DW$51, DW_AT_external(0x01)
    3314                      .dwattr DW$52, DW_AT_external(0x01)
    3315                      .dwattr DW$89, DW_AT_external(0x01)
    3316                      .dwattr DW$CU, DW_AT_language(DW_LANG_C)
    3317              
    3318              ;***************************************************************
    3319              ;* DWARF REGISTER MAP                                          *
    3320              ;***************************************************************
    3321              
    3322              DW$430  .dwtag  DW_TAG_assign_register, DW_AT_name("AL")
    3323                      .dwattr DW$430, DW_AT_location[DW_OP_reg0]
    3324              DW$431  .dwtag  DW_TAG_assign_register, DW_AT_name("AH")
    3325                      .dwattr DW$431, DW_AT_location[DW_OP_reg1]
    3326              DW$432  .dwtag  DW_TAG_assign_register, DW_AT_name("PL")
    3327                      .dwattr DW$432, DW_AT_location[DW_OP_reg2]
    3328              DW$433  .dwtag  DW_TAG_assign_register, DW_AT_name("PH")
    3329                      .dwattr DW$433, DW_AT_location[DW_OP_reg3]
    3330              DW$434  .dwtag  DW_TAG_assign_register, DW_AT_name("AR0")
    3331                      .dwattr DW$434, DW_AT_location[DW_OP_reg4]
    3332              DW$435  .dwtag  DW_TAG_assign_register, DW_AT_name("XAR0")
    3333                      .dwattr DW$435, DW_AT_location[DW_OP_reg5]
    3334              DW$436  .dwtag  DW_TAG_assign_register, DW_AT_name("AR1")
    3335                      .dwattr DW$436, DW_AT_location[DW_OP_reg6]
    3336              DW$437  .dwtag  DW_TAG_assign_register, DW_AT_name("XAR1")
    3337                      .dwattr DW$437, DW_AT_location[DW_OP_reg7]
    3338              DW$438  .dwtag  DW_TAG_assign_register, DW_AT_name("AR2")
    3339                      .dwattr DW$438, DW_AT_location[DW_OP_reg8]
    3340              DW$439  .dwtag  DW_TAG_assign_register, DW_AT_name("XAR2")
    3341                      .dwattr DW$439, DW_AT_location[DW_OP_reg9]
    3342              DW$440  .dwtag  DW_TAG_assign_register, DW_AT_name("AR3")
    3343                      .dwattr DW$440, DW_AT_location[DW_OP_reg10]
    3344              DW$441  .dwtag  DW_TAG_assign_register, DW_AT_name("XAR3")
TMS320C2000 COFF Assembler PC v4.1.3 Thu Aug 18 12:16:11 2016

Tools Copyright (c) 1996-2006 Texas Instruments Incorporated
digout.asm                                                           PAGE   67

    3345                      .dwattr DW$441, DW_AT_location[DW_OP_reg11]
    3346              DW$442  .dwtag  DW_TAG_assign_register, DW_AT_name("AR4")
    3347                      .dwattr DW$442, DW_AT_location[DW_OP_reg12]
    3348              DW$443  .dwtag  DW_TAG_assign_register, DW_AT_name("XAR4")
    3349                      .dwattr DW$443, DW_AT_location[DW_OP_reg13]
    3350              DW$444  .dwtag  DW_TAG_assign_register, DW_AT_name("AR5")
    3351                      .dwattr DW$444, DW_AT_location[DW_OP_reg14]
    3352              DW$445  .dwtag  DW_TAG_assign_register, DW_AT_name("XAR5")
    3353                      .dwattr DW$445, DW_AT_location[DW_OP_reg15]
    3354              DW$446  .dwtag  DW_TAG_assign_register, DW_AT_name("AR6")
    3355                      .dwattr DW$446, DW_AT_location[DW_OP_reg16]
    3356              DW$447  .dwtag  DW_TAG_assign_register, DW_AT_name("XAR6")
    3357                      .dwattr DW$447, DW_AT_location[DW_OP_reg17]
    3358              DW$448  .dwtag  DW_TAG_assign_register, DW_AT_name("AR7")
    3359                      .dwattr DW$448, DW_AT_location[DW_OP_reg18]
    3360              DW$449  .dwtag  DW_TAG_assign_register, DW_AT_name("XAR7")
    3361                      .dwattr DW$449, DW_AT_location[DW_OP_reg19]
    3362              DW$450  .dwtag  DW_TAG_assign_register, DW_AT_name("SP")
    3363                      .dwattr DW$450, DW_AT_location[DW_OP_reg20]
    3364              DW$451  .dwtag  DW_TAG_assign_register, DW_AT_name("XT")
    3365                      .dwattr DW$451, DW_AT_location[DW_OP_reg21]
    3366              DW$452  .dwtag  DW_TAG_assign_register, DW_AT_name("T")
    3367                      .dwattr DW$452, DW_AT_location[DW_OP_reg22]
    3368              DW$453  .dwtag  DW_TAG_assign_register, DW_AT_name("ST0")
    3369                      .dwattr DW$453, DW_AT_location[DW_OP_reg23]
    3370              DW$454  .dwtag  DW_TAG_assign_register, DW_AT_name("ST1")
    3371                      .dwattr DW$454, DW_AT_location[DW_OP_reg24]
    3372              DW$455  .dwtag  DW_TAG_assign_register, DW_AT_name("PC")
    3373                      .dwattr DW$455, DW_AT_location[DW_OP_reg25]
    3374              DW$456  .dwtag  DW_TAG_assign_register, DW_AT_name("RPC")
    3375                      .dwattr DW$456, DW_AT_location[DW_OP_reg26]
    3376              DW$457  .dwtag  DW_TAG_assign_register, DW_AT_name("FP")
    3377                      .dwattr DW$457, DW_AT_location[DW_OP_reg27]
    3378              DW$458  .dwtag  DW_TAG_assign_register, DW_AT_name("DP")
    3379                      .dwattr DW$458, DW_AT_location[DW_OP_reg28]
    3380              DW$459  .dwtag  DW_TAG_assign_register, DW_AT_name("SXM")
    3381                      .dwattr DW$459, DW_AT_location[DW_OP_reg29]
    3382              DW$460  .dwtag  DW_TAG_assign_register, DW_AT_name("PM")
    3383                      .dwattr DW$460, DW_AT_location[DW_OP_reg30]
    3384              DW$461  .dwtag  DW_TAG_assign_register, DW_AT_name("OVM")
    3385                      .dwattr DW$461, DW_AT_location[DW_OP_reg31]
    3386              DW$462  .dwtag  DW_TAG_assign_register, DW_AT_name("PAGE0")
    3387                      .dwattr DW$462, DW_AT_location[DW_OP_regx 0x20]
    3388              DW$463  .dwtag  DW_TAG_assign_register, DW_AT_name("AMODE")
    3389                      .dwattr DW$463, DW_AT_location[DW_OP_regx 0x21]
    3390              DW$464  .dwtag  DW_TAG_assign_register, DW_AT_name("IFR")
    3391                      .dwattr DW$464, DW_AT_location[DW_OP_regx 0x22]
    3392              DW$465  .dwtag  DW_TAG_assign_register, DW_AT_name("IER")
    3393                      .dwattr DW$465, DW_AT_location[DW_OP_regx 0x23]
    3394              DW$466  .dwtag  DW_TAG_assign_register, DW_AT_name("IER")
    3395                      .dwattr DW$466, DW_AT_location[DW_OP_regx 0x24]
    3396              DW$467  .dwtag  DW_TAG_assign_register, DW_AT_name("PSEUDO")
    3397                      .dwattr DW$467, DW_AT_location[DW_OP_regx 0x25]
    3398              DW$468  .dwtag  DW_TAG_assign_register, DW_AT_name("PSEUDOH")
    3399                      .dwattr DW$468, DW_AT_location[DW_OP_regx 0x26]
TMS320C2000 COFF Assembler PC v4.1.3 Thu Aug 18 12:16:11 2016

Tools Copyright (c) 1996-2006 Texas Instruments Incorporated
digout.asm                                                           PAGE   68

    3400              DW$469  .dwtag  DW_TAG_assign_register, DW_AT_name("VOL")
    3401                      .dwattr DW$469, DW_AT_location[DW_OP_regx 0x27]
    3402              DW$470  .dwtag  DW_TAG_assign_register, DW_AT_name("CIE_RETA")
    3403                      .dwattr DW$470, DW_AT_location[DW_OP_regx 0x28]
    3404                      .dwendtag DW$CU
    3405              

No Assembly Errors, No Assembly Warnings
