TMS320C2000 COFF Assembler PC v4.1.3 Thu Aug 18 12:16:14 2016

Tools Copyright (c) 1996-2006 Texas Instruments Incorporated
fat.asm                                                              PAGE    1

       1              ;***************************************************************
       2              ;* TMS320C2000 C/C++ Codegen                         PC v4.1.3 *
       3              ;* Date/Time created: Thu Aug 18 12:16:13 2016                 *
       4              ;***************************************************************
       5                      .compiler_opts --mem_model:code=flat --mem_model:data=large --quiet --silicon_version=28 
       6        0002  FP      .set    XAR2
       7              
       8              DW$CU   .dwtag  DW_TAG_compile_unit
       9                      .dwattr DW$CU, DW_AT_name("fat.c")
      10                      .dwattr DW$CU, DW_AT_producer("TMS320C2000 C/C++ Codegen PC v4.1.3 Copyright (c) 1996-2006 Texas Inst
      11                      .dwattr DW$CU, DW_AT_stmt_list(0x00)
      12                      .dwattr DW$CU, DW_AT_TI_VERSION(0x01)
      13              
      14              DW$1    .dwtag  DW_TAG_subprogram, DW_AT_name("memcpy"), DW_AT_symbol_name("_memcpy")
      15                      .dwattr DW$1, DW_AT_type(*DW$T$3)
      16                      .dwattr DW$1, DW_AT_declaration(0x01)
      17                      .dwattr DW$1, DW_AT_external(0x01)
      18              DW$2    .dwtag  DW_TAG_formal_parameter, DW_AT_type(*DW$T$3)
      19              DW$3    .dwtag  DW_TAG_formal_parameter, DW_AT_type(*DW$T$84)
      20              DW$4    .dwtag  DW_TAG_formal_parameter, DW_AT_type(*DW$T$13)
      21                      .dwendtag DW$1
      22              
      23              
      24              DW$5    .dwtag  DW_TAG_subprogram, DW_AT_name("memset"), DW_AT_symbol_name("_memset")
      25                      .dwattr DW$5, DW_AT_type(*DW$T$3)
      26                      .dwattr DW$5, DW_AT_declaration(0x01)
      27                      .dwattr DW$5, DW_AT_external(0x01)
      28              DW$6    .dwtag  DW_TAG_formal_parameter, DW_AT_type(*DW$T$3)
      29              DW$7    .dwtag  DW_TAG_formal_parameter, DW_AT_type(*DW$T$10)
      30              DW$8    .dwtag  DW_TAG_formal_parameter, DW_AT_type(*DW$T$86)
      31                      .dwendtag DW$5
      32              
      33              
      34              DW$9    .dwtag  DW_TAG_subprogram, DW_AT_name("fn_getdrive"), DW_AT_symbol_name("_fn_getdrive")
      35                      .dwattr DW$9, DW_AT_type(*DW$T$10)
      36                      .dwattr DW$9, DW_AT_declaration(0x01)
      37                      .dwattr DW$9, DW_AT_external(0x01)
      38              DW$10   .dwtag  DW_TAG_formal_parameter, DW_AT_type(*DW$T$117)
      39                      .dwendtag DW$9
      40              
      41              
      42              DW$11   .dwtag  DW_TAG_subprogram, DW_AT_name("fn_write"), DW_AT_symbol_name("_fn_write")
      43                      .dwattr DW$11, DW_AT_type(*DW$T$12)
      44                      .dwattr DW$11, DW_AT_declaration(0x01)
      45                      .dwattr DW$11, DW_AT_external(0x01)
      46              DW$12   .dwtag  DW_TAG_formal_parameter, DW_AT_type(*DW$T$117)
      47              DW$13   .dwtag  DW_TAG_formal_parameter, DW_AT_type(*DW$T$84)
      48              DW$14   .dwtag  DW_TAG_formal_parameter, DW_AT_type(*DW$T$12)
      49              DW$15   .dwtag  DW_TAG_formal_parameter, DW_AT_type(*DW$T$12)
      50              DW$16   .dwtag  DW_TAG_formal_parameter, DW_AT_type(*DW$T$210)
      51                      .dwendtag DW$11
      52              
      53              
      54              DW$17   .dwtag  DW_TAG_subprogram, DW_AT_name("f_getdate"), DW_AT_symbol_name("_f_getdate")
      55                      .dwattr DW$17, DW_AT_type(*DW$T$9)
TMS320C2000 COFF Assembler PC v4.1.3 Thu Aug 18 12:16:14 2016

Tools Copyright (c) 1996-2006 Texas Instruments Incorporated
fat.asm                                                              PAGE    2

      56                      .dwattr DW$17, DW_AT_declaration(0x01)
      57                      .dwattr DW$17, DW_AT_external(0x01)
      58              
      59              DW$18   .dwtag  DW_TAG_subprogram, DW_AT_name("f_gettime"), DW_AT_symbol_name("_f_gettime")
      60                      .dwattr DW$18, DW_AT_type(*DW$T$9)
      61                      .dwattr DW$18, DW_AT_declaration(0x01)
      62                      .dwattr DW$18, DW_AT_external(0x01)
      63              
      64              DW$19   .dwtag  DW_TAG_subprogram, DW_AT_name("_f_readsector"), DW_AT_symbol_name("__f_readsector")
      65                      .dwattr DW$19, DW_AT_type(*DW$T$10)
      66                      .dwattr DW$19, DW_AT_declaration(0x01)
      67                      .dwattr DW$19, DW_AT_external(0x01)
      68              DW$20   .dwtag  DW_TAG_formal_parameter, DW_AT_type(*DW$T$89)
      69              DW$21   .dwtag  DW_TAG_formal_parameter, DW_AT_type(*DW$T$3)
      70              DW$22   .dwtag  DW_TAG_formal_parameter, DW_AT_type(*DW$T$13)
      71              DW$23   .dwtag  DW_TAG_formal_parameter, DW_AT_type(*DW$T$10)
      72                      .dwendtag DW$19
      73              
      74              
      75              DW$24   .dwtag  DW_TAG_subprogram, DW_AT_name("_f_writesector"), DW_AT_symbol_name("__f_writesector")
      76                      .dwattr DW$24, DW_AT_type(*DW$T$10)
      77                      .dwattr DW$24, DW_AT_declaration(0x01)
      78                      .dwattr DW$24, DW_AT_external(0x01)
      79              DW$25   .dwtag  DW_TAG_formal_parameter, DW_AT_type(*DW$T$89)
      80              DW$26   .dwtag  DW_TAG_formal_parameter, DW_AT_type(*DW$T$3)
      81              DW$27   .dwtag  DW_TAG_formal_parameter, DW_AT_type(*DW$T$13)
      82              DW$28   .dwtag  DW_TAG_formal_parameter, DW_AT_type(*DW$T$10)
      83                      .dwendtag DW$24
      84              
      85              
      86              DW$29   .dwtag  DW_TAG_subprogram, DW_AT_name("_f_getclustervalue"), DW_AT_symbol_name("__f_getclustervalue")
      87                      .dwattr DW$29, DW_AT_type(*DW$T$10)
      88                      .dwattr DW$29, DW_AT_declaration(0x01)
      89                      .dwattr DW$29, DW_AT_external(0x01)
      90              DW$30   .dwtag  DW_TAG_formal_parameter, DW_AT_type(*DW$T$89)
      91              DW$31   .dwtag  DW_TAG_formal_parameter, DW_AT_type(*DW$T$13)
      92              DW$32   .dwtag  DW_TAG_formal_parameter, DW_AT_type(*DW$T$23)
      93                      .dwendtag DW$29
      94              
      95              
      96              DW$33   .dwtag  DW_TAG_subprogram, DW_AT_name("_f_clustertopos"), DW_AT_symbol_name("__f_clustertopos")
      97                      .dwattr DW$33, DW_AT_declaration(0x01)
      98                      .dwattr DW$33, DW_AT_external(0x01)
      99              DW$34   .dwtag  DW_TAG_formal_parameter, DW_AT_type(*DW$T$89)
     100              DW$35   .dwtag  DW_TAG_formal_parameter, DW_AT_type(*DW$T$13)
     101              DW$36   .dwtag  DW_TAG_formal_parameter, DW_AT_type(*DW$T$66)
     102                      .dwendtag DW$33
     103              
     104              
     105              DW$37   .dwtag  DW_TAG_subprogram, DW_AT_name("_f_getdecluster"), DW_AT_symbol_name("__f_getdecluster")
     106                      .dwattr DW$37, DW_AT_type(*DW$T$13)
     107                      .dwattr DW$37, DW_AT_declaration(0x01)
     108                      .dwattr DW$37, DW_AT_external(0x01)
     109              DW$38   .dwtag  DW_TAG_formal_parameter, DW_AT_type(*DW$T$89)
     110              DW$39   .dwtag  DW_TAG_formal_parameter, DW_AT_type(*DW$T$93)
TMS320C2000 COFF Assembler PC v4.1.3 Thu Aug 18 12:16:14 2016

Tools Copyright (c) 1996-2006 Texas Instruments Incorporated
fat.asm                                                              PAGE    3

     111                      .dwendtag DW$37
     112              
     113              
     114              DW$40   .dwtag  DW_TAG_subprogram, DW_AT_name("_f_checkstatus"), DW_AT_symbol_name("__f_checkstatus")
     115                      .dwattr DW$40, DW_AT_type(*DW$T$10)
     116                      .dwattr DW$40, DW_AT_declaration(0x01)
     117                      .dwattr DW$40, DW_AT_external(0x01)
     118              DW$41   .dwtag  DW_TAG_formal_parameter, DW_AT_type(*DW$T$89)
     119                      .dwendtag DW$40
     120              
     121              
     122              DW$42   .dwtag  DW_TAG_subprogram, DW_AT_name("_f_getvolume"), DW_AT_symbol_name("__f_getvolume")
     123                      .dwattr DW$42, DW_AT_type(*DW$T$10)
     124                      .dwattr DW$42, DW_AT_declaration(0x01)
     125                      .dwattr DW$42, DW_AT_external(0x01)
     126              DW$43   .dwtag  DW_TAG_formal_parameter, DW_AT_type(*DW$T$117)
     127              DW$44   .dwtag  DW_TAG_formal_parameter, DW_AT_type(*DW$T$10)
     128              DW$45   .dwtag  DW_TAG_formal_parameter, DW_AT_type(*DW$T$126)
     129                      .dwendtag DW$42
     130              
     131              
     132              DW$46   .dwtag  DW_TAG_subprogram, DW_AT_name("_f_getword"), DW_AT_symbol_name("__f_getword")
     133                      .dwattr DW$46, DW_AT_type(*DW$T$9)
     134                      .dwattr DW$46, DW_AT_declaration(0x01)
     135                      .dwattr DW$46, DW_AT_external(0x01)
     136              DW$47   .dwtag  DW_TAG_formal_parameter, DW_AT_type(*DW$T$3)
     137                      .dwendtag DW$46
     138              
     139              
     140              DW$48   .dwtag  DW_TAG_subprogram, DW_AT_name("_f_getlong"), DW_AT_symbol_name("__f_getlong")
     141                      .dwattr DW$48, DW_AT_type(*DW$T$13)
     142                      .dwattr DW$48, DW_AT_declaration(0x01)
     143                      .dwattr DW$48, DW_AT_external(0x01)
     144              DW$49   .dwtag  DW_TAG_formal_parameter, DW_AT_type(*DW$T$3)
     145                      .dwendtag DW$48
     146              
     147              
     148              DW$50   .dwtag  DW_TAG_subprogram, DW_AT_name("_f_checklocked"), DW_AT_symbol_name("__f_checklocked")
     149                      .dwattr DW$50, DW_AT_type(*DW$T$10)
     150                      .dwattr DW$50, DW_AT_declaration(0x01)
     151                      .dwattr DW$50, DW_AT_external(0x01)
     152              DW$51   .dwtag  DW_TAG_formal_parameter, DW_AT_type(*DW$T$12)
     153              DW$52   .dwtag  DW_TAG_formal_parameter, DW_AT_type(*DW$T$66)
     154                      .dwendtag DW$50
     155              
     156              
     157              DW$53   .dwtag  DW_TAG_subprogram, DW_AT_name("_f_checkreadlocked"), DW_AT_symbol_name("__f_checkreadlocked")
     158                      .dwattr DW$53, DW_AT_type(*DW$T$10)
     159                      .dwattr DW$53, DW_AT_declaration(0x01)
     160                      .dwattr DW$53, DW_AT_external(0x01)
     161              DW$54   .dwtag  DW_TAG_formal_parameter, DW_AT_type(*DW$T$12)
     162              DW$55   .dwtag  DW_TAG_formal_parameter, DW_AT_type(*DW$T$66)
     163                      .dwendtag DW$53
     164              
     165              
TMS320C2000 COFF Assembler PC v4.1.3 Thu Aug 18 12:16:14 2016

Tools Copyright (c) 1996-2006 Texas Instruments Incorporated
fat.asm                                                              PAGE    4

     166              DW$56   .dwtag  DW_TAG_subprogram, DW_AT_name("_f_initentry"), DW_AT_symbol_name("__f_initentry")
     167                      .dwattr DW$56, DW_AT_declaration(0x01)
     168                      .dwattr DW$56, DW_AT_external(0x01)
     169              DW$57   .dwtag  DW_TAG_formal_parameter, DW_AT_type(*DW$T$93)
     170              DW$58   .dwtag  DW_TAG_formal_parameter, DW_AT_type(*DW$T$59)
     171              DW$59   .dwtag  DW_TAG_formal_parameter, DW_AT_type(*DW$T$59)
     172                      .dwendtag DW$56
     173              
     174              
     175              DW$60   .dwtag  DW_TAG_subprogram, DW_AT_name("_f_setword"), DW_AT_symbol_name("__f_setword")
     176                      .dwattr DW$60, DW_AT_declaration(0x01)
     177                      .dwattr DW$60, DW_AT_external(0x01)
     178              DW$61   .dwtag  DW_TAG_formal_parameter, DW_AT_type(*DW$T$3)
     179              DW$62   .dwtag  DW_TAG_formal_parameter, DW_AT_type(*DW$T$9)
     180                      .dwendtag DW$60
     181              
     182              
     183              DW$63   .dwtag  DW_TAG_subprogram, DW_AT_name("_f_alloccluster"), DW_AT_symbol_name("__f_alloccluster")
     184                      .dwattr DW$63, DW_AT_type(*DW$T$10)
     185                      .dwattr DW$63, DW_AT_declaration(0x01)
     186                      .dwattr DW$63, DW_AT_external(0x01)
     187              DW$64   .dwtag  DW_TAG_formal_parameter, DW_AT_type(*DW$T$89)
     188              DW$65   .dwtag  DW_TAG_formal_parameter, DW_AT_type(*DW$T$23)
     189                      .dwendtag DW$63
     190              
     191              
     192              DW$66   .dwtag  DW_TAG_subprogram, DW_AT_name("_f_dobadblock"), DW_AT_symbol_name("__f_dobadblock")
     193                      .dwattr DW$66, DW_AT_type(*DW$T$10)
     194                      .dwattr DW$66, DW_AT_declaration(0x01)
     195                      .dwattr DW$66, DW_AT_external(0x01)
     196              DW$67   .dwtag  DW_TAG_formal_parameter, DW_AT_type(*DW$T$89)
     197              DW$68   .dwtag  DW_TAG_formal_parameter, DW_AT_type(*DW$T$100)
     198                      .dwendtag DW$66
     199              
     200              
     201              DW$69   .dwtag  DW_TAG_subprogram, DW_AT_name("_f_setclustervalue"), DW_AT_symbol_name("__f_setclustervalue")
     202                      .dwattr DW$69, DW_AT_type(*DW$T$10)
     203                      .dwattr DW$69, DW_AT_declaration(0x01)
     204                      .dwattr DW$69, DW_AT_external(0x01)
     205              DW$70   .dwtag  DW_TAG_formal_parameter, DW_AT_type(*DW$T$89)
     206              DW$71   .dwtag  DW_TAG_formal_parameter, DW_AT_type(*DW$T$13)
     207              DW$72   .dwtag  DW_TAG_formal_parameter, DW_AT_type(*DW$T$13)
     208                      .dwendtag DW$69
     209              
     210              
     211              DW$73   .dwtag  DW_TAG_subprogram, DW_AT_name("_f_writefatsector"), DW_AT_symbol_name("__f_writefatsector")
     212                      .dwattr DW$73, DW_AT_type(*DW$T$10)
     213                      .dwattr DW$73, DW_AT_declaration(0x01)
     214                      .dwattr DW$73, DW_AT_external(0x01)
     215              DW$74   .dwtag  DW_TAG_formal_parameter, DW_AT_type(*DW$T$89)
     216                      .dwendtag DW$73
     217              
     218              
     219              DW$75   .dwtag  DW_TAG_subprogram, DW_AT_name("_f_setdecluster"), DW_AT_symbol_name("__f_setdecluster")
     220                      .dwattr DW$75, DW_AT_declaration(0x01)
TMS320C2000 COFF Assembler PC v4.1.3 Thu Aug 18 12:16:14 2016

Tools Copyright (c) 1996-2006 Texas Instruments Incorporated
fat.asm                                                              PAGE    5

     221                      .dwattr DW$75, DW_AT_external(0x01)
     222              DW$76   .dwtag  DW_TAG_formal_parameter, DW_AT_type(*DW$T$89)
     223              DW$77   .dwtag  DW_TAG_formal_parameter, DW_AT_type(*DW$T$93)
     224              DW$78   .dwtag  DW_TAG_formal_parameter, DW_AT_type(*DW$T$13)
     225                      .dwendtag DW$75
     226              
     227              
     228              DW$79   .dwtag  DW_TAG_subprogram, DW_AT_name("_f_fseek"), DW_AT_symbol_name("__f_fseek")
     229                      .dwattr DW$79, DW_AT_type(*DW$T$10)
     230                      .dwattr DW$79, DW_AT_declaration(0x01)
     231                      .dwattr DW$79, DW_AT_external(0x01)
     232              DW$80   .dwtag  DW_TAG_formal_parameter, DW_AT_type(*DW$T$89)
     233              DW$81   .dwtag  DW_TAG_formal_parameter, DW_AT_type(*DW$T$117)
     234              DW$82   .dwtag  DW_TAG_formal_parameter, DW_AT_type(*DW$T$100)
     235              DW$83   .dwtag  DW_TAG_formal_parameter, DW_AT_type(*DW$T$12)
     236                      .dwendtag DW$79
     237              
     238              
     239              DW$84   .dwtag  DW_TAG_subprogram, DW_AT_name("_f_getcurrsector"), DW_AT_symbol_name("__f_getcurrsector")
     240                      .dwattr DW$84, DW_AT_type(*DW$T$10)
     241                      .dwattr DW$84, DW_AT_declaration(0x01)
     242                      .dwattr DW$84, DW_AT_external(0x01)
     243              DW$85   .dwtag  DW_TAG_formal_parameter, DW_AT_type(*DW$T$89)
     244              DW$86   .dwtag  DW_TAG_formal_parameter, DW_AT_type(*DW$T$100)
     245              DW$87   .dwtag  DW_TAG_formal_parameter, DW_AT_type(*DW$T$59)
     246              DW$88   .dwtag  DW_TAG_formal_parameter, DW_AT_type(*DW$T$114)
     247                      .dwendtag DW$84
     248              
     249              
     250              DW$89   .dwtag  DW_TAG_subprogram, DW_AT_name("_f_removechain"), DW_AT_symbol_name("__f_removechain")
     251                      .dwattr DW$89, DW_AT_type(*DW$T$10)
     252                      .dwattr DW$89, DW_AT_declaration(0x01)
     253                      .dwattr DW$89, DW_AT_external(0x01)
     254              DW$90   .dwtag  DW_TAG_formal_parameter, DW_AT_type(*DW$T$89)
     255              DW$91   .dwtag  DW_TAG_formal_parameter, DW_AT_type(*DW$T$13)
     256                      .dwendtag DW$89
     257              
     258              
     259              DW$92   .dwtag  DW_TAG_subprogram, DW_AT_name("_fn_removeseekpos"), DW_AT_symbol_name("__fn_removeseekpos")
     260                      .dwattr DW$92, DW_AT_declaration(0x01)
     261                      .dwattr DW$92, DW_AT_external(0x01)
     262              DW$93   .dwtag  DW_TAG_formal_parameter, DW_AT_type(*DW$T$100)
     263                      .dwendtag DW$92
     264              
     265              
     266              DW$94   .dwtag  DW_TAG_subprogram, DW_AT_name("_fn_initseekdivisor"), DW_AT_symbol_name("__fn_initseekdivisor
     267                      .dwattr DW$94, DW_AT_declaration(0x01)
     268                      .dwattr DW$94, DW_AT_external(0x01)
     269              DW$95   .dwtag  DW_TAG_formal_parameter, DW_AT_type(*DW$T$100)
     270              DW$96   .dwtag  DW_TAG_formal_parameter, DW_AT_type(*DW$T$89)
     271                      .dwendtag DW$94
     272              
     273              
     274              DW$97   .dwtag  DW_TAG_subprogram, DW_AT_name("_f_mutex_get"), DW_AT_symbol_name("__f_mutex_get")
     275                      .dwattr DW$97, DW_AT_type(*DW$T$10)
TMS320C2000 COFF Assembler PC v4.1.3 Thu Aug 18 12:16:14 2016

Tools Copyright (c) 1996-2006 Texas Instruments Incorporated
fat.asm                                                              PAGE    6

     276                      .dwattr DW$97, DW_AT_declaration(0x01)
     277                      .dwattr DW$97, DW_AT_external(0x01)
     278              DW$98   .dwtag  DW_TAG_formal_parameter, DW_AT_type(*DW$T$117)
     279              DW$99   .dwtag  DW_TAG_formal_parameter, DW_AT_type(*DW$T$89)
     280                      .dwendtag DW$97
     281              
     282              DW$100  .dwtag  DW_TAG_variable, DW_AT_name("f_filesystem"), DW_AT_symbol_name("_f_filesystem")
     283                      .dwattr DW$100, DW_AT_type(*DW$T$264)
     284                      .dwattr DW$100, DW_AT_declaration(0x01)
     285                      .dwattr DW$100, DW_AT_external(0x01)
     286              DW$101  .dwtag  DW_TAG_variable, DW_AT_name("MagicNumber"), DW_AT_symbol_name("_MagicNumber")
     287                      .dwattr DW$101, DW_AT_type(*DW$T$13)
     288                      .dwattr DW$101, DW_AT_declaration(0x01)
     289                      .dwattr DW$101, DW_AT_external(0x01)
     290                      .global _truncate_tmp
     291 00000000       _truncate_tmp:  .usect  ".ebss",512,1,0
     292              DW$102  .dwtag  DW_TAG_variable, DW_AT_name("truncate_tmp"), DW_AT_symbol_name("_truncate_tmp")
     293                      .dwattr DW$102, DW_AT_location[DW_OP_addr _truncate_tmp]
     294                      .dwattr DW$102, DW_AT_type(*DW$T$223)
     295                      .dwattr DW$102, DW_AT_external(0x01)
     296              ;       C:\CCStudio_v3.3\C2000\cgtools\bin\opt2000.exe C:\Users\Andrew\AppData\Local\Temp\TI4162 C:\Users\And
     297              ;       C:\CCStudio_v3.3\C2000\cgtools\bin\ac2000.exe -q -D_INLINE -DLARGE_MODEL -IC:/CCStudio_v3.3/C2000/xda
     298 00000000               .sect   ".text"
     299                      .global __f_getdirsector
     300              
     301              DW$103  .dwtag  DW_TAG_subprogram, DW_AT_name("_f_getdirsector"), DW_AT_symbol_name("__f_getdirsector")
     302                      .dwattr DW$103, DW_AT_low_pc(__f_getdirsector)
     303                      .dwattr DW$103, DW_AT_high_pc(0x00)
     304                      .dwattr DW$103, DW_AT_begin_file("fat.c")
     305                      .dwattr DW$103, DW_AT_begin_line(0x3a)
     306                      .dwattr DW$103, DW_AT_begin_column(0x05)
     307                      .dwattr DW$103, DW_AT_frame_base[DW_OP_breg20 -8]
     308                      .dwattr DW$103, DW_AT_skeletal(0x01)
     309                      .dwpsn  "fat.c",58,56
     310              
     311              ;***************************************************************
     312              ;* FNAME: __f_getdirsector              FR SIZE:   6           *
     313              ;*                                                             *
     314              ;* FUNCTION ENVIRONMENT                                        *
     315              ;*                                                             *
     316              ;* FUNCTION PROPERTIES                                         *
     317              ;*                            1 Parameter,  0 Auto,  4 SOE     *
     318              ;***************************************************************
     319              
     320              __f_getdirsector:
     321              ;* AR4   assigned to _vi
     322              DW$104  .dwtag  DW_TAG_formal_parameter, DW_AT_name("vi"), DW_AT_symbol_name("_vi")
     323                      .dwattr DW$104, DW_AT_type(*DW$T$89)
     324                      .dwattr DW$104, DW_AT_location[DW_OP_reg12]
     325              ;* AL    assigned to _sector
     326              DW$105  .dwtag  DW_TAG_formal_parameter, DW_AT_name("sector"), DW_AT_symbol_name("_sector")
     327                      .dwattr DW$105, DW_AT_type(*DW$T$13)
     328                      .dwattr DW$105, DW_AT_location[DW_OP_reg0]
     329 00000000 B2BD          MOVL      *SP++,XAR1
     330 00000001 8D00          MOVL      XAR0,#1114            ; |60| 
TMS320C2000 COFF Assembler PC v4.1.3 Thu Aug 18 12:16:14 2016

Tools Copyright (c) 1996-2006 Texas Instruments Incorporated
fat.asm                                                              PAGE    7

         00000002 045A 
     331 00000003 AABD          MOVL      *SP++,XAR2
     332 00000004 8BA4          MOVL      XAR1,XAR4             ; |58| 
     333 00000005 BE00          MOVB      XAR6,#0
     334 00000006 FE02          ADDB      SP,#2
     335 00000007 86A9          MOVL      XAR2,ACC              ; |58| 
     336 00000008 0F91          CMPL      ACC,*+XAR1[AR0]       ; |60| 
     337 00000009 EC19          BF        L2,EQ                 ; |60| 
     338                      ; branchcc occurs ; |60| 
     339 0000000a B2A9          MOVL      ACC,XAR1
     340 0000000b 8F40          MOVL      XAR5,#602             ; |61| 
         0000000c 025A 
     341 0000000d 8AA1          MOVL      XAR4,XAR1             ; |61| 
     342 0000000e 5601          ADDL      XAR5,ACC
         0000000f 00A5 
     343 00000010 2841          MOV       *-SP[1],#1            ; |61| 
         00000011 0001 
     344 00000012 AAA9          MOVL      ACC,XAR2              ; |61| 
     345 00000013 7640!         LCR       #__f_readsector       ; |61| 
         00000014 0000 
     346                      ; call occurs [#__f_readsector] ; |61| 
     347 00000015 5200          CMPB      AL,#0                 ; |61| 
     348 00000016 88A9          MOVZ      AR6,AL                ; |61| 
     349 00000017 ED06          BF        L1,NEQ                ; |61| 
     350                      ; branchcc occurs ; |61| 
     351 00000018 8D00          MOVL      XAR0,#1114            ; |63| 
         00000019 045A 
     352 0000001a AA91          MOVL      *+XAR1[AR0],XAR2      ; |63| 
     353 0000001b 56CF          BF        L3,UNC                ; |63| 
         0000001c 0008 
     354                      ; branch occurs ; |63| 
     355 0000001d       L1:    
     356 0000001d 8D00          MOVL      XAR0,#1114            ; |64| 
         0000001e 045A 
     357 0000001f 0200          MOVB      ACC,#0
     358 00000020 1901          SUBB      ACC,#1
     359 00000021 1E91          MOVL      *+XAR1[AR0],ACC       ; |64| 
     360 00000022       L2:    
     361 00000022 92A6          MOV       AL,AR6
     362 00000023       L3:    
     363 00000023 FE82          SUBB      SP,#2                 ; |66| 
     364 00000024 86BE          MOVL      XAR2,*--SP            ; |66| 
     365 00000025 8BBE          MOVL      XAR1,*--SP            ; |66| 
     366                      .dwpsn  "fat.c",67,1
     367 00000026 0006          LRETR
     368                      ; return occurs
     369                      .dwattr DW$103, DW_AT_end_file("fat.c")
     370                      .dwattr DW$103, DW_AT_end_line(0x43)
     371                      .dwattr DW$103, DW_AT_end_column(0x01)
     372                      .dwendtag DW$103
     373              
     374 00000027               .sect   ".text"
     375                      .global __f_writedirsector
     376              
     377              DW$106  .dwtag  DW_TAG_subprogram, DW_AT_name("_f_writedirsector"), DW_AT_symbol_name("__f_writedirsector")
TMS320C2000 COFF Assembler PC v4.1.3 Thu Aug 18 12:16:14 2016

Tools Copyright (c) 1996-2006 Texas Instruments Incorporated
fat.asm                                                              PAGE    8

     378                      .dwattr DW$106, DW_AT_low_pc(__f_writedirsector)
     379                      .dwattr DW$106, DW_AT_high_pc(0x00)
     380                      .dwattr DW$106, DW_AT_begin_file("fat.c")
     381                      .dwattr DW$106, DW_AT_begin_line(0x54)
     382                      .dwattr DW$106, DW_AT_begin_column(0x05)
     383                      .dwattr DW$106, DW_AT_frame_base[DW_OP_breg20 -4]
     384                      .dwattr DW$106, DW_AT_skeletal(0x01)
     385                      .dwpsn  "fat.c",84,37
     386              
     387              ;***************************************************************
     388              ;* FNAME: __f_writedirsector            FR SIZE:   2           *
     389              ;*                                                             *
     390              ;* FUNCTION ENVIRONMENT                                        *
     391              ;*                                                             *
     392              ;* FUNCTION PROPERTIES                                         *
     393              ;*                            1 Parameter,  0 Auto,  0 SOE     *
     394              ;***************************************************************
     395              
     396              __f_writedirsector:
     397              ;* AR4   assigned to _vi
     398              DW$107  .dwtag  DW_TAG_formal_parameter, DW_AT_name("vi"), DW_AT_symbol_name("_vi")
     399                      .dwattr DW$107, DW_AT_type(*DW$T$89)
     400                      .dwattr DW$107, DW_AT_location[DW_OP_reg12]
     401 00000027 8D00          MOVL      XAR0,#1114            ; |85| 
         00000028 045A 
     402 00000029 C494          MOVL      XAR6,*+XAR4[AR0]      ; |85| 
     403 0000002a FE02          ADDB      SP,#2
     404 0000002b 0200          MOVB      ACC,#0
     405 0000002c 1901          SUBB      ACC,#1
     406 0000002d 0FA6          CMPL      ACC,XAR6              ; |85| 
     407 0000002e EC0D          BF        L4,EQ                 ; |85| 
     408                      ; branchcc occurs ; |85| 
     409 0000002f A8A9          MOVL      ACC,XAR4
     410 00000030 8F40          MOVL      XAR5,#602             ; |85| 
         00000031 025A 
     411 00000032 5601          ADDL      XAR5,ACC
         00000033 00A5 
     412 00000034 06A6          MOVL      ACC,XAR6              ; |85| 
     413 00000035 2841          MOV       *-SP[1],#1            ; |85| 
         00000036 0001 
     414 00000037 7640!         LCR       #__f_writesector      ; |85| 
         00000038 0000 
     415                      ; call occurs [#__f_writesector] ; |85| 
     416 00000039 56CF          BF        L5,UNC                ; |85| 
         0000003a 0003 
     417                      ; branch occurs ; |85| 
     418 0000003b       L4:    
     419 0000003b 9A12          MOVB      AL,#18                ; |85| 
     420 0000003c       L5:    
     421 0000003c FE82          SUBB      SP,#2                 ; |85| 
     422                      .dwpsn  "fat.c",89,1
     423 0000003d 0006          LRETR
     424                      ; return occurs
     425                      .dwattr DW$106, DW_AT_end_file("fat.c")
     426                      .dwattr DW$106, DW_AT_end_line(0x59)
TMS320C2000 COFF Assembler PC v4.1.3 Thu Aug 18 12:16:14 2016

Tools Copyright (c) 1996-2006 Texas Instruments Incorporated
fat.asm                                                              PAGE    9

     427                      .dwattr DW$106, DW_AT_end_column(0x01)
     428                      .dwendtag DW$106
     429              
     430 0000003e               .sect   ".text"
     431              
     432              DW$108  .dwtag  DW_TAG_subprogram, DW_AT_name("_f_checkname"), DW_AT_symbol_name("__f_checkname")
     433                      .dwattr DW$108, DW_AT_low_pc(__f_checkname)
     434                      .dwattr DW$108, DW_AT_high_pc(0x00)
     435                      .dwattr DW$108, DW_AT_begin_file("fat.c")
     436                      .dwattr DW$108, DW_AT_begin_line(0x6d)
     437                      .dwattr DW$108, DW_AT_begin_column(0x0d)
     438                      .dwattr DW$108, DW_AT_frame_base[DW_OP_breg20 -2]
     439                      .dwattr DW$108, DW_AT_skeletal(0x01)
     440                      .dwpsn  "fat.c",109,48
     441              
     442              ;***************************************************************
     443              ;* FNAME: __f_checkname                 FR SIZE:   0           *
     444              ;*                                                             *
     445              ;* FUNCTION ENVIRONMENT                                        *
     446              ;*                                                             *
     447              ;* FUNCTION PROPERTIES                                         *
     448              ;*                            0 Parameter,  0 Auto,  0 SOE     *
     449              ;***************************************************************
     450              
     451              __f_checkname:
     452              ;* AR4   assigned to _name
     453              DW$109  .dwtag  DW_TAG_formal_parameter, DW_AT_name("name"), DW_AT_symbol_name("_name")
     454                      .dwattr DW$109, DW_AT_type(*DW$T$59)
     455                      .dwattr DW$109, DW_AT_location[DW_OP_reg12]
     456              ;* AR5   assigned to _ext
     457              DW$110  .dwtag  DW_TAG_formal_parameter, DW_AT_name("ext"), DW_AT_symbol_name("_ext")
     458                      .dwattr DW$110, DW_AT_type(*DW$T$59)
     459                      .dwattr DW$110, DW_AT_location[DW_OP_reg14]
     460 0000003e B600          MOVB      XAR7,#0
     461 0000003f 3B01          SETC      SXM
     462                      .dwpsn  "fat.c",112,0
     463 00000040 3100          MOV       P,#0
     464 00000041       L6:    
     465 00000041       DW$L$__f_checkname$2$B:
     466 00000041 C4A4          MOVL      XAR6,XAR4             ; |113| 
     467 00000042 92A7          MOV       AL,AR7
     468 00000043 85A9          MOV       ACC,AL                ; |113| 
     469 00000044 5601          ADDL      XAR6,ACC
         00000045 00A6 
     470 00000046 A9A9          MOVL      ACC,P                 ; |113| 
     471 00000047 88C6          MOVZ      AR6,*+XAR6[0]         ; |113| 
     472 00000048 ED1F          BF        L8,NEQ                ; |114| 
     473                      ; branchcc occurs ; |114| 
     474 00000049       DW$L$__f_checkname$2$E:
     475 00000049       DW$L$__f_checkname$3$B:
     476 00000049 92A6          MOV       AL,AR6
     477 0000004a 5220          CMPB      AL,#32                ; |115| 
     478 0000004b ED04          BF        L7,NEQ                ; |115| 
     479                      ; branchcc occurs ; |115| 
     480 0000004c       DW$L$__f_checkname$3$E:
TMS320C2000 COFF Assembler PC v4.1.3 Thu Aug 18 12:16:14 2016

Tools Copyright (c) 1996-2006 Texas Instruments Incorporated
fat.asm                                                              PAGE   10

     481 0000004c       DW$L$__f_checkname$4$B:
     482 0000004c 2BAA          MOV       PH,#0
     483 0000004d 28AB          MOV       PL,#1
         0000004e 0001 
     484 0000004f       DW$L$__f_checkname$4$E:
     485 0000004f       L7:    
     486 0000004f       DW$L$__f_checkname$5$B:
     487 0000004f 5200          CMPB      AL,#0                 ; |116| 
     488 00000050 56C5          BF        L9,LEQ                ; |116| 
         00000051 001A 
     489                      ; branchcc occurs ; |116| 
     490 00000052       DW$L$__f_checkname$5$E:
     491 00000052       DW$L$__f_checkname$6$B:
     492 00000052 5220          CMPB      AL,#32                ; |116| 
     493 00000053 56C4          BF        L13,LT                ; |116| 
         00000054 0049 
     494                      ; branchcc occurs ; |116| 
     495 00000055       DW$L$__f_checkname$6$E:
     496 00000055       DW$L$__f_checkname$7$B:
     497 00000055 527C          CMPB      AL,#124               ; |116| 
     498 00000056 EC46          BF        L13,EQ                ; |116| 
     499                      ; branchcc occurs ; |116| 
     500 00000057       DW$L$__f_checkname$7$E:
     501 00000057       DW$L$__f_checkname$8$B:
     502 00000057 525B          CMPB      AL,#91                ; |116| 
     503 00000058 EC44          BF        L13,EQ                ; |116| 
     504                      ; branchcc occurs ; |116| 
     505 00000059       DW$L$__f_checkname$8$E:
     506 00000059       DW$L$__f_checkname$9$B:
     507 00000059 525D          CMPB      AL,#93                ; |116| 
     508 0000005a EC42          BF        L13,EQ                ; |116| 
     509                      ; branchcc occurs ; |116| 
     510 0000005b       DW$L$__f_checkname$9$E:
     511 0000005b       DW$L$__f_checkname$10$B:
     512 0000005b 523C          CMPB      AL,#60                ; |116| 
     513 0000005c EC40          BF        L13,EQ                ; |116| 
     514                      ; branchcc occurs ; |116| 
     515 0000005d       DW$L$__f_checkname$10$E:
     516 0000005d       DW$L$__f_checkname$11$B:
     517 0000005d 523E          CMPB      AL,#62                ; |116| 
     518 0000005e EC3E          BF        L13,EQ                ; |116| 
     519                      ; branchcc occurs ; |116| 
     520 0000005f       DW$L$__f_checkname$11$E:
     521 0000005f       DW$L$__f_checkname$12$B:
     522 0000005f 522F          CMPB      AL,#47                ; |116| 
     523 00000060 EC3C          BF        L13,EQ                ; |116| 
     524                      ; branchcc occurs ; |116| 
     525 00000061       DW$L$__f_checkname$12$E:
     526 00000061       DW$L$__f_checkname$13$B:
     527 00000061 525C          CMPB      AL,#92                ; |116| 
     528 00000062 EC3A          BF        L13,EQ                ; |116| 
     529                      ; branchcc occurs ; |116| 
     530 00000063       DW$L$__f_checkname$13$E:
     531 00000063       DW$L$__f_checkname$14$B:
     532 00000063 523A          CMPB      AL,#58                ; |116| 
TMS320C2000 COFF Assembler PC v4.1.3 Thu Aug 18 12:16:14 2016

Tools Copyright (c) 1996-2006 Texas Instruments Incorporated
fat.asm                                                              PAGE   11

     533 00000064 ED06          BF        L9,NEQ                ; |116| 
     534                      ; branchcc occurs ; |116| 
     535 00000065       DW$L$__f_checkname$14$E:
     536 00000065 56CF          BF        L13,UNC               ; |116| 
         00000066 0037 
     537                      ; branch occurs ; |116| 
     538 00000067       L8:    
     539 00000067       DW$L$__f_checkname$16$B:
     540 00000067 92A6          MOV       AL,AR6
     541 00000068 5220          CMPB      AL,#32                ; |126| 
     542 00000069 ED33          BF        L13,NEQ               ; |126| 
     543                      ; branchcc occurs ; |126| 
     544 0000006a       DW$L$__f_checkname$16$E:
     545 0000006a       L9:    
     546 0000006a       DW$L$__f_checkname$17$B:
     547 0000006a 92A7          MOV       AL,AR7
     548 0000006b 9C01          ADDB      AL,#1                 ; |112| 
     549 0000006c 80A9          MOVZ      AR7,AL                ; |112| 
     550 0000006d 5208          CMPB      AL,#8                 ; |112| 
     551                      .dwpsn  "fat.c",127,0
     552 0000006e 56C4          BF        L6,LT                 ; |112| 
         0000006f FFD3 
     553                      ; branchcc occurs ; |112| 
     554 00000070       DW$L$__f_checkname$17$E:
     555 00000070 B600          MOVB      XAR7,#0
     556 00000071 3B01          SETC      SXM
     557                      .dwpsn  "fat.c",130,0
     558 00000072 3100          MOV       P,#0
     559 00000073       L10:    
     560 00000073       DW$L$__f_checkname$19$B:
     561 00000073 8AA5          MOVL      XAR4,XAR5             ; |131| 
     562 00000074 92A7          MOV       AL,AR7
     563 00000075 85A9          MOV       ACC,AL                ; |131| 
     564 00000076 5601          ADDL      XAR4,ACC
         00000077 00A4 
     565 00000078 A9A9          MOVL      ACC,P                 ; |131| 
     566 00000079 88C4          MOVZ      AR6,*+XAR4[0]         ; |131| 
     567 0000007a ED1F          BF        L12,NEQ               ; |132| 
     568                      ; branchcc occurs ; |132| 
     569 0000007b       DW$L$__f_checkname$19$E:
     570 0000007b       DW$L$__f_checkname$20$B:
     571 0000007b 92A6          MOV       AL,AR6
     572 0000007c 5220          CMPB      AL,#32                ; |133| 
     573 0000007d ED04          BF        L11,NEQ               ; |133| 
     574                      ; branchcc occurs ; |133| 
     575 0000007e       DW$L$__f_checkname$20$E:
     576 0000007e       DW$L$__f_checkname$21$B:
     577 0000007e 2BAA          MOV       PH,#0
     578 0000007f 28AB          MOV       PL,#1
         00000080 0001 
     579 00000081       DW$L$__f_checkname$21$E:
     580 00000081       L11:    
     581 00000081       DW$L$__f_checkname$22$B:
     582 00000081 5200          CMPB      AL,#0                 ; |134| 
     583 00000082 56C5          BF        L14,LEQ               ; |134| 
TMS320C2000 COFF Assembler PC v4.1.3 Thu Aug 18 12:16:14 2016

Tools Copyright (c) 1996-2006 Texas Instruments Incorporated
fat.asm                                                              PAGE   12

         00000083 001D 
     584                      ; branchcc occurs ; |134| 
     585 00000084       DW$L$__f_checkname$22$E:
     586 00000084       DW$L$__f_checkname$23$B:
     587 00000084 5220          CMPB      AL,#32                ; |134| 
     588 00000085 56C4          BF        L13,LT                ; |134| 
         00000086 0017 
     589                      ; branchcc occurs ; |134| 
     590 00000087       DW$L$__f_checkname$23$E:
     591 00000087       DW$L$__f_checkname$24$B:
     592 00000087 527C          CMPB      AL,#124               ; |134| 
     593 00000088 EC14          BF        L13,EQ                ; |134| 
     594                      ; branchcc occurs ; |134| 
     595 00000089       DW$L$__f_checkname$24$E:
     596 00000089       DW$L$__f_checkname$25$B:
     597 00000089 525B          CMPB      AL,#91                ; |134| 
     598 0000008a EC12          BF        L13,EQ                ; |134| 
     599                      ; branchcc occurs ; |134| 
     600 0000008b       DW$L$__f_checkname$25$E:
     601 0000008b       DW$L$__f_checkname$26$B:
     602 0000008b 525D          CMPB      AL,#93                ; |134| 
     603 0000008c EC10          BF        L13,EQ                ; |134| 
     604                      ; branchcc occurs ; |134| 
     605 0000008d       DW$L$__f_checkname$26$E:
     606 0000008d       DW$L$__f_checkname$27$B:
     607 0000008d 523C          CMPB      AL,#60                ; |134| 
     608 0000008e EC0E          BF        L13,EQ                ; |134| 
     609                      ; branchcc occurs ; |134| 
     610 0000008f       DW$L$__f_checkname$27$E:
     611 0000008f       DW$L$__f_checkname$28$B:
     612 0000008f 523E          CMPB      AL,#62                ; |134| 
     613 00000090 EC0C          BF        L13,EQ                ; |134| 
     614                      ; branchcc occurs ; |134| 
     615 00000091       DW$L$__f_checkname$28$E:
     616 00000091       DW$L$__f_checkname$29$B:
     617 00000091 522F          CMPB      AL,#47                ; |134| 
     618 00000092 EC0A          BF        L13,EQ                ; |134| 
     619                      ; branchcc occurs ; |134| 
     620 00000093       DW$L$__f_checkname$29$E:
     621 00000093       DW$L$__f_checkname$30$B:
     622 00000093 525C          CMPB      AL,#92                ; |134| 
     623 00000094 EC08          BF        L13,EQ                ; |134| 
     624                      ; branchcc occurs ; |134| 
     625 00000095       DW$L$__f_checkname$30$E:
     626 00000095       DW$L$__f_checkname$31$B:
     627 00000095 523A          CMPB      AL,#58                ; |134| 
     628 00000096 EC06          BF        L13,EQ                ; |134| 
     629                      ; branchcc occurs ; |134| 
     630 00000097       DW$L$__f_checkname$31$E:
     631 00000097       DW$L$__f_checkname$32$B:
     632 00000097 56CF          BF        L14,UNC               ; |134| 
         00000098 0008 
     633                      ; branch occurs ; |134| 
     634 00000099       DW$L$__f_checkname$32$E:
     635 00000099       L12:    
TMS320C2000 COFF Assembler PC v4.1.3 Thu Aug 18 12:16:14 2016

Tools Copyright (c) 1996-2006 Texas Instruments Incorporated
fat.asm                                                              PAGE   13

     636 00000099       DW$L$__f_checkname$33$B:
     637 00000099 92A6          MOV       AL,AR6
     638 0000009a 5220          CMPB      AL,#32                ; |144| 
     639 0000009b EC04          BF        L14,EQ                ; |144| 
     640                      ; branchcc occurs ; |144| 
     641 0000009c       DW$L$__f_checkname$33$E:
     642 0000009c       L13:    
     643 0000009c 0201          MOVB      ACC,#1
     644 0000009d 56CF          BF        L15,UNC               ; |144| 
         0000009e 0009 
     645                      ; branch occurs ; |144| 
     646 0000009f       L14:    
     647 0000009f       DW$L$__f_checkname$35$B:
     648 0000009f 92A7          MOV       AL,AR7
     649 000000a0 9C01          ADDB      AL,#1                 ; |130| 
     650 000000a1 80A9          MOVZ      AR7,AL                ; |130| 
     651 000000a2 5203          CMPB      AL,#3                 ; |130| 
     652                      .dwpsn  "fat.c",145,0
     653 000000a3 56C4          BF        L10,LT                ; |130| 
         000000a4 FFD0 
     654                      ; branchcc occurs ; |130| 
     655 000000a5       DW$L$__f_checkname$35$E:
     656 000000a5 0200          MOVB      ACC,#0
     657              L15:    
     658                      .dwpsn  "fat.c",147,1
     659 000000a6 0006          LRETR
     660                      ; return occurs
     661              
     662              DW$111  .dwtag  DW_TAG_loop
     663                      .dwattr DW$111, DW_AT_name("D:\DEV\Amot\BearingWear\XTSW_V6_20\fat.asm:L10:1:1471518973")
     664                      .dwattr DW$111, DW_AT_begin_file("fat.c")
     665                      .dwattr DW$111, DW_AT_begin_line(0x82)
     666                      .dwattr DW$111, DW_AT_end_line(0x91)
     667              DW$112  .dwtag  DW_TAG_loop_range
     668                      .dwattr DW$112, DW_AT_low_pc(DW$L$__f_checkname$19$B)
     669                      .dwattr DW$112, DW_AT_high_pc(DW$L$__f_checkname$19$E)
     670              DW$113  .dwtag  DW_TAG_loop_range
     671                      .dwattr DW$113, DW_AT_low_pc(DW$L$__f_checkname$23$B)
     672                      .dwattr DW$113, DW_AT_high_pc(DW$L$__f_checkname$23$E)
     673              DW$114  .dwtag  DW_TAG_loop_range
     674                      .dwattr DW$114, DW_AT_low_pc(DW$L$__f_checkname$24$B)
     675                      .dwattr DW$114, DW_AT_high_pc(DW$L$__f_checkname$24$E)
     676              DW$115  .dwtag  DW_TAG_loop_range
     677                      .dwattr DW$115, DW_AT_low_pc(DW$L$__f_checkname$25$B)
     678                      .dwattr DW$115, DW_AT_high_pc(DW$L$__f_checkname$25$E)
     679              DW$116  .dwtag  DW_TAG_loop_range
     680                      .dwattr DW$116, DW_AT_low_pc(DW$L$__f_checkname$26$B)
     681                      .dwattr DW$116, DW_AT_high_pc(DW$L$__f_checkname$26$E)
     682              DW$117  .dwtag  DW_TAG_loop_range
     683                      .dwattr DW$117, DW_AT_low_pc(DW$L$__f_checkname$27$B)
     684                      .dwattr DW$117, DW_AT_high_pc(DW$L$__f_checkname$27$E)
     685              DW$118  .dwtag  DW_TAG_loop_range
     686                      .dwattr DW$118, DW_AT_low_pc(DW$L$__f_checkname$28$B)
     687                      .dwattr DW$118, DW_AT_high_pc(DW$L$__f_checkname$28$E)
     688              DW$119  .dwtag  DW_TAG_loop_range
TMS320C2000 COFF Assembler PC v4.1.3 Thu Aug 18 12:16:14 2016

Tools Copyright (c) 1996-2006 Texas Instruments Incorporated
fat.asm                                                              PAGE   14

     689                      .dwattr DW$119, DW_AT_low_pc(DW$L$__f_checkname$29$B)
     690                      .dwattr DW$119, DW_AT_high_pc(DW$L$__f_checkname$29$E)
     691              DW$120  .dwtag  DW_TAG_loop_range
     692                      .dwattr DW$120, DW_AT_low_pc(DW$L$__f_checkname$30$B)
     693                      .dwattr DW$120, DW_AT_high_pc(DW$L$__f_checkname$30$E)
     694              DW$121  .dwtag  DW_TAG_loop_range
     695                      .dwattr DW$121, DW_AT_low_pc(DW$L$__f_checkname$31$B)
     696                      .dwattr DW$121, DW_AT_high_pc(DW$L$__f_checkname$31$E)
     697              DW$122  .dwtag  DW_TAG_loop_range
     698                      .dwattr DW$122, DW_AT_low_pc(DW$L$__f_checkname$20$B)
     699                      .dwattr DW$122, DW_AT_high_pc(DW$L$__f_checkname$20$E)
     700              DW$123  .dwtag  DW_TAG_loop_range
     701                      .dwattr DW$123, DW_AT_low_pc(DW$L$__f_checkname$21$B)
     702                      .dwattr DW$123, DW_AT_high_pc(DW$L$__f_checkname$21$E)
     703              DW$124  .dwtag  DW_TAG_loop_range
     704                      .dwattr DW$124, DW_AT_low_pc(DW$L$__f_checkname$22$B)
     705                      .dwattr DW$124, DW_AT_high_pc(DW$L$__f_checkname$22$E)
     706              DW$125  .dwtag  DW_TAG_loop_range
     707                      .dwattr DW$125, DW_AT_low_pc(DW$L$__f_checkname$32$B)
     708                      .dwattr DW$125, DW_AT_high_pc(DW$L$__f_checkname$32$E)
     709              DW$126  .dwtag  DW_TAG_loop_range
     710                      .dwattr DW$126, DW_AT_low_pc(DW$L$__f_checkname$33$B)
     711                      .dwattr DW$126, DW_AT_high_pc(DW$L$__f_checkname$33$E)
     712              DW$127  .dwtag  DW_TAG_loop_range
     713                      .dwattr DW$127, DW_AT_low_pc(DW$L$__f_checkname$35$B)
     714                      .dwattr DW$127, DW_AT_high_pc(DW$L$__f_checkname$35$E)
     715                      .dwendtag DW$111
     716              
     717              
     718              DW$128  .dwtag  DW_TAG_loop
     719                      .dwattr DW$128, DW_AT_name("D:\DEV\Amot\BearingWear\XTSW_V6_20\fat.asm:L6:1:1471518973")
     720                      .dwattr DW$128, DW_AT_begin_file("fat.c")
     721                      .dwattr DW$128, DW_AT_begin_line(0x70)
     722                      .dwattr DW$128, DW_AT_end_line(0x7f)
     723              DW$129  .dwtag  DW_TAG_loop_range
     724                      .dwattr DW$129, DW_AT_low_pc(DW$L$__f_checkname$2$B)
     725                      .dwattr DW$129, DW_AT_high_pc(DW$L$__f_checkname$2$E)
     726              DW$130  .dwtag  DW_TAG_loop_range
     727                      .dwattr DW$130, DW_AT_low_pc(DW$L$__f_checkname$6$B)
     728                      .dwattr DW$130, DW_AT_high_pc(DW$L$__f_checkname$6$E)
     729              DW$131  .dwtag  DW_TAG_loop_range
     730                      .dwattr DW$131, DW_AT_low_pc(DW$L$__f_checkname$7$B)
     731                      .dwattr DW$131, DW_AT_high_pc(DW$L$__f_checkname$7$E)
     732              DW$132  .dwtag  DW_TAG_loop_range
     733                      .dwattr DW$132, DW_AT_low_pc(DW$L$__f_checkname$8$B)
     734                      .dwattr DW$132, DW_AT_high_pc(DW$L$__f_checkname$8$E)
     735              DW$133  .dwtag  DW_TAG_loop_range
     736                      .dwattr DW$133, DW_AT_low_pc(DW$L$__f_checkname$9$B)
     737                      .dwattr DW$133, DW_AT_high_pc(DW$L$__f_checkname$9$E)
     738              DW$134  .dwtag  DW_TAG_loop_range
     739                      .dwattr DW$134, DW_AT_low_pc(DW$L$__f_checkname$10$B)
     740                      .dwattr DW$134, DW_AT_high_pc(DW$L$__f_checkname$10$E)
     741              DW$135  .dwtag  DW_TAG_loop_range
     742                      .dwattr DW$135, DW_AT_low_pc(DW$L$__f_checkname$11$B)
     743                      .dwattr DW$135, DW_AT_high_pc(DW$L$__f_checkname$11$E)
TMS320C2000 COFF Assembler PC v4.1.3 Thu Aug 18 12:16:14 2016

Tools Copyright (c) 1996-2006 Texas Instruments Incorporated
fat.asm                                                              PAGE   15

     744              DW$136  .dwtag  DW_TAG_loop_range
     745                      .dwattr DW$136, DW_AT_low_pc(DW$L$__f_checkname$12$B)
     746                      .dwattr DW$136, DW_AT_high_pc(DW$L$__f_checkname$12$E)
     747              DW$137  .dwtag  DW_TAG_loop_range
     748                      .dwattr DW$137, DW_AT_low_pc(DW$L$__f_checkname$13$B)
     749                      .dwattr DW$137, DW_AT_high_pc(DW$L$__f_checkname$13$E)
     750              DW$138  .dwtag  DW_TAG_loop_range
     751                      .dwattr DW$138, DW_AT_low_pc(DW$L$__f_checkname$3$B)
     752                      .dwattr DW$138, DW_AT_high_pc(DW$L$__f_checkname$3$E)
     753              DW$139  .dwtag  DW_TAG_loop_range
     754                      .dwattr DW$139, DW_AT_low_pc(DW$L$__f_checkname$4$B)
     755                      .dwattr DW$139, DW_AT_high_pc(DW$L$__f_checkname$4$E)
     756              DW$140  .dwtag  DW_TAG_loop_range
     757                      .dwattr DW$140, DW_AT_low_pc(DW$L$__f_checkname$5$B)
     758                      .dwattr DW$140, DW_AT_high_pc(DW$L$__f_checkname$5$E)
     759              DW$141  .dwtag  DW_TAG_loop_range
     760                      .dwattr DW$141, DW_AT_low_pc(DW$L$__f_checkname$14$B)
     761                      .dwattr DW$141, DW_AT_high_pc(DW$L$__f_checkname$14$E)
     762              DW$142  .dwtag  DW_TAG_loop_range
     763                      .dwattr DW$142, DW_AT_low_pc(DW$L$__f_checkname$16$B)
     764                      .dwattr DW$142, DW_AT_high_pc(DW$L$__f_checkname$16$E)
     765              DW$143  .dwtag  DW_TAG_loop_range
     766                      .dwattr DW$143, DW_AT_low_pc(DW$L$__f_checkname$17$B)
     767                      .dwattr DW$143, DW_AT_high_pc(DW$L$__f_checkname$17$E)
     768                      .dwendtag DW$128
     769              
     770                      .dwattr DW$108, DW_AT_end_file("fat.c")
     771                      .dwattr DW$108, DW_AT_end_line(0x93)
     772                      .dwattr DW$108, DW_AT_end_column(0x01)
     773                      .dwendtag DW$108
     774              
     775 000000a7               .sect   ".text"
     776              
     777              DW$144  .dwtag  DW_TAG_subprogram, DW_AT_name("_f_checknamewc"), DW_AT_symbol_name("__f_checknamewc")
     778                      .dwattr DW$144, DW_AT_low_pc(__f_checknamewc)
     779                      .dwattr DW$144, DW_AT_high_pc(0x00)
     780                      .dwattr DW$144, DW_AT_begin_file("fat.c")
     781                      .dwattr DW$144, DW_AT_begin_line(0xa7)
     782                      .dwattr DW$144, DW_AT_begin_column(0x0d)
     783                      .dwattr DW$144, DW_AT_frame_base[DW_OP_breg20 -2]
     784                      .dwattr DW$144, DW_AT_skeletal(0x01)
     785                      .dwpsn  "fat.c",167,50
     786              
     787              ;***************************************************************
     788              ;* FNAME: __f_checknamewc               FR SIZE:   0           *
     789              ;*                                                             *
     790              ;* FUNCTION ENVIRONMENT                                        *
     791              ;*                                                             *
     792              ;* FUNCTION PROPERTIES                                         *
     793              ;*                            0 Parameter,  0 Auto,  0 SOE     *
     794              ;***************************************************************
     795              
     796              __f_checknamewc:
     797              ;* AR4   assigned to _name
     798              DW$145  .dwtag  DW_TAG_formal_parameter, DW_AT_name("name"), DW_AT_symbol_name("_name")
TMS320C2000 COFF Assembler PC v4.1.3 Thu Aug 18 12:16:14 2016

Tools Copyright (c) 1996-2006 Texas Instruments Incorporated
fat.asm                                                              PAGE   16

     799                      .dwattr DW$145, DW_AT_type(*DW$T$59)
     800                      .dwattr DW$145, DW_AT_location[DW_OP_reg12]
     801              ;* AR5   assigned to _ext
     802              DW$146  .dwtag  DW_TAG_formal_parameter, DW_AT_name("ext"), DW_AT_symbol_name("_ext")
     803                      .dwattr DW$146, DW_AT_type(*DW$T$59)
     804                      .dwattr DW$146, DW_AT_location[DW_OP_reg14]
     805 000000a7 3B01          SETC      SXM
     806                      .dwpsn  "fat.c",169,0
     807 000000a8 9A00          MOVB      AL,#0
     808 000000a9       L16:    
     809 000000a9       DW$L$__f_checknamewc$2$B:
     810 000000a9 C4A4          MOVL      XAR6,XAR4             ; |171| 
     811 000000aa 85A9          MOV       ACC,AL                ; |171| 
     812 000000ab 5601          ADDL      XAR6,ACC
         000000ac 00A6 
     813 000000ad 93C6          MOV       AH,*+XAR6[0]          ; |171| 
     814 000000ae 533F          CMPB      AH,#63                ; |171| 
     815 000000af EC12          BF        L18,EQ                ; |171| 
     816                      ; branchcc occurs ; |171| 
     817 000000b0       DW$L$__f_checknamewc$2$E:
     818 000000b0       DW$L$__f_checknamewc$3$B:
     819 000000b0 532A          CMPB      AH,#42                ; |171| 
     820 000000b1 EC10          BF        L18,EQ                ; |171| 
     821                      ; branchcc occurs ; |171| 
     822 000000b2       DW$L$__f_checknamewc$3$E:
     823 000000b2       DW$L$__f_checknamewc$4$B:
     824 000000b2 9C01          ADDB      AL,#1                 ; |169| 
     825 000000b3 5208          CMPB      AL,#8                 ; |169| 
     826                      .dwpsn  "fat.c",173,0
     827 000000b4 56C4          BF        L16,LT                ; |169| 
         000000b5 FFF5 
     828                      ; branchcc occurs ; |169| 
     829 000000b6       DW$L$__f_checknamewc$4$E:
     830 000000b6 3B01          SETC      SXM
     831                      .dwpsn  "fat.c",174,0
     832 000000b7 9A00          MOVB      AL,#0
     833 000000b8       L17:    
     834 000000b8       DW$L$__f_checknamewc$6$B:
     835 000000b8 C4A5          MOVL      XAR6,XAR5             ; |176| 
     836 000000b9 85A9          MOV       ACC,AL                ; |176| 
     837 000000ba 5601          ADDL      XAR6,ACC
         000000bb 00A6 
     838 000000bc 93C6          MOV       AH,*+XAR6[0]          ; |176| 
     839 000000bd 533F          CMPB      AH,#63                ; |176| 
     840 000000be EC03          BF        L18,EQ                ; |176| 
     841                      ; branchcc occurs ; |176| 
     842 000000bf       DW$L$__f_checknamewc$6$E:
     843 000000bf       DW$L$__f_checknamewc$7$B:
     844 000000bf 532A          CMPB      AH,#42                ; |176| 
     845 000000c0 ED04          BF        L19,NEQ               ; |176| 
     846                      ; branchcc occurs ; |176| 
     847 000000c1       DW$L$__f_checknamewc$7$E:
     848 000000c1       L18:    
     849 000000c1 0201          MOVB      ACC,#1
     850 000000c2 56CF          BF        L20,UNC               ; |177| 
TMS320C2000 COFF Assembler PC v4.1.3 Thu Aug 18 12:16:14 2016

Tools Copyright (c) 1996-2006 Texas Instruments Incorporated
fat.asm                                                              PAGE   17

         000000c3 0008 
     851                      ; branch occurs ; |177| 
     852 000000c4       L19:    
     853 000000c4       DW$L$__f_checknamewc$9$B:
     854 000000c4 9C01          ADDB      AL,#1                 ; |174| 
     855 000000c5 5203          CMPB      AL,#3                 ; |174| 
     856                      .dwpsn  "fat.c",178,0
     857 000000c6 56C4          BF        L17,LT                ; |174| 
         000000c7 FFF2 
     858                      ; branchcc occurs ; |174| 
     859 000000c8       DW$L$__f_checknamewc$9$E:
     860 000000c8 7640'         LCR       #__f_checkname        ; |179| 
         000000c9 003E 
     861                      ; call occurs [#__f_checkname] ; |179| 
     862              L20:    
     863                      .dwpsn  "fat.c",180,1
     864 000000ca 0006          LRETR
     865                      ; return occurs
     866              
     867              DW$147  .dwtag  DW_TAG_loop
     868                      .dwattr DW$147, DW_AT_name("D:\DEV\Amot\BearingWear\XTSW_V6_20\fat.asm:L17:1:1471518973")
     869                      .dwattr DW$147, DW_AT_begin_file("fat.c")
     870                      .dwattr DW$147, DW_AT_begin_line(0xae)
     871                      .dwattr DW$147, DW_AT_end_line(0xb2)
     872              DW$148  .dwtag  DW_TAG_loop_range
     873                      .dwattr DW$148, DW_AT_low_pc(DW$L$__f_checknamewc$6$B)
     874                      .dwattr DW$148, DW_AT_high_pc(DW$L$__f_checknamewc$6$E)
     875              DW$149  .dwtag  DW_TAG_loop_range
     876                      .dwattr DW$149, DW_AT_low_pc(DW$L$__f_checknamewc$7$B)
     877                      .dwattr DW$149, DW_AT_high_pc(DW$L$__f_checknamewc$7$E)
     878              DW$150  .dwtag  DW_TAG_loop_range
     879                      .dwattr DW$150, DW_AT_low_pc(DW$L$__f_checknamewc$9$B)
     880                      .dwattr DW$150, DW_AT_high_pc(DW$L$__f_checknamewc$9$E)
     881                      .dwendtag DW$147
     882              
     883              
     884              DW$151  .dwtag  DW_TAG_loop
     885                      .dwattr DW$151, DW_AT_name("D:\DEV\Amot\BearingWear\XTSW_V6_20\fat.asm:L16:1:1471518973")
     886                      .dwattr DW$151, DW_AT_begin_file("fat.c")
     887                      .dwattr DW$151, DW_AT_begin_line(0xa9)
     888                      .dwattr DW$151, DW_AT_end_line(0xad)
     889              DW$152  .dwtag  DW_TAG_loop_range
     890                      .dwattr DW$152, DW_AT_low_pc(DW$L$__f_checknamewc$2$B)
     891                      .dwattr DW$152, DW_AT_high_pc(DW$L$__f_checknamewc$2$E)
     892              DW$153  .dwtag  DW_TAG_loop_range
     893                      .dwattr DW$153, DW_AT_low_pc(DW$L$__f_checknamewc$3$B)
     894                      .dwattr DW$153, DW_AT_high_pc(DW$L$__f_checknamewc$3$E)
     895              DW$154  .dwtag  DW_TAG_loop_range
     896                      .dwattr DW$154, DW_AT_low_pc(DW$L$__f_checknamewc$4$B)
     897                      .dwattr DW$154, DW_AT_high_pc(DW$L$__f_checknamewc$4$E)
     898                      .dwendtag DW$151
     899              
     900                      .dwattr DW$144, DW_AT_end_file("fat.c")
     901                      .dwattr DW$144, DW_AT_end_line(0xb4)
     902                      .dwattr DW$144, DW_AT_end_column(0x01)
TMS320C2000 COFF Assembler PC v4.1.3 Thu Aug 18 12:16:14 2016

Tools Copyright (c) 1996-2006 Texas Instruments Incorporated
fat.asm                                                              PAGE   18

     903                      .dwendtag DW$144
     904              
     905 000000cb               .sect   ".text"
     906              
     907              DW$155  .dwtag  DW_TAG_subprogram, DW_AT_name("_f_setnameext"), DW_AT_symbol_name("__f_setnameext")
     908                      .dwattr DW$155, DW_AT_low_pc(__f_setnameext)
     909                      .dwattr DW$155, DW_AT_high_pc(0x00)
     910                      .dwattr DW$155, DW_AT_begin_file("fat.c")
     911                      .dwattr DW$155, DW_AT_begin_line(0xca)
     912                      .dwattr DW$155, DW_AT_begin_column(0x0c)
     913                      .dwattr DW$155, DW_AT_frame_base[DW_OP_breg20 -4]
     914                      .dwattr DW$155, DW_AT_skeletal(0x01)
     915                      .dwpsn  "fat.c",202,64
     916              
     917              ;***************************************************************
     918              ;* FNAME: __f_setnameext                FR SIZE:   2           *
     919              ;*                                                             *
     920              ;* FUNCTION ENVIRONMENT                                        *
     921              ;*                                                             *
     922              ;* FUNCTION PROPERTIES                                         *
     923              ;*                            0 Parameter,  0 Auto,  2 SOE     *
     924              ;***************************************************************
     925              
     926              __f_setnameext:
     927              ;* AR4   assigned to _s
     928              DW$156  .dwtag  DW_TAG_formal_parameter, DW_AT_name("s"), DW_AT_symbol_name("_s")
     929                      .dwattr DW$156, DW_AT_type(*DW$T$146)
     930                      .dwattr DW$156, DW_AT_location[DW_OP_reg12]
     931              ;* AR5   assigned to _name
     932              DW$157  .dwtag  DW_TAG_formal_parameter, DW_AT_name("name"), DW_AT_symbol_name("_name")
     933                      .dwattr DW$157, DW_AT_type(*DW$T$59)
     934                      .dwattr DW$157, DW_AT_location[DW_OP_reg14]
     935              DW$158  .dwtag  DW_TAG_formal_parameter, DW_AT_name("ext"), DW_AT_symbol_name("_ext")
     936                      .dwattr DW$158, DW_AT_type(*DW$T$59)
     937                      .dwattr DW$158, DW_AT_location[DW_OP_breg20 -6]
     938 000000cb AABD          MOVL      *SP++,XAR2
     939 000000cc D000          MOVB      XAR0,#0
     940 000000cd 3B01          SETC      SXM
     941 000000ce 2BAC          MOV       T,#0                  ; |203| 
     942 000000cf 8646          MOVL      XAR2,*-SP[6]          ; |202| 
     943 000000d0 56CF          BF        L22,UNC
         000000d1 0005 
     944                      ; branch occurs
     945 000000d2       L21:    
     946 000000d2       DW$L$__f_setnameext$2$B:
     947 000000d2 93A0          MOV       AH,AR0
     948 000000d3 9D01          ADDB      AH,#1                 ; |211| 
     949 000000d4 58A8          MOVZ      AR0,AH                ; |211| 
     950 000000d5       DW$L$__f_setnameext$2$E:
     951 000000d5       L22:    
     952 000000d5       DW$L$__f_setnameext$3$B:
     953 000000d5 C4A4          MOVL      XAR6,XAR4             ; |209| 
     954 000000d6 92A0          MOV       AL,AR0
     955 000000d7 85A9          MOV       ACC,AL                ; |209| 
     956 000000d8 5601          ADDL      XAR6,ACC
TMS320C2000 COFF Assembler PC v4.1.3 Thu Aug 18 12:16:14 2016

Tools Copyright (c) 1996-2006 Texas Instruments Incorporated
fat.asm                                                              PAGE   19

         000000d9 00A6 
     957 000000da 93C6          MOV       AH,*+XAR6[0]          ; |209| 
     958 000000db EC05          BF        L23,EQ                ; |209| 
     959                      ; branchcc occurs ; |209| 
     960 000000dc       DW$L$__f_setnameext$3$E:
     961 000000dc       DW$L$__f_setnameext$4$B:
     962 000000dc 535C          CMPB      AH,#92                ; |209| 
     963 000000dd EC03          BF        L23,EQ                ; |209| 
     964                      ; branchcc occurs ; |209| 
     965 000000de       DW$L$__f_setnameext$4$E:
     966 000000de       DW$L$__f_setnameext$5$B:
     967 000000de 532F          CMPB      AH,#47                ; |209| 
     968 000000df EDF3          BF        L21,NEQ               ; |209| 
     969                      ; branchcc occurs ; |209| 
     970 000000e0       DW$L$__f_setnameext$5$E:
     971 000000e0       L23:    
     972 000000e0 93A0          MOV       AH,AR0
     973 000000e1 EC0A          BF        L24,EQ                ; |214| 
     974                      ; branchcc occurs ; |214| 
     975 000000e2 93C4          MOV       AH,*+XAR4[0]          ; |214| 
     976 000000e3 532E          CMPB      AH,#46                ; |214| 
     977 000000e4 ED07          BF        L24,NEQ               ; |214| 
     978                      ; branchcc occurs ; |214| 
     979 000000e5 93A0          MOV       AH,AR0
     980 000000e6 5301          CMPB      AH,#1                 ; |214| 
     981 000000e7 EC50          BF        L31,EQ                ; |214| 
     982                      ; branchcc occurs ; |214| 
     983 000000e8 93CC          MOV       AH,*+XAR4[1]          ; |214| 
     984 000000e9 532E          CMPB      AH,#46                ; |214| 
     985 000000ea EC4D          BF        L31,EQ                ; |214| 
     986                      ; branchcc occurs ; |214| 
     987 000000eb       L24:    
     988 000000eb 80A0          MOVZ      AR7,AR0
     989 000000ec 93A7          MOV       AH,AR7                ; |222| 
     990 000000ed 56C5          BF        L31,LEQ               ; |222| 
         000000ee 004A 
     991                      ; branchcc occurs ; |222| 
     992              L25:    
     993              DW$L$__f_setnameext$11$B:
     994                      .dwpsn  "fat.c",222,0
     995 000000ef 9DFF          ADDB      AH,#-1
     996 000000f0 C4A4          MOVL      XAR6,XAR4             ; |223| 
     997 000000f1 3B01          SETC      SXM
     998 000000f2 92A8          MOV       AL,AH                 ; |223| 
     999 000000f3 85A9          MOV       ACC,AL                ; |223| 
    1000 000000f4 5601          ADDL      XAR6,ACC
         000000f5 00A6 
    1001 000000f6 93C6          MOV       AH,*+XAR6[0]          ; |223| 
    1002 000000f7 532E          CMPB      AH,#46                ; |223| 
    1003 000000f8 EC07          BF        L26,EQ                ; |223| 
    1004                      ; branchcc occurs ; |223| 
    1005 000000f9       DW$L$__f_setnameext$11$E:
    1006 000000f9       DW$L$__f_setnameext$12$B:
    1007 000000f9 80A9          MOVZ      AR7,AL                ; |222| 
    1008 000000fa 93A7          MOV       AH,AR7                ; |222| 
TMS320C2000 COFF Assembler PC v4.1.3 Thu Aug 18 12:16:14 2016

Tools Copyright (c) 1996-2006 Texas Instruments Incorporated
fat.asm                                                              PAGE   20

    1009                      .dwpsn  "fat.c",240,0
    1010 000000fb 56C2          BF        L25,GT                ; |222| 
         000000fc FFF4 
    1011                      ; branchcc occurs ; |222| 
    1012 000000fd       DW$L$__f_setnameext$12$E:
    1013 000000fd 56CF          BF        L31,UNC               ; |222| 
         000000fe 003A 
    1014                      ; branch occurs ; |222| 
    1015 000000ff       L26:    
    1016 000000ff 92A0          MOV       AL,AR0
    1017 00000100 93A7          MOV       AH,AR7                ; |225| 
    1018 00000101 9EA7          SUB       AL,AR7                ; |225| 
    1019 00000102 2BAB          MOV       PL,#0                 ; |228| 
    1020 00000103 9C01          ADDB      AL,#1                 ; |225| 
    1021 00000104 9DFF          ADDB      AH,#-1
    1022 00000105 58A8          MOVZ      AR0,AH                ; |226| 
    1023                      .dwpsn  "fat.c",228,0
    1024 00000106 2DA9          MOV       T,AL                  ; |225| 
    1025 00000107       L27:    
    1026 00000107       DW$L$__f_setnameext$15$B:
    1027 00000107 93AC          MOV       AH,T                  ; |229| 
    1028 00000108 9DFF          ADDB      AH,#-1
    1029 00000109 55AB          CMP       AH,PL                 ; |229| 
    1030 0000010a 56C5          BF        L29,LEQ               ; |229| 
         0000010b 001D 
    1031                      ; branchcc occurs ; |229| 
    1032 0000010c       DW$L$__f_setnameext$15$E:
    1033 0000010c       DW$L$__f_setnameext$16$B:
    1034 0000010c C4A4          MOVL      XAR6,XAR4             ; |230| 
    1035 0000010d 3B01          SETC      SXM
    1036 0000010e 92A7          MOV       AL,AR7
    1037 0000010f 85A9          MOV       ACC,AL                ; |230| 
    1038 00000110 5601          ADDL      XAR6,ACC
         00000111 00A6 
    1039 00000112 93A7          MOV       AH,AR7                ; |230| 
    1040 00000113 9D01          ADDB      AH,#1                 ; |230| 
    1041 00000114 2FC6          MOV       PH,*+XAR6[0]          ; |230| 
    1042 00000115 80A8          MOVZ      AR7,AH                ; |230| 
    1043 00000116 93AA          MOV       AH,PH                 ; |230| 
    1044 00000117 5361          CMPB      AH,#97                ; |231| 
    1045 00000118 56C4          BF        L28,LT                ; |231| 
         00000119 0007 
    1046                      ; branchcc occurs ; |231| 
    1047 0000011a       DW$L$__f_setnameext$16$E:
    1048 0000011a       DW$L$__f_setnameext$17$B:
    1049 0000011a 537A          CMPB      AH,#122               ; |231| 
    1050 0000011b 56C2          BF        L28,GT                ; |231| 
         0000011c 0004 
    1051                      ; branchcc occurs ; |231| 
    1052 0000011d       DW$L$__f_setnameext$17$E:
    1053 0000011d       DW$L$__f_setnameext$18$B:
    1054 0000011d 9DE0          ADDB      AH,#-32
    1055 0000011e 2FA8          MOV       PH,AH                 ; |231| 
    1056 0000011f       DW$L$__f_setnameext$18$E:
    1057 0000011f       L28:    
TMS320C2000 COFF Assembler PC v4.1.3 Thu Aug 18 12:16:14 2016

Tools Copyright (c) 1996-2006 Texas Instruments Incorporated
fat.asm                                                              PAGE   21

    1058 0000011f       DW$L$__f_setnameext$19$B:
    1059 0000011f C4A2          MOVL      XAR6,XAR2             ; |233| 
    1060 00000120 92AB          MOV       AL,PL
    1061 00000121 85A9          MOV       ACC,AL                ; |233| 
    1062 00000122 5601          ADDL      XAR6,ACC
         00000123 00A6 
    1063 00000124 57C6          MOVH      *+XAR6[0],P           ; |233| 
    1064 00000125 56CF          BF        L30,UNC               ; |234| 
         00000126 000A 
    1065                      ; branch occurs ; |234| 
    1066 00000127       DW$L$__f_setnameext$19$E:
    1067 00000127       L29:    
    1068 00000127       DW$L$__f_setnameext$20$B:
    1069 00000127 C4A2          MOVL      XAR6,XAR2             ; |235| 
    1070 00000128 3B01          SETC      SXM
    1071 00000129 92AB          MOV       AL,PL
    1072 0000012a 85A9          MOV       ACC,AL                ; |235| 
    1073 0000012b 5601          ADDL      XAR6,ACC
         0000012c 00A6 
    1074 0000012d 28C6          MOV       *+XAR6[0],#32         ; |235| 
         0000012e 0020 
    1075 0000012f       DW$L$__f_setnameext$20$E:
    1076 0000012f       L30:    
    1077 0000012f       DW$L$__f_setnameext$21$B:
    1078 0000012f 93AB          MOV       AH,PL
    1079 00000130 9D01          ADDB      AH,#1                 ; |228| 
    1080 00000131 5303          CMPB      AH,#3                 ; |228| 
    1081 00000132 27A8          MOV       PL,AH                 ; |228| 
    1082                      .dwpsn  "fat.c",236,0
    1083 00000133 56C4          BF        L27,LT                ; |228| 
         00000134 FFD4 
    1084                      ; branchcc occurs ; |228| 
    1085 00000135       DW$L$__f_setnameext$21$E:
    1086 00000135 56CF          BF        L33,UNC               ; |228| 
         00000136 0011 
    1087                      ; branch occurs ; |228| 
    1088 00000137       L31:    
    1089 00000137 B600          MOVB      XAR7,#0
    1090                      .dwpsn  "fat.c",244,0
    1091 00000138 3B01          SETC      SXM
    1092 00000139       L32:    
    1093 00000139       DW$L$__f_setnameext$24$B:
    1094 00000139 C4A2          MOVL      XAR6,XAR2             ; |245| 
    1095 0000013a 92A7          MOV       AL,AR7
    1096 0000013b 85A9          MOV       ACC,AL                ; |245| 
    1097 0000013c 5601          ADDL      XAR6,ACC
         0000013d 00A6 
    1098 0000013e 93A7          MOV       AH,AR7                ; |245| 
    1099 0000013f 9D01          ADDB      AH,#1                 ; |244| 
    1100 00000140 80A8          MOVZ      AR7,AH                ; |244| 
    1101 00000141 5303          CMPB      AH,#3                 ; |244| 
    1102 00000142 28C6          MOV       *+XAR6[0],#32         ; |245| 
         00000143 0020 
    1103                      .dwpsn  "fat.c",246,0
    1104 00000144 56C4          BF        L32,LT                ; |244| 
TMS320C2000 COFF Assembler PC v4.1.3 Thu Aug 18 12:16:14 2016

Tools Copyright (c) 1996-2006 Texas Instruments Incorporated
fat.asm                                                              PAGE   22

         00000145 FFF5 
    1105                      ; branchcc occurs ; |244| 
    1106              DW$L$__f_setnameext$24$E:
    1107              L33:    
    1108                      .dwpsn  "fat.c",249,0
    1109 00000146 B600          MOVB      XAR7,#0
    1110 00000147       L34:    
    1111 00000147       DW$L$__f_setnameext$26$B:
    1112 00000147 93A0          MOV       AH,AR0
    1113 00000148 55A7          CMP       AH,AR7                ; |250| 
    1114 00000149 56C5          BF        L36,LEQ               ; |250| 
         0000014a 001A 
    1115                      ; branchcc occurs ; |250| 
    1116 0000014b       DW$L$__f_setnameext$26$E:
    1117 0000014b       DW$L$__f_setnameext$27$B:
    1118 0000014b C4A4          MOVL      XAR6,XAR4             ; |251| 
    1119 0000014c 3B01          SETC      SXM
    1120 0000014d 92A7          MOV       AL,AR7
    1121 0000014e 85A9          MOV       ACC,AL                ; |251| 
    1122 0000014f 5601          ADDL      XAR6,ACC
         00000150 00A6 
    1123 00000151 27C6          MOV       PL,*+XAR6[0]          ; |251| 
    1124 00000152 93AB          MOV       AH,PL                 ; |251| 
    1125 00000153 5361          CMPB      AH,#97                ; |251| 
    1126 00000154 56C4          BF        L35,LT                ; |251| 
         00000155 0007 
    1127                      ; branchcc occurs ; |251| 
    1128 00000156       DW$L$__f_setnameext$27$E:
    1129 00000156       DW$L$__f_setnameext$28$B:
    1130 00000156 537A          CMPB      AH,#122               ; |251| 
    1131 00000157 56C2          BF        L35,GT                ; |251| 
         00000158 0004 
    1132                      ; branchcc occurs ; |251| 
    1133 00000159       DW$L$__f_setnameext$28$E:
    1134 00000159       DW$L$__f_setnameext$29$B:
    1135 00000159 9DE0          ADDB      AH,#-32
    1136 0000015a 27A8          MOV       PL,AH                 ; |252| 
    1137 0000015b       DW$L$__f_setnameext$29$E:
    1138 0000015b       L35:    
    1139 0000015b       DW$L$__f_setnameext$30$B:
    1140 0000015b C4A5          MOVL      XAR6,XAR5             ; |253| 
    1141 0000015c 92A7          MOV       AL,AR7
    1142 0000015d 85A9          MOV       ACC,AL                ; |253| 
    1143 0000015e 5601          ADDL      XAR6,ACC
         0000015f 00A6 
    1144 00000160 3FC6          MOV       *+XAR6[0],P           ; |253| 
    1145 00000161 56CF          BF        L37,UNC               ; |254| 
         00000162 000A 
    1146                      ; branch occurs ; |254| 
    1147 00000163       DW$L$__f_setnameext$30$E:
    1148 00000163       L36:    
    1149 00000163       DW$L$__f_setnameext$31$B:
    1150 00000163 C4A5          MOVL      XAR6,XAR5             ; |255| 
    1151 00000164 3B01          SETC      SXM
    1152 00000165 92A7          MOV       AL,AR7
TMS320C2000 COFF Assembler PC v4.1.3 Thu Aug 18 12:16:14 2016

Tools Copyright (c) 1996-2006 Texas Instruments Incorporated
fat.asm                                                              PAGE   23

    1153 00000166 85A9          MOV       ACC,AL                ; |255| 
    1154 00000167 5601          ADDL      XAR6,ACC
         00000168 00A6 
    1155 00000169 28C6          MOV       *+XAR6[0],#32         ; |255| 
         0000016a 0020 
    1156 0000016b       DW$L$__f_setnameext$31$E:
    1157 0000016b       L37:    
    1158 0000016b       DW$L$__f_setnameext$32$B:
    1159 0000016b 93A7          MOV       AH,AR7
    1160 0000016c 9D01          ADDB      AH,#1                 ; |249| 
    1161 0000016d 80A8          MOVZ      AR7,AH                ; |249| 
    1162 0000016e 5308          CMPB      AH,#8                 ; |249| 
    1163                      .dwpsn  "fat.c",256,0
    1164 0000016f 56C4          BF        L34,LT                ; |249| 
         00000170 FFD8 
    1165                      ; branchcc occurs ; |249| 
    1166 00000171       DW$L$__f_setnameext$32$E:
    1167 00000171 86BE          MOVL      XAR2,*--SP            ; |258| 
    1168 00000172 92AC          MOV       AL,T                  ; |258| 
    1169 00000173 94A0          ADD       AL,AR0                ; |258| 
    1170                      .dwpsn  "fat.c",259,1
    1171 00000174 0006          LRETR
    1172                      ; return occurs
    1173              
    1174              DW$159  .dwtag  DW_TAG_loop
    1175                      .dwattr DW$159, DW_AT_name("D:\DEV\Amot\BearingWear\XTSW_V6_20\fat.asm:L34:1:1471518973")
    1176                      .dwattr DW$159, DW_AT_begin_file("fat.c")
    1177                      .dwattr DW$159, DW_AT_begin_line(0xf9)
    1178                      .dwattr DW$159, DW_AT_end_line(0x100)
    1179              DW$160  .dwtag  DW_TAG_loop_range
    1180                      .dwattr DW$160, DW_AT_low_pc(DW$L$__f_setnameext$26$B)
    1181                      .dwattr DW$160, DW_AT_high_pc(DW$L$__f_setnameext$26$E)
    1182              DW$161  .dwtag  DW_TAG_loop_range
    1183                      .dwattr DW$161, DW_AT_low_pc(DW$L$__f_setnameext$27$B)
    1184                      .dwattr DW$161, DW_AT_high_pc(DW$L$__f_setnameext$27$E)
    1185              DW$162  .dwtag  DW_TAG_loop_range
    1186                      .dwattr DW$162, DW_AT_low_pc(DW$L$__f_setnameext$28$B)
    1187                      .dwattr DW$162, DW_AT_high_pc(DW$L$__f_setnameext$28$E)
    1188              DW$163  .dwtag  DW_TAG_loop_range
    1189                      .dwattr DW$163, DW_AT_low_pc(DW$L$__f_setnameext$29$B)
    1190                      .dwattr DW$163, DW_AT_high_pc(DW$L$__f_setnameext$29$E)
    1191              DW$164  .dwtag  DW_TAG_loop_range
    1192                      .dwattr DW$164, DW_AT_low_pc(DW$L$__f_setnameext$30$B)
    1193                      .dwattr DW$164, DW_AT_high_pc(DW$L$__f_setnameext$30$E)
    1194              DW$165  .dwtag  DW_TAG_loop_range
    1195                      .dwattr DW$165, DW_AT_low_pc(DW$L$__f_setnameext$31$B)
    1196                      .dwattr DW$165, DW_AT_high_pc(DW$L$__f_setnameext$31$E)
    1197              DW$166  .dwtag  DW_TAG_loop_range
    1198                      .dwattr DW$166, DW_AT_low_pc(DW$L$__f_setnameext$32$B)
    1199                      .dwattr DW$166, DW_AT_high_pc(DW$L$__f_setnameext$32$E)
    1200                      .dwendtag DW$159
    1201              
    1202              
    1203              DW$167  .dwtag  DW_TAG_loop
    1204                      .dwattr DW$167, DW_AT_name("D:\DEV\Amot\BearingWear\XTSW_V6_20\fat.asm:L32:1:1471518973")
TMS320C2000 COFF Assembler PC v4.1.3 Thu Aug 18 12:16:14 2016

Tools Copyright (c) 1996-2006 Texas Instruments Incorporated
fat.asm                                                              PAGE   24

    1205                      .dwattr DW$167, DW_AT_begin_file("fat.c")
    1206                      .dwattr DW$167, DW_AT_begin_line(0xf4)
    1207                      .dwattr DW$167, DW_AT_end_line(0xf6)
    1208              DW$168  .dwtag  DW_TAG_loop_range
    1209                      .dwattr DW$168, DW_AT_low_pc(DW$L$__f_setnameext$24$B)
    1210                      .dwattr DW$168, DW_AT_high_pc(DW$L$__f_setnameext$24$E)
    1211                      .dwendtag DW$167
    1212              
    1213              
    1214              DW$169  .dwtag  DW_TAG_loop
    1215                      .dwattr DW$169, DW_AT_name("D:\DEV\Amot\BearingWear\XTSW_V6_20\fat.asm:L27:1:1471518973")
    1216                      .dwattr DW$169, DW_AT_begin_file("fat.c")
    1217                      .dwattr DW$169, DW_AT_begin_line(0xe4)
    1218                      .dwattr DW$169, DW_AT_end_line(0xec)
    1219              DW$170  .dwtag  DW_TAG_loop_range
    1220                      .dwattr DW$170, DW_AT_low_pc(DW$L$__f_setnameext$15$B)
    1221                      .dwattr DW$170, DW_AT_high_pc(DW$L$__f_setnameext$15$E)
    1222              DW$171  .dwtag  DW_TAG_loop_range
    1223                      .dwattr DW$171, DW_AT_low_pc(DW$L$__f_setnameext$16$B)
    1224                      .dwattr DW$171, DW_AT_high_pc(DW$L$__f_setnameext$16$E)
    1225              DW$172  .dwtag  DW_TAG_loop_range
    1226                      .dwattr DW$172, DW_AT_low_pc(DW$L$__f_setnameext$17$B)
    1227                      .dwattr DW$172, DW_AT_high_pc(DW$L$__f_setnameext$17$E)
    1228              DW$173  .dwtag  DW_TAG_loop_range
    1229                      .dwattr DW$173, DW_AT_low_pc(DW$L$__f_setnameext$18$B)
    1230                      .dwattr DW$173, DW_AT_high_pc(DW$L$__f_setnameext$18$E)
    1231              DW$174  .dwtag  DW_TAG_loop_range
    1232                      .dwattr DW$174, DW_AT_low_pc(DW$L$__f_setnameext$19$B)
    1233                      .dwattr DW$174, DW_AT_high_pc(DW$L$__f_setnameext$19$E)
    1234              DW$175  .dwtag  DW_TAG_loop_range
    1235                      .dwattr DW$175, DW_AT_low_pc(DW$L$__f_setnameext$20$B)
    1236                      .dwattr DW$175, DW_AT_high_pc(DW$L$__f_setnameext$20$E)
    1237              DW$176  .dwtag  DW_TAG_loop_range
    1238                      .dwattr DW$176, DW_AT_low_pc(DW$L$__f_setnameext$21$B)
    1239                      .dwattr DW$176, DW_AT_high_pc(DW$L$__f_setnameext$21$E)
    1240                      .dwendtag DW$169
    1241              
    1242              
    1243              DW$177  .dwtag  DW_TAG_loop
    1244                      .dwattr DW$177, DW_AT_name("D:\DEV\Amot\BearingWear\XTSW_V6_20\fat.asm:L25:1:1471518973")
    1245                      .dwattr DW$177, DW_AT_begin_file("fat.c")
    1246                      .dwattr DW$177, DW_AT_begin_line(0xde)
    1247                      .dwattr DW$177, DW_AT_end_line(0xf0)
    1248              DW$178  .dwtag  DW_TAG_loop_range
    1249                      .dwattr DW$178, DW_AT_low_pc(DW$L$__f_setnameext$11$B)
    1250                      .dwattr DW$178, DW_AT_high_pc(DW$L$__f_setnameext$11$E)
    1251              DW$179  .dwtag  DW_TAG_loop_range
    1252                      .dwattr DW$179, DW_AT_low_pc(DW$L$__f_setnameext$12$B)
    1253                      .dwattr DW$179, DW_AT_high_pc(DW$L$__f_setnameext$12$E)
    1254                      .dwendtag DW$177
    1255              
    1256              
    1257              DW$180  .dwtag  DW_TAG_loop
    1258                      .dwattr DW$180, DW_AT_name("D:\DEV\Amot\BearingWear\XTSW_V6_20\fat.asm:L22:1:1471518973")
    1259                      .dwattr DW$180, DW_AT_begin_file("fat.c")
TMS320C2000 COFF Assembler PC v4.1.3 Thu Aug 18 12:16:14 2016

Tools Copyright (c) 1996-2006 Texas Instruments Incorporated
fat.asm                                                              PAGE   25

    1260                      .dwattr DW$180, DW_AT_begin_line(0xd1)
    1261                      .dwattr DW$180, DW_AT_end_line(0xd3)
    1262              DW$181  .dwtag  DW_TAG_loop_range
    1263                      .dwattr DW$181, DW_AT_low_pc(DW$L$__f_setnameext$3$B)
    1264                      .dwattr DW$181, DW_AT_high_pc(DW$L$__f_setnameext$3$E)
    1265              DW$182  .dwtag  DW_TAG_loop_range
    1266                      .dwattr DW$182, DW_AT_low_pc(DW$L$__f_setnameext$4$B)
    1267                      .dwattr DW$182, DW_AT_high_pc(DW$L$__f_setnameext$4$E)
    1268              DW$183  .dwtag  DW_TAG_loop_range
    1269                      .dwattr DW$183, DW_AT_low_pc(DW$L$__f_setnameext$5$B)
    1270                      .dwattr DW$183, DW_AT_high_pc(DW$L$__f_setnameext$5$E)
    1271              DW$184  .dwtag  DW_TAG_loop_range
    1272                      .dwattr DW$184, DW_AT_low_pc(DW$L$__f_setnameext$2$B)
    1273                      .dwattr DW$184, DW_AT_high_pc(DW$L$__f_setnameext$2$E)
    1274                      .dwendtag DW$180
    1275              
    1276                      .dwattr DW$155, DW_AT_end_file("fat.c")
    1277                      .dwattr DW$155, DW_AT_end_line(0x103)
    1278                      .dwattr DW$155, DW_AT_end_column(0x01)
    1279                      .dwendtag DW$155
    1280              
    1281 00000175               .sect   ".text"
    1282              
    1283              DW$185  .dwtag  DW_TAG_subprogram, DW_AT_name("_f_setfsname"), DW_AT_symbol_name("__f_setfsname")
    1284                      .dwattr DW$185, DW_AT_low_pc(__f_setfsname)
    1285                      .dwattr DW$185, DW_AT_high_pc(0x00)
    1286                      .dwattr DW$185, DW_AT_begin_file("fat.c")
    1287                      .dwattr DW$185, DW_AT_begin_line(0x117)
    1288                      .dwattr DW$185, DW_AT_begin_column(0x0c)
    1289                      .dwattr DW$185, DW_AT_frame_base[DW_OP_breg20 -36]
    1290                      .dwattr DW$185, DW_AT_skeletal(0x01)
    1291                      .dwpsn  "fat.c",279,70
    1292              
    1293              ;***************************************************************
    1294              ;* FNAME: __f_setfsname                 FR SIZE:  34           *
    1295              ;*                                                             *
    1296              ;* FUNCTION ENVIRONMENT                                        *
    1297              ;*                                                             *
    1298              ;* FUNCTION PROPERTIES                                         *
    1299              ;*                            2 Parameter, 26 Auto,  6 SOE     *
    1300              ;***************************************************************
    1301              
    1302              __f_setfsname:
    1303              ;* AR4   assigned to _fm
    1304              DW$186  .dwtag  DW_TAG_formal_parameter, DW_AT_name("fm"), DW_AT_symbol_name("_fm")
    1305                      .dwattr DW$186, DW_AT_type(*DW$T$117)
    1306                      .dwattr DW$186, DW_AT_location[DW_OP_reg12]
    1307              ;* AR5   assigned to _name
    1308              DW$187  .dwtag  DW_TAG_formal_parameter, DW_AT_name("name"), DW_AT_symbol_name("_name")
    1309                      .dwattr DW$187, DW_AT_type(*DW$T$146)
    1310                      .dwattr DW$187, DW_AT_location[DW_OP_reg14]
    1311              DW$188  .dwtag  DW_TAG_formal_parameter, DW_AT_name("fsname"), DW_AT_symbol_name("_fsname")
    1312                      .dwattr DW$188, DW_AT_type(*DW$T$149)
    1313                      .dwattr DW$188, DW_AT_location[DW_OP_breg20 -38]
    1314 00000175 B2BD          MOVL      *SP++,XAR1
TMS320C2000 COFF Assembler PC v4.1.3 Thu Aug 18 12:16:14 2016

Tools Copyright (c) 1996-2006 Texas Instruments Incorporated
fat.asm                                                              PAGE   26

    1315 00000176 AABD          MOVL      *SP++,XAR2
    1316 00000177 A2BD          MOVL      *SP++,XAR3
    1317 00000178 FE1C          ADDB      SP,#28
    1318 00000179 A85C          MOVL      *-SP[28],XAR4         ; |279| 
    1319 0000017a A05A          MOVL      *-SP[26],XAR5         ; |279| 
    1320 0000017b 8666          MOVL      XAR2,*-SP[38]         ; |279| 
    1321 0000017c 8A5A          MOVL      XAR4,*-SP[26]         ; |285| 
    1322 0000017d 2B57          MOV       *-SP[23],#0           ; |281| 
    1323 0000017e 2B56          MOV       *-SP[22],#0           ; |285| 
    1324 0000017f D100          MOVB      XAR1,#0
    1325 00000180 92C4          MOV       AL,*+XAR4[0]          ; |287| 
    1326 00000181 56C1          BF        L58,EQ                ; |287| 
         00000182 00CE 
    1327                      ; branchcc occurs ; |287| 
    1328 00000183 8A5A          MOVL      XAR4,*-SP[26]
    1329 00000184 92CC          MOV       AL,*+XAR4[1]          ; |289| 
    1330 00000185 523A          CMPB      AL,#58                ; |289| 
    1331 00000186 ED21          BF        L40,NEQ               ; |289| 
    1332                      ; branchcc occurs ; |289| 
    1333 00000187 8A5A          MOVL      XAR4,*-SP[26]
    1334 00000188 92C4          MOV       AL,*+XAR4[0]          ; |290| 
    1335 00000189 5261          CMPB      AL,#97                ; |290| 
    1336 0000018a 56C4          BF        L38,LT                ; |290| 
         0000018b 000D 
    1337                      ; branchcc occurs ; |290| 
    1338 0000018c 527A          CMPB      AL,#122               ; |290| 
    1339 0000018d 56C2          BF        L38,GT                ; |290| 
         0000018e 000A 
    1340                      ; branchcc occurs ; |290| 
    1341 0000018f 8A5A          MOVL      XAR4,*-SP[26]
    1342 00000190 92C4          MOV       AL,*+XAR4[0]          ; |290| 
    1343 00000191 9CE0          ADDB      AL,#-32
    1344 00000192 5241          CMPB      AL,#65                ; |290| 
    1345 00000193 56C3          BF        L39,GEQ               ; |290| 
         00000194 0009 
    1346                      ; branchcc occurs ; |290| 
    1347 00000195 56CF          BF        L58,UNC               ; |290| 
         00000196 00BA 
    1348                      ; branch occurs ; |290| 
    1349 00000197       L38:    
    1350 00000197 8A5A          MOVL      XAR4,*-SP[26]
    1351 00000198 92C4          MOV       AL,*+XAR4[0]          ; |290| 
    1352 00000199 5241          CMPB      AL,#65                ; |290| 
    1353 0000019a 56C4          BF        L58,LT                ; |290| 
         0000019b 00B5 
    1354                      ; branchcc occurs ; |290| 
    1355 0000019c       L39:    
    1356 0000019c 525A          CMPB      AL,#90                ; |291| 
    1357 0000019d 56C2          BF        L58,GT                ; |291| 
         0000019e 00B2 
    1358                      ; branchcc occurs ; |291| 
    1359 0000019f 9CBF          ADDB      AL,#-65
    1360 000001a0 D402          MOVB      XAR4,#2               ; |293| 
    1361 000001a1 96C2          MOV       *+XAR2[0],AL          ; |292| 
    1362 000001a2 065A          MOVL      ACC,*-SP[26]          ; |293| 
TMS320C2000 COFF Assembler PC v4.1.3 Thu Aug 18 12:16:14 2016

Tools Copyright (c) 1996-2006 Texas Instruments Incorporated
fat.asm                                                              PAGE   27

    1363 000001a3 0DA4          ADDU      ACC,AR4               ; |293| 
    1364 000001a4 1E5A          MOVL      *-SP[26],ACC          ; |293| 
    1365 000001a5 56CF          BF        L41,UNC               ; |294| 
         000001a6 0006 
    1366                      ; branch occurs ; |294| 
    1367 000001a7       L40:    
    1368 000001a7 8A5C          MOVL      XAR4,*-SP[28]
    1369 000001a8 7640!         LCR       #_fn_getdrive         ; |298| 
         000001a9 0000 
    1370                      ; call occurs [#_fn_getdrive] ; |298| 
    1371 000001aa 96C2          MOV       *+XAR2[0],AL          ; |298| 
    1372 000001ab       L41:    
    1373 000001ab 8A5A          MOVL      XAR4,*-SP[26]
    1374 000001ac 92C4          MOV       AL,*+XAR4[0]          ; |294| 
    1375 000001ad 522F          CMPB      AL,#47                ; |294| 
    1376 000001ae EC3A          BF        L47,EQ                ; |294| 
    1377                      ; branchcc occurs ; |294| 
    1378 000001af 8A5A          MOVL      XAR4,*-SP[26]
    1379 000001b0 92C4          MOV       AL,*+XAR4[0]          ; |294| 
    1380 000001b1 525C          CMPB      AL,#92                ; |294| 
    1381 000001b2 EC36          BF        L47,EQ                ; |294| 
    1382                      ; branchcc occurs ; |294| 
    1383 000001b3 0201          MOVB      ACC,#1
    1384 000001b4 07A2          ADDL      ACC,XAR2
    1385 000001b5 8A5C          MOVL      XAR4,*-SP[28]         ; |303| 
    1386 000001b6 82A9          MOVL      XAR3,ACC              ; |303| 
    1387 000001b7 83A9          MOVL      XAR5,ACC              ; |303| 
    1388 000001b8 92C2          MOV       AL,*+XAR2[0]          ; |303| 
    1389 000001b9 9B14          MOVB      AH,#20                ; |303| 
    1390 000001ba 7640'         LCR       #_fn_getdcwd          ; |303| 
         000001bb 0522 
    1391                      ; call occurs [#_fn_getdcwd] ; |303| 
    1392 000001bc 5200          CMPB      AL,#0                 ; |303| 
    1393 000001bd 56C0          BF        L58,NEQ               ; |303| 
         000001be 0092 
    1394                      ; branchcc occurs ; |303| 
    1395 000001bf 2B57          MOV       *-SP[23],#0           ; |304| 
    1396 000001c0 92C3          MOV       AL,*+XAR3[0]          ; |304| 
    1397 000001c1 EC27          BF        L47,EQ                ; |304| 
    1398                      ; branchcc occurs ; |304| 
    1399              L42:    
    1400              DW$L$__f_setfsname$15$B:
    1401                      .dwpsn  "fat.c",304,0
    1402 000001c2 0A57          INC       *-SP[23]              ; |304| 
    1403 000001c3 8857          MOVZ      AR6,*-SP[23]          ; |304| 
    1404 000001c4 AAA9          MOVL      ACC,XAR2              ; |304| 
    1405 000001c5 0DA6          ADDU      ACC,AR6               ; |304| 
    1406 000001c6 8AA9          MOVL      XAR4,ACC              ; |304| 
    1407 000001c7 92CC          MOV       AL,*+XAR4[1]          ; |304| 
    1408 000001c8 EDFA          BF        L42,NEQ               ; |304| 
    1409                      ; branchcc occurs ; |304| 
    1410 000001c9       DW$L$__f_setfsname$15$E:
    1411 000001c9 56CF          BF        L47,UNC
         000001ca 001F 
    1412                      ; branch occurs
TMS320C2000 COFF Assembler PC v4.1.3 Thu Aug 18 12:16:14 2016

Tools Copyright (c) 1996-2006 Texas Instruments Incorporated
fat.asm                                                              PAGE   28

    1413 000001cb       L43:    
    1414 000001cb       DW$L$__f_setfsname$17$B:
    1415 000001cb 8857          MOVZ      AR6,*-SP[23]          ; |332| 
    1416 000001cc 5DAD          MOVZ      AR5,SP                ; |332| 
    1417 000001cd AAA9          MOVL      ACC,XAR2              ; |332| 
    1418 000001ce 0DA6          ADDU      ACC,AR6               ; |332| 
    1419 000001cf 8AA9          MOVL      XAR4,ACC              ; |332| 
    1420 000001d0 DD96          SUBB      XAR5,#22              ; |332| 
    1421 000001d1 8895          MOVZ      AR6,*+XAR5[AR0]       ; |332| 
    1422 000001d2 7ECC          MOV       *+XAR4[1],AR6         ; |332| 
    1423 000001d3 D801          ADDB      XAR0,#1               ; |330| 
    1424 000001d4 0A57          INC       *-SP[23]              ; |332| 
    1425 000001d5 92A1          MOV       AL,AR1                ; |330| 
    1426 000001d6 54A0          CMP       AL,AR0                ; |330| 
    1427                      .dwpsn  "fat.c",333,0
    1428 000001d7 56C6          BF        L57,HI                ; |330| 
         000001d8 0074 
    1429                      ; branchcc occurs ; |330| 
    1430 000001d9       DW$L$__f_setfsname$17$E:
    1431 000001d9       L44:    
    1432 000001d9       DW$L$__f_setfsname$18$B:
    1433 000001d9 D100          MOVB      XAR1,#0
    1434 000001da 56CF          BF        L47,UNC               ; |335| 
         000001db 000E 
    1435                      ; branch occurs ; |335| 
    1436 000001dc       DW$L$__f_setfsname$18$E:
    1437 000001dc       L45:    
    1438 000001dc       DW$L$__f_setfsname$19$B:
    1439 000001dc 5320          CMPB      AH,#32                ; |338| 
    1440 000001dd ED03          BF        L46,NEQ               ; |338| 
    1441                      ; branchcc occurs ; |338| 
    1442 000001de       DW$L$__f_setfsname$19$E:
    1443 000001de       DW$L$__f_setfsname$20$B:
    1444 000001de 92A1          MOV       AL,AR1
    1445 000001df EC09          BF        L47,EQ                ; |338| 
    1446                      ; branchcc occurs ; |338| 
    1447 000001e0       DW$L$__f_setfsname$20$E:
    1448 000001e0       L46:    
    1449 000001e0       DW$L$__f_setfsname$21$B:
    1450 000001e0 92A1          MOV       AL,AR1
    1451 000001e1 5212          CMPB      AL,#18                ; |340| 
    1452 000001e2 56C7          BF        L58,HIS               ; |340| 
         000001e3 006D 
    1453                      ; branchcc occurs ; |340| 
    1454 000001e4       DW$L$__f_setfsname$21$E:
    1455 000001e4       DW$L$__f_setfsname$22$B:
    1456 000001e4 5CAD          MOVZ      AR4,SP                ; |341| 
    1457 000001e5 DC96          SUBB      XAR4,#22              ; |341| 
    1458 000001e6 979C          MOV       *+XAR4[AR1],AH        ; |341| 
    1459 000001e7 D901          ADDB      XAR1,#1               ; |341| 
    1460 000001e8       DW$L$__f_setfsname$22$E:
    1461 000001e8       L47:    
    1462 000001e8       DW$L$__f_setfsname$23$B:
    1463 000001e8 8A5A          MOVL      XAR4,*-SP[26]
    1464 000001e9 9384          MOV       AH,*XAR4++            ; |309| 
TMS320C2000 COFF Assembler PC v4.1.3 Thu Aug 18 12:16:14 2016

Tools Copyright (c) 1996-2006 Texas Instruments Incorporated
fat.asm                                                              PAGE   29

    1465 000001ea 5361          CMPB      AH,#97                ; |309| 
    1466 000001eb A85A          MOVL      *-SP[26],XAR4         ; |309| 
    1467 000001ec 56C4          BF        L48,LT                ; |309| 
         000001ed 0006 
    1468                      ; branchcc occurs ; |309| 
    1469 000001ee       DW$L$__f_setfsname$23$E:
    1470 000001ee       DW$L$__f_setfsname$24$B:
    1471 000001ee 537A          CMPB      AH,#122               ; |309| 
    1472 000001ef 56C2          BF        L48,GT                ; |309| 
         000001f0 0003 
    1473                      ; branchcc occurs ; |309| 
    1474 000001f1       DW$L$__f_setfsname$24$E:
    1475 000001f1       DW$L$__f_setfsname$25$B:
    1476 000001f1 9DE0          ADDB      AH,#-32
    1477 000001f2       DW$L$__f_setfsname$25$E:
    1478 000001f2       L48:    
    1479 000001f2       DW$L$__f_setfsname$26$B:
    1480 000001f2 5300          CMPB      AH,#0                 ; |312| 
    1481 000001f3 ED2E          BF        L52,NEQ               ; |312| 
    1482                      ; branchcc occurs ; |312| 
    1483 000001f4       DW$L$__f_setfsname$26$E:
    1484 000001f4 5CAD          MOVZ      AR4,SP                ; |344| 
    1485 000001f5 DC96          SUBB      XAR4,#22              ; |344| 
    1486 000001f6 2B9C          MOV       *+XAR4[AR1],#0        ; |344| 
    1487 000001f7 8857          MOVZ      AR6,*-SP[23]          ; |345| 
    1488 000001f8 AAA9          MOVL      ACC,XAR2              ; |345| 
    1489 000001f9 0DA6          ADDU      ACC,AR6               ; |345| 
    1490 000001fa 8AA9          MOVL      XAR4,ACC              ; |345| 
    1491 000001fb 92A1          MOV       AL,AR1                ; |345| 
    1492 000001fc 2BCC          MOV       *+XAR4[1],#0          ; |345| 
    1493 000001fd EC0F          BF        L50,EQ                ; |347| 
    1494                      ; branchcc occurs ; |347| 
    1495              L49:    
    1496              DW$L$__f_setfsname$28$B:
    1497                      .dwpsn  "fat.c",347,0
    1498 000001fe 5CAD          MOVZ      AR4,SP                ; |348| 
    1499 000001ff 9CFF          ADDB      AL,#-1
    1500 00000200 88A9          MOVZ      AR6,AL                ; |348| 
    1501 00000201 DC96          SUBB      XAR4,#22              ; |348| 
    1502 00000202 A8A9          MOVL      ACC,XAR4              ; |348| 
    1503 00000203 0DA6          ADDU      ACC,AR6               ; |348| 
    1504 00000204 8AA9          MOVL      XAR4,ACC              ; |348| 
    1505 00000205 92C4          MOV       AL,*+XAR4[0]          ; |348| 
    1506 00000206 5220          CMPB      AL,#32                ; |348| 
    1507 00000207 ED05          BF        L50,NEQ               ; |348| 
    1508                      ; branchcc occurs ; |348| 
    1509 00000208       DW$L$__f_setfsname$28$E:
    1510 00000208       DW$L$__f_setfsname$29$B:
    1511 00000208 D981          SUBB      XAR1,#1               ; |350| 
    1512 00000209 2BC4          MOV       *+XAR4[0],#0          ; |349| 
    1513 0000020a 92A1          MOV       AL,AR1                ; |350| 
    1514                      .dwpsn  "fat.c",351,0
    1515 0000020b EDF3          BF        L49,NEQ               ; |350| 
    1516                      ; branchcc occurs ; |350| 
    1517 0000020c       DW$L$__f_setfsname$29$E:
TMS320C2000 COFF Assembler PC v4.1.3 Thu Aug 18 12:16:14 2016

Tools Copyright (c) 1996-2006 Texas Instruments Incorporated
fat.asm                                                              PAGE   30

    1518 0000020c       L50:    
    1519 0000020c 0215          MOVB      ACC,#21
    1520 0000020d 5CAD          MOVZ      AR4,SP                ; |353| 
    1521 0000020e 07A2          ADDL      ACC,XAR2
    1522 0000020f 83A9          MOVL      XAR5,ACC              ; |353| 
    1523 00000210 021D          MOVB      ACC,#29
    1524 00000211 DC96          SUBB      XAR4,#22              ; |353| 
    1525 00000212 07A2          ADDL      ACC,XAR2
    1526 00000213 1E42          MOVL      *-SP[2],ACC           ; |353| 
    1527 00000214 7640'         LCR       #__f_setnameext       ; |353| 
         00000215 00CB 
    1528                      ; call occurs [#__f_setnameext] ; |353| 
    1529 00000216 5200          CMPB      AL,#0                 ; |353| 
    1530 00000217 ED04          BF        L51,NEQ               ; |353| 
    1531                      ; branchcc occurs ; |353| 
    1532 00000218 9A02          MOVB      AL,#2                 ; |353| 
    1533 00000219 56CF          BF        L59,UNC               ; |353| 
         0000021a 0037 
    1534                      ; branch occurs ; |353| 
    1535 0000021b       L51:    
    1536 0000021b 92C5          MOV       AL,*+XAR5[0]          ; |355| 
    1537 0000021c 5220          CMPB      AL,#32                ; |355| 
    1538 0000021d EC32          BF        L58,EQ                ; |355| 
    1539                      ; branchcc occurs ; |355| 
    1540 0000021e 9A00          MOVB      AL,#0
    1541 0000021f 56CF          BF        L59,UNC               ; |357| 
         00000220 0031 
    1542                      ; branch occurs ; |357| 
    1543 00000221       L52:    
    1544 00000221       DW$L$__f_setfsname$34$B:
    1545 00000221 533A          CMPB      AH,#58                ; |314| 
    1546 00000222 EC2D          BF        L58,EQ                ; |314| 
    1547                      ; branchcc occurs ; |314| 
    1548 00000223       DW$L$__f_setfsname$34$E:
    1549 00000223       DW$L$__f_setfsname$35$B:
    1550 00000223 532F          CMPB      AH,#47                ; |316| 
    1551 00000224 EC03          BF        L53,EQ                ; |316| 
    1552                      ; branchcc occurs ; |316| 
    1553 00000225       DW$L$__f_setfsname$35$E:
    1554 00000225       DW$L$__f_setfsname$36$B:
    1555 00000225 535C          CMPB      AH,#92                ; |316| 
    1556 00000226 EDB6          BF        L45,NEQ               ; |316| 
    1557                      ; branchcc occurs ; |316| 
    1558 00000227       DW$L$__f_setfsname$36$E:
    1559 00000227       L53:    
    1560 00000227       DW$L$__f_setfsname$37$B:
    1561 00000227 9257          MOV       AL,*-SP[23]
    1562 00000228 EC14          BF        L54,EQ                ; |317| 
    1563                      ; branchcc occurs ; |317| 
    1564 00000229       DW$L$__f_setfsname$37$E:
    1565 00000229       DW$L$__f_setfsname$38$B:
    1566 00000229 0201          MOVB      ACC,#1
    1567 0000022a 07A2          ADDL      ACC,XAR2
    1568 0000022b 8AA9          MOVL      XAR4,ACC              ; |318| 
    1569 0000022c 9257          MOV       AL,*-SP[23]           ; |318| 
TMS320C2000 COFF Assembler PC v4.1.3 Thu Aug 18 12:16:14 2016

Tools Copyright (c) 1996-2006 Texas Instruments Incorporated
fat.asm                                                              PAGE   31

    1570 0000022d 9CFF          ADDB      AL,#-1
    1571 0000022e 58A9          MOVZ      AR0,AL                ; |318| 
    1572 0000022f 9294          MOV       AL,*+XAR4[AR0]        ; |318| 
    1573 00000230 522F          CMPB      AL,#47                ; |318| 
    1574 00000231 EC1E          BF        L58,EQ                ; |318| 
    1575                      ; branchcc occurs ; |318| 
    1576 00000232       DW$L$__f_setfsname$38$E:
    1577 00000232       DW$L$__f_setfsname$39$B:
    1578 00000232 525C          CMPB      AL,#92                ; |318| 
    1579 00000233 EC1C          BF        L58,EQ                ; |318| 
    1580                      ; branchcc occurs ; |318| 
    1581 00000234       DW$L$__f_setfsname$39$E:
    1582 00000234       DW$L$__f_setfsname$40$B:
    1583 00000234 9257          MOV       AL,*-SP[23]
    1584 00000235 5212          CMPB      AL,#18                ; |318| 
    1585 00000236 56C7          BF        L58,HIS               ; |318| 
         00000237 0019 
    1586                      ; branchcc occurs ; |318| 
    1587 00000238       DW$L$__f_setfsname$40$E:
    1588 00000238       DW$L$__f_setfsname$41$B:
    1589 00000238 5857          MOVZ      AR0,*-SP[23]          ; |322| 
    1590 00000239 2894          MOV       *+XAR4[AR0],#47       ; |322| 
         0000023a 002F 
    1591 0000023b 0A57          INC       *-SP[23]              ; |322| 
    1592 0000023c       DW$L$__f_setfsname$41$E:
    1593 0000023c       L54:    
    1594 0000023c       DW$L$__f_setfsname$42$B:
    1595 0000023c 92A1          MOV       AL,AR1
    1596 0000023d EC0B          BF        L56,EQ                ; |325| 
    1597                      ; branchcc occurs ; |325| 
    1598              DW$L$__f_setfsname$42$E:
    1599              L55:    
    1600              DW$L$__f_setfsname$43$B:
    1601                      .dwpsn  "fat.c",325,0
    1602 0000023e 5CAD          MOVZ      AR4,SP                ; |326| 
    1603 0000023f 9CFF          ADDB      AL,#-1
    1604 00000240 58A9          MOVZ      AR0,AL                ; |326| 
    1605 00000241 DC96          SUBB      XAR4,#22              ; |326| 
    1606 00000242 9294          MOV       AL,*+XAR4[AR0]        ; |326| 
    1607 00000243 5220          CMPB      AL,#32                ; |326| 
    1608 00000244 ED04          BF        L56,NEQ               ; |326| 
    1609                      ; branchcc occurs ; |326| 
    1610 00000245       DW$L$__f_setfsname$43$E:
    1611 00000245       DW$L$__f_setfsname$44$B:
    1612 00000245 D981          SUBB      XAR1,#1               ; |327| 
    1613 00000246 92A1          MOV       AL,AR1                ; |327| 
    1614                      .dwpsn  "fat.c",328,0
    1615 00000247 EDF7          BF        L55,NEQ               ; |327| 
    1616                      ; branchcc occurs ; |327| 
    1617 00000248       DW$L$__f_setfsname$44$E:
    1618 00000248       L56:    
    1619 00000248       DW$L$__f_setfsname$45$B:
    1620 00000248 92A1          MOV       AL,AR1                ; |330| 
    1621 00000249 D000          MOVB      XAR0,#0
    1622 0000024a EC8F          BF        L44,EQ                ; |330| 
TMS320C2000 COFF Assembler PC v4.1.3 Thu Aug 18 12:16:14 2016

Tools Copyright (c) 1996-2006 Texas Instruments Incorporated
fat.asm                                                              PAGE   32

    1623                      ; branchcc occurs ; |330| 
    1624              DW$L$__f_setfsname$45$E:
    1625              L57:    
    1626              DW$L$__f_setfsname$46$B:
    1627                      .dwpsn  "fat.c",330,0
    1628 0000024b 9257          MOV       AL,*-SP[23]
    1629 0000024c 5212          CMPB      AL,#18                ; |331| 
    1630 0000024d 56C8          BF        L43,LO                ; |331| 
         0000024e FF7E 
    1631                      ; branchcc occurs ; |331| 
    1632 0000024f       DW$L$__f_setfsname$46$E:
    1633 0000024f       L58:    
    1634 0000024f 9A01          MOVB      AL,#1                 ; |331| 
    1635 00000250       L59:    
    1636 00000250 FE9C          SUBB      SP,#28                ; |331| 
    1637 00000251 82BE          MOVL      XAR3,*--SP            ; |331| 
    1638 00000252 86BE          MOVL      XAR2,*--SP            ; |331| 
    1639 00000253 8BBE          MOVL      XAR1,*--SP            ; |331| 
    1640                      .dwpsn  "fat.c",358,1
    1641 00000254 0006          LRETR
    1642                      ; return occurs
    1643              
    1644              DW$189  .dwtag  DW_TAG_loop
    1645                      .dwattr DW$189, DW_AT_name("D:\DEV\Amot\BearingWear\XTSW_V6_20\fat.asm:L49:1:1471518973")
    1646                      .dwattr DW$189, DW_AT_begin_file("fat.c")
    1647                      .dwattr DW$189, DW_AT_begin_line(0x15b)
    1648                      .dwattr DW$189, DW_AT_end_line(0x15f)
    1649              DW$190  .dwtag  DW_TAG_loop_range
    1650                      .dwattr DW$190, DW_AT_low_pc(DW$L$__f_setfsname$28$B)
    1651                      .dwattr DW$190, DW_AT_high_pc(DW$L$__f_setfsname$28$E)
    1652              DW$191  .dwtag  DW_TAG_loop_range
    1653                      .dwattr DW$191, DW_AT_low_pc(DW$L$__f_setfsname$29$B)
    1654                      .dwattr DW$191, DW_AT_high_pc(DW$L$__f_setfsname$29$E)
    1655                      .dwendtag DW$189
    1656              
    1657              
    1658              DW$192  .dwtag  DW_TAG_loop
    1659                      .dwattr DW$192, DW_AT_name("D:\DEV\Amot\BearingWear\XTSW_V6_20\fat.asm:L47:1:1471518973")
    1660                      .dwattr DW$192, DW_AT_begin_file("fat.c")
    1661                      .dwattr DW$192, DW_AT_begin_line(0x135)
    1662                      .dwattr DW$192, DW_AT_end_line(0x155)
    1663              DW$193  .dwtag  DW_TAG_loop_range
    1664                      .dwattr DW$193, DW_AT_low_pc(DW$L$__f_setfsname$23$B)
    1665                      .dwattr DW$193, DW_AT_high_pc(DW$L$__f_setfsname$23$E)
    1666              DW$194  .dwtag  DW_TAG_loop_range
    1667                      .dwattr DW$194, DW_AT_low_pc(DW$L$__f_setfsname$21$B)
    1668                      .dwattr DW$194, DW_AT_high_pc(DW$L$__f_setfsname$21$E)
    1669              DW$195  .dwtag  DW_TAG_loop_range
    1670                      .dwattr DW$195, DW_AT_low_pc(DW$L$__f_setfsname$19$B)
    1671                      .dwattr DW$195, DW_AT_high_pc(DW$L$__f_setfsname$19$E)
    1672              DW$196  .dwtag  DW_TAG_loop_range
    1673                      .dwattr DW$196, DW_AT_low_pc(DW$L$__f_setfsname$38$B)
    1674                      .dwattr DW$196, DW_AT_high_pc(DW$L$__f_setfsname$38$E)
    1675              DW$197  .dwtag  DW_TAG_loop_range
    1676                      .dwattr DW$197, DW_AT_low_pc(DW$L$__f_setfsname$39$B)
TMS320C2000 COFF Assembler PC v4.1.3 Thu Aug 18 12:16:14 2016

Tools Copyright (c) 1996-2006 Texas Instruments Incorporated
fat.asm                                                              PAGE   33

    1677                      .dwattr DW$197, DW_AT_high_pc(DW$L$__f_setfsname$39$E)
    1678              DW$198  .dwtag  DW_TAG_loop_range
    1679                      .dwattr DW$198, DW_AT_low_pc(DW$L$__f_setfsname$40$B)
    1680                      .dwattr DW$198, DW_AT_high_pc(DW$L$__f_setfsname$40$E)
    1681              DW$199  .dwtag  DW_TAG_loop_range
    1682                      .dwattr DW$199, DW_AT_low_pc(DW$L$__f_setfsname$24$B)
    1683                      .dwattr DW$199, DW_AT_high_pc(DW$L$__f_setfsname$24$E)
    1684              DW$200  .dwtag  DW_TAG_loop_range
    1685                      .dwattr DW$200, DW_AT_low_pc(DW$L$__f_setfsname$25$B)
    1686                      .dwattr DW$200, DW_AT_high_pc(DW$L$__f_setfsname$25$E)
    1687              DW$201  .dwtag  DW_TAG_loop_range
    1688                      .dwattr DW$201, DW_AT_low_pc(DW$L$__f_setfsname$26$B)
    1689                      .dwattr DW$201, DW_AT_high_pc(DW$L$__f_setfsname$26$E)
    1690              DW$202  .dwtag  DW_TAG_loop_range
    1691                      .dwattr DW$202, DW_AT_low_pc(DW$L$__f_setfsname$34$B)
    1692                      .dwattr DW$202, DW_AT_high_pc(DW$L$__f_setfsname$34$E)
    1693              DW$203  .dwtag  DW_TAG_loop_range
    1694                      .dwattr DW$203, DW_AT_low_pc(DW$L$__f_setfsname$35$B)
    1695                      .dwattr DW$203, DW_AT_high_pc(DW$L$__f_setfsname$35$E)
    1696              DW$204  .dwtag  DW_TAG_loop_range
    1697                      .dwattr DW$204, DW_AT_low_pc(DW$L$__f_setfsname$36$B)
    1698                      .dwattr DW$204, DW_AT_high_pc(DW$L$__f_setfsname$36$E)
    1699              DW$205  .dwtag  DW_TAG_loop_range
    1700                      .dwattr DW$205, DW_AT_low_pc(DW$L$__f_setfsname$37$B)
    1701                      .dwattr DW$205, DW_AT_high_pc(DW$L$__f_setfsname$37$E)
    1702              DW$206  .dwtag  DW_TAG_loop_range
    1703                      .dwattr DW$206, DW_AT_low_pc(DW$L$__f_setfsname$41$B)
    1704                      .dwattr DW$206, DW_AT_high_pc(DW$L$__f_setfsname$41$E)
    1705              DW$207  .dwtag  DW_TAG_loop_range
    1706                      .dwattr DW$207, DW_AT_low_pc(DW$L$__f_setfsname$42$B)
    1707                      .dwattr DW$207, DW_AT_high_pc(DW$L$__f_setfsname$42$E)
    1708              DW$208  .dwtag  DW_TAG_loop_range
    1709                      .dwattr DW$208, DW_AT_low_pc(DW$L$__f_setfsname$45$B)
    1710                      .dwattr DW$208, DW_AT_high_pc(DW$L$__f_setfsname$45$E)
    1711              DW$209  .dwtag  DW_TAG_loop_range
    1712                      .dwattr DW$209, DW_AT_low_pc(DW$L$__f_setfsname$22$B)
    1713                      .dwattr DW$209, DW_AT_high_pc(DW$L$__f_setfsname$22$E)
    1714              DW$210  .dwtag  DW_TAG_loop_range
    1715                      .dwattr DW$210, DW_AT_low_pc(DW$L$__f_setfsname$20$B)
    1716                      .dwattr DW$210, DW_AT_high_pc(DW$L$__f_setfsname$20$E)
    1717              DW$211  .dwtag  DW_TAG_loop_range
    1718                      .dwattr DW$211, DW_AT_low_pc(DW$L$__f_setfsname$18$B)
    1719                      .dwattr DW$211, DW_AT_high_pc(DW$L$__f_setfsname$18$E)
    1720              
    1721              DW$212  .dwtag  DW_TAG_loop
    1722                      .dwattr DW$212, DW_AT_name("D:\DEV\Amot\BearingWear\XTSW_V6_20\fat.asm:L55:2:1471518973")
    1723                      .dwattr DW$212, DW_AT_begin_file("fat.c")
    1724                      .dwattr DW$212, DW_AT_begin_line(0x145)
    1725                      .dwattr DW$212, DW_AT_end_line(0x148)
    1726              DW$213  .dwtag  DW_TAG_loop_range
    1727                      .dwattr DW$213, DW_AT_low_pc(DW$L$__f_setfsname$43$B)
    1728                      .dwattr DW$213, DW_AT_high_pc(DW$L$__f_setfsname$43$E)
    1729              DW$214  .dwtag  DW_TAG_loop_range
    1730                      .dwattr DW$214, DW_AT_low_pc(DW$L$__f_setfsname$44$B)
    1731                      .dwattr DW$214, DW_AT_high_pc(DW$L$__f_setfsname$44$E)
TMS320C2000 COFF Assembler PC v4.1.3 Thu Aug 18 12:16:14 2016

Tools Copyright (c) 1996-2006 Texas Instruments Incorporated
fat.asm                                                              PAGE   34

    1732                      .dwendtag DW$212
    1733              
    1734              
    1735              DW$215  .dwtag  DW_TAG_loop
    1736                      .dwattr DW$215, DW_AT_name("D:\DEV\Amot\BearingWear\XTSW_V6_20\fat.asm:L57:2:1471518973")
    1737                      .dwattr DW$215, DW_AT_begin_file("fat.c")
    1738                      .dwattr DW$215, DW_AT_begin_line(0x14a)
    1739                      .dwattr DW$215, DW_AT_end_line(0x14d)
    1740              DW$216  .dwtag  DW_TAG_loop_range
    1741                      .dwattr DW$216, DW_AT_low_pc(DW$L$__f_setfsname$46$B)
    1742                      .dwattr DW$216, DW_AT_high_pc(DW$L$__f_setfsname$46$E)
    1743              DW$217  .dwtag  DW_TAG_loop_range
    1744                      .dwattr DW$217, DW_AT_low_pc(DW$L$__f_setfsname$17$B)
    1745                      .dwattr DW$217, DW_AT_high_pc(DW$L$__f_setfsname$17$E)
    1746                      .dwendtag DW$215
    1747              
    1748                      .dwendtag DW$192
    1749              
    1750              
    1751              DW$218  .dwtag  DW_TAG_loop
    1752                      .dwattr DW$218, DW_AT_name("D:\DEV\Amot\BearingWear\XTSW_V6_20\fat.asm:L42:1:1471518973")
    1753                      .dwattr DW$218, DW_AT_begin_file("fat.c")
    1754                      .dwattr DW$218, DW_AT_begin_line(0x130)
    1755                      .dwattr DW$218, DW_AT_end_line(0x130)
    1756              DW$219  .dwtag  DW_TAG_loop_range
    1757                      .dwattr DW$219, DW_AT_low_pc(DW$L$__f_setfsname$15$B)
    1758                      .dwattr DW$219, DW_AT_high_pc(DW$L$__f_setfsname$15$E)
    1759                      .dwendtag DW$218
    1760              
    1761                      .dwattr DW$185, DW_AT_end_file("fat.c")
    1762                      .dwattr DW$185, DW_AT_end_line(0x166)
    1763                      .dwattr DW$185, DW_AT_end_column(0x01)
    1764                      .dwendtag DW$185
    1765              
    1766 00000255               .sect   ".text"
    1767              
    1768              DW$220  .dwtag  DW_TAG_subprogram, DW_AT_name("_f_findfile"), DW_AT_symbol_name("__f_findfile")
    1769                      .dwattr DW$220, DW_AT_low_pc(__f_findfile)
    1770                      .dwattr DW$220, DW_AT_high_pc(0x00)
    1771                      .dwattr DW$220, DW_AT_begin_file("fat.c")
    1772                      .dwattr DW$220, DW_AT_begin_line(0x17e)
    1773                      .dwattr DW$220, DW_AT_begin_column(0x0c)
    1774                      .dwattr DW$220, DW_AT_frame_base[DW_OP_breg20 -18]
    1775                      .dwattr DW$220, DW_AT_skeletal(0x01)
    1776                      .dwpsn  "fat.c",382,88
    1777              
    1778              ;***************************************************************
    1779              ;* FNAME: __f_findfile                  FR SIZE:  16           *
    1780              ;*                                                             *
    1781              ;* FUNCTION ENVIRONMENT                                        *
    1782              ;*                                                             *
    1783              ;* FUNCTION PROPERTIES                                         *
    1784              ;*                            0 Parameter, 10 Auto,  6 SOE     *
    1785              ;***************************************************************
    1786              
TMS320C2000 COFF Assembler PC v4.1.3 Thu Aug 18 12:16:14 2016

Tools Copyright (c) 1996-2006 Texas Instruments Incorporated
fat.asm                                                              PAGE   35

    1787              __f_findfile:
    1788              ;* AR4   assigned to _vi
    1789              DW$221  .dwtag  DW_TAG_formal_parameter, DW_AT_name("vi"), DW_AT_symbol_name("_vi")
    1790                      .dwattr DW$221, DW_AT_type(*DW$T$89)
    1791                      .dwattr DW$221, DW_AT_location[DW_OP_reg12]
    1792              ;* AR5   assigned to _name
    1793              DW$222  .dwtag  DW_TAG_formal_parameter, DW_AT_name("name"), DW_AT_symbol_name("_name")
    1794                      .dwattr DW$222, DW_AT_type(*DW$T$59)
    1795                      .dwattr DW$222, DW_AT_location[DW_OP_reg14]
    1796              DW$223  .dwtag  DW_TAG_formal_parameter, DW_AT_name("ext"), DW_AT_symbol_name("_ext")
    1797                      .dwattr DW$223, DW_AT_type(*DW$T$59)
    1798                      .dwattr DW$223, DW_AT_location[DW_OP_breg20 -20]
    1799              DW$224  .dwtag  DW_TAG_formal_parameter, DW_AT_name("pos"), DW_AT_symbol_name("_pos")
    1800                      .dwattr DW$224, DW_AT_type(*DW$T$66)
    1801                      .dwattr DW$224, DW_AT_location[DW_OP_breg20 -22]
    1802              DW$225  .dwtag  DW_TAG_formal_parameter, DW_AT_name("pde"), DW_AT_symbol_name("_pde")
    1803                      .dwattr DW$225, DW_AT_type(*DW$T$152)
    1804                      .dwattr DW$225, DW_AT_location[DW_OP_breg20 -24]
    1805 00000255 B2BD          MOVL      *SP++,XAR1
    1806 00000256 AABD          MOVL      *SP++,XAR2
    1807 00000257 A2BD          MOVL      *SP++,XAR3
    1808 00000258 FE0A          ADDB      SP,#10
    1809 00000259 0658          MOVL      ACC,*-SP[24]          ; |382| 
    1810 0000025a 1E48          MOVL      *-SP[8],ACC           ; |382| 
    1811 0000025b A044          MOVL      *-SP[4],XAR5          ; |382| 
    1812 0000025c 28A9          MOV       AL,#65520
         0000025d FFF0 
    1813 0000025e 8256          MOVL      XAR3,*-SP[22]         ; |382| 
    1814 0000025f A846          MOVL      *-SP[6],XAR4          ; |382| 
    1815 00000260 28A8          MOV       AH,#4095
         00000261 0FFF 
    1816 00000262 8654          MOVL      XAR2,*-SP[20]         ; |382| 
    1817 00000263 0FC3          CMPL      ACC,*+XAR3[0]         ; |384| 
    1818 00000264 56C9          BF        L70,LOS               ; |384| 
         00000265 008E 
    1819                      ; branchcc occurs ; |384| 
    1820              L60:    
    1821              DW$L$__f_findfile$2$B:
    1822                      .dwpsn  "fat.c",384,0
    1823 00000266 D008          MOVB      XAR0,#8               ; |386| 
    1824 00000267 0693          MOVL      ACC,*+XAR3[AR0]       ; |386| 
    1825 00000268 0FF3          CMPL      ACC,*+XAR3[6]         ; |386| 
    1826 00000269 56C9          BF        L68,LOS               ; |386| 
         0000026a 005E 
    1827                      ; branchcc occurs ; |386| 
    1828              DW$L$__f_findfile$2$E:
    1829              L61:    
    1830              DW$L$__f_findfile$3$B:
    1831                      .dwpsn  "fat.c",386,0
    1832 0000026b D00A          MOVB      XAR0,#10              ; |387| 
    1833 0000026c A346          MOVL      P,*-SP[6]             ; |387| 
    1834 0000026d 0693          MOVL      ACC,*+XAR3[AR0]       ; |387| 
    1835 0000026e 8F00          MOVL      XAR4,#602             ; |387| 
         0000026f 025A 
    1836 00000270 FF34          LSL       ACC,5                 ; |387| 
TMS320C2000 COFF Assembler PC v4.1.3 Thu Aug 18 12:16:14 2016

Tools Copyright (c) 1996-2006 Texas Instruments Incorporated
fat.asm                                                              PAGE   36

    1837 00000271 5601          ADDL      P,ACC
         00000272 00AB 
    1838 00000273 5657          ADDUL     P,XAR4
         00000274 00A4 
    1839 00000275 8A46          MOVL      XAR4,*-SP[6]          ; |389| 
    1840 00000276 A94A          MOVL      *-SP[10],P            ; |387| 
    1841 00000277 06F3          MOVL      ACC,*+XAR3[6]         ; |389| 
    1842 00000278 7640'         LCR       #__f_getdirsector     ; |389| 
         00000279 0000 
    1843                      ; call occurs [#__f_getdirsector] ; |389| 
    1844 0000027a 5200          CMPB      AL,#0                 ; |389| 
    1845 0000027b ED77          BF        L70,NEQ               ; |389| 
    1846                      ; branchcc occurs ; |389| 
    1847 0000027c       DW$L$__f_findfile$3$E:
    1848 0000027c       DW$L$__f_findfile$4$B:
    1849 0000027c 0210          MOVB      ACC,#16
    1850 0000027d D00A          MOVB      XAR0,#10              ; |391| 
    1851 0000027e 0F93          CMPL      ACC,*+XAR3[AR0]       ; |391| 
    1852 0000027f 56C9          BF        L67,LOS               ; |391| 
         00000280 003E 
    1853                      ; branchcc occurs ; |391| 
    1854              DW$L$__f_findfile$4$E:
    1855              L62:    
    1856              DW$L$__f_findfile$5$B:
    1857                      .dwpsn  "fat.c",391,0
    1858 00000281 8A4A          MOVL      XAR4,*-SP[10]
    1859 00000282 92C4          MOV       AL,*+XAR4[0]          ; |394| 
    1860 00000283 EC2B          BF        L66,EQ                ; |394| 
    1861                      ; branchcc occurs ; |394| 
    1862 00000284       DW$L$__f_findfile$5$E:
    1863 00000284       DW$L$__f_findfile$6$B:
    1864 00000284 52E5          CMPB      AL,#229               ; |394| 
    1865 00000285 EC29          BF        L66,EQ                ; |394| 
    1866                      ; branchcc occurs ; |394| 
    1867 00000286       DW$L$__f_findfile$6$E:
    1868 00000286       DW$L$__f_findfile$7$B:
    1869 00000286 8A4A          MOVL      XAR4,*-SP[10]         ; |394| 
    1870 00000287 D00B          MOVB      XAR0,#11              ; |394| 
    1871 00000288 4394          TBIT      *+XAR4[AR0],#3        ; |394| 
    1872 00000289 EE25          BF        L66,TC                ; |394| 
    1873                      ; branchcc occurs ; |394| 
    1874              DW$L$__f_findfile$7$E:
    1875              DW$L$__f_findfile$8$B:
    1876                      .dwpsn  "fat.c",398,0
    1877 0000028a D000          MOVB      XAR0,#0
    1878 0000028b       DW$L$__f_findfile$8$E:
    1879 0000028b       L63:    
    1880 0000028b       DW$L$__f_findfile$9$B:
    1881 0000028b 8A44          MOVL      XAR4,*-SP[4]
    1882 0000028c 9294          MOV       AL,*+XAR4[AR0]        ; |399| 
    1883 0000028d 8A4A          MOVL      XAR4,*-SP[10]         ; |399| 
    1884 0000028e 5494          CMP       AL,*+XAR4[AR0]        ; |399| 
    1885 0000028f ED1F          BF        L66,NEQ               ; |399| 
    1886                      ; branchcc occurs ; |399| 
    1887 00000290       DW$L$__f_findfile$9$E:
TMS320C2000 COFF Assembler PC v4.1.3 Thu Aug 18 12:16:14 2016

Tools Copyright (c) 1996-2006 Texas Instruments Incorporated
fat.asm                                                              PAGE   37

    1888 00000290       DW$L$__f_findfile$10$B:
    1889 00000290 D801          ADDB      XAR0,#1               ; |398| 
    1890 00000291 92A0          MOV       AL,AR0                ; |398| 
    1891 00000292 5208          CMPB      AL,#8                 ; |398| 
    1892                      .dwpsn  "fat.c",403,0
    1893 00000293 56C8          BF        L63,LO                ; |398| 
         00000294 FFF8 
    1894                      ; branchcc occurs ; |398| 
    1895 00000295       DW$L$__f_findfile$10$E:
    1896 00000295       DW$L$__f_findfile$11$B:
    1897 00000295 9A01          MOVB      AL,#1                 ; |398| 
    1898 00000296 EC18          BF        L66,EQ                ; |405| 
    1899                      ; branchcc occurs ; |405| 
    1900 00000297       DW$L$__f_findfile$11$E:
    1901 00000297       DW$L$__f_findfile$12$B:
    1902 00000297 D000          MOVB      XAR0,#0
    1903                      .dwpsn  "fat.c",407,0
    1904 00000298 D108          MOVB      XAR1,#8               ; |408| 
    1905 00000299       DW$L$__f_findfile$12$E:
    1906 00000299       L64:    
    1907 00000299       DW$L$__f_findfile$13$B:
    1908 00000299 064A          MOVL      ACC,*-SP[10]          ; |408| 
    1909 0000029a 0DA0          ADDU      ACC,AR0               ; |408| 
    1910 0000029b 8AA9          MOVL      XAR4,ACC              ; |408| 
    1911 0000029c 9292          MOV       AL,*+XAR2[AR0]        ; |408| 
    1912 0000029d 549C          CMP       AL,*+XAR4[AR1]        ; |408| 
    1913 0000029e ED10          BF        L66,NEQ               ; |408| 
    1914                      ; branchcc occurs ; |408| 
    1915 0000029f       DW$L$__f_findfile$13$E:
    1916 0000029f       DW$L$__f_findfile$14$B:
    1917 0000029f D801          ADDB      XAR0,#1               ; |407| 
    1918 000002a0 92A0          MOV       AL,AR0                ; |407| 
    1919 000002a1 5203          CMPB      AL,#3                 ; |407| 
    1920                      .dwpsn  "fat.c",412,0
    1921 000002a2 56C8          BF        L64,LO                ; |407| 
         000002a3 FFF7 
    1922                      ; branchcc occurs ; |407| 
    1923 000002a4       DW$L$__f_findfile$14$E:
    1924 000002a4       DW$L$__f_findfile$15$B:
    1925 000002a4 9A01          MOVB      AL,#1                 ; |398| 
    1926 000002a5 EC09          BF        L66,EQ                ; |414| 
    1927                      ; branchcc occurs ; |414| 
    1928 000002a6       DW$L$__f_findfile$15$E:
    1929 000002a6 0648          MOVL      ACC,*-SP[8]
    1930 000002a7 EC04          BF        L65,EQ                ; |415| 
    1931                      ; branchcc occurs ; |415| 
    1932 000002a8 8A48          MOVL      XAR4,*-SP[8]
    1933 000002a9 064A          MOVL      ACC,*-SP[10]
    1934 000002aa 1EC4          MOVL      *+XAR4[0],ACC         ; |415| 
    1935 000002ab       L65:    
    1936 000002ab 9A01          MOVB      AL,#1                 ; |416| 
    1937 000002ac 56CF          BF        L71,UNC               ; |416| 
         000002ad 0047 
    1938                      ; branch occurs ; |416| 
    1939 000002ae       L66:    
TMS320C2000 COFF Assembler PC v4.1.3 Thu Aug 18 12:16:14 2016

Tools Copyright (c) 1996-2006 Texas Instruments Incorporated
fat.asm                                                              PAGE   38

    1940 000002ae       DW$L$__f_findfile$19$B:
    1941 000002ae 064A          MOVL      ACC,*-SP[10]          ; |391| 
    1942 000002af D420          MOVB      XAR4,#32              ; |391| 
    1943 000002b0 0DA4          ADDU      ACC,AR4               ; |391| 
    1944 000002b1 1E4A          MOVL      *-SP[10],ACC          ; |391| 
    1945 000002b2 020A          MOVB      ACC,#10
    1946 000002b3 07A3          ADDL      ACC,XAR3
    1947 000002b4 8AA9          MOVL      XAR4,ACC              ; |391| 
    1948 000002b5 D00A          MOVB      XAR0,#10              ; |391| 
    1949 000002b6 0201          MOVB      ACC,#1
    1950 000002b7 5601          ADDL      *+XAR4[0],ACC         ; |391| 
         000002b8 00C4 
    1951 000002b9 0210          MOVB      ACC,#16
    1952 000002ba 0F93          CMPL      ACC,*+XAR3[AR0]       ; |391| 
    1953                      .dwpsn  "fat.c",418,0
    1954 000002bb 56C6          BF        L62,HI                ; |391| 
         000002bc FFC6 
    1955                      ; branchcc occurs ; |391| 
    1956 000002bd       DW$L$__f_findfile$19$E:
    1957 000002bd       L67:    
    1958 000002bd       DW$L$__f_findfile$20$B:
    1959 000002bd 0200          MOVB      ACC,#0
    1960 000002be 1E93          MOVL      *+XAR3[AR0],ACC       ; |420| 
    1961 000002bf 0201          MOVB      ACC,#1
    1962 000002c0 D008          MOVB      XAR0,#8               ; |386| 
    1963 000002c1 5601          ADDL      *+XAR3[6],ACC         ; |386| 
         000002c2 00F3 
    1964 000002c3 0693          MOVL      ACC,*+XAR3[AR0]       ; |386| 
    1965 000002c4 0FF3          CMPL      ACC,*+XAR3[6]         ; |386| 
    1966                      .dwpsn  "fat.c",421,0
    1967 000002c5 56C6          BF        L61,HI                ; |386| 
         000002c6 FFA6 
    1968                      ; branchcc occurs ; |386| 
    1969 000002c7       DW$L$__f_findfile$20$E:
    1970 000002c7       L68:    
    1971 000002c7       DW$L$__f_findfile$21$B:
    1972 000002c7 06C3          MOVL      ACC,*+XAR3[0]         ; |423| 
    1973 000002c8 ED0B          BF        L69,NEQ               ; |423| 
    1974                      ; branchcc occurs ; |423| 
    1975 000002c9       DW$L$__f_findfile$21$E:
    1976 000002c9       DW$L$__f_findfile$22$B:
    1977 000002c9 8D00          MOVL      XAR0,#1136            ; |424| 
         000002ca 0470 
    1978 000002cb 8A46          MOVL      XAR4,*-SP[6]          ; |424| 
    1979 000002cc 0203          MOVB      ACC,#3
    1980 000002cd 0F94          CMPL      ACC,*+XAR4[AR0]       ; |424| 
    1981 000002ce ED24          BF        L70,NEQ               ; |424| 
    1982                      ; branchcc occurs ; |424| 
    1983 000002cf       DW$L$__f_findfile$22$E:
    1984 000002cf       DW$L$__f_findfile$23$B:
    1985 000002cf 8A46          MOVL      XAR4,*-SP[6]          ; |425| 
    1986 000002d0 D020          MOVB      XAR0,#32              ; |425| 
    1987 000002d1 0694          MOVL      ACC,*+XAR4[AR0]       ; |425| 
    1988 000002d2 1EC3          MOVL      *+XAR3[0],ACC         ; |425| 
    1989 000002d3       DW$L$__f_findfile$23$E:
TMS320C2000 COFF Assembler PC v4.1.3 Thu Aug 18 12:16:14 2016

Tools Copyright (c) 1996-2006 Texas Instruments Incorporated
fat.asm                                                              PAGE   39

    1990 000002d3       L69:    
    1991 000002d3       DW$L$__f_findfile$24$B:
    1992 000002d3 5DAD          MOVZ      AR5,SP                ; |432| 
    1993 000002d4 8A46          MOVL      XAR4,*-SP[6]          ; |432| 
    1994 000002d5 06C3          MOVL      ACC,*+XAR3[0]         ; |432| 
    1995 000002d6 DD82          SUBB      XAR5,#2               ; |432| 
    1996 000002d7 7640!         LCR       #__f_getclustervalue  ; |432| 
         000002d8 0000 
    1997                      ; call occurs [#__f_getclustervalue] ; |432| 
    1998 000002d9 5200          CMPB      AL,#0                 ; |432| 
    1999 000002da ED18          BF        L70,NEQ               ; |432| 
    2000                      ; branchcc occurs ; |432| 
    2001 000002db       DW$L$__f_findfile$24$E:
    2002 000002db       DW$L$__f_findfile$25$B:
    2003 000002db 0202          MOVB      ACC,#2
    2004 000002dc 0F42          CMPL      ACC,*-SP[2]           ; |432| 
    2005 000002dd 56C6          BF        L70,HI                ; |432| 
         000002de 0015 
    2006                      ; branchcc occurs ; |432| 
    2007 000002df       DW$L$__f_findfile$25$E:
    2008 000002df       DW$L$__f_findfile$26$B:
    2009 000002df 28A9          MOV       AL,#65520
         000002e0 FFF0 
    2010 000002e1 28A8          MOV       AH,#4095
         000002e2 0FFF 
    2011 000002e3 0F42          CMPL      ACC,*-SP[2]           ; |432| 
    2012 000002e4 56C9          BF        L70,LOS               ; |432| 
         000002e5 000E 
    2013                      ; branchcc occurs ; |432| 
    2014 000002e6       DW$L$__f_findfile$26$E:
    2015 000002e6       DW$L$__f_findfile$27$B:
    2016 000002e6 8A46          MOVL      XAR4,*-SP[6]
    2017 000002e7 83A3          MOVL      XAR5,XAR3             ; |436| 
    2018 000002e8 0642          MOVL      ACC,*-SP[2]           ; |436| 
    2019 000002e9 7640!         LCR       #__f_clustertopos     ; |436| 
         000002ea 0000 
    2020                      ; call occurs [#__f_clustertopos] ; |436| 
    2021 000002eb 28A9          MOV       AL,#65520
         000002ec FFF0 
    2022 000002ed 28A8          MOV       AH,#4095
         000002ee 0FFF 
    2023 000002ef 0FC3          CMPL      ACC,*+XAR3[0]         ; |436| 
    2024                      .dwpsn  "fat.c",439,0
    2025 000002f0 56C6          BF        L60,HI                ; |436| 
         000002f1 FF76 
    2026                      ; branchcc occurs ; |436| 
    2027 000002f2       DW$L$__f_findfile$27$E:
    2028 000002f2       L70:    
    2029 000002f2 9A00          MOVB      AL,#0
    2030 000002f3       L71:    
    2031 000002f3 FE8A          SUBB      SP,#10                ; |441| 
    2032 000002f4 82BE          MOVL      XAR3,*--SP            ; |441| 
    2033 000002f5 86BE          MOVL      XAR2,*--SP            ; |441| 
    2034 000002f6 8BBE          MOVL      XAR1,*--SP            ; |441| 
    2035                      .dwpsn  "fat.c",442,1
TMS320C2000 COFF Assembler PC v4.1.3 Thu Aug 18 12:16:14 2016

Tools Copyright (c) 1996-2006 Texas Instruments Incorporated
fat.asm                                                              PAGE   40

    2036 000002f7 0006          LRETR
    2037                      ; return occurs
    2038              
    2039              DW$226  .dwtag  DW_TAG_loop
    2040                      .dwattr DW$226, DW_AT_name("D:\DEV\Amot\BearingWear\XTSW_V6_20\fat.asm:L60:1:1471518973")
    2041                      .dwattr DW$226, DW_AT_begin_file("fat.c")
    2042                      .dwattr DW$226, DW_AT_begin_line(0x180)
    2043                      .dwattr DW$226, DW_AT_end_line(0x1b7)
    2044              DW$227  .dwtag  DW_TAG_loop_range
    2045                      .dwattr DW$227, DW_AT_low_pc(DW$L$__f_findfile$2$B)
    2046                      .dwattr DW$227, DW_AT_high_pc(DW$L$__f_findfile$2$E)
    2047              DW$228  .dwtag  DW_TAG_loop_range
    2048                      .dwattr DW$228, DW_AT_low_pc(DW$L$__f_findfile$22$B)
    2049                      .dwattr DW$228, DW_AT_high_pc(DW$L$__f_findfile$22$E)
    2050              DW$229  .dwtag  DW_TAG_loop_range
    2051                      .dwattr DW$229, DW_AT_low_pc(DW$L$__f_findfile$21$B)
    2052                      .dwattr DW$229, DW_AT_high_pc(DW$L$__f_findfile$21$E)
    2053              DW$230  .dwtag  DW_TAG_loop_range
    2054                      .dwattr DW$230, DW_AT_low_pc(DW$L$__f_findfile$23$B)
    2055                      .dwattr DW$230, DW_AT_high_pc(DW$L$__f_findfile$23$E)
    2056              DW$231  .dwtag  DW_TAG_loop_range
    2057                      .dwattr DW$231, DW_AT_low_pc(DW$L$__f_findfile$24$B)
    2058                      .dwattr DW$231, DW_AT_high_pc(DW$L$__f_findfile$24$E)
    2059              DW$232  .dwtag  DW_TAG_loop_range
    2060                      .dwattr DW$232, DW_AT_low_pc(DW$L$__f_findfile$25$B)
    2061                      .dwattr DW$232, DW_AT_high_pc(DW$L$__f_findfile$25$E)
    2062              DW$233  .dwtag  DW_TAG_loop_range
    2063                      .dwattr DW$233, DW_AT_low_pc(DW$L$__f_findfile$26$B)
    2064                      .dwattr DW$233, DW_AT_high_pc(DW$L$__f_findfile$26$E)
    2065              DW$234  .dwtag  DW_TAG_loop_range
    2066                      .dwattr DW$234, DW_AT_low_pc(DW$L$__f_findfile$27$B)
    2067                      .dwattr DW$234, DW_AT_high_pc(DW$L$__f_findfile$27$E)
    2068              
    2069              DW$235  .dwtag  DW_TAG_loop
    2070                      .dwattr DW$235, DW_AT_name("D:\DEV\Amot\BearingWear\XTSW_V6_20\fat.asm:L61:2:1471518973")
    2071                      .dwattr DW$235, DW_AT_begin_file("fat.c")
    2072                      .dwattr DW$235, DW_AT_begin_line(0x182)
    2073                      .dwattr DW$235, DW_AT_end_line(0x1a5)
    2074              DW$236  .dwtag  DW_TAG_loop_range
    2075                      .dwattr DW$236, DW_AT_low_pc(DW$L$__f_findfile$3$B)
    2076                      .dwattr DW$236, DW_AT_high_pc(DW$L$__f_findfile$3$E)
    2077              DW$237  .dwtag  DW_TAG_loop_range
    2078                      .dwattr DW$237, DW_AT_low_pc(DW$L$__f_findfile$4$B)
    2079                      .dwattr DW$237, DW_AT_high_pc(DW$L$__f_findfile$4$E)
    2080              DW$238  .dwtag  DW_TAG_loop_range
    2081                      .dwattr DW$238, DW_AT_low_pc(DW$L$__f_findfile$20$B)
    2082                      .dwattr DW$238, DW_AT_high_pc(DW$L$__f_findfile$20$E)
    2083              
    2084              DW$239  .dwtag  DW_TAG_loop
    2085                      .dwattr DW$239, DW_AT_name("D:\DEV\Amot\BearingWear\XTSW_V6_20\fat.asm:L62:3:1471518973")
    2086                      .dwattr DW$239, DW_AT_begin_file("fat.c")
    2087                      .dwattr DW$239, DW_AT_begin_line(0x187)
    2088                      .dwattr DW$239, DW_AT_end_line(0x1a2)
    2089              DW$240  .dwtag  DW_TAG_loop_range
    2090                      .dwattr DW$240, DW_AT_low_pc(DW$L$__f_findfile$5$B)
TMS320C2000 COFF Assembler PC v4.1.3 Thu Aug 18 12:16:14 2016

Tools Copyright (c) 1996-2006 Texas Instruments Incorporated
fat.asm                                                              PAGE   41

    2091                      .dwattr DW$240, DW_AT_high_pc(DW$L$__f_findfile$5$E)
    2092              DW$241  .dwtag  DW_TAG_loop_range
    2093                      .dwattr DW$241, DW_AT_low_pc(DW$L$__f_findfile$12$B)
    2094                      .dwattr DW$241, DW_AT_high_pc(DW$L$__f_findfile$12$E)
    2095              DW$242  .dwtag  DW_TAG_loop_range
    2096                      .dwattr DW$242, DW_AT_low_pc(DW$L$__f_findfile$8$B)
    2097                      .dwattr DW$242, DW_AT_high_pc(DW$L$__f_findfile$8$E)
    2098              DW$243  .dwtag  DW_TAG_loop_range
    2099                      .dwattr DW$243, DW_AT_low_pc(DW$L$__f_findfile$6$B)
    2100                      .dwattr DW$243, DW_AT_high_pc(DW$L$__f_findfile$6$E)
    2101              DW$244  .dwtag  DW_TAG_loop_range
    2102                      .dwattr DW$244, DW_AT_low_pc(DW$L$__f_findfile$7$B)
    2103                      .dwattr DW$244, DW_AT_high_pc(DW$L$__f_findfile$7$E)
    2104              DW$245  .dwtag  DW_TAG_loop_range
    2105                      .dwattr DW$245, DW_AT_low_pc(DW$L$__f_findfile$11$B)
    2106                      .dwattr DW$245, DW_AT_high_pc(DW$L$__f_findfile$11$E)
    2107              DW$246  .dwtag  DW_TAG_loop_range
    2108                      .dwattr DW$246, DW_AT_low_pc(DW$L$__f_findfile$15$B)
    2109                      .dwattr DW$246, DW_AT_high_pc(DW$L$__f_findfile$15$E)
    2110              DW$247  .dwtag  DW_TAG_loop_range
    2111                      .dwattr DW$247, DW_AT_low_pc(DW$L$__f_findfile$19$B)
    2112                      .dwattr DW$247, DW_AT_high_pc(DW$L$__f_findfile$19$E)
    2113              
    2114              DW$248  .dwtag  DW_TAG_loop
    2115                      .dwattr DW$248, DW_AT_name("D:\DEV\Amot\BearingWear\XTSW_V6_20\fat.asm:L63:4:1471518973")
    2116                      .dwattr DW$248, DW_AT_begin_file("fat.c")
    2117                      .dwattr DW$248, DW_AT_begin_line(0x18e)
    2118                      .dwattr DW$248, DW_AT_end_line(0x193)
    2119              DW$249  .dwtag  DW_TAG_loop_range
    2120                      .dwattr DW$249, DW_AT_low_pc(DW$L$__f_findfile$9$B)
    2121                      .dwattr DW$249, DW_AT_high_pc(DW$L$__f_findfile$9$E)
    2122              DW$250  .dwtag  DW_TAG_loop_range
    2123                      .dwattr DW$250, DW_AT_low_pc(DW$L$__f_findfile$10$B)
    2124                      .dwattr DW$250, DW_AT_high_pc(DW$L$__f_findfile$10$E)
    2125                      .dwendtag DW$248
    2126              
    2127              
    2128              DW$251  .dwtag  DW_TAG_loop
    2129                      .dwattr DW$251, DW_AT_name("D:\DEV\Amot\BearingWear\XTSW_V6_20\fat.asm:L64:4:1471518973")
    2130                      .dwattr DW$251, DW_AT_begin_file("fat.c")
    2131                      .dwattr DW$251, DW_AT_begin_line(0x197)
    2132                      .dwattr DW$251, DW_AT_end_line(0x19c)
    2133              DW$252  .dwtag  DW_TAG_loop_range
    2134                      .dwattr DW$252, DW_AT_low_pc(DW$L$__f_findfile$13$B)
    2135                      .dwattr DW$252, DW_AT_high_pc(DW$L$__f_findfile$13$E)
    2136              DW$253  .dwtag  DW_TAG_loop_range
    2137                      .dwattr DW$253, DW_AT_low_pc(DW$L$__f_findfile$14$B)
    2138                      .dwattr DW$253, DW_AT_high_pc(DW$L$__f_findfile$14$E)
    2139                      .dwendtag DW$251
    2140              
    2141                      .dwendtag DW$239
    2142              
    2143                      .dwendtag DW$235
    2144              
    2145                      .dwendtag DW$226
TMS320C2000 COFF Assembler PC v4.1.3 Thu Aug 18 12:16:14 2016

Tools Copyright (c) 1996-2006 Texas Instruments Incorporated
fat.asm                                                              PAGE   42

    2146              
    2147                      .dwattr DW$220, DW_AT_end_file("fat.c")
    2148                      .dwattr DW$220, DW_AT_end_line(0x1ba)
    2149                      .dwattr DW$220, DW_AT_end_column(0x01)
    2150                      .dwendtag DW$220
    2151              
    2152 000002f8               .sect   ".text"
    2153                      .global __f_cmp_wname
    2154              
    2155              DW$254  .dwtag  DW_TAG_subprogram, DW_AT_name("_f_cmp_wname"), DW_AT_symbol_name("__f_cmp_wname")
    2156                      .dwattr DW$254, DW_AT_low_pc(__f_cmp_wname)
    2157                      .dwattr DW$254, DW_AT_high_pc(0x00)
    2158                      .dwattr DW$254, DW_AT_begin_file("fat.c")
    2159                      .dwattr DW$254, DW_AT_begin_line(0x1cf)
    2160                      .dwattr DW$254, DW_AT_begin_column(0x05)
    2161                      .dwattr DW$254, DW_AT_frame_base[DW_OP_breg20 -2]
    2162                      .dwattr DW$254, DW_AT_skeletal(0x01)
    2163                      .dwpsn  "fat.c",464,1
    2164              
    2165              ;***************************************************************
    2166              ;* FNAME: __f_cmp_wname                 FR SIZE:   0           *
    2167              ;*                                                             *
    2168              ;* FUNCTION ENVIRONMENT                                        *
    2169              ;*                                                             *
    2170              ;* FUNCTION PROPERTIES                                         *
    2171              ;*                            0 Parameter,  0 Auto,  0 SOE     *
    2172              ;***************************************************************
    2173              
    2174              __f_cmp_wname:
    2175              ;* AR4   assigned to _wname
    2176              DW$255  .dwtag  DW_TAG_formal_parameter, DW_AT_name("wname"), DW_AT_symbol_name("_wname")
    2177                      .dwattr DW$255, DW_AT_type(*DW$T$146)
    2178                      .dwattr DW$255, DW_AT_location[DW_OP_reg12]
    2179              ;* AR5   assigned to _name
    2180              DW$256  .dwtag  DW_TAG_formal_parameter, DW_AT_name("name"), DW_AT_symbol_name("_name")
    2181                      .dwattr DW$256, DW_AT_type(*DW$T$146)
    2182                      .dwattr DW$256, DW_AT_location[DW_OP_reg14]
    2183 000002f8 D000          MOVB      XAR0,#0
    2184 000002f9 2BAB          MOV       PL,#0                 ; |471| 
    2185 000002fa 56CF          BF        L78,UNC
         000002fb 002A 
    2186                      ; branch occurs
    2187 000002fc       L72:    
    2188 000002fc       DW$L$__f_cmp_wname$2$B:
    2189 000002fc 92AB          MOV       AL,PL
    2190 000002fd ED1D          BF        L76,NEQ               ; |484| 
    2191                      ; branchcc occurs ; |484| 
    2192 000002fe       DW$L$__f_cmp_wname$2$E:
    2193 000002fe       DW$L$__f_cmp_wname$3$B:
    2194 000002fe 93C4          MOV       AH,*+XAR4[0]          ; |496| 
    2195 000002ff 532A          CMPB      AH,#42                ; |496| 
    2196 00000300 EC0E          BF        L73,EQ                ; |496| 
    2197                      ; branchcc occurs ; |496| 
    2198 00000301       DW$L$__f_cmp_wname$3$E:
    2199 00000301       DW$L$__f_cmp_wname$4$B:
TMS320C2000 COFF Assembler PC v4.1.3 Thu Aug 18 12:16:14 2016

Tools Copyright (c) 1996-2006 Texas Instruments Incorporated
fat.asm                                                              PAGE   43

    2200 00000301 533F          CMPB      AH,#63                ; |503| 
    2201 00000302 EC1E          BF        L77,EQ                ; |503| 
    2202                      ; branchcc occurs ; |503| 
    2203 00000303       DW$L$__f_cmp_wname$4$E:
    2204 00000303       DW$L$__f_cmp_wname$5$B:
    2205 00000303 92A7          MOV       AL,AR7
    2206 00000304 54A8          CMP       AL,AH                 ; |503| 
    2207 00000305 EC1B          BF        L77,EQ                ; |503| 
    2208                      ; branchcc occurs ; |503| 
    2209 00000306       DW$L$__f_cmp_wname$5$E:
    2210 00000306       DW$L$__f_cmp_wname$6$B:
    2211 00000306 3AA9          MOVL      ACC,XAR0
    2212 00000307 EC37          BF        L82,EQ                ; |505| 
    2213                      ; branchcc occurs ; |505| 
    2214 00000308       DW$L$__f_cmp_wname$6$E:
    2215 00000308       DW$L$__f_cmp_wname$7$B:
    2216 00000308 9A01          MOVB      AL,#1                 ; |507| 
    2217 00000309 83A0          MOVL      XAR5,XAR0             ; |508| 
    2218 0000030a ABA4          MOVL      XAR4,XT               ; |508| 
    2219 0000030b 27A9          MOV       PL,AL                 ; |507| 
    2220 0000030c 56CF          BF        L78,UNC               ; |510| 
         0000030d 0018 
    2221                      ; branch occurs ; |510| 
    2222 0000030e       DW$L$__f_cmp_wname$7$E:
    2223 0000030e       L73:    
    2224 0000030e       DW$L$__f_cmp_wname$8$B:
    2225 0000030e 92C4          MOV       AL,*+XAR4[0]          ; |499| 
    2226 0000030f BE01          MOVB      XAR6,#1               ; |498| 
    2227 00000310 522A          CMPB      AL,#42                ; |499| 
    2228 00000311 27A6          MOV       PL,AR6                ; |498| 
    2229 00000312 ED07          BF        L75,NEQ               ; |499| 
    2230                      ; branchcc occurs ; |499| 
    2231              DW$L$__f_cmp_wname$8$E:
    2232              L74:    
    2233              DW$L$__f_cmp_wname$9$B:
    2234                      .dwpsn  "fat.c",499,0
    2235 00000313 A8A9          MOVL      ACC,XAR4              ; |499| 
    2236 00000314 0DA6          ADDU      ACC,AR6               ; |499| 
    2237 00000315 8AA9          MOVL      XAR4,ACC              ; |499| 
    2238 00000316 92C4          MOV       AL,*+XAR4[0]          ; |499| 
    2239 00000317 522A          CMPB      AL,#42                ; |499| 
    2240 00000318 ECFB          BF        L74,EQ                ; |499| 
    2241                      ; branchcc occurs ; |499| 
    2242 00000319       DW$L$__f_cmp_wname$9$E:
    2243 00000319       L75:    
    2244 00000319       DW$L$__f_cmp_wname$10$B:
    2245 00000319 2FC4          MOV       PH,*+XAR4[0]          ; |500| 
    2246 0000031a       DW$L$__f_cmp_wname$10$E:
    2247 0000031a       L76:    
    2248 0000031a       DW$L$__f_cmp_wname$11$B:
    2249 0000031a 92AA          MOV       AL,PH
    2250 0000031b 54A7          CMP       AL,AR7                ; |487| 
    2251 0000031c ED08          BF        L78,NEQ               ; |487| 
    2252                      ; branchcc occurs ; |487| 
    2253 0000031d       DW$L$__f_cmp_wname$11$E:
TMS320C2000 COFF Assembler PC v4.1.3 Thu Aug 18 12:16:14 2016

Tools Copyright (c) 1996-2006 Texas Instruments Incorporated
fat.asm                                                              PAGE   44

    2254 0000031d       DW$L$__f_cmp_wname$12$B:
    2255 0000031d 8EA5          MOVL      XAR0,XAR5             ; |491| 
    2256 0000031e A8AC          MOVL      XT,XAR4               ; |490| 
    2257 0000031f 2BAB          MOV       PL,#0                 ; |489| 
    2258 00000320       DW$L$__f_cmp_wname$12$E:
    2259 00000320       L77:    
    2260 00000320       DW$L$__f_cmp_wname$13$B:
    2261 00000320 A8A9          MOVL      ACC,XAR4              ; |490| 
    2262 00000321 BE01          MOVB      XAR6,#1               ; |490| 
    2263 00000322 0DA6          ADDU      ACC,AR6               ; |490| 
    2264 00000323 8AA9          MOVL      XAR4,ACC              ; |490| 
    2265 00000324       DW$L$__f_cmp_wname$13$E:
    2266 00000324       L78:    
    2267 00000324       DW$L$__f_cmp_wname$14$B:
    2268 00000324 8085          MOVZ      AR7,*XAR5++           ; |475| 
    2269 00000325 92A7          MOV       AL,AR7                ; |475| 
    2270 00000326 5261          CMPB      AL,#97                ; |475| 
    2271 00000327 56C4          BF        L79,LT                ; |475| 
         00000328 0007 
    2272                      ; branchcc occurs ; |475| 
    2273 00000329       DW$L$__f_cmp_wname$14$E:
    2274 00000329       DW$L$__f_cmp_wname$15$B:
    2275 00000329 527A          CMPB      AL,#122               ; |475| 
    2276 0000032a 56C2          BF        L79,GT                ; |475| 
         0000032b 0004 
    2277                      ; branchcc occurs ; |475| 
    2278 0000032c       DW$L$__f_cmp_wname$15$E:
    2279 0000032c       DW$L$__f_cmp_wname$16$B:
    2280 0000032c 9CE0          ADDB      AL,#-32
    2281 0000032d 80A9          MOVZ      AR7,AL                ; |476| 
    2282 0000032e       DW$L$__f_cmp_wname$16$E:
    2283 0000032e       L79:    
    2284 0000032e       DW$L$__f_cmp_wname$17$B:
    2285 0000032e 5200          CMPB      AL,#0                 ; |477| 
    2286 0000032f EDCD          BF        L72,NEQ               ; |477| 
    2287                      ; branchcc occurs ; |477| 
    2288 00000330       DW$L$__f_cmp_wname$17$E:
    2289 00000330 D501          MOVB      XAR5,#1               ; |479| 
    2290 00000331 56CF          BF        L81,UNC               ; |479| 
         00000332 0005 
    2291                      ; branch occurs ; |479| 
    2292 00000333       L80:    
    2293 00000333       DW$L$__f_cmp_wname$19$B:
    2294 00000333 A8A9          MOVL      ACC,XAR4              ; |479| 
    2295 00000334 0DA5          ADDU      ACC,AR5               ; |479| 
    2296 00000335 8AA9          MOVL      XAR4,ACC              ; |479| 
    2297 00000336       DW$L$__f_cmp_wname$19$E:
    2298 00000336       L81:    
    2299 00000336       DW$L$__f_cmp_wname$20$B:
    2300 00000336 92C4          MOV       AL,*+XAR4[0]          ; |479| 
    2301 00000337 523F          CMPB      AL,#63                ; |479| 
    2302 00000338 ECFB          BF        L80,EQ                ; |479| 
    2303                      ; branchcc occurs ; |479| 
    2304 00000339       DW$L$__f_cmp_wname$20$E:
    2305 00000339       DW$L$__f_cmp_wname$21$B:
TMS320C2000 COFF Assembler PC v4.1.3 Thu Aug 18 12:16:14 2016

Tools Copyright (c) 1996-2006 Texas Instruments Incorporated
fat.asm                                                              PAGE   45

    2306 00000339 92C4          MOV       AL,*+XAR4[0]          ; |479| 
    2307 0000033a 522A          CMPB      AL,#42                ; |479| 
    2308 0000033b ECF8          BF        L80,EQ                ; |479| 
    2309                      ; branchcc occurs ; |479| 
    2310 0000033c       DW$L$__f_cmp_wname$21$E:
    2311 0000033c 92C4          MOV       AL,*+XAR4[0]          ; |480| 
    2312 0000033d EC04          BF        L83,EQ                ; |480| 
    2313                      ; branchcc occurs ; |480| 
    2314 0000033e       L82:    
    2315 0000033e 9A00          MOVB      AL,#0
    2316 0000033f 56CF          BF        L84,UNC               ; |511| 
         00000340 0003 
    2317                      ; branch occurs ; |511| 
    2318 00000341       L83:    
    2319 00000341 9A01          MOVB      AL,#1                 ; |519| 
    2320              L84:    
    2321                      .dwpsn  "fat.c",520,1
    2322 00000342 0006          LRETR
    2323                      ; return occurs
    2324              
    2325              DW$257  .dwtag  DW_TAG_loop
    2326                      .dwattr DW$257, DW_AT_name("D:\DEV\Amot\BearingWear\XTSW_V6_20\fat.asm:L81:1:1471518973")
    2327                      .dwattr DW$257, DW_AT_begin_file("fat.c")
    2328                      .dwattr DW$257, DW_AT_begin_line(0x1df)
    2329                      .dwattr DW$257, DW_AT_end_line(0x1df)
    2330              DW$258  .dwtag  DW_TAG_loop_range
    2331                      .dwattr DW$258, DW_AT_low_pc(DW$L$__f_cmp_wname$20$B)
    2332                      .dwattr DW$258, DW_AT_high_pc(DW$L$__f_cmp_wname$20$E)
    2333              DW$259  .dwtag  DW_TAG_loop_range
    2334                      .dwattr DW$259, DW_AT_low_pc(DW$L$__f_cmp_wname$21$B)
    2335                      .dwattr DW$259, DW_AT_high_pc(DW$L$__f_cmp_wname$21$E)
    2336              DW$260  .dwtag  DW_TAG_loop_range
    2337                      .dwattr DW$260, DW_AT_low_pc(DW$L$__f_cmp_wname$19$B)
    2338                      .dwattr DW$260, DW_AT_high_pc(DW$L$__f_cmp_wname$19$E)
    2339                      .dwendtag DW$257
    2340              
    2341              
    2342              DW$261  .dwtag  DW_TAG_loop
    2343                      .dwattr DW$261, DW_AT_name("D:\DEV\Amot\BearingWear\XTSW_V6_20\fat.asm:L78:1:1471518973")
    2344                      .dwattr DW$261, DW_AT_begin_file("fat.c")
    2345                      .dwattr DW$261, DW_AT_begin_line(0x1db)
    2346                      .dwattr DW$261, DW_AT_end_line(0x1fe)
    2347              DW$262  .dwtag  DW_TAG_loop_range
    2348                      .dwattr DW$262, DW_AT_low_pc(DW$L$__f_cmp_wname$14$B)
    2349                      .dwattr DW$262, DW_AT_high_pc(DW$L$__f_cmp_wname$14$E)
    2350              DW$263  .dwtag  DW_TAG_loop_range
    2351                      .dwattr DW$263, DW_AT_low_pc(DW$L$__f_cmp_wname$12$B)
    2352                      .dwattr DW$263, DW_AT_high_pc(DW$L$__f_cmp_wname$12$E)
    2353              DW$264  .dwtag  DW_TAG_loop_range
    2354                      .dwattr DW$264, DW_AT_low_pc(DW$L$__f_cmp_wname$8$B)
    2355                      .dwattr DW$264, DW_AT_high_pc(DW$L$__f_cmp_wname$8$E)
    2356              DW$265  .dwtag  DW_TAG_loop_range
    2357                      .dwattr DW$265, DW_AT_low_pc(DW$L$__f_cmp_wname$10$B)
    2358                      .dwattr DW$265, DW_AT_high_pc(DW$L$__f_cmp_wname$10$E)
    2359              DW$266  .dwtag  DW_TAG_loop_range
TMS320C2000 COFF Assembler PC v4.1.3 Thu Aug 18 12:16:14 2016

Tools Copyright (c) 1996-2006 Texas Instruments Incorporated
fat.asm                                                              PAGE   46

    2360                      .dwattr DW$266, DW_AT_low_pc(DW$L$__f_cmp_wname$15$B)
    2361                      .dwattr DW$266, DW_AT_high_pc(DW$L$__f_cmp_wname$15$E)
    2362              DW$267  .dwtag  DW_TAG_loop_range
    2363                      .dwattr DW$267, DW_AT_low_pc(DW$L$__f_cmp_wname$16$B)
    2364                      .dwattr DW$267, DW_AT_high_pc(DW$L$__f_cmp_wname$16$E)
    2365              DW$268  .dwtag  DW_TAG_loop_range
    2366                      .dwattr DW$268, DW_AT_low_pc(DW$L$__f_cmp_wname$17$B)
    2367                      .dwattr DW$268, DW_AT_high_pc(DW$L$__f_cmp_wname$17$E)
    2368              DW$269  .dwtag  DW_TAG_loop_range
    2369                      .dwattr DW$269, DW_AT_low_pc(DW$L$__f_cmp_wname$2$B)
    2370                      .dwattr DW$269, DW_AT_high_pc(DW$L$__f_cmp_wname$2$E)
    2371              DW$270  .dwtag  DW_TAG_loop_range
    2372                      .dwattr DW$270, DW_AT_low_pc(DW$L$__f_cmp_wname$3$B)
    2373                      .dwattr DW$270, DW_AT_high_pc(DW$L$__f_cmp_wname$3$E)
    2374              DW$271  .dwtag  DW_TAG_loop_range
    2375                      .dwattr DW$271, DW_AT_low_pc(DW$L$__f_cmp_wname$4$B)
    2376                      .dwattr DW$271, DW_AT_high_pc(DW$L$__f_cmp_wname$4$E)
    2377              DW$272  .dwtag  DW_TAG_loop_range
    2378                      .dwattr DW$272, DW_AT_low_pc(DW$L$__f_cmp_wname$5$B)
    2379                      .dwattr DW$272, DW_AT_high_pc(DW$L$__f_cmp_wname$5$E)
    2380              DW$273  .dwtag  DW_TAG_loop_range
    2381                      .dwattr DW$273, DW_AT_low_pc(DW$L$__f_cmp_wname$6$B)
    2382                      .dwattr DW$273, DW_AT_high_pc(DW$L$__f_cmp_wname$6$E)
    2383              DW$274  .dwtag  DW_TAG_loop_range
    2384                      .dwattr DW$274, DW_AT_low_pc(DW$L$__f_cmp_wname$13$B)
    2385                      .dwattr DW$274, DW_AT_high_pc(DW$L$__f_cmp_wname$13$E)
    2386              DW$275  .dwtag  DW_TAG_loop_range
    2387                      .dwattr DW$275, DW_AT_low_pc(DW$L$__f_cmp_wname$11$B)
    2388                      .dwattr DW$275, DW_AT_high_pc(DW$L$__f_cmp_wname$11$E)
    2389              DW$276  .dwtag  DW_TAG_loop_range
    2390                      .dwattr DW$276, DW_AT_low_pc(DW$L$__f_cmp_wname$7$B)
    2391                      .dwattr DW$276, DW_AT_high_pc(DW$L$__f_cmp_wname$7$E)
    2392              
    2393              DW$277  .dwtag  DW_TAG_loop
    2394                      .dwattr DW$277, DW_AT_name("D:\DEV\Amot\BearingWear\XTSW_V6_20\fat.asm:L74:2:1471518973")
    2395                      .dwattr DW$277, DW_AT_begin_file("fat.c")
    2396                      .dwattr DW$277, DW_AT_begin_line(0x1f3)
    2397                      .dwattr DW$277, DW_AT_end_line(0x1f3)
    2398              DW$278  .dwtag  DW_TAG_loop_range
    2399                      .dwattr DW$278, DW_AT_low_pc(DW$L$__f_cmp_wname$9$B)
    2400                      .dwattr DW$278, DW_AT_high_pc(DW$L$__f_cmp_wname$9$E)
    2401                      .dwendtag DW$277
    2402              
    2403                      .dwendtag DW$261
    2404              
    2405                      .dwattr DW$254, DW_AT_end_file("fat.c")
    2406                      .dwattr DW$254, DW_AT_end_line(0x208)
    2407                      .dwattr DW$254, DW_AT_end_column(0x01)
    2408                      .dwendtag DW$254
    2409              
    2410 00000343               .sect   ".text"
    2411              
    2412              DW$279  .dwtag  DW_TAG_subprogram, DW_AT_name("_f_to_string"), DW_AT_symbol_name("__f_to_string")
    2413                      .dwattr DW$279, DW_AT_low_pc(__f_to_string)
    2414                      .dwattr DW$279, DW_AT_high_pc(0x00)
TMS320C2000 COFF Assembler PC v4.1.3 Thu Aug 18 12:16:14 2016

Tools Copyright (c) 1996-2006 Texas Instruments Incorporated
fat.asm                                                              PAGE   47

    2415                      .dwattr DW$279, DW_AT_begin_file("fat.c")
    2416                      .dwattr DW$279, DW_AT_begin_line(0x20f)
    2417                      .dwattr DW$279, DW_AT_begin_column(0x0d)
    2418                      .dwattr DW$279, DW_AT_frame_base[DW_OP_breg20 -2]
    2419                      .dwattr DW$279, DW_AT_skeletal(0x01)
    2420                      .dwpsn  "fat.c",528,1
    2421              
    2422              ;***************************************************************
    2423              ;* FNAME: __f_to_string                 FR SIZE:   0           *
    2424              ;*                                                             *
    2425              ;* FUNCTION ENVIRONMENT                                        *
    2426              ;*                                                             *
    2427              ;* FUNCTION PROPERTIES                                         *
    2428              ;*                            0 Parameter,  0 Auto,  0 SOE     *
    2429              ;***************************************************************
    2430              
    2431              __f_to_string:
    2432              ;* AR4   assigned to _r
    2433              DW$280  .dwtag  DW_TAG_formal_parameter, DW_AT_name("r"), DW_AT_symbol_name("_r")
    2434                      .dwattr DW$280, DW_AT_type(*DW$T$59)
    2435                      .dwattr DW$280, DW_AT_location[DW_OP_reg12]
    2436              ;* AR5   assigned to _name
    2437              DW$281  .dwtag  DW_TAG_formal_parameter, DW_AT_name("name"), DW_AT_symbol_name("_name")
    2438                      .dwattr DW$281, DW_AT_type(*DW$T$59)
    2439                      .dwattr DW$281, DW_AT_location[DW_OP_reg14]
    2440              DW$282  .dwtag  DW_TAG_formal_parameter, DW_AT_name("ext"), DW_AT_symbol_name("_ext")
    2441                      .dwattr DW$282, DW_AT_type(*DW$T$59)
    2442                      .dwattr DW$282, DW_AT_location[DW_OP_breg20 -4]
    2443 00000343 3B01          SETC      SXM
    2444 00000344 8E44          MOVL      XAR0,*-SP[4]          ; |528| 
    2445 00000345 2BAB          MOV       PL,#0                 ; |530| 
    2446                      .dwpsn  "fat.c",530,0
    2447 00000346 80AB          MOVZ      AR7,PL                ; |530| 
    2448 00000347       L85:    
    2449 00000347       DW$L$__f_to_string$2$B:
    2450 00000347 C4A5          MOVL      XAR6,XAR5             ; |530| 
    2451 00000348 92A7          MOV       AL,AR7
    2452 00000349 85A9          MOV       ACC,AL                ; |530| 
    2453 0000034a 5601          ADDL      XAR6,ACC
         0000034b 00A6 
    2454 0000034c 2FC6          MOV       PH,*+XAR6[0]          ; |530| 
    2455 0000034d 92AA          MOV       AL,PH                 ; |530| 
    2456 0000034e 5220          CMPB      AL,#32                ; |530| 
    2457 0000034f EC10          BF        L86,EQ                ; |530| 
    2458                      ; branchcc occurs ; |530| 
    2459 00000350       DW$L$__f_to_string$2$E:
    2460 00000350       DW$L$__f_to_string$3$B:
    2461 00000350 C4A4          MOVL      XAR6,XAR4             ; |530| 
    2462 00000351 92AB          MOV       AL,PL
    2463 00000352 85A9          MOV       ACC,AL                ; |530| 
    2464 00000353 5601          ADDL      XAR6,ACC
         00000354 00A6 
    2465 00000355 92AB          MOV       AL,PL                 ; |530| 
    2466 00000356 9C01          ADDB      AL,#1                 ; |530| 
    2467 00000357 27A9          MOV       PL,AL                 ; |530| 
TMS320C2000 COFF Assembler PC v4.1.3 Thu Aug 18 12:16:14 2016

Tools Copyright (c) 1996-2006 Texas Instruments Incorporated
fat.asm                                                              PAGE   48

    2468 00000358 92A7          MOV       AL,AR7                ; |530| 
    2469 00000359 9C01          ADDB      AL,#1                 ; |530| 
    2470 0000035a 5208          CMPB      AL,#8                 ; |530| 
    2471 0000035b 80A9          MOVZ      AR7,AL                ; |530| 
    2472 0000035c 57C6          MOVH      *+XAR6[0],P           ; |530| 
    2473 0000035d 56C4          BF        L85,LT                ; |530| 
         0000035e FFEA 
    2474                      ; branchcc occurs ; |530| 
    2475 0000035f       DW$L$__f_to_string$3$E:
    2476 0000035f       L86:    
    2477 0000035f 83A4          MOVL      XAR5,XAR4             ; |531| 
    2478 00000360 92AB          MOV       AL,PL
    2479 00000361 85A9          MOV       ACC,AL                ; |531| 
    2480 00000362 B600          MOVB      XAR7,#0
    2481 00000363 5601          ADDL      XAR5,ACC
         00000364 00A5 
    2482 00000365 3B01          SETC      SXM
    2483 00000366 92AB          MOV       AL,PL                 ; |531| 
    2484 00000367 9C01          ADDB      AL,#1                 ; |531| 
    2485 00000368 28C5          MOV       *+XAR5[0],#46         ; |531| 
         00000369 002E 
    2486                      .dwpsn  "fat.c",532,0
    2487 0000036a 27A9          MOV       PL,AL                 ; |531| 
    2488 0000036b       L87:    
    2489 0000036b       DW$L$__f_to_string$5$B:
    2490 0000036b 83A0          MOVL      XAR5,XAR0             ; |532| 
    2491 0000036c 92A7          MOV       AL,AR7
    2492 0000036d 85A9          MOV       ACC,AL                ; |532| 
    2493 0000036e 5601          ADDL      XAR5,ACC
         0000036f 00A5 
    2494 00000370 88C5          MOVZ      AR6,*+XAR5[0]         ; |532| 
    2495 00000371 92A6          MOV       AL,AR6                ; |532| 
    2496 00000372 5220          CMPB      AL,#32                ; |532| 
    2497 00000373 EC10          BF        L88,EQ                ; |532| 
    2498                      ; branchcc occurs ; |532| 
    2499 00000374       DW$L$__f_to_string$5$E:
    2500 00000374       DW$L$__f_to_string$6$B:
    2501 00000374 83A4          MOVL      XAR5,XAR4             ; |532| 
    2502 00000375 92AB          MOV       AL,PL
    2503 00000376 85A9          MOV       ACC,AL                ; |532| 
    2504 00000377 5601          ADDL      XAR5,ACC
         00000378 00A5 
    2505 00000379 92AB          MOV       AL,PL                 ; |532| 
    2506 0000037a 9C01          ADDB      AL,#1                 ; |532| 
    2507 0000037b 27A9          MOV       PL,AL                 ; |532| 
    2508 0000037c 92A7          MOV       AL,AR7                ; |532| 
    2509 0000037d 9C01          ADDB      AL,#1                 ; |532| 
    2510 0000037e 5203          CMPB      AL,#3                 ; |532| 
    2511 0000037f 80A9          MOVZ      AR7,AL                ; |532| 
    2512 00000380 7EC5          MOV       *+XAR5[0],AR6         ; |532| 
    2513 00000381 56C4          BF        L87,LT                ; |532| 
         00000382 FFEA 
    2514                      ; branchcc occurs ; |532| 
    2515 00000383       DW$L$__f_to_string$6$E:
    2516 00000383       L88:    
TMS320C2000 COFF Assembler PC v4.1.3 Thu Aug 18 12:16:14 2016

Tools Copyright (c) 1996-2006 Texas Instruments Incorporated
fat.asm                                                              PAGE   49

    2517 00000383 92AB          MOV       AL,PL
    2518 00000384 85A9          MOV       ACC,AL                ; |533| 
    2519 00000385 5601          ADDL      XAR4,ACC
         00000386 00A4 
    2520 00000387 2BC4          MOV       *+XAR4[0],#0          ; |533| 
    2521                      .dwpsn  "fat.c",534,1
    2522 00000388 0006          LRETR
    2523                      ; return occurs
    2524              
    2525              DW$283  .dwtag  DW_TAG_loop
    2526                      .dwattr DW$283, DW_AT_name("D:\DEV\Amot\BearingWear\XTSW_V6_20\fat.asm:L87:1:1471518973")
    2527                      .dwattr DW$283, DW_AT_begin_file("fat.c")
    2528                      .dwattr DW$283, DW_AT_begin_line(0x214)
    2529                      .dwattr DW$283, DW_AT_end_line(0x214)
    2530              DW$284  .dwtag  DW_TAG_loop_range
    2531                      .dwattr DW$284, DW_AT_low_pc(DW$L$__f_to_string$5$B)
    2532                      .dwattr DW$284, DW_AT_high_pc(DW$L$__f_to_string$5$E)
    2533              DW$285  .dwtag  DW_TAG_loop_range
    2534                      .dwattr DW$285, DW_AT_low_pc(DW$L$__f_to_string$6$B)
    2535                      .dwattr DW$285, DW_AT_high_pc(DW$L$__f_to_string$6$E)
    2536                      .dwendtag DW$283
    2537              
    2538              
    2539              DW$286  .dwtag  DW_TAG_loop
    2540                      .dwattr DW$286, DW_AT_name("D:\DEV\Amot\BearingWear\XTSW_V6_20\fat.asm:L85:1:1471518973")
    2541                      .dwattr DW$286, DW_AT_begin_file("fat.c")
    2542                      .dwattr DW$286, DW_AT_begin_line(0x212)
    2543                      .dwattr DW$286, DW_AT_end_line(0x212)
    2544              DW$287  .dwtag  DW_TAG_loop_range
    2545                      .dwattr DW$287, DW_AT_low_pc(DW$L$__f_to_string$2$B)
    2546                      .dwattr DW$287, DW_AT_high_pc(DW$L$__f_to_string$2$E)
    2547              DW$288  .dwtag  DW_TAG_loop_range
    2548                      .dwattr DW$288, DW_AT_low_pc(DW$L$__f_to_string$3$B)
    2549                      .dwattr DW$288, DW_AT_high_pc(DW$L$__f_to_string$3$E)
    2550                      .dwendtag DW$286
    2551              
    2552                      .dwattr DW$279, DW_AT_end_file("fat.c")
    2553                      .dwattr DW$279, DW_AT_end_line(0x216)
    2554                      .dwattr DW$279, DW_AT_end_column(0x01)
    2555                      .dwendtag DW$279
    2556              
    2557 00000389               .sect   ".text"
    2558              
    2559              DW$289  .dwtag  DW_TAG_subprogram, DW_AT_name("_f_findfilewc"), DW_AT_symbol_name("__f_findfilewc")
    2560                      .dwattr DW$289, DW_AT_low_pc(__f_findfilewc)
    2561                      .dwattr DW$289, DW_AT_high_pc(0x00)
    2562                      .dwattr DW$289, DW_AT_begin_file("fat.c")
    2563                      .dwattr DW$289, DW_AT_begin_line(0x22e)
    2564                      .dwattr DW$289, DW_AT_begin_column(0x0c)
    2565                      .dwattr DW$289, DW_AT_frame_base[DW_OP_breg20 -44]
    2566                      .dwattr DW$289, DW_AT_skeletal(0x01)
    2567                      .dwpsn  "fat.c",558,90
    2568              
    2569              ;***************************************************************
    2570              ;* FNAME: __f_findfilewc                FR SIZE:  42           *
TMS320C2000 COFF Assembler PC v4.1.3 Thu Aug 18 12:16:14 2016

Tools Copyright (c) 1996-2006 Texas Instruments Incorporated
fat.asm                                                              PAGE   50

    2571              ;*                                                             *
    2572              ;* FUNCTION ENVIRONMENT                                        *
    2573              ;*                                                             *
    2574              ;* FUNCTION PROPERTIES                                         *
    2575              ;*                            2 Parameter, 34 Auto,  6 SOE     *
    2576              ;***************************************************************
    2577              
    2578              __f_findfilewc:
    2579              ;* AR4   assigned to _vi
    2580              DW$290  .dwtag  DW_TAG_formal_parameter, DW_AT_name("vi"), DW_AT_symbol_name("_vi")
    2581                      .dwattr DW$290, DW_AT_type(*DW$T$89)
    2582                      .dwattr DW$290, DW_AT_location[DW_OP_reg12]
    2583              ;* AR5   assigned to _name
    2584              DW$291  .dwtag  DW_TAG_formal_parameter, DW_AT_name("name"), DW_AT_symbol_name("_name")
    2585                      .dwattr DW$291, DW_AT_type(*DW$T$59)
    2586                      .dwattr DW$291, DW_AT_location[DW_OP_reg14]
    2587              DW$292  .dwtag  DW_TAG_formal_parameter, DW_AT_name("ext"), DW_AT_symbol_name("_ext")
    2588                      .dwattr DW$292, DW_AT_type(*DW$T$59)
    2589                      .dwattr DW$292, DW_AT_location[DW_OP_breg20 -46]
    2590              DW$293  .dwtag  DW_TAG_formal_parameter, DW_AT_name("pos"), DW_AT_symbol_name("_pos")
    2591                      .dwattr DW$293, DW_AT_type(*DW$T$66)
    2592                      .dwattr DW$293, DW_AT_location[DW_OP_breg20 -48]
    2593              DW$294  .dwtag  DW_TAG_formal_parameter, DW_AT_name("pde"), DW_AT_symbol_name("_pde")
    2594                      .dwattr DW$294, DW_AT_type(*DW$T$152)
    2595                      .dwattr DW$294, DW_AT_location[DW_OP_breg20 -50]
    2596 00000389 B2BD          MOVL      *SP++,XAR1
    2597 0000038a AABD          MOVL      *SP++,XAR2
    2598 0000038b A2BD          MOVL      *SP++,XAR3
    2599 0000038c FE24          ADDB      SP,#36
    2600 0000038d 0672          MOVL      ACC,*-SP[50]          ; |558| 
    2601 0000038e 8BA4          MOVL      XAR1,XAR4             ; |558| 
    2602 0000038f 1E62          MOVL      *-SP[34],ACC          ; |558| 
    2603 00000390 28A9          MOV       AL,#65520
         00000391 FFF0 
    2604 00000392 8270          MOVL      XAR3,*-SP[48]         ; |558| 
    2605 00000393 A060          MOVL      *-SP[32],XAR5         ; |558| 
    2606 00000394 28A8          MOV       AH,#4095
         00000395 0FFF 
    2607 00000396 866E          MOVL      XAR2,*-SP[46]         ; |558| 
    2608 00000397 0FC3          CMPL      ACC,*+XAR3[0]         ; |560| 
    2609 00000398 56C9          BF        L97,LOS               ; |560| 
         00000399 0086 
    2610                      ; branchcc occurs ; |560| 
    2611              L89:    
    2612              DW$L$__f_findfilewc$2$B:
    2613                      .dwpsn  "fat.c",560,0
    2614 0000039a D008          MOVB      XAR0,#8               ; |562| 
    2615 0000039b 0693          MOVL      ACC,*+XAR3[AR0]       ; |562| 
    2616 0000039c 0FF3          CMPL      ACC,*+XAR3[6]         ; |562| 
    2617 0000039d 56C9          BF        L95,LOS               ; |562| 
         0000039e 0058 
    2618                      ; branchcc occurs ; |562| 
    2619              DW$L$__f_findfilewc$2$E:
    2620              L90:    
    2621              DW$L$__f_findfilewc$3$B:
TMS320C2000 COFF Assembler PC v4.1.3 Thu Aug 18 12:16:14 2016

Tools Copyright (c) 1996-2006 Texas Instruments Incorporated
fat.asm                                                              PAGE   51

    2622                      .dwpsn  "fat.c",562,0
    2623 0000039f D00A          MOVB      XAR0,#10              ; |563| 
    2624 000003a0 B2AB          MOVL      P,XAR1                ; |563| 
    2625 000003a1 0693          MOVL      ACC,*+XAR3[AR0]       ; |563| 
    2626 000003a2 8F00          MOVL      XAR4,#602             ; |563| 
         000003a3 025A 
    2627 000003a4 FF34          LSL       ACC,5                 ; |563| 
    2628 000003a5 5601          ADDL      P,ACC
         000003a6 00AB 
    2629 000003a7 5657          ADDUL     P,XAR4
         000003a8 00A4 
    2630 000003a9 8AA1          MOVL      XAR4,XAR1             ; |565| 
    2631 000003aa A964          MOVL      *-SP[36],P            ; |563| 
    2632 000003ab 06F3          MOVL      ACC,*+XAR3[6]         ; |565| 
    2633 000003ac 7640'         LCR       #__f_getdirsector     ; |565| 
         000003ad 0000 
    2634                      ; call occurs [#__f_getdirsector] ; |565| 
    2635 000003ae 5200          CMPB      AL,#0                 ; |565| 
    2636 000003af ED6F          BF        L97,NEQ               ; |565| 
    2637                      ; branchcc occurs ; |565| 
    2638 000003b0       DW$L$__f_findfilewc$3$E:
    2639 000003b0       DW$L$__f_findfilewc$4$B:
    2640 000003b0 0210          MOVB      ACC,#16
    2641 000003b1 D00A          MOVB      XAR0,#10              ; |567| 
    2642 000003b2 0F93          CMPL      ACC,*+XAR3[AR0]       ; |567| 
    2643 000003b3 56C9          BF        L94,LOS               ; |567| 
         000003b4 0038 
    2644                      ; branchcc occurs ; |567| 
    2645              DW$L$__f_findfilewc$4$E:
    2646              L91:    
    2647              DW$L$__f_findfilewc$5$B:
    2648                      .dwpsn  "fat.c",567,0
    2649 000003b5 8364          MOVL      XAR5,*-SP[36]
    2650 000003b6 92C5          MOV       AL,*+XAR5[0]          ; |569| 
    2651 000003b7 EC25          BF        L93,EQ                ; |569| 
    2652                      ; branchcc occurs ; |569| 
    2653 000003b8       DW$L$__f_findfilewc$5$E:
    2654 000003b8       DW$L$__f_findfilewc$6$B:
    2655 000003b8 52E5          CMPB      AL,#229               ; |569| 
    2656 000003b9 EC23          BF        L93,EQ                ; |569| 
    2657                      ; branchcc occurs ; |569| 
    2658 000003ba       DW$L$__f_findfilewc$6$E:
    2659 000003ba       DW$L$__f_findfilewc$7$B:
    2660 000003ba 8A64          MOVL      XAR4,*-SP[36]         ; |569| 
    2661 000003bb D00B          MOVB      XAR0,#11              ; |569| 
    2662 000003bc 4394          TBIT      *+XAR4[AR0],#3        ; |569| 
    2663 000003bd EE1F          BF        L93,TC                ; |569| 
    2664                      ; branchcc occurs ; |569| 
    2665 000003be       DW$L$__f_findfilewc$7$E:
    2666 000003be       DW$L$__f_findfilewc$8$B:
    2667 000003be C464          MOVL      XAR6,*-SP[36]         ; |576| 
    2668 000003bf 5CAD          MOVZ      AR4,SP                ; |576| 
    2669 000003c0 0208          MOVB      ACC,#8
    2670 000003c1 07A6          ADDL      ACC,XAR6
    2671 000003c2 DC91          SUBB      XAR4,#17              ; |576| 
TMS320C2000 COFF Assembler PC v4.1.3 Thu Aug 18 12:16:14 2016

Tools Copyright (c) 1996-2006 Texas Instruments Incorporated
fat.asm                                                              PAGE   52

    2672 000003c3 1E42          MOVL      *-SP[2],ACC           ; |576| 
    2673 000003c4 7640'         LCR       #__f_to_string        ; |576| 
         000003c5 0343 
    2674                      ; call occurs [#__f_to_string] ; |576| 
    2675 000003c6 5CAD          MOVZ      AR4,SP                ; |577| 
    2676 000003c7 AA42          MOVL      *-SP[2],XAR2          ; |577| 
    2677 000003c8 8360          MOVL      XAR5,*-SP[32]         ; |577| 
    2678 000003c9 DC9E          SUBB      XAR4,#30              ; |577| 
    2679 000003ca 7640'         LCR       #__f_to_string        ; |577| 
         000003cb 0343 
    2680                      ; call occurs [#__f_to_string] ; |577| 
    2681 000003cc 5DAD          MOVZ      AR5,SP                ; |578| 
    2682 000003cd 5CAD          MOVZ      AR4,SP                ; |578| 
    2683 000003ce DD91          SUBB      XAR5,#17              ; |578| 
    2684 000003cf DC9E          SUBB      XAR4,#30              ; |578| 
    2685 000003d0 7640'         LCR       #__f_cmp_wname        ; |578| 
         000003d1 02F8 
    2686                      ; call occurs [#__f_cmp_wname] ; |578| 
    2687 000003d2 5200          CMPB      AL,#0                 ; |578| 
    2688 000003d3 EC09          BF        L93,EQ                ; |578| 
    2689                      ; branchcc occurs ; |578| 
    2690 000003d4       DW$L$__f_findfilewc$8$E:
    2691 000003d4 0662          MOVL      ACC,*-SP[34]
    2692 000003d5 EC04          BF        L92,EQ                ; |580| 
    2693                      ; branchcc occurs ; |580| 
    2694 000003d6 8A62          MOVL      XAR4,*-SP[34]
    2695 000003d7 0664          MOVL      ACC,*-SP[36]
    2696 000003d8 1EC4          MOVL      *+XAR4[0],ACC         ; |580| 
    2697 000003d9       L92:    
    2698 000003d9 9A01          MOVB      AL,#1                 ; |581| 
    2699 000003da 56CF          BF        L98,UNC               ; |581| 
         000003db 0045 
    2700                      ; branch occurs ; |581| 
    2701 000003dc       L93:    
    2702 000003dc       DW$L$__f_findfilewc$12$B:
    2703 000003dc 0664          MOVL      ACC,*-SP[36]          ; |567| 
    2704 000003dd D420          MOVB      XAR4,#32              ; |567| 
    2705 000003de 0DA4          ADDU      ACC,AR4               ; |567| 
    2706 000003df 1E64          MOVL      *-SP[36],ACC          ; |567| 
    2707 000003e0 020A          MOVB      ACC,#10
    2708 000003e1 07A3          ADDL      ACC,XAR3
    2709 000003e2 8AA9          MOVL      XAR4,ACC              ; |567| 
    2710 000003e3 D00A          MOVB      XAR0,#10              ; |567| 
    2711 000003e4 0201          MOVB      ACC,#1
    2712 000003e5 5601          ADDL      *+XAR4[0],ACC         ; |567| 
         000003e6 00C4 
    2713 000003e7 0210          MOVB      ACC,#16
    2714 000003e8 0F93          CMPL      ACC,*+XAR3[AR0]       ; |567| 
    2715                      .dwpsn  "fat.c",584,0
    2716 000003e9 56C6          BF        L91,HI                ; |567| 
         000003ea FFCC 
    2717                      ; branchcc occurs ; |567| 
    2718 000003eb       DW$L$__f_findfilewc$12$E:
    2719 000003eb       L94:    
    2720 000003eb       DW$L$__f_findfilewc$13$B:
TMS320C2000 COFF Assembler PC v4.1.3 Thu Aug 18 12:16:14 2016

Tools Copyright (c) 1996-2006 Texas Instruments Incorporated
fat.asm                                                              PAGE   53

    2721 000003eb 0200          MOVB      ACC,#0
    2722 000003ec 1E93          MOVL      *+XAR3[AR0],ACC       ; |586| 
    2723 000003ed 0201          MOVB      ACC,#1
    2724 000003ee D008          MOVB      XAR0,#8               ; |562| 
    2725 000003ef 5601          ADDL      *+XAR3[6],ACC         ; |562| 
         000003f0 00F3 
    2726 000003f1 0693          MOVL      ACC,*+XAR3[AR0]       ; |562| 
    2727 000003f2 0FF3          CMPL      ACC,*+XAR3[6]         ; |562| 
    2728                      .dwpsn  "fat.c",587,0
    2729 000003f3 56C6          BF        L90,HI                ; |562| 
         000003f4 FFAC 
    2730                      ; branchcc occurs ; |562| 
    2731 000003f5       DW$L$__f_findfilewc$13$E:
    2732 000003f5       L95:    
    2733 000003f5       DW$L$__f_findfilewc$14$B:
    2734 000003f5 06C3          MOVL      ACC,*+XAR3[0]         ; |589| 
    2735 000003f6 ED09          BF        L96,NEQ               ; |589| 
    2736                      ; branchcc occurs ; |589| 
    2737 000003f7       DW$L$__f_findfilewc$14$E:
    2738 000003f7       DW$L$__f_findfilewc$15$B:
    2739 000003f7 8D00          MOVL      XAR0,#1136            ; |590| 
         000003f8 0470 
    2740 000003f9 0203          MOVB      ACC,#3
    2741 000003fa 0F91          CMPL      ACC,*+XAR1[AR0]       ; |590| 
    2742 000003fb ED23          BF        L97,NEQ               ; |590| 
    2743                      ; branchcc occurs ; |590| 
    2744 000003fc       DW$L$__f_findfilewc$15$E:
    2745 000003fc       DW$L$__f_findfilewc$16$B:
    2746 000003fc D020          MOVB      XAR0,#32              ; |591| 
    2747 000003fd 0691          MOVL      ACC,*+XAR1[AR0]       ; |591| 
    2748 000003fe 1EC3          MOVL      *+XAR3[0],ACC         ; |591| 
    2749 000003ff       DW$L$__f_findfilewc$16$E:
    2750 000003ff       L96:    
    2751 000003ff       DW$L$__f_findfilewc$17$B:
    2752 000003ff 5DAD          MOVZ      AR5,SP                ; |598| 
    2753 00000400 8AA1          MOVL      XAR4,XAR1             ; |598| 
    2754 00000401 06C3          MOVL      ACC,*+XAR3[0]         ; |598| 
    2755 00000402 DD84          SUBB      XAR5,#4               ; |598| 
    2756 00000403 7640!         LCR       #__f_getclustervalue  ; |598| 
         00000404 0000 
    2757                      ; call occurs [#__f_getclustervalue] ; |598| 
    2758 00000405 5200          CMPB      AL,#0                 ; |598| 
    2759 00000406 ED18          BF        L97,NEQ               ; |598| 
    2760                      ; branchcc occurs ; |598| 
    2761 00000407       DW$L$__f_findfilewc$17$E:
    2762 00000407       DW$L$__f_findfilewc$18$B:
    2763 00000407 0202          MOVB      ACC,#2
    2764 00000408 0F44          CMPL      ACC,*-SP[4]           ; |598| 
    2765 00000409 56C6          BF        L97,HI                ; |598| 
         0000040a 0015 
    2766                      ; branchcc occurs ; |598| 
    2767 0000040b       DW$L$__f_findfilewc$18$E:
    2768 0000040b       DW$L$__f_findfilewc$19$B:
    2769 0000040b 28A9          MOV       AL,#65520
         0000040c FFF0 
TMS320C2000 COFF Assembler PC v4.1.3 Thu Aug 18 12:16:14 2016

Tools Copyright (c) 1996-2006 Texas Instruments Incorporated
fat.asm                                                              PAGE   54

    2770 0000040d 28A8          MOV       AH,#4095
         0000040e 0FFF 
    2771 0000040f 0F44          CMPL      ACC,*-SP[4]           ; |598| 
    2772 00000410 56C9          BF        L97,LOS               ; |598| 
         00000411 000E 
    2773                      ; branchcc occurs ; |598| 
    2774 00000412       DW$L$__f_findfilewc$19$E:
    2775 00000412       DW$L$__f_findfilewc$20$B:
    2776 00000412 83A3          MOVL      XAR5,XAR3             ; |602| 
    2777 00000413 8AA1          MOVL      XAR4,XAR1             ; |602| 
    2778 00000414 0644          MOVL      ACC,*-SP[4]           ; |602| 
    2779 00000415 7640!         LCR       #__f_clustertopos     ; |602| 
         00000416 0000 
    2780                      ; call occurs [#__f_clustertopos] ; |602| 
    2781 00000417 28A9          MOV       AL,#65520
         00000418 FFF0 
    2782 00000419 28A8          MOV       AH,#4095
         0000041a 0FFF 
    2783 0000041b 0FC3          CMPL      ACC,*+XAR3[0]         ; |602| 
    2784                      .dwpsn  "fat.c",604,0
    2785 0000041c 56C6          BF        L89,HI                ; |602| 
         0000041d FF7E 
    2786                      ; branchcc occurs ; |602| 
    2787 0000041e       DW$L$__f_findfilewc$20$E:
    2788 0000041e       L97:    
    2789 0000041e 9A00          MOVB      AL,#0
    2790 0000041f       L98:    
    2791 0000041f FEA4          SUBB      SP,#36                ; |606| 
    2792 00000420 82BE          MOVL      XAR3,*--SP            ; |606| 
    2793 00000421 86BE          MOVL      XAR2,*--SP            ; |606| 
    2794 00000422 8BBE          MOVL      XAR1,*--SP            ; |606| 
    2795                      .dwpsn  "fat.c",607,1
    2796 00000423 0006          LRETR
    2797                      ; return occurs
    2798              
    2799              DW$295  .dwtag  DW_TAG_loop
    2800                      .dwattr DW$295, DW_AT_name("D:\DEV\Amot\BearingWear\XTSW_V6_20\fat.asm:L89:1:1471518973")
    2801                      .dwattr DW$295, DW_AT_begin_file("fat.c")
    2802                      .dwattr DW$295, DW_AT_begin_line(0x230)
    2803                      .dwattr DW$295, DW_AT_end_line(0x25c)
    2804              DW$296  .dwtag  DW_TAG_loop_range
    2805                      .dwattr DW$296, DW_AT_low_pc(DW$L$__f_findfilewc$2$B)
    2806                      .dwattr DW$296, DW_AT_high_pc(DW$L$__f_findfilewc$2$E)
    2807              DW$297  .dwtag  DW_TAG_loop_range
    2808                      .dwattr DW$297, DW_AT_low_pc(DW$L$__f_findfilewc$15$B)
    2809                      .dwattr DW$297, DW_AT_high_pc(DW$L$__f_findfilewc$15$E)
    2810              DW$298  .dwtag  DW_TAG_loop_range
    2811                      .dwattr DW$298, DW_AT_low_pc(DW$L$__f_findfilewc$14$B)
    2812                      .dwattr DW$298, DW_AT_high_pc(DW$L$__f_findfilewc$14$E)
    2813              DW$299  .dwtag  DW_TAG_loop_range
    2814                      .dwattr DW$299, DW_AT_low_pc(DW$L$__f_findfilewc$16$B)
    2815                      .dwattr DW$299, DW_AT_high_pc(DW$L$__f_findfilewc$16$E)
    2816              DW$300  .dwtag  DW_TAG_loop_range
    2817                      .dwattr DW$300, DW_AT_low_pc(DW$L$__f_findfilewc$17$B)
    2818                      .dwattr DW$300, DW_AT_high_pc(DW$L$__f_findfilewc$17$E)
TMS320C2000 COFF Assembler PC v4.1.3 Thu Aug 18 12:16:14 2016

Tools Copyright (c) 1996-2006 Texas Instruments Incorporated
fat.asm                                                              PAGE   55

    2819              DW$301  .dwtag  DW_TAG_loop_range
    2820                      .dwattr DW$301, DW_AT_low_pc(DW$L$__f_findfilewc$18$B)
    2821                      .dwattr DW$301, DW_AT_high_pc(DW$L$__f_findfilewc$18$E)
    2822              DW$302  .dwtag  DW_TAG_loop_range
    2823                      .dwattr DW$302, DW_AT_low_pc(DW$L$__f_findfilewc$19$B)
    2824                      .dwattr DW$302, DW_AT_high_pc(DW$L$__f_findfilewc$19$E)
    2825              DW$303  .dwtag  DW_TAG_loop_range
    2826                      .dwattr DW$303, DW_AT_low_pc(DW$L$__f_findfilewc$20$B)
    2827                      .dwattr DW$303, DW_AT_high_pc(DW$L$__f_findfilewc$20$E)
    2828              
    2829              DW$304  .dwtag  DW_TAG_loop
    2830                      .dwattr DW$304, DW_AT_name("D:\DEV\Amot\BearingWear\XTSW_V6_20\fat.asm:L90:2:1471518973")
    2831                      .dwattr DW$304, DW_AT_begin_file("fat.c")
    2832                      .dwattr DW$304, DW_AT_begin_line(0x232)
    2833                      .dwattr DW$304, DW_AT_end_line(0x24b)
    2834              DW$305  .dwtag  DW_TAG_loop_range
    2835                      .dwattr DW$305, DW_AT_low_pc(DW$L$__f_findfilewc$3$B)
    2836                      .dwattr DW$305, DW_AT_high_pc(DW$L$__f_findfilewc$3$E)
    2837              DW$306  .dwtag  DW_TAG_loop_range
    2838                      .dwattr DW$306, DW_AT_low_pc(DW$L$__f_findfilewc$4$B)
    2839                      .dwattr DW$306, DW_AT_high_pc(DW$L$__f_findfilewc$4$E)
    2840              DW$307  .dwtag  DW_TAG_loop_range
    2841                      .dwattr DW$307, DW_AT_low_pc(DW$L$__f_findfilewc$13$B)
    2842                      .dwattr DW$307, DW_AT_high_pc(DW$L$__f_findfilewc$13$E)
    2843              
    2844              DW$308  .dwtag  DW_TAG_loop
    2845                      .dwattr DW$308, DW_AT_name("D:\DEV\Amot\BearingWear\XTSW_V6_20\fat.asm:L91:3:1471518973")
    2846                      .dwattr DW$308, DW_AT_begin_file("fat.c")
    2847                      .dwattr DW$308, DW_AT_begin_line(0x237)
    2848                      .dwattr DW$308, DW_AT_end_line(0x248)
    2849              DW$309  .dwtag  DW_TAG_loop_range
    2850                      .dwattr DW$309, DW_AT_low_pc(DW$L$__f_findfilewc$5$B)
    2851                      .dwattr DW$309, DW_AT_high_pc(DW$L$__f_findfilewc$5$E)
    2852              DW$310  .dwtag  DW_TAG_loop_range
    2853                      .dwattr DW$310, DW_AT_low_pc(DW$L$__f_findfilewc$6$B)
    2854                      .dwattr DW$310, DW_AT_high_pc(DW$L$__f_findfilewc$6$E)
    2855              DW$311  .dwtag  DW_TAG_loop_range
    2856                      .dwattr DW$311, DW_AT_low_pc(DW$L$__f_findfilewc$7$B)
    2857                      .dwattr DW$311, DW_AT_high_pc(DW$L$__f_findfilewc$7$E)
    2858              DW$312  .dwtag  DW_TAG_loop_range
    2859                      .dwattr DW$312, DW_AT_low_pc(DW$L$__f_findfilewc$8$B)
    2860                      .dwattr DW$312, DW_AT_high_pc(DW$L$__f_findfilewc$8$E)
    2861              DW$313  .dwtag  DW_TAG_loop_range
    2862                      .dwattr DW$313, DW_AT_low_pc(DW$L$__f_findfilewc$12$B)
    2863                      .dwattr DW$313, DW_AT_high_pc(DW$L$__f_findfilewc$12$E)
    2864                      .dwendtag DW$308
    2865              
    2866                      .dwendtag DW$304
    2867              
    2868                      .dwendtag DW$295
    2869              
    2870                      .dwattr DW$289, DW_AT_end_file("fat.c")
    2871                      .dwattr DW$289, DW_AT_end_line(0x25f)
    2872                      .dwattr DW$289, DW_AT_end_column(0x01)
    2873                      .dwendtag DW$289
TMS320C2000 COFF Assembler PC v4.1.3 Thu Aug 18 12:16:14 2016

Tools Copyright (c) 1996-2006 Texas Instruments Incorporated
fat.asm                                                              PAGE   56

    2874              
    2875 00000424               .sect   ".text"
    2876              
    2877              DW$314  .dwtag  DW_TAG_subprogram, DW_AT_name("_f_getfilename"), DW_AT_symbol_name("__f_getfilename")
    2878                      .dwattr DW$314, DW_AT_low_pc(__f_getfilename)
    2879                      .dwattr DW$314, DW_AT_high_pc(0x00)
    2880                      .dwattr DW$314, DW_AT_begin_file("fat.c")
    2881                      .dwattr DW$314, DW_AT_begin_line(0x26f)
    2882                      .dwattr DW$314, DW_AT_begin_column(0x0d)
    2883                      .dwattr DW$314, DW_AT_frame_base[DW_OP_breg20 -2]
    2884                      .dwattr DW$314, DW_AT_skeletal(0x01)
    2885                      .dwpsn  "fat.c",623,62
    2886              
    2887              ;***************************************************************
    2888              ;* FNAME: __f_getfilename               FR SIZE:   0           *
    2889              ;*                                                             *
    2890              ;* FUNCTION ENVIRONMENT                                        *
    2891              ;*                                                             *
    2892              ;* FUNCTION PROPERTIES                                         *
    2893              ;*                            0 Parameter,  0 Auto,  0 SOE     *
    2894              ;***************************************************************
    2895              
    2896              __f_getfilename:
    2897              ;* AR4   assigned to _dest
    2898              DW$315  .dwtag  DW_TAG_formal_parameter, DW_AT_name("dest"), DW_AT_symbol_name("_dest")
    2899                      .dwattr DW$315, DW_AT_type(*DW$T$59)
    2900                      .dwattr DW$315, DW_AT_location[DW_OP_reg12]
    2901              ;* AR5   assigned to _name
    2902              DW$316  .dwtag  DW_TAG_formal_parameter, DW_AT_name("name"), DW_AT_symbol_name("_name")
    2903                      .dwattr DW$316, DW_AT_type(*DW$T$59)
    2904                      .dwattr DW$316, DW_AT_location[DW_OP_reg14]
    2905              DW$317  .dwtag  DW_TAG_formal_parameter, DW_AT_name("ext"), DW_AT_symbol_name("_ext")
    2906                      .dwattr DW$317, DW_AT_type(*DW$T$59)
    2907                      .dwattr DW$317, DW_AT_location[DW_OP_breg20 -4]
    2908 00000424 9A08          MOVB      AL,#8                 ; |626| 
    2909 00000425 3B01          SETC      SXM
    2910 00000426 C544          MOVL      XAR7,*-SP[4]          ; |623| 
    2911                      .dwpsn  "fat.c",626,0
    2912 00000427 27A9          MOV       PL,AL                 ; |626| 
    2913 00000428       L99:    
    2914 00000428       DW$L$__f_getfilename$2$B:
    2915 00000428 C4A5          MOVL      XAR6,XAR5             ; |627| 
    2916 00000429 9CFF          ADDB      AL,#-1
    2917 0000042a 2FA9          MOV       PH,AL                 ; |627| 
    2918 0000042b 85AA          MOV       ACC,PH                ; |627| 
    2919 0000042c 5601          ADDL      XAR6,ACC
         0000042d 00A6 
    2920 0000042e 92C6          MOV       AL,*+XAR6[0]          ; |627| 
    2921 0000042f 5220          CMPB      AL,#32                ; |627| 
    2922 00000430 ED07          BF        L100,NEQ              ; |627| 
    2923                      ; branchcc occurs ; |627| 
    2924 00000431       DW$L$__f_getfilename$2$E:
    2925 00000431       DW$L$__f_getfilename$3$B:
    2926 00000431 92AA          MOV       AL,PH                 ; |626| 
    2927 00000432 93AB          MOV       AH,PL                 ; |626| 
TMS320C2000 COFF Assembler PC v4.1.3 Thu Aug 18 12:16:14 2016

Tools Copyright (c) 1996-2006 Texas Instruments Incorporated
fat.asm                                                              PAGE   57

    2928 00000433 9DFF          ADDB      AH,#-1
    2929 00000434 5200          CMPB      AL,#0                 ; |626| 
    2930 00000435 27A8          MOV       PL,AH                 ; |626| 
    2931                      .dwpsn  "fat.c",628,0
    2932 00000436 EDF2          BF        L99,NEQ               ; |626| 
    2933                      ; branchcc occurs ; |626| 
    2934 00000437       DW$L$__f_getfilename$3$E:
    2935 00000437       L100:    
    2936 00000437 9A00          MOVB      AL,#0
    2937 00000438 93AB          MOV       AH,PL                 ; |629| 
    2938 00000439 56C5          BF        L102,LEQ              ; |629| 
         0000043a 0009 
    2939                      ; branchcc occurs ; |629| 
    2940              L101:    
    2941              DW$L$__f_getfilename$5$B:
    2942                      .dwpsn  "fat.c",629,0
    2943 0000043b 9385          MOV       AH,*XAR5++            ; |629| 
    2944 0000043c 9C01          ADDB      AL,#1                 ; |629| 
    2945 0000043d 9784          MOV       *XAR4++,AH            ; |629| 
    2946 0000043e 93AB          MOV       AH,PL                 ; |629| 
    2947 0000043f 55A9          CMP       AH,AL                 ; |629| 
    2948 00000440 56C2          BF        L101,GT               ; |629| 
         00000441 FFFB 
    2949                      ; branchcc occurs ; |629| 
    2950 00000442       DW$L$__f_getfilename$5$E:
    2951 00000442       L102:    
    2952 00000442 9A03          MOVB      AL,#3                 ; |632| 
    2953 00000443 3B01          SETC      SXM
    2954                      .dwpsn  "fat.c",632,0
    2955 00000444 27A9          MOV       PL,AL                 ; |632| 
    2956 00000445       L103:    
    2957 00000445       DW$L$__f_getfilename$7$B:
    2958 00000445 83A7          MOVL      XAR5,XAR7             ; |633| 
    2959 00000446 9CFF          ADDB      AL,#-1
    2960 00000447 2FA9          MOV       PH,AL                 ; |633| 
    2961 00000448 85AA          MOV       ACC,PH                ; |633| 
    2962 00000449 5601          ADDL      XAR5,ACC
         0000044a 00A5 
    2963 0000044b 92C5          MOV       AL,*+XAR5[0]          ; |633| 
    2964 0000044c 5220          CMPB      AL,#32                ; |633| 
    2965 0000044d ED07          BF        L104,NEQ              ; |633| 
    2966                      ; branchcc occurs ; |633| 
    2967 0000044e       DW$L$__f_getfilename$7$E:
    2968 0000044e       DW$L$__f_getfilename$8$B:
    2969 0000044e 92AA          MOV       AL,PH                 ; |632| 
    2970 0000044f 93AB          MOV       AH,PL                 ; |632| 
    2971 00000450 9DFF          ADDB      AH,#-1
    2972 00000451 5200          CMPB      AL,#0                 ; |632| 
    2973 00000452 27A8          MOV       PL,AH                 ; |632| 
    2974                      .dwpsn  "fat.c",634,0
    2975 00000453 EDF2          BF        L103,NEQ              ; |632| 
    2976                      ; branchcc occurs ; |632| 
    2977 00000454       DW$L$__f_getfilename$8$E:
    2978 00000454       L104:    
    2979 00000454 92AB          MOV       AL,PL
TMS320C2000 COFF Assembler PC v4.1.3 Thu Aug 18 12:16:14 2016

Tools Copyright (c) 1996-2006 Texas Instruments Incorporated
fat.asm                                                              PAGE   58

    2980 00000455 EC03          BF        L105,EQ               ; |635| 
    2981                      ; branchcc occurs ; |635| 
    2982 00000456 2884          MOV       *XAR4++,#46           ; |635| 
         00000457 002E 
    2983 00000458       L105:    
    2984 00000458 9A00          MOVB      AL,#0
    2985 00000459 93AB          MOV       AH,PL                 ; |637| 
    2986 0000045a 56C5          BF        L107,LEQ              ; |637| 
         0000045b 0009 
    2987                      ; branchcc occurs ; |637| 
    2988              L106:    
    2989              DW$L$__f_getfilename$12$B:
    2990                      .dwpsn  "fat.c",637,0
    2991 0000045c 9387          MOV       AH,*XAR7++            ; |637| 
    2992 0000045d 9C01          ADDB      AL,#1                 ; |637| 
    2993 0000045e 9784          MOV       *XAR4++,AH            ; |637| 
    2994 0000045f 93AB          MOV       AH,PL                 ; |637| 
    2995 00000460 55A9          CMP       AH,AL                 ; |637| 
    2996 00000461 56C2          BF        L106,GT               ; |637| 
         00000462 FFFB 
    2997                      ; branchcc occurs ; |637| 
    2998 00000463       DW$L$__f_getfilename$12$E:
    2999 00000463       L107:    
    3000 00000463 2BC4          MOV       *+XAR4[0],#0          ; |639| 
    3001                      .dwpsn  "fat.c",640,1
    3002 00000464 0006          LRETR
    3003                      ; return occurs
    3004              
    3005              DW$318  .dwtag  DW_TAG_loop
    3006                      .dwattr DW$318, DW_AT_name("D:\DEV\Amot\BearingWear\XTSW_V6_20\fat.asm:L106:1:1471518973")
    3007                      .dwattr DW$318, DW_AT_begin_file("fat.c")
    3008                      .dwattr DW$318, DW_AT_begin_line(0x27d)
    3009                      .dwattr DW$318, DW_AT_end_line(0x27d)
    3010              DW$319  .dwtag  DW_TAG_loop_range
    3011                      .dwattr DW$319, DW_AT_low_pc(DW$L$__f_getfilename$12$B)
    3012                      .dwattr DW$319, DW_AT_high_pc(DW$L$__f_getfilename$12$E)
    3013                      .dwendtag DW$318
    3014              
    3015              
    3016              DW$320  .dwtag  DW_TAG_loop
    3017                      .dwattr DW$320, DW_AT_name("D:\DEV\Amot\BearingWear\XTSW_V6_20\fat.asm:L103:1:1471518973")
    3018                      .dwattr DW$320, DW_AT_begin_file("fat.c")
    3019                      .dwattr DW$320, DW_AT_begin_line(0x278)
    3020                      .dwattr DW$320, DW_AT_end_line(0x27a)
    3021              DW$321  .dwtag  DW_TAG_loop_range
    3022                      .dwattr DW$321, DW_AT_low_pc(DW$L$__f_getfilename$7$B)
    3023                      .dwattr DW$321, DW_AT_high_pc(DW$L$__f_getfilename$7$E)
    3024              DW$322  .dwtag  DW_TAG_loop_range
    3025                      .dwattr DW$322, DW_AT_low_pc(DW$L$__f_getfilename$8$B)
    3026                      .dwattr DW$322, DW_AT_high_pc(DW$L$__f_getfilename$8$E)
    3027                      .dwendtag DW$320
    3028              
    3029              
    3030              DW$323  .dwtag  DW_TAG_loop
    3031                      .dwattr DW$323, DW_AT_name("D:\DEV\Amot\BearingWear\XTSW_V6_20\fat.asm:L101:1:1471518973")
TMS320C2000 COFF Assembler PC v4.1.3 Thu Aug 18 12:16:14 2016

Tools Copyright (c) 1996-2006 Texas Instruments Incorporated
fat.asm                                                              PAGE   59

    3032                      .dwattr DW$323, DW_AT_begin_file("fat.c")
    3033                      .dwattr DW$323, DW_AT_begin_line(0x275)
    3034                      .dwattr DW$323, DW_AT_end_line(0x275)
    3035              DW$324  .dwtag  DW_TAG_loop_range
    3036                      .dwattr DW$324, DW_AT_low_pc(DW$L$__f_getfilename$5$B)
    3037                      .dwattr DW$324, DW_AT_high_pc(DW$L$__f_getfilename$5$E)
    3038                      .dwendtag DW$323
    3039              
    3040              
    3041              DW$325  .dwtag  DW_TAG_loop
    3042                      .dwattr DW$325, DW_AT_name("D:\DEV\Amot\BearingWear\XTSW_V6_20\fat.asm:L99:1:1471518973")
    3043                      .dwattr DW$325, DW_AT_begin_file("fat.c")
    3044                      .dwattr DW$325, DW_AT_begin_line(0x272)
    3045                      .dwattr DW$325, DW_AT_end_line(0x274)
    3046              DW$326  .dwtag  DW_TAG_loop_range
    3047                      .dwattr DW$326, DW_AT_low_pc(DW$L$__f_getfilename$2$B)
    3048                      .dwattr DW$326, DW_AT_high_pc(DW$L$__f_getfilename$2$E)
    3049              DW$327  .dwtag  DW_TAG_loop_range
    3050                      .dwattr DW$327, DW_AT_low_pc(DW$L$__f_getfilename$3$B)
    3051                      .dwattr DW$327, DW_AT_high_pc(DW$L$__f_getfilename$3$E)
    3052                      .dwendtag DW$325
    3053              
    3054                      .dwattr DW$314, DW_AT_end_file("fat.c")
    3055                      .dwattr DW$314, DW_AT_end_line(0x280)
    3056                      .dwattr DW$314, DW_AT_end_column(0x01)
    3057                      .dwendtag DW$314
    3058              
    3059 00000465               .sect   ".text"
    3060              
    3061              DW$328  .dwtag  DW_TAG_subprogram, DW_AT_name("_f_findpath"), DW_AT_symbol_name("__f_findpath")
    3062                      .dwattr DW$328, DW_AT_low_pc(__f_findpath)
    3063                      .dwattr DW$328, DW_AT_high_pc(0x00)
    3064                      .dwattr DW$328, DW_AT_begin_file("fat.c")
    3065                      .dwattr DW$328, DW_AT_begin_line(0x297)
    3066                      .dwattr DW$328, DW_AT_begin_column(0x0c)
    3067                      .dwattr DW$328, DW_AT_frame_base[DW_OP_breg20 -32]
    3068                      .dwattr DW$328, DW_AT_skeletal(0x01)
    3069                      .dwpsn  "fat.c",663,64
    3070              
    3071              ;***************************************************************
    3072              ;* FNAME: __f_findpath                  FR SIZE:  30           *
    3073              ;*                                                             *
    3074              ;* FUNCTION ENVIRONMENT                                        *
    3075              ;*                                                             *
    3076              ;* FUNCTION PROPERTIES                                         *
    3077              ;*                            6 Parameter, 18 Auto,  6 SOE     *
    3078              ;***************************************************************
    3079              
    3080              __f_findpath:
    3081              ;* AR4   assigned to _vi
    3082              DW$329  .dwtag  DW_TAG_formal_parameter, DW_AT_name("vi"), DW_AT_symbol_name("_vi")
    3083                      .dwattr DW$329, DW_AT_type(*DW$T$89)
    3084                      .dwattr DW$329, DW_AT_location[DW_OP_reg12]
    3085              ;* AR5   assigned to _fsname
    3086              DW$330  .dwtag  DW_TAG_formal_parameter, DW_AT_name("fsname"), DW_AT_symbol_name("_fsname")
TMS320C2000 COFF Assembler PC v4.1.3 Thu Aug 18 12:16:14 2016

Tools Copyright (c) 1996-2006 Texas Instruments Incorporated
fat.asm                                                              PAGE   60

    3087                      .dwattr DW$330, DW_AT_type(*DW$T$149)
    3088                      .dwattr DW$330, DW_AT_location[DW_OP_reg14]
    3089              DW$331  .dwtag  DW_TAG_formal_parameter, DW_AT_name("pos"), DW_AT_symbol_name("_pos")
    3090                      .dwattr DW$331, DW_AT_type(*DW$T$66)
    3091                      .dwattr DW$331, DW_AT_location[DW_OP_breg20 -34]
    3092 00000465 B2BD          MOVL      *SP++,XAR1
    3093 00000466 AABD          MOVL      *SP++,XAR2
    3094 00000467 A2BD          MOVL      *SP++,XAR3
    3095 00000468 FE18          ADDB      SP,#24
    3096 00000469 8BA5          MOVL      XAR1,XAR5             ; |663| 
    3097 0000046a 0201          MOVB      ACC,#1
    3098 0000046b 8662          MOVL      XAR2,*-SP[34]         ; |663| 
    3099 0000046c 07A1          ADDL      ACC,XAR1
    3100 0000046d 1E56          MOVL      *-SP[22],ACC          ; |664| 
    3101 0000046e 1E58          MOVL      *-SP[24],ACC          ; |665| 
    3102 0000046f 83A2          MOVL      XAR5,XAR2             ; |668| 
    3103 00000470 82A4          MOVL      XAR3,XAR4             ; |663| 
    3104 00000471 0200          MOVB      ACC,#0
    3105 00000472 7640!         LCR       #__f_clustertopos     ; |668| 
         00000473 0000 
    3106                      ; call occurs [#__f_clustertopos] ; |668| 
    3107 00000474 56CF          BF        L113,UNC              ; |670| 
         00000475 0033 
    3108                      ; branch occurs ; |670| 
    3109 00000476       L108:    
    3110 00000476       DW$L$__f_findpath$2$B:
    3111 00000476 0656          MOVL      ACC,*-SP[22]          ; |695| 
    3112 00000477 D401          MOVB      XAR4,#1               ; |695| 
    3113 00000478 0DA4          ADDU      ACC,AR4               ; |695| 
    3114 00000479 1E56          MOVL      *-SP[22],ACC          ; |695| 
    3115 0000047a 56CF          BF        L113,UNC              ; |696| 
         0000047b 002D 
    3116                      ; branch occurs ; |696| 
    3117 0000047c       DW$L$__f_findpath$2$E:
    3118 0000047c       L109:    
    3119 0000047c       DW$L$__f_findpath$3$B:
    3120 0000047c C456          MOVL      XAR6,*-SP[22]
    3121 0000047d 0658          MOVL      ACC,*-SP[24]
    3122 0000047e 0FA6          CMPL      ACC,XAR6              ; |725| 
    3123 0000047f EC12          BF        L111,EQ               ; |725| 
    3124                      ; branchcc occurs ; |725| 
    3125 00000480       DW$L$__f_findpath$3$E:
    3126 00000480       DW$L$__f_findpath$4$B:
    3127 00000480 9B00          MOVB      AH,#0
    3128 00000481 9254          MOV       AL,*-SP[20]           ; |731| 
    3129 00000482 56C5          BF        L112,LEQ              ; |731| 
         00000483 001A 
    3130                      ; branchcc occurs ; |731| 
    3131              DW$L$__f_findpath$4$E:
    3132              L110:    
    3133              DW$L$__f_findpath$5$B:
    3134                      .dwpsn  "fat.c",731,0
    3135 00000484 8A56          MOVL      XAR4,*-SP[22]
    3136 00000485 9284          MOV       AL,*XAR4++            ; |731| 
    3137 00000486 A856          MOVL      *-SP[22],XAR4         ; |731| 
TMS320C2000 COFF Assembler PC v4.1.3 Thu Aug 18 12:16:14 2016

Tools Copyright (c) 1996-2006 Texas Instruments Incorporated
fat.asm                                                              PAGE   61

    3138 00000487 8A58          MOVL      XAR4,*-SP[24]         ; |731| 
    3139 00000488 9D01          ADDB      AH,#1                 ; |731| 
    3140 00000489 9684          MOV       *XAR4++,AL            ; |731| 
    3141 0000048a 9254          MOV       AL,*-SP[20]           ; |731| 
    3142 0000048b 54A8          CMP       AL,AH                 ; |731| 
    3143 0000048c A858          MOVL      *-SP[24],XAR4         ; |731| 
    3144 0000048d 56C2          BF        L110,GT               ; |731| 
         0000048e FFF7 
    3145                      ; branchcc occurs ; |731| 
    3146 0000048f       DW$L$__f_findpath$5$E:
    3147 0000048f       DW$L$__f_findpath$6$B:
    3148 0000048f 56CF          BF        L112,UNC              ; |731| 
         00000490 000D 
    3149                      ; branch occurs ; |731| 
    3150 00000491       DW$L$__f_findpath$6$E:
    3151 00000491       L111:    
    3152 00000491       DW$L$__f_findpath$7$B:
    3153 00000491 C456          MOVL      XAR6,*-SP[22]         ; |726| 
    3154 00000492 3B01          SETC      SXM
    3155 00000493 8554          MOV       ACC,*-SP[20]          ; |726| 
    3156 00000494 5601          ADDL      XAR6,ACC
         00000495 00A6 
    3157 00000496 C256          MOVL      *-SP[22],XAR6         ; |726| 
    3158 00000497 C458          MOVL      XAR6,*-SP[24]         ; |727| 
    3159 00000498 8554          MOV       ACC,*-SP[20]          ; |727| 
    3160 00000499 5601          ADDL      XAR6,ACC
         0000049a 00A6 
    3161 0000049b C258          MOVL      *-SP[24],XAR6         ; |727| 
    3162 0000049c       DW$L$__f_findpath$7$E:
    3163 0000049c       L112:    
    3164 0000049c       DW$L$__f_findpath$8$B:
    3165 0000049c 8A56          MOVL      XAR4,*-SP[22]
    3166 0000049d 92C4          MOV       AL,*+XAR4[0]          ; |735| 
    3167 0000049e EC7C          BF        L122,EQ               ; |735| 
    3168                      ; branchcc occurs ; |735| 
    3169 0000049f       DW$L$__f_findpath$8$E:
    3170 0000049f       DW$L$__f_findpath$9$B:
    3171 0000049f 0656          MOVL      ACC,*-SP[22]          ; |736| 
    3172 000004a0 D401          MOVB      XAR4,#1               ; |736| 
    3173 000004a1 0DA4          ADDU      ACC,AR4               ; |736| 
    3174 000004a2 8A58          MOVL      XAR4,*-SP[24]         ; |737| 
    3175 000004a3 1E56          MOVL      *-SP[22],ACC          ; |736| 
    3176 000004a4 2884          MOV       *XAR4++,#47           ; |737| 
         000004a5 002F 
    3177 000004a6 A858          MOVL      *-SP[24],XAR4         ; |737| 
    3178 000004a7       DW$L$__f_findpath$9$E:
    3179 000004a7       L113:    
    3180 000004a7       DW$L$__f_findpath$10$B:
    3181 000004a7 8A56          MOVL      XAR4,*-SP[22]
    3182 000004a8 92C4          MOV       AL,*+XAR4[0]          ; |738| 
    3183 000004a9 EC71          BF        L122,EQ               ; |738| 
    3184                      ; branchcc occurs ; |738| 
    3185 000004aa       DW$L$__f_findpath$10$E:
    3186 000004aa       DW$L$__f_findpath$11$B:
    3187 000004aa 5CAD          MOVZ      AR4,SP                ; |674| 
TMS320C2000 COFF Assembler PC v4.1.3 Thu Aug 18 12:16:14 2016

Tools Copyright (c) 1996-2006 Texas Instruments Incorporated
fat.asm                                                              PAGE   62

    3188 000004ab 5DAD          MOVZ      AR5,SP                ; |674| 
    3189 000004ac DC93          SUBB      XAR4,#19              ; |674| 
    3190 000004ad A842          MOVL      *-SP[2],XAR4          ; |674| 
    3191 000004ae 8A56          MOVL      XAR4,*-SP[22]         ; |674| 
    3192 000004af DD90          SUBB      XAR5,#16              ; |674| 
    3193 000004b0 7640'         LCR       #__f_setnameext       ; |674| 
         000004b1 00CB 
    3194                      ; call occurs [#__f_setnameext] ; |674| 
    3195 000004b2 9654          MOV       *-SP[20],AL           ; |674| 
    3196 000004b3 06C2          MOVL      ACC,*+XAR2[0]         ; |676| 
    3197 000004b4 ED07          BF        L114,NEQ              ; |676| 
    3198                      ; branchcc occurs ; |676| 
    3199 000004b5       DW$L$__f_findpath$11$E:
    3200 000004b5       DW$L$__f_findpath$12$B:
    3201 000004b5 9254          MOV       AL,*-SP[20]
    3202 000004b6 5201          CMPB      AL,#1                 ; |676| 
    3203 000004b7 ED04          BF        L114,NEQ              ; |676| 
    3204                      ; branchcc occurs ; |676| 
    3205 000004b8       DW$L$__f_findpath$12$E:
    3206 000004b8       DW$L$__f_findpath$13$B:
    3207 000004b8 9250          MOV       AL,*-SP[16]           ; |676| 
    3208 000004b9 522E          CMPB      AL,#46                ; |676| 
    3209 000004ba EC19          BF        L115,EQ               ; |676| 
    3210                      ; branchcc occurs ; |676| 
    3211 000004bb       DW$L$__f_findpath$13$E:
    3212 000004bb       L114:    
    3213 000004bb       DW$L$__f_findpath$14$B:
    3214 000004bb 5CAD          MOVZ      AR4,SP                ; |680| 
    3215 000004bc DC93          SUBB      XAR4,#19              ; |680| 
    3216 000004bd A842          MOVL      *-SP[2],XAR4          ; |680| 
    3217 000004be 5CAD          MOVZ      AR4,SP                ; |680| 
    3218 000004bf 5DAD          MOVZ      AR5,SP                ; |680| 
    3219 000004c0 AA44          MOVL      *-SP[4],XAR2          ; |680| 
    3220 000004c1 DC88          SUBB      XAR4,#8               ; |680| 
    3221 000004c2 A846          MOVL      *-SP[6],XAR4          ; |680| 
    3222 000004c3 8AA3          MOVL      XAR4,XAR3             ; |680| 
    3223 000004c4 DD90          SUBB      XAR5,#16              ; |680| 
    3224 000004c5 7640'         LCR       #__f_findfile         ; |680| 
         000004c6 0255 
    3225                      ; call occurs [#__f_findfile] ; |680| 
    3226 000004c7 5200          CMPB      AL,#0                 ; |680| 
    3227 000004c8 EC28          BF        L117,EQ               ; |680| 
    3228                      ; branchcc occurs ; |680| 
    3229 000004c9       DW$L$__f_findpath$14$E:
    3230 000004c9       DW$L$__f_findpath$15$B:
    3231 000004c9 8A48          MOVL      XAR4,*-SP[8]          ; |680| 
    3232 000004ca D00B          MOVB      XAR0,#11              ; |680| 
    3233 000004cb 4494          TBIT      *+XAR4[AR0],#4        ; |680| 
    3234 000004cc EF24          BF        L117,NTC              ; |680| 
    3235                      ; branchcc occurs ; |680| 
    3236 000004cd       DW$L$__f_findpath$15$E:
    3237 000004cd       DW$L$__f_findpath$16$B:
    3238 000004cd 8348          MOVL      XAR5,*-SP[8]          ; |683| 
    3239 000004ce 8AA3          MOVL      XAR4,XAR3             ; |683| 
    3240 000004cf 7640!         LCR       #__f_getdecluster     ; |683| 
TMS320C2000 COFF Assembler PC v4.1.3 Thu Aug 18 12:16:14 2016

Tools Copyright (c) 1996-2006 Texas Instruments Incorporated
fat.asm                                                              PAGE   63

         000004d0 0000 
    3241                      ; call occurs [#__f_getdecluster] ; |683| 
    3242 000004d1 56CF          BF        L116,UNC              ; |683| 
         000004d2 0003 
    3243                      ; branch occurs ; |683| 
    3244 000004d3       DW$L$__f_findpath$16$E:
    3245 000004d3       L115:    
    3246 000004d3       DW$L$__f_findpath$17$B:
    3247 000004d3 0200          MOVB      ACC,#0
    3248 000004d4       DW$L$__f_findpath$17$E:
    3249 000004d4       L116:    
    3250 000004d4       DW$L$__f_findpath$18$B:
    3251 000004d4 83A2          MOVL      XAR5,XAR2             ; |677| 
    3252 000004d5 8AA3          MOVL      XAR4,XAR3             ; |677| 
    3253 000004d6 7640!         LCR       #__f_clustertopos     ; |677| 
         000004d7 0000 
    3254                      ; call occurs [#__f_clustertopos] ; |677| 
    3255 000004d8 9250          MOV       AL,*-SP[16]           ; |683| 
    3256 000004d9 522E          CMPB      AL,#46                ; |683| 
    3257 000004da EDA2          BF        L109,NEQ              ; |683| 
    3258                      ; branchcc occurs ; |683| 
    3259 000004db       DW$L$__f_findpath$18$E:
    3260 000004db       DW$L$__f_findpath$19$B:
    3261 000004db 9254          MOV       AL,*-SP[20]
    3262 000004dc 5201          CMPB      AL,#1                 ; |688| 
    3263 000004dd EC2A          BF        L120,EQ               ; |688| 
    3264                      ; branchcc occurs ; |688| 
    3265 000004de       DW$L$__f_findpath$19$E:
    3266 000004de       DW$L$__f_findpath$20$B:
    3267 000004de 924F          MOV       AL,*-SP[15]           ; |699| 
    3268 000004df 522E          CMPB      AL,#46                ; |699| 
    3269 000004e0 ED10          BF        L117,NEQ              ; |699| 
    3270                      ; branchcc occurs ; |699| 
    3271 000004e1       DW$L$__f_findpath$20$E:
    3272 000004e1       DW$L$__f_findpath$21$B:
    3273 000004e1 9254          MOV       AL,*-SP[20]
    3274 000004e2 5202          CMPB      AL,#2                 ; |699| 
    3275 000004e3 ED0D          BF        L117,NEQ              ; |699| 
    3276                      ; branchcc occurs ; |699| 
    3277 000004e4       DW$L$__f_findpath$21$E:
    3278 000004e4       DW$L$__f_findpath$22$B:
    3279 000004e4 C456          MOVL      XAR6,*-SP[22]         ; |702| 
    3280 000004e5 3B01          SETC      SXM
    3281 000004e6 85A9          MOV       ACC,AL                ; |702| 
    3282 000004e7 5601          ADDL      XAR6,ACC
         000004e8 00A6 
    3283 000004e9 C256          MOVL      *-SP[22],XAR6         ; |702| 
    3284 000004ea C458          MOVL      XAR6,*-SP[24]         ; |704| 
    3285 000004eb D401          MOVB      XAR4,#1               ; |704| 
    3286 000004ec B2A9          MOVL      ACC,XAR1              ; |704| 
    3287 000004ed 0DA4          ADDU      ACC,AR4               ; |704| 
    3288 000004ee 0FA6          CMPL      ACC,XAR6              ; |704| 
    3289 000004ef ED04          BF        L118,NEQ              ; |704| 
    3290                      ; branchcc occurs ; |704| 
    3291 000004f0       DW$L$__f_findpath$22$E:
TMS320C2000 COFF Assembler PC v4.1.3 Thu Aug 18 12:16:14 2016

Tools Copyright (c) 1996-2006 Texas Instruments Incorporated
fat.asm                                                              PAGE   64

    3292 000004f0       L117:    
    3293 000004f0 9A00          MOVB      AL,#0
    3294 000004f1 56CF          BF        L123,UNC              ; |704| 
         000004f2 002C 
    3295                      ; branch occurs ; |704| 
    3296 000004f3       L118:    
    3297 000004f3       DW$L$__f_findpath$24$B:
    3298 000004f3 0658          MOVL      ACC,*-SP[24]
    3299 000004f4 1901          SUBB      ACC,#1                ; |706| 
    3300                      .dwpsn  "fat.c",707,0
    3301 000004f5 1E58          MOVL      *-SP[24],ACC          ; |706| 
    3302 000004f6       DW$L$__f_findpath$24$E:
    3303 000004f6       L119:    
    3304 000004f6       DW$L$__f_findpath$25$B:
    3305 000004f6 C458          MOVL      XAR6,*-SP[24]         ; |708| 
    3306 000004f7 B2A9          MOVL      ACC,XAR1              ; |708| 
    3307 000004f8 D401          MOVB      XAR4,#1               ; |708| 
    3308 000004f9 0DA4          ADDU      ACC,AR4               ; |708| 
    3309 000004fa 0FA6          CMPL      ACC,XAR6              ; |708| 
    3310 000004fb EC12          BF        L121,EQ               ; |708| 
    3311                      ; branchcc occurs ; |708| 
    3312 000004fc       DW$L$__f_findpath$25$E:
    3313 000004fc       DW$L$__f_findpath$26$B:
    3314 000004fc 8A58          MOVL      XAR4,*-SP[24]
    3315 000004fd 928C          MOV       AL,*--XAR4            ; |710| 
    3316 000004fe 522F          CMPB      AL,#47                ; |710| 
    3317 000004ff A858          MOVL      *-SP[24],XAR4         ; |710| 
    3318                      .dwpsn  "fat.c",714,0
    3319 00000500 EDF6          BF        L119,NEQ              ; |710| 
    3320                      ; branchcc occurs ; |710| 
    3321 00000501       DW$L$__f_findpath$26$E:
    3322 00000501       DW$L$__f_findpath$27$B:
    3323 00000501 0658          MOVL      ACC,*-SP[24]          ; |711| 
    3324 00000502 D401          MOVB      XAR4,#1               ; |711| 
    3325 00000503 0DA4          ADDU      ACC,AR4               ; |711| 
    3326 00000504 1E58          MOVL      *-SP[24],ACC          ; |711| 
    3327 00000505 56CF          BF        L121,UNC              ; |712| 
         00000506 0008 
    3328                      ; branch occurs ; |712| 
    3329 00000507       DW$L$__f_findpath$27$E:
    3330 00000507       L120:    
    3331 00000507       DW$L$__f_findpath$28$B:
    3332 00000507 C456          MOVL      XAR6,*-SP[22]         ; |689| 
    3333 00000508 3B01          SETC      SXM
    3334 00000509 85A9          MOV       ACC,AL                ; |689| 
    3335 0000050a 5601          ADDL      XAR6,ACC
         0000050b 00A6 
    3336 0000050c C256          MOVL      *-SP[22],XAR6         ; |689| 
    3337 0000050d       DW$L$__f_findpath$28$E:
    3338 0000050d       L121:    
    3339 0000050d       DW$L$__f_findpath$29$B:
    3340 0000050d 8A56          MOVL      XAR4,*-SP[22]
    3341 0000050e 92C4          MOV       AL,*+XAR4[0]          ; |691| 
    3342 0000050f 56C0          BF        L108,NEQ              ; |691| 
         00000510 FF67 
TMS320C2000 COFF Assembler PC v4.1.3 Thu Aug 18 12:16:14 2016

Tools Copyright (c) 1996-2006 Texas Instruments Incorporated
fat.asm                                                              PAGE   65

    3343                      ; branchcc occurs ; |691| 
    3344 00000511       DW$L$__f_findpath$29$E:
    3345 00000511 C458          MOVL      XAR6,*-SP[24]         ; |692| 
    3346 00000512 B2A9          MOVL      ACC,XAR1              ; |692| 
    3347 00000513 D401          MOVB      XAR4,#1               ; |692| 
    3348 00000514 0DA4          ADDU      ACC,AR4               ; |692| 
    3349 00000515 0FA6          CMPL      ACC,XAR6              ; |692| 
    3350 00000516 EC04          BF        L122,EQ               ; |692| 
    3351                      ; branchcc occurs ; |692| 
    3352 00000517 0658          MOVL      ACC,*-SP[24]
    3353 00000518 1901          SUBB      ACC,#1                ; |692| 
    3354 00000519 1E58          MOVL      *-SP[24],ACC          ; |692| 
    3355 0000051a       L122:    
    3356 0000051a 8A58          MOVL      XAR4,*-SP[24]
    3357 0000051b 2BC4          MOV       *+XAR4[0],#0          ; |740| 
    3358 0000051c 9A01          MOVB      AL,#1                 ; |741| 
    3359 0000051d       L123:    
    3360 0000051d FE98          SUBB      SP,#24                ; |741| 
    3361 0000051e 82BE          MOVL      XAR3,*--SP            ; |741| 
    3362 0000051f 86BE          MOVL      XAR2,*--SP            ; |741| 
    3363 00000520 8BBE          MOVL      XAR1,*--SP            ; |741| 
    3364                      .dwpsn  "fat.c",742,1
    3365 00000521 0006          LRETR
    3366                      ; return occurs
    3367              
    3368              DW$332  .dwtag  DW_TAG_loop
    3369                      .dwattr DW$332, DW_AT_name("D:\DEV\Amot\BearingWear\XTSW_V6_20\fat.asm:L113:1:1471518973")
    3370                      .dwattr DW$332, DW_AT_begin_file("fat.c")
    3371                      .dwattr DW$332, DW_AT_begin_line(0x29e)
    3372                      .dwattr DW$332, DW_AT_end_line(0x2e2)
    3373              DW$333  .dwtag  DW_TAG_loop_range
    3374                      .dwattr DW$333, DW_AT_low_pc(DW$L$__f_findpath$10$B)
    3375                      .dwattr DW$333, DW_AT_high_pc(DW$L$__f_findpath$10$E)
    3376              DW$334  .dwtag  DW_TAG_loop_range
    3377                      .dwattr DW$334, DW_AT_low_pc(DW$L$__f_findpath$3$B)
    3378                      .dwattr DW$334, DW_AT_high_pc(DW$L$__f_findpath$3$E)
    3379              DW$335  .dwtag  DW_TAG_loop_range
    3380                      .dwattr DW$335, DW_AT_low_pc(DW$L$__f_findpath$4$B)
    3381                      .dwattr DW$335, DW_AT_high_pc(DW$L$__f_findpath$4$E)
    3382              DW$336  .dwtag  DW_TAG_loop_range
    3383                      .dwattr DW$336, DW_AT_low_pc(DW$L$__f_findpath$6$B)
    3384                      .dwattr DW$336, DW_AT_high_pc(DW$L$__f_findpath$6$E)
    3385              DW$337  .dwtag  DW_TAG_loop_range
    3386                      .dwattr DW$337, DW_AT_low_pc(DW$L$__f_findpath$7$B)
    3387                      .dwattr DW$337, DW_AT_high_pc(DW$L$__f_findpath$7$E)
    3388              DW$338  .dwtag  DW_TAG_loop_range
    3389                      .dwattr DW$338, DW_AT_low_pc(DW$L$__f_findpath$8$B)
    3390                      .dwattr DW$338, DW_AT_high_pc(DW$L$__f_findpath$8$E)
    3391              DW$339  .dwtag  DW_TAG_loop_range
    3392                      .dwattr DW$339, DW_AT_low_pc(DW$L$__f_findpath$11$B)
    3393                      .dwattr DW$339, DW_AT_high_pc(DW$L$__f_findpath$11$E)
    3394              DW$340  .dwtag  DW_TAG_loop_range
    3395                      .dwattr DW$340, DW_AT_low_pc(DW$L$__f_findpath$12$B)
    3396                      .dwattr DW$340, DW_AT_high_pc(DW$L$__f_findpath$12$E)
    3397              DW$341  .dwtag  DW_TAG_loop_range
TMS320C2000 COFF Assembler PC v4.1.3 Thu Aug 18 12:16:14 2016

Tools Copyright (c) 1996-2006 Texas Instruments Incorporated
fat.asm                                                              PAGE   66

    3398                      .dwattr DW$341, DW_AT_low_pc(DW$L$__f_findpath$13$B)
    3399                      .dwattr DW$341, DW_AT_high_pc(DW$L$__f_findpath$13$E)
    3400              DW$342  .dwtag  DW_TAG_loop_range
    3401                      .dwattr DW$342, DW_AT_low_pc(DW$L$__f_findpath$14$B)
    3402                      .dwattr DW$342, DW_AT_high_pc(DW$L$__f_findpath$14$E)
    3403              DW$343  .dwtag  DW_TAG_loop_range
    3404                      .dwattr DW$343, DW_AT_low_pc(DW$L$__f_findpath$15$B)
    3405                      .dwattr DW$343, DW_AT_high_pc(DW$L$__f_findpath$15$E)
    3406              DW$344  .dwtag  DW_TAG_loop_range
    3407                      .dwattr DW$344, DW_AT_low_pc(DW$L$__f_findpath$16$B)
    3408                      .dwattr DW$344, DW_AT_high_pc(DW$L$__f_findpath$16$E)
    3409              DW$345  .dwtag  DW_TAG_loop_range
    3410                      .dwattr DW$345, DW_AT_low_pc(DW$L$__f_findpath$17$B)
    3411                      .dwattr DW$345, DW_AT_high_pc(DW$L$__f_findpath$17$E)
    3412              DW$346  .dwtag  DW_TAG_loop_range
    3413                      .dwattr DW$346, DW_AT_low_pc(DW$L$__f_findpath$18$B)
    3414                      .dwattr DW$346, DW_AT_high_pc(DW$L$__f_findpath$18$E)
    3415              DW$347  .dwtag  DW_TAG_loop_range
    3416                      .dwattr DW$347, DW_AT_low_pc(DW$L$__f_findpath$19$B)
    3417                      .dwattr DW$347, DW_AT_high_pc(DW$L$__f_findpath$19$E)
    3418              DW$348  .dwtag  DW_TAG_loop_range
    3419                      .dwattr DW$348, DW_AT_low_pc(DW$L$__f_findpath$20$B)
    3420                      .dwattr DW$348, DW_AT_high_pc(DW$L$__f_findpath$20$E)
    3421              DW$349  .dwtag  DW_TAG_loop_range
    3422                      .dwattr DW$349, DW_AT_low_pc(DW$L$__f_findpath$21$B)
    3423                      .dwattr DW$349, DW_AT_high_pc(DW$L$__f_findpath$21$E)
    3424              DW$350  .dwtag  DW_TAG_loop_range
    3425                      .dwattr DW$350, DW_AT_low_pc(DW$L$__f_findpath$22$B)
    3426                      .dwattr DW$350, DW_AT_high_pc(DW$L$__f_findpath$22$E)
    3427              DW$351  .dwtag  DW_TAG_loop_range
    3428                      .dwattr DW$351, DW_AT_low_pc(DW$L$__f_findpath$24$B)
    3429                      .dwattr DW$351, DW_AT_high_pc(DW$L$__f_findpath$24$E)
    3430              DW$352  .dwtag  DW_TAG_loop_range
    3431                      .dwattr DW$352, DW_AT_low_pc(DW$L$__f_findpath$27$B)
    3432                      .dwattr DW$352, DW_AT_high_pc(DW$L$__f_findpath$27$E)
    3433              DW$353  .dwtag  DW_TAG_loop_range
    3434                      .dwattr DW$353, DW_AT_low_pc(DW$L$__f_findpath$28$B)
    3435                      .dwattr DW$353, DW_AT_high_pc(DW$L$__f_findpath$28$E)
    3436              DW$354  .dwtag  DW_TAG_loop_range
    3437                      .dwattr DW$354, DW_AT_low_pc(DW$L$__f_findpath$29$B)
    3438                      .dwattr DW$354, DW_AT_high_pc(DW$L$__f_findpath$29$E)
    3439              DW$355  .dwtag  DW_TAG_loop_range
    3440                      .dwattr DW$355, DW_AT_low_pc(DW$L$__f_findpath$9$B)
    3441                      .dwattr DW$355, DW_AT_high_pc(DW$L$__f_findpath$9$E)
    3442              DW$356  .dwtag  DW_TAG_loop_range
    3443                      .dwattr DW$356, DW_AT_low_pc(DW$L$__f_findpath$2$B)
    3444                      .dwattr DW$356, DW_AT_high_pc(DW$L$__f_findpath$2$E)
    3445              
    3446              DW$357  .dwtag  DW_TAG_loop
    3447                      .dwattr DW$357, DW_AT_name("D:\DEV\Amot\BearingWear\XTSW_V6_20\fat.asm:L110:2:1471518973")
    3448                      .dwattr DW$357, DW_AT_begin_file("fat.c")
    3449                      .dwattr DW$357, DW_AT_begin_line(0x2db)
    3450                      .dwattr DW$357, DW_AT_end_line(0x2db)
    3451              DW$358  .dwtag  DW_TAG_loop_range
    3452                      .dwattr DW$358, DW_AT_low_pc(DW$L$__f_findpath$5$B)
TMS320C2000 COFF Assembler PC v4.1.3 Thu Aug 18 12:16:14 2016

Tools Copyright (c) 1996-2006 Texas Instruments Incorporated
fat.asm                                                              PAGE   67

    3453                      .dwattr DW$358, DW_AT_high_pc(DW$L$__f_findpath$5$E)
    3454                      .dwendtag DW$357
    3455              
    3456              
    3457              DW$359  .dwtag  DW_TAG_loop
    3458                      .dwattr DW$359, DW_AT_name("D:\DEV\Amot\BearingWear\XTSW_V6_20\fat.asm:L119:2:1471518973")
    3459                      .dwattr DW$359, DW_AT_begin_file("fat.c")
    3460                      .dwattr DW$359, DW_AT_begin_line(0x2c3)
    3461                      .dwattr DW$359, DW_AT_end_line(0x2ca)
    3462              DW$360  .dwtag  DW_TAG_loop_range
    3463                      .dwattr DW$360, DW_AT_low_pc(DW$L$__f_findpath$25$B)
    3464                      .dwattr DW$360, DW_AT_high_pc(DW$L$__f_findpath$25$E)
    3465              DW$361  .dwtag  DW_TAG_loop_range
    3466                      .dwattr DW$361, DW_AT_low_pc(DW$L$__f_findpath$26$B)
    3467                      .dwattr DW$361, DW_AT_high_pc(DW$L$__f_findpath$26$E)
    3468                      .dwendtag DW$359
    3469              
    3470                      .dwendtag DW$332
    3471              
    3472                      .dwattr DW$328, DW_AT_end_file("fat.c")
    3473                      .dwattr DW$328, DW_AT_end_line(0x2e6)
    3474                      .dwattr DW$328, DW_AT_end_column(0x01)
    3475                      .dwendtag DW$328
    3476              
    3477 00000522               .sect   ".text"
    3478                      .global _fn_getdcwd
    3479              
    3480              DW$362  .dwtag  DW_TAG_subprogram, DW_AT_name("fn_getdcwd"), DW_AT_symbol_name("_fn_getdcwd")
    3481                      .dwattr DW$362, DW_AT_low_pc(_fn_getdcwd)
    3482                      .dwattr DW$362, DW_AT_high_pc(0x00)
    3483                      .dwattr DW$362, DW_AT_begin_file("fat.c")
    3484                      .dwattr DW$362, DW_AT_begin_line(0x2fc)
    3485                      .dwattr DW$362, DW_AT_begin_column(0x05)
    3486                      .dwattr DW$362, DW_AT_frame_base[DW_OP_breg20 -12]
    3487                      .dwattr DW$362, DW_AT_skeletal(0x01)
    3488                      .dwpsn  "fat.c",764,69
    3489              
    3490              ;***************************************************************
    3491              ;* FNAME: _fn_getdcwd                   FR SIZE:  10           *
    3492              ;*                                                             *
    3493              ;* FUNCTION ENVIRONMENT                                        *
    3494              ;*                                                             *
    3495              ;* FUNCTION PROPERTIES                                         *
    3496              ;*                            0 Parameter,  4 Auto,  6 SOE     *
    3497              ;***************************************************************
    3498              
    3499              _fn_getdcwd:
    3500              ;* AR4   assigned to _fm
    3501              DW$363  .dwtag  DW_TAG_formal_parameter, DW_AT_name("fm"), DW_AT_symbol_name("_fm")
    3502                      .dwattr DW$363, DW_AT_type(*DW$T$117)
    3503                      .dwattr DW$363, DW_AT_location[DW_OP_reg12]
    3504              ;* AL    assigned to _drivenum
    3505              DW$364  .dwtag  DW_TAG_formal_parameter, DW_AT_name("drivenum"), DW_AT_symbol_name("_drivenum")
    3506                      .dwattr DW$364, DW_AT_type(*DW$T$10)
    3507                      .dwattr DW$364, DW_AT_location[DW_OP_reg0]
TMS320C2000 COFF Assembler PC v4.1.3 Thu Aug 18 12:16:14 2016

Tools Copyright (c) 1996-2006 Texas Instruments Incorporated
fat.asm                                                              PAGE   68

    3508              ;* AR5   assigned to _buffer
    3509              DW$365  .dwtag  DW_TAG_formal_parameter, DW_AT_name("buffer"), DW_AT_symbol_name("_buffer")
    3510                      .dwattr DW$365, DW_AT_type(*DW$T$59)
    3511                      .dwattr DW$365, DW_AT_location[DW_OP_reg14]
    3512              ;* AH    assigned to _maxlen
    3513              DW$366  .dwtag  DW_TAG_formal_parameter, DW_AT_name("maxlen"), DW_AT_symbol_name("_maxlen")
    3514                      .dwattr DW$366, DW_AT_type(*DW$T$10)
    3515                      .dwattr DW$366, DW_AT_location[DW_OP_reg1]
    3516 00000522 B2BD          MOVL      *SP++,XAR1
    3517 00000523 AABD          MOVL      *SP++,XAR2
    3518 00000524 A2BD          MOVL      *SP++,XAR3
    3519 00000525 FE04          ADDB      SP,#4
    3520 00000526 8BA5          MOVL      XAR1,XAR5             ; |764| 
    3521 00000527 5200          CMPB      AL,#0                 ; |769| 
    3522 00000528 86A4          MOVL      XAR2,XAR4             ; |764| 
    3523 00000529 9642          MOV       *-SP[2],AL            ; |764| 
    3524 0000052a 9741          MOV       *-SP[1],AH            ; |764| 
    3525 0000052b 56C4          BF        L124,LT               ; |769| 
         0000052c 0005 
    3526                      ; branchcc occurs ; |769| 
    3527 0000052d 5200          CMPB      AL,#0                 ; |769| 
    3528 0000052e 56C5          BF        L125,LEQ              ; |769| 
         0000052f 0005 
    3529                      ; branchcc occurs ; |769| 
    3530 00000530       L124:    
    3531 00000530 9A01          MOVB      AL,#1                 ; |769| 
    3532 00000531 56CF          BF        L130,UNC              ; |769| 
         00000532 0047 
    3533                      ; branch occurs ; |769| 
    3534 00000533       L125:    
    3535 00000533 2D42          MOV       T,*-SP[2]
    3536 00000534 8F00!         MOVL      XAR4,#_f_filesystem   ; |770| 
         00000535 0000 
    3537              ;       MOV       T,T Implicitly done by - MPY ACC,OP,#IMM ; |770| 
    3538 00000536 34A9          MPY       ACC,AL,#1148          ; |770| 
         00000537 047C 
    3539 00000538 5601          ADDL      XAR4,ACC
         00000539 00A4 
    3540 0000053a 2D42          MOV       T,*-SP[2]             ; |770| 
    3541 0000053b 3114          MPYB      P,T,#20               ; |772| 
    3542 0000053c AAA9          MOVL      ACC,XAR2              ; |772| 
    3543 0000053d A844          MOVL      *-SP[4],XAR4          ; |770| 
    3544 0000053e 07AB          ADDL      ACC,P
    3545 0000053f 8344          MOVL      XAR5,*-SP[4]          ; |774| 
    3546 00000540 8AA2          MOVL      XAR4,XAR2             ; |774| 
    3547 00000541 0903          ADDB      ACC,#3                ; |772| 
    3548 00000542 82A9          MOVL      XAR3,ACC              ; |772| 
    3549 00000543 7640!         LCR       #__f_mutex_get        ; |774| 
         00000544 0000 
    3550                      ; call occurs [#__f_mutex_get] ; |774| 
    3551 00000545 5200          CMPB      AL,#0                 ; |774| 
    3552 00000546 ED32          BF        L130,NEQ              ; |774| 
    3553                      ; branchcc occurs ; |774| 
    3554 00000547 8A44          MOVL      XAR4,*-SP[4]
    3555 00000548 7640!         LCR       #__f_checkstatus      ; |777| 
TMS320C2000 COFF Assembler PC v4.1.3 Thu Aug 18 12:16:14 2016

Tools Copyright (c) 1996-2006 Texas Instruments Incorporated
fat.asm                                                              PAGE   69

         00000549 0000 
    3556                      ; call occurs [#__f_checkstatus] ; |777| 
    3557 0000054a 5200          CMPB      AL,#0                 ; |777| 
    3558 0000054b EC09          BF        L126,EQ               ; |777| 
    3559                      ; branchcc occurs ; |777| 
    3560 0000054c 2D42          MOV       T,*-SP[2]
    3561 0000054d 3514          MPYB      ACC,T,#20             ; |778| 
    3562 0000054e 5601          ADDL      XAR2,ACC
         0000054f 00A2 
    3563 00000550 2BDA          MOV       *+XAR2[3],#0          ; |778| 
    3564 00000551 8A44          MOVL      XAR4,*-SP[4]          ; |779| 
    3565 00000552 0201          MOVB      ACC,#1
    3566 00000553 1EC4          MOVL      *+XAR4[0],ACC         ; |779| 
    3567 00000554       L126:    
    3568 00000554 9241          MOV       AL,*-SP[1]
    3569 00000555 EC22          BF        L129,EQ               ; |782| 
    3570                      ; branchcc occurs ; |782| 
    3571 00000556 9CFF          ADDB      AL,#-1
    3572 00000557 BE00          MOVB      XAR6,#0
    3573 00000558 9641          MOV       *-SP[1],AL            ; |786| 
    3574 00000559 56C5          BF        L128,LEQ              ; |786| 
         0000055a 0018 
    3575                      ; branchcc occurs ; |786| 
    3576              L127:    
    3577              DW$L$_fn_getdcwd$9$B:
    3578                      .dwpsn  "fat.c",786,0
    3579 0000055b 8AA3          MOVL      XAR4,XAR3             ; |787| 
    3580 0000055c 3B01          SETC      SXM
    3581 0000055d 92A6          MOV       AL,AR6
    3582 0000055e 85A9          MOV       ACC,AL                ; |787| 
    3583 0000055f 5601          ADDL      XAR4,ACC
         00000560 00A4 
    3584 00000561 80C4          MOVZ      AR7,*+XAR4[0]         ; |787| 
    3585 00000562 8AA1          MOVL      XAR4,XAR1             ; |788| 
    3586 00000563 92A6          MOV       AL,AR6                ; |787| 
    3587 00000564 85A9          MOV       ACC,AL                ; |788| 
    3588 00000565 5601          ADDL      XAR4,ACC
         00000566 00A4 
    3589 00000567 92A7          MOV       AL,AR7                ; |788| 
    3590 00000568 7FC4          MOV       *+XAR4[0],AR7         ; |788| 
    3591 00000569 EC08          BF        L128,EQ               ; |789| 
    3592                      ; branchcc occurs ; |789| 
    3593 0000056a       DW$L$_fn_getdcwd$9$E:
    3594 0000056a       DW$L$_fn_getdcwd$10$B:
    3595 0000056a 92A6          MOV       AL,AR6
    3596 0000056b 9C01          ADDB      AL,#1                 ; |786| 
    3597 0000056c 88A9          MOVZ      AR6,AL                ; |786| 
    3598 0000056d 9241          MOV       AL,*-SP[1]            ; |786| 
    3599 0000056e 54A6          CMP       AL,AR6                ; |786| 
    3600                      .dwpsn  "fat.c",790,0
    3601 0000056f 56C2          BF        L127,GT               ; |786| 
         00000570 FFEC 
    3602                      ; branchcc occurs ; |786| 
    3603 00000571       DW$L$_fn_getdcwd$10$E:
    3604 00000571       L128:    
TMS320C2000 COFF Assembler PC v4.1.3 Thu Aug 18 12:16:14 2016

Tools Copyright (c) 1996-2006 Texas Instruments Incorporated
fat.asm                                                              PAGE   70

    3605 00000571 92A6          MOV       AL,AR6
    3606 00000572 3B01          SETC      SXM
    3607 00000573 85A9          MOV       ACC,AL                ; |792| 
    3608 00000574 5601          ADDL      XAR1,ACC
         00000575 00A1 
    3609 00000576 2BC1          MOV       *+XAR1[0],#0          ; |792| 
    3610 00000577       L129:    
    3611 00000577 9A00          MOVB      AL,#0
    3612 00000578       L130:    
    3613 00000578 FE84          SUBB      SP,#4                 ; |794| 
    3614 00000579 82BE          MOVL      XAR3,*--SP            ; |794| 
    3615 0000057a 86BE          MOVL      XAR2,*--SP            ; |794| 
    3616 0000057b 8BBE          MOVL      XAR1,*--SP            ; |794| 
    3617                      .dwpsn  "fat.c",795,1
    3618 0000057c 0006          LRETR
    3619                      ; return occurs
    3620              
    3621              DW$367  .dwtag  DW_TAG_loop
    3622                      .dwattr DW$367, DW_AT_name("D:\DEV\Amot\BearingWear\XTSW_V6_20\fat.asm:L127:1:1471518973")
    3623                      .dwattr DW$367, DW_AT_begin_file("fat.c")
    3624                      .dwattr DW$367, DW_AT_begin_line(0x312)
    3625                      .dwattr DW$367, DW_AT_end_line(0x316)
    3626              DW$368  .dwtag  DW_TAG_loop_range
    3627                      .dwattr DW$368, DW_AT_low_pc(DW$L$_fn_getdcwd$9$B)
    3628                      .dwattr DW$368, DW_AT_high_pc(DW$L$_fn_getdcwd$9$E)
    3629              DW$369  .dwtag  DW_TAG_loop_range
    3630                      .dwattr DW$369, DW_AT_low_pc(DW$L$_fn_getdcwd$10$B)
    3631                      .dwattr DW$369, DW_AT_high_pc(DW$L$_fn_getdcwd$10$E)
    3632                      .dwendtag DW$367
    3633              
    3634                      .dwattr DW$362, DW_AT_end_file("fat.c")
    3635                      .dwattr DW$362, DW_AT_end_line(0x31b)
    3636                      .dwattr DW$362, DW_AT_end_column(0x01)
    3637                      .dwendtag DW$362
    3638              
    3639 0000057d               .sect   ".text"
    3640                      .global _fn_getcwd
    3641              
    3642              DW$370  .dwtag  DW_TAG_subprogram, DW_AT_name("fn_getcwd"), DW_AT_symbol_name("_fn_getcwd")
    3643                      .dwattr DW$370, DW_AT_low_pc(_fn_getcwd)
    3644                      .dwattr DW$370, DW_AT_high_pc(0x00)
    3645                      .dwattr DW$370, DW_AT_begin_file("fat.c")
    3646                      .dwattr DW$370, DW_AT_begin_line(0x32e)
    3647                      .dwattr DW$370, DW_AT_begin_column(0x05)
    3648                      .dwattr DW$370, DW_AT_frame_base[DW_OP_breg20 -12]
    3649                      .dwattr DW$370, DW_AT_skeletal(0x01)
    3650                      .dwpsn  "fat.c",814,54
    3651              
    3652              ;***************************************************************
    3653              ;* FNAME: _fn_getcwd                    FR SIZE:  10           *
    3654              ;*                                                             *
    3655              ;* FUNCTION ENVIRONMENT                                        *
    3656              ;*                                                             *
    3657              ;* FUNCTION PROPERTIES                                         *
    3658              ;*                            0 Parameter,  4 Auto,  6 SOE     *
TMS320C2000 COFF Assembler PC v4.1.3 Thu Aug 18 12:16:14 2016

Tools Copyright (c) 1996-2006 Texas Instruments Incorporated
fat.asm                                                              PAGE   71

    3659              ;***************************************************************
    3660              
    3661              _fn_getcwd:
    3662              ;* AR4   assigned to _fm
    3663              DW$371  .dwtag  DW_TAG_formal_parameter, DW_AT_name("fm"), DW_AT_symbol_name("_fm")
    3664                      .dwattr DW$371, DW_AT_type(*DW$T$117)
    3665                      .dwattr DW$371, DW_AT_location[DW_OP_reg12]
    3666              ;* AR5   assigned to _buffer
    3667              DW$372  .dwtag  DW_TAG_formal_parameter, DW_AT_name("buffer"), DW_AT_symbol_name("_buffer")
    3668                      .dwattr DW$372, DW_AT_type(*DW$T$59)
    3669                      .dwattr DW$372, DW_AT_location[DW_OP_reg14]
    3670              ;* AL    assigned to _maxlen
    3671              DW$373  .dwtag  DW_TAG_formal_parameter, DW_AT_name("maxlen"), DW_AT_symbol_name("_maxlen")
    3672                      .dwattr DW$373, DW_AT_type(*DW$T$10)
    3673                      .dwattr DW$373, DW_AT_location[DW_OP_reg0]
    3674 0000057d B2BD          MOVL      *SP++,XAR1
    3675 0000057e AABD          MOVL      *SP++,XAR2
    3676 0000057f A2BD          MOVL      *SP++,XAR3
    3677 00000580 FE04          ADDB      SP,#4
    3678 00000581 8BA5          MOVL      XAR1,XAR5             ; |814| 
    3679 00000582 86A4          MOVL      XAR2,XAR4             ; |814| 
    3680 00000583 9641          MOV       *-SP[1],AL            ; |814| 
    3681 00000584 7640!         LCR       #_fn_getdrive         ; |821| 
         00000585 0000 
    3682                      ; call occurs [#_fn_getdrive] ; |821| 
    3683 00000586 5200          CMPB      AL,#0                 ; |821| 
    3684 00000587 9642          MOV       *-SP[2],AL            ; |821| 
    3685 00000588 56C4          BF        L131,LT               ; |821| 
         00000589 0005 
    3686                      ; branchcc occurs ; |821| 
    3687 0000058a 5200          CMPB      AL,#0                 ; |821| 
    3688 0000058b 56C5          BF        L132,LEQ              ; |821| 
         0000058c 0005 
    3689                      ; branchcc occurs ; |821| 
    3690 0000058d       L131:    
    3691 0000058d 9A01          MOVB      AL,#1                 ; |822| 
    3692 0000058e 56CF          BF        L138,UNC              ; |822| 
         0000058f 004E 
    3693                      ; branch occurs ; |822| 
    3694 00000590       L132:    
    3695 00000590 2D42          MOV       T,*-SP[2]
    3696 00000591 8F00!         MOVL      XAR4,#_f_filesystem   ; |823| 
         00000592 0000 
    3697              ;       MOV       T,T Implicitly done by - MPY ACC,OP,#IMM ; |823| 
    3698 00000593 34A9          MPY       ACC,AL,#1148          ; |823| 
         00000594 047C 
    3699 00000595 5601          ADDL      XAR4,ACC
         00000596 00A4 
    3700 00000597 2D42          MOV       T,*-SP[2]             ; |823| 
    3701 00000598 3114          MPYB      P,T,#20               ; |825| 
    3702 00000599 AAA9          MOVL      ACC,XAR2              ; |825| 
    3703 0000059a A844          MOVL      *-SP[4],XAR4          ; |823| 
    3704 0000059b 07AB          ADDL      ACC,P
    3705 0000059c 8344          MOVL      XAR5,*-SP[4]          ; |827| 
    3706 0000059d 8AA2          MOVL      XAR4,XAR2             ; |827| 
TMS320C2000 COFF Assembler PC v4.1.3 Thu Aug 18 12:16:14 2016

Tools Copyright (c) 1996-2006 Texas Instruments Incorporated
fat.asm                                                              PAGE   72

    3707 0000059e 0903          ADDB      ACC,#3                ; |825| 
    3708 0000059f 82A9          MOVL      XAR3,ACC              ; |825| 
    3709 000005a0 7640!         LCR       #__f_mutex_get        ; |827| 
         000005a1 0000 
    3710                      ; call occurs [#__f_mutex_get] ; |827| 
    3711 000005a2 5200          CMPB      AL,#0                 ; |827| 
    3712 000005a3 ED39          BF        L138,NEQ              ; |827| 
    3713                      ; branchcc occurs ; |827| 
    3714 000005a4 8A44          MOVL      XAR4,*-SP[4]
    3715 000005a5 7640!         LCR       #__f_checkstatus      ; |830| 
         000005a6 0000 
    3716                      ; call occurs [#__f_checkstatus] ; |830| 
    3717 000005a7 5200          CMPB      AL,#0                 ; |830| 
    3718 000005a8 EC09          BF        L133,EQ               ; |830| 
    3719                      ; branchcc occurs ; |830| 
    3720 000005a9 2D42          MOV       T,*-SP[2]
    3721 000005aa 3514          MPYB      ACC,T,#20             ; |831| 
    3722 000005ab 5601          ADDL      XAR2,ACC
         000005ac 00A2 
    3723 000005ad 2BDA          MOV       *+XAR2[3],#0          ; |831| 
    3724 000005ae 8A44          MOVL      XAR4,*-SP[4]          ; |832| 
    3725 000005af 0201          MOVB      ACC,#1
    3726 000005b0 1EC4          MOVL      *+XAR4[0],ACC         ; |832| 
    3727 000005b1       L133:    
    3728 000005b1 9241          MOV       AL,*-SP[1]
    3729 000005b2 EC29          BF        L137,EQ               ; |835| 
    3730                      ; branchcc occurs ; |835| 
    3731 000005b3 9CFF          ADDB      AL,#-1
    3732 000005b4 9641          MOV       *-SP[1],AL            ; |837| 
    3733 000005b5 EC06          BF        L134,EQ               ; |837| 
    3734                      ; branchcc occurs ; |837| 
    3735 000005b6 2881          MOV       *XAR1++,#47           ; |841| 
         000005b7 002F 
    3736 000005b8 9241          MOV       AL,*-SP[1]            ; |841| 
    3737 000005b9 9CFF          ADDB      AL,#-1
    3738 000005ba 9641          MOV       *-SP[1],AL            ; |842| 
    3739 000005bb       L134:    
    3740 000005bb 5200          CMPB      AL,#0                 ; |846| 
    3741 000005bc BE00          MOVB      XAR6,#0
    3742 000005bd 56C5          BF        L136,LEQ              ; |846| 
         000005be 0018 
    3743                      ; branchcc occurs ; |846| 
    3744              L135:    
    3745              DW$L$_fn_getcwd$11$B:
    3746                      .dwpsn  "fat.c",846,0
    3747 000005bf 8AA3          MOVL      XAR4,XAR3             ; |847| 
    3748 000005c0 3B01          SETC      SXM
    3749 000005c1 92A6          MOV       AL,AR6
    3750 000005c2 85A9          MOV       ACC,AL                ; |847| 
    3751 000005c3 5601          ADDL      XAR4,ACC
         000005c4 00A4 
    3752 000005c5 80C4          MOVZ      AR7,*+XAR4[0]         ; |847| 
    3753 000005c6 8AA1          MOVL      XAR4,XAR1             ; |848| 
    3754 000005c7 92A6          MOV       AL,AR6                ; |847| 
    3755 000005c8 85A9          MOV       ACC,AL                ; |848| 
TMS320C2000 COFF Assembler PC v4.1.3 Thu Aug 18 12:16:14 2016

Tools Copyright (c) 1996-2006 Texas Instruments Incorporated
fat.asm                                                              PAGE   73

    3756 000005c9 5601          ADDL      XAR4,ACC
         000005ca 00A4 
    3757 000005cb 92A7          MOV       AL,AR7                ; |848| 
    3758 000005cc 7FC4          MOV       *+XAR4[0],AR7         ; |848| 
    3759 000005cd EC08          BF        L136,EQ               ; |849| 
    3760                      ; branchcc occurs ; |849| 
    3761 000005ce       DW$L$_fn_getcwd$11$E:
    3762 000005ce       DW$L$_fn_getcwd$12$B:
    3763 000005ce 92A6          MOV       AL,AR6
    3764 000005cf 9C01          ADDB      AL,#1                 ; |846| 
    3765 000005d0 88A9          MOVZ      AR6,AL                ; |846| 
    3766 000005d1 9241          MOV       AL,*-SP[1]            ; |846| 
    3767 000005d2 54A6          CMP       AL,AR6                ; |846| 
    3768                      .dwpsn  "fat.c",850,0
    3769 000005d3 56C2          BF        L135,GT               ; |846| 
         000005d4 FFEC 
    3770                      ; branchcc occurs ; |846| 
    3771 000005d5       DW$L$_fn_getcwd$12$E:
    3772 000005d5       L136:    
    3773 000005d5 92A6          MOV       AL,AR6
    3774 000005d6 3B01          SETC      SXM
    3775 000005d7 85A9          MOV       ACC,AL                ; |852| 
    3776 000005d8 5601          ADDL      XAR1,ACC
         000005d9 00A1 
    3777 000005da 2BC1          MOV       *+XAR1[0],#0          ; |852| 
    3778 000005db       L137:    
    3779 000005db 9A00          MOVB      AL,#0
    3780 000005dc       L138:    
    3781 000005dc FE84          SUBB      SP,#4                 ; |854| 
    3782 000005dd 82BE          MOVL      XAR3,*--SP            ; |854| 
    3783 000005de 86BE          MOVL      XAR2,*--SP            ; |854| 
    3784 000005df 8BBE          MOVL      XAR1,*--SP            ; |854| 
    3785                      .dwpsn  "fat.c",855,1
    3786 000005e0 0006          LRETR
    3787                      ; return occurs
    3788              
    3789              DW$374  .dwtag  DW_TAG_loop
    3790                      .dwattr DW$374, DW_AT_name("D:\DEV\Amot\BearingWear\XTSW_V6_20\fat.asm:L135:1:1471518973")
    3791                      .dwattr DW$374, DW_AT_begin_file("fat.c")
    3792                      .dwattr DW$374, DW_AT_begin_line(0x34e)
    3793                      .dwattr DW$374, DW_AT_end_line(0x352)
    3794              DW$375  .dwtag  DW_TAG_loop_range
    3795                      .dwattr DW$375, DW_AT_low_pc(DW$L$_fn_getcwd$11$B)
    3796                      .dwattr DW$375, DW_AT_high_pc(DW$L$_fn_getcwd$11$E)
    3797              DW$376  .dwtag  DW_TAG_loop_range
    3798                      .dwattr DW$376, DW_AT_low_pc(DW$L$_fn_getcwd$12$B)
    3799                      .dwattr DW$376, DW_AT_high_pc(DW$L$_fn_getcwd$12$E)
    3800                      .dwendtag DW$374
    3801              
    3802                      .dwattr DW$370, DW_AT_end_file("fat.c")
    3803                      .dwattr DW$370, DW_AT_end_line(0x357)
    3804                      .dwattr DW$370, DW_AT_end_column(0x01)
    3805                      .dwendtag DW$370
    3806              
    3807 000005e1               .sect   ".text"
TMS320C2000 COFF Assembler PC v4.1.3 Thu Aug 18 12:16:14 2016

Tools Copyright (c) 1996-2006 Texas Instruments Incorporated
fat.asm                                                              PAGE   74

    3808                      .global _fn_findfirst
    3809              
    3810              DW$377  .dwtag  DW_TAG_subprogram, DW_AT_name("fn_findfirst"), DW_AT_symbol_name("_fn_findfirst")
    3811                      .dwattr DW$377, DW_AT_low_pc(_fn_findfirst)
    3812                      .dwattr DW$377, DW_AT_high_pc(0x00)
    3813                      .dwattr DW$377, DW_AT_begin_file("fat.c")
    3814                      .dwattr DW$377, DW_AT_begin_line(0x36b)
    3815                      .dwattr DW$377, DW_AT_begin_column(0x05)
    3816                      .dwattr DW$377, DW_AT_frame_base[DW_OP_breg20 -10]
    3817                      .dwattr DW$377, DW_AT_skeletal(0x01)
    3818                      .dwpsn  "fat.c",875,65
    3819              
    3820              ;***************************************************************
    3821              ;* FNAME: _fn_findfirst                 FR SIZE:   8           *
    3822              ;*                                                             *
    3823              ;* FUNCTION ENVIRONMENT                                        *
    3824              ;*                                                             *
    3825              ;* FUNCTION PROPERTIES                                         *
    3826              ;*                            2 Parameter,  2 Auto,  4 SOE     *
    3827              ;***************************************************************
    3828              
    3829              _fn_findfirst:
    3830              ;* AR4   assigned to _fm
    3831              DW$378  .dwtag  DW_TAG_formal_parameter, DW_AT_name("fm"), DW_AT_symbol_name("_fm")
    3832                      .dwattr DW$378, DW_AT_type(*DW$T$117)
    3833                      .dwattr DW$378, DW_AT_location[DW_OP_reg12]
    3834              ;* AR5   assigned to _filename
    3835              DW$379  .dwtag  DW_TAG_formal_parameter, DW_AT_name("filename"), DW_AT_symbol_name("_filename")
    3836                      .dwattr DW$379, DW_AT_type(*DW$T$146)
    3837                      .dwattr DW$379, DW_AT_location[DW_OP_reg14]
    3838              DW$380  .dwtag  DW_TAG_formal_parameter, DW_AT_name("find"), DW_AT_symbol_name("_find")
    3839                      .dwattr DW$380, DW_AT_type(*DW$T$163)
    3840                      .dwattr DW$380, DW_AT_location[DW_OP_breg20 -12]
    3841 000005e1 B2BD          MOVL      *SP++,XAR1
    3842 000005e2 AABD          MOVL      *SP++,XAR2
    3843 000005e3 FE04          ADDB      SP,#4
    3844 000005e4 864C          MOVL      XAR2,*-SP[12]         ; |875| 
    3845 000005e5 0226          MOVB      ACC,#38
    3846 000005e6 8BA4          MOVL      XAR1,XAR4             ; |875| 
    3847 000005e7 07A2          ADDL      ACC,XAR2
    3848 000005e8 1E42          MOVL      *-SP[2],ACC           ; |879| 
    3849 000005e9 7640'         LCR       #__f_setfsname        ; |879| 
         000005ea 0175 
    3850                      ; call occurs [#__f_setfsname] ; |879| 
    3851 000005eb 5200          CMPB      AL,#0                 ; |879| 
    3852 000005ec ED0B          BF        L139,NEQ              ; |879| 
    3853                      ; branchcc occurs ; |879| 
    3854 000005ed 023B          MOVB      ACC,#59
    3855 000005ee 07A2          ADDL      ACC,XAR2
    3856 000005ef 8AA9          MOVL      XAR4,ACC              ; |880| 
    3857 000005f0 0243          MOVB      ACC,#67
    3858 000005f1 07A2          ADDL      ACC,XAR2
    3859 000005f2 83A9          MOVL      XAR5,ACC              ; |880| 
    3860 000005f3 7640'         LCR       #__f_checkname        ; |880| 
         000005f4 003E 
TMS320C2000 COFF Assembler PC v4.1.3 Thu Aug 18 12:16:14 2016

Tools Copyright (c) 1996-2006 Texas Instruments Incorporated
fat.asm                                                              PAGE   75

    3861                      ; call occurs [#__f_checkname] ; |880| 
    3862 000005f5 FF58          TEST      ACC                   ; |880| 
    3863 000005f6 EC04          BF        L140,EQ               ; |880| 
    3864                      ; branchcc occurs ; |880| 
    3865 000005f7       L139:    
    3866 000005f7 9A04          MOVB      AL,#4                 ; |880| 
    3867 000005f8 56CF          BF        L142,UNC              ; |880| 
         000005f9 001D 
    3868                      ; branch occurs ; |880| 
    3869 000005fa       L140:    
    3870 000005fa 5DAD          MOVZ      AR5,SP                ; |882| 
    3871 000005fb D026          MOVB      XAR0,#38              ; |882| 
    3872 000005fc 8AA1          MOVL      XAR4,XAR1             ; |882| 
    3873 000005fd 9292          MOV       AL,*+XAR2[AR0]        ; |882| 
    3874 000005fe DD84          SUBB      XAR5,#4               ; |882| 
    3875 000005ff 7640!         LCR       #__f_getvolume        ; |882| 
         00000600 0000 
    3876                      ; call occurs [#__f_getvolume] ; |882| 
    3877 00000601 5200          CMPB      AL,#0                 ; |882| 
    3878 00000602 ED13          BF        L142,NEQ              ; |882| 
    3879                      ; branchcc occurs ; |882| 
    3880 00000603 0246          MOVB      ACC,#70
    3881 00000604 07A2          ADDL      ACC,XAR2
    3882 00000605 1E42          MOVL      *-SP[2],ACC           ; |882| 
    3883 00000606 0226          MOVB      ACC,#38
    3884 00000607 8A44          MOVL      XAR4,*-SP[4]          ; |882| 
    3885 00000608 07A2          ADDL      ACC,XAR2
    3886 00000609 83A9          MOVL      XAR5,ACC              ; |882| 
    3887 0000060a 7640'         LCR       #__f_findpath         ; |882| 
         0000060b 0465 
    3888                      ; call occurs [#__f_findpath] ; |882| 
    3889 0000060c 5200          CMPB      AL,#0                 ; |882| 
    3890 0000060d EC07          BF        L141,EQ               ; |882| 
    3891                      ; branchcc occurs ; |882| 
    3892 0000060e 83A2          MOVL      XAR5,XAR2             ; |882| 
    3893 0000060f 8AA1          MOVL      XAR4,XAR1             ; |882| 
    3894 00000610 7640'         LCR       #_fn_findnext         ; |882| 
         00000611 0619 
    3895                      ; call occurs [#_fn_findnext] ; |882| 
    3896 00000612 56CF          BF        L142,UNC              ; |882| 
         00000613 0003 
    3897                      ; branch occurs ; |882| 
    3898 00000614       L141:    
    3899 00000614 9A03          MOVB      AL,#3                 ; |882| 
    3900 00000615       L142:    
    3901 00000615 FE84          SUBB      SP,#4                 ; |882| 
    3902 00000616 86BE          MOVL      XAR2,*--SP            ; |882| 
    3903 00000617 8BBE          MOVL      XAR1,*--SP            ; |882| 
    3904                      .dwpsn  "fat.c",888,1
    3905 00000618 0006          LRETR
    3906                      ; return occurs
    3907                      .dwattr DW$377, DW_AT_end_file("fat.c")
    3908                      .dwattr DW$377, DW_AT_end_line(0x378)
    3909                      .dwattr DW$377, DW_AT_end_column(0x01)
    3910                      .dwendtag DW$377
TMS320C2000 COFF Assembler PC v4.1.3 Thu Aug 18 12:16:14 2016

Tools Copyright (c) 1996-2006 Texas Instruments Incorporated
fat.asm                                                              PAGE   76

    3911              
    3912 00000619               .sect   ".text"
    3913                      .global _fn_findnext
    3914              
    3915              DW$381  .dwtag  DW_TAG_subprogram, DW_AT_name("fn_findnext"), DW_AT_symbol_name("_fn_findnext")
    3916                      .dwattr DW$381, DW_AT_low_pc(_fn_findnext)
    3917                      .dwattr DW$381, DW_AT_high_pc(0x00)
    3918                      .dwattr DW$381, DW_AT_begin_file("fat.c")
    3919                      .dwattr DW$381, DW_AT_begin_line(0x38b)
    3920                      .dwattr DW$381, DW_AT_begin_column(0x05)
    3921                      .dwattr DW$381, DW_AT_frame_base[DW_OP_breg20 -14]
    3922                      .dwattr DW$381, DW_AT_skeletal(0x01)
    3923                      .dwpsn  "fat.c",907,43
    3924              
    3925              ;***************************************************************
    3926              ;* FNAME: _fn_findnext                  FR SIZE:  12           *
    3927              ;*                                                             *
    3928              ;* FUNCTION ENVIRONMENT                                        *
    3929              ;*                                                             *
    3930              ;* FUNCTION PROPERTIES                                         *
    3931              ;*                            6 Parameter,  4 Auto,  2 SOE     *
    3932              ;***************************************************************
    3933              
    3934              _fn_findnext:
    3935              ;* AR4   assigned to _fm
    3936              DW$382  .dwtag  DW_TAG_formal_parameter, DW_AT_name("fm"), DW_AT_symbol_name("_fm")
    3937                      .dwattr DW$382, DW_AT_type(*DW$T$117)
    3938                      .dwattr DW$382, DW_AT_location[DW_OP_reg12]
    3939              ;* AR5   assigned to _find
    3940              DW$383  .dwtag  DW_TAG_formal_parameter, DW_AT_name("find"), DW_AT_symbol_name("_find")
    3941                      .dwattr DW$383, DW_AT_type(*DW$T$163)
    3942                      .dwattr DW$383, DW_AT_location[DW_OP_reg14]
    3943 00000619 B2BD          MOVL      *SP++,XAR1
    3944 0000061a FE0A          ADDB      SP,#10
    3945 0000061b 8BA5          MOVL      XAR1,XAR5             ; |907| 
    3946 0000061c 5DAD          MOVZ      AR5,SP                ; |913| 
    3947 0000061d D026          MOVB      XAR0,#38              ; |913| 
    3948 0000061e DD8A          SUBB      XAR5,#10              ; |913| 
    3949 0000061f 9291          MOV       AL,*+XAR1[AR0]        ; |913| 
    3950 00000620 7640!         LCR       #__f_getvolume        ; |913| 
         00000621 0000 
    3951                      ; call occurs [#__f_getvolume] ; |913| 
    3952 00000622 5200          CMPB      AL,#0                 ; |913| 
    3953 00000623 ED63          BF        L146,NEQ              ; |913| 
    3954                      ; branchcc occurs ; |913| 
    3955 00000624 0243          MOVB      ACC,#67
    3956 00000625 5CAD          MOVZ      AR4,SP                ; |916| 
    3957 00000626 07A1          ADDL      ACC,XAR1
    3958 00000627 1E42          MOVL      *-SP[2],ACC           ; |916| 
    3959 00000628 0246          MOVB      ACC,#70
    3960 00000629 DC88          SUBB      XAR4,#8               ; |916| 
    3961 0000062a 07A1          ADDL      ACC,XAR1
    3962 0000062b 1E44          MOVL      *-SP[4],ACC           ; |916| 
    3963 0000062c A846          MOVL      *-SP[6],XAR4          ; |916| 
    3964 0000062d 023B          MOVB      ACC,#59
TMS320C2000 COFF Assembler PC v4.1.3 Thu Aug 18 12:16:14 2016

Tools Copyright (c) 1996-2006 Texas Instruments Incorporated
fat.asm                                                              PAGE   77

    3965 0000062e 8A4A          MOVL      XAR4,*-SP[10]         ; |916| 
    3966 0000062f 07A1          ADDL      ACC,XAR1
    3967 00000630 83A9          MOVL      XAR5,ACC              ; |916| 
    3968 00000631 7640'         LCR       #__f_findfilewc       ; |916| 
         00000632 0389 
    3969                      ; call occurs [#__f_findfilewc] ; |916| 
    3970 00000633 5200          CMPB      AL,#0                 ; |916| 
    3971 00000634 ED04          BF        L143,NEQ              ; |916| 
    3972                      ; branchcc occurs ; |916| 
    3973 00000635 9A05          MOVB      AL,#5                 ; |916| 
    3974 00000636 56CF          BF        L146,UNC              ; |916| 
         00000637 0050 
    3975                      ; branch occurs ; |916| 
    3976 00000638       L143:    
    3977 00000638 D014          MOVB      XAR0,#20              ; |918| 
    3978 00000639 3B01          SETC      SXM
    3979                      .dwpsn  "fat.c",918,0
    3980 0000063a 9A00          MOVB      AL,#0
    3981 0000063b       L144:    
    3982 0000063b       DW$L$_fn_findnext$5$B:
    3983 0000063b 8A48          MOVL      XAR4,*-SP[8]          ; |918| 
    3984 0000063c 85A9          MOV       ACC,AL                ; |918| 
    3985 0000063d 5601          ADDL      XAR4,ACC
         0000063e 00A4 
    3986 0000063f 88C4          MOVZ      AR6,*+XAR4[0]         ; |918| 
    3987 00000640 8AA1          MOVL      XAR4,XAR1             ; |918| 
    3988 00000641 85A9          MOV       ACC,AL                ; |918| 
    3989 00000642 5601          ADDL      XAR4,ACC
         00000643 00A4 
    3990 00000644 9C01          ADDB      AL,#1                 ; |918| 
    3991 00000645 5208          CMPB      AL,#8                 ; |918| 
    3992 00000646 7E94          MOV       *+XAR4[AR0],AR6       ; |918| 
    3993 00000647 56C4          BF        L144,LT               ; |918| 
         00000648 FFF4 
    3994                      ; branchcc occurs ; |918| 
    3995 00000649       DW$L$_fn_findnext$5$E:
    3996 00000649 3B01          SETC      SXM
    3997                      .dwpsn  "fat.c",919,0
    3998 0000064a 9A00          MOVB      AL,#0
    3999 0000064b       L145:    
    4000 0000064b       DW$L$_fn_findnext$7$B:
    4001 0000064b 8A48          MOVL      XAR4,*-SP[8]          ; |919| 
    4002 0000064c 85A9          MOV       ACC,AL                ; |919| 
    4003 0000064d 5601          ADDL      XAR4,ACC
         0000064e 00A4 
    4004 0000064f D008          MOVB      XAR0,#8               ; |919| 
    4005 00000650 8894          MOVZ      AR6,*+XAR4[AR0]       ; |919| 
    4006 00000651 8AA1          MOVL      XAR4,XAR1             ; |919| 
    4007 00000652 85A9          MOV       ACC,AL                ; |919| 
    4008 00000653 5601          ADDL      XAR4,ACC
         00000654 00A4 
    4009 00000655 9C01          ADDB      AL,#1                 ; |919| 
    4010 00000656 D01C          MOVB      XAR0,#28              ; |919| 
    4011 00000657 5203          CMPB      AL,#3                 ; |919| 
    4012 00000658 7E94          MOV       *+XAR4[AR0],AR6       ; |919| 
TMS320C2000 COFF Assembler PC v4.1.3 Thu Aug 18 12:16:14 2016

Tools Copyright (c) 1996-2006 Texas Instruments Incorporated
fat.asm                                                              PAGE   78

    4013 00000659 56C4          BF        L145,LT               ; |919| 
         0000065a FFF2 
    4014                      ; branchcc occurs ; |919| 
    4015 0000065b       DW$L$_fn_findnext$7$E:
    4016 0000065b 0648          MOVL      ACC,*-SP[8]           ; |921| 
    4017 0000065c 8AA1          MOVL      XAR4,XAR1             ; |921| 
    4018 0000065d 0908          ADDB      ACC,#8                ; |921| 
    4019 0000065e 1E42          MOVL      *-SP[2],ACC           ; |921| 
    4020 0000065f 8348          MOVL      XAR5,*-SP[8]          ; |921| 
    4021 00000660 7640'         LCR       #__f_getfilename      ; |921| 
         00000661 0424 
    4022                      ; call occurs [#__f_getfilename] ; |921| 
    4023 00000662 8A48          MOVL      XAR4,*-SP[8]          ; |923| 
    4024 00000663 D00B          MOVB      XAR0,#11              ; |923| 
    4025 00000664 9294          MOV       AL,*+XAR4[AR0]        ; |923| 
    4026 00000665 D01F          MOVB      XAR0,#31              ; |923| 
    4027 00000666 9691          MOV       *+XAR1[AR0],AL        ; |923| 
    4028 00000667 8A48          MOVL      XAR4,*-SP[8]          ; |924| 
    4029 00000668 DC18          ADDB      XAR4,#24              ; |924| 
    4030 00000669 7640!         LCR       #__f_getword          ; |924| 
         0000066a 0000 
    4031                      ; call occurs [#__f_getword] ; |924| 
    4032 0000066b D021          MOVB      XAR0,#33              ; |924| 
    4033 0000066c 9691          MOV       *+XAR1[AR0],AL        ; |924| 
    4034 0000066d 8A48          MOVL      XAR4,*-SP[8]          ; |925| 
    4035 0000066e DC16          ADDB      XAR4,#22              ; |925| 
    4036 0000066f 7640!         LCR       #__f_getword          ; |925| 
         00000670 0000 
    4037                      ; call occurs [#__f_getword] ; |925| 
    4038 00000671 D020          MOVB      XAR0,#32              ; |925| 
    4039 00000672 9691          MOV       *+XAR1[AR0],AL        ; |925| 
    4040 00000673 8A48          MOVL      XAR4,*-SP[8]          ; |926| 
    4041 00000674 DC1C          ADDB      XAR4,#28              ; |926| 
    4042 00000675 7640!         LCR       #__f_getlong          ; |926| 
         00000676 0000 
    4043                      ; call occurs [#__f_getlong] ; |926| 
    4044 00000677 D024          MOVB      XAR0,#36              ; |926| 
    4045 00000678 1E91          MOVL      *+XAR1[AR0],ACC       ; |926| 
    4046 00000679 8A4A          MOVL      XAR4,*-SP[10]         ; |927| 
    4047 0000067a 8348          MOVL      XAR5,*-SP[8]          ; |927| 
    4048 0000067b 7640!         LCR       #__f_getdecluster     ; |927| 
         0000067c 0000 
    4049                      ; call occurs [#__f_getdecluster] ; |927| 
    4050 0000067d D022          MOVB      XAR0,#34              ; |927| 
    4051 0000067e 1E91          MOVL      *+XAR1[AR0],ACC       ; |927| 
    4052 0000067f 0250          MOVB      ACC,#80
    4053 00000680 07A1          ADDL      ACC,XAR1
    4054 00000681 8AA9          MOVL      XAR4,ACC              ; |928| 
    4055 00000682 0201          MOVB      ACC,#1
    4056 00000683 5601          ADDL      *+XAR4[0],ACC         ; |928| 
         00000684 00C4 
    4057 00000685 9A00          MOVB      AL,#0
    4058 00000686       L146:    
    4059 00000686 FE8A          SUBB      SP,#10                ; |930| 
    4060 00000687 8BBE          MOVL      XAR1,*--SP            ; |930| 
TMS320C2000 COFF Assembler PC v4.1.3 Thu Aug 18 12:16:14 2016

Tools Copyright (c) 1996-2006 Texas Instruments Incorporated
fat.asm                                                              PAGE   79

    4061                      .dwpsn  "fat.c",931,1
    4062 00000688 0006          LRETR
    4063                      ; return occurs
    4064              
    4065              DW$384  .dwtag  DW_TAG_loop
    4066                      .dwattr DW$384, DW_AT_name("D:\DEV\Amot\BearingWear\XTSW_V6_20\fat.asm:L145:1:1471518973")
    4067                      .dwattr DW$384, DW_AT_begin_file("fat.c")
    4068                      .dwattr DW$384, DW_AT_begin_line(0x397)
    4069                      .dwattr DW$384, DW_AT_end_line(0x397)
    4070              DW$385  .dwtag  DW_TAG_loop_range
    4071                      .dwattr DW$385, DW_AT_low_pc(DW$L$_fn_findnext$7$B)
    4072                      .dwattr DW$385, DW_AT_high_pc(DW$L$_fn_findnext$7$E)
    4073                      .dwendtag DW$384
    4074              
    4075              
    4076              DW$386  .dwtag  DW_TAG_loop
    4077                      .dwattr DW$386, DW_AT_name("D:\DEV\Amot\BearingWear\XTSW_V6_20\fat.asm:L144:1:1471518973")
    4078                      .dwattr DW$386, DW_AT_begin_file("fat.c")
    4079                      .dwattr DW$386, DW_AT_begin_line(0x396)
    4080                      .dwattr DW$386, DW_AT_end_line(0x396)
    4081              DW$387  .dwtag  DW_TAG_loop_range
    4082                      .dwattr DW$387, DW_AT_low_pc(DW$L$_fn_findnext$5$B)
    4083                      .dwattr DW$387, DW_AT_high_pc(DW$L$_fn_findnext$5$E)
    4084                      .dwendtag DW$386
    4085              
    4086                      .dwattr DW$381, DW_AT_end_file("fat.c")
    4087                      .dwattr DW$381, DW_AT_end_line(0x3a3)
    4088                      .dwattr DW$381, DW_AT_end_column(0x01)
    4089                      .dwendtag DW$381
    4090              
    4091 00000689               .sect   ".text"
    4092                      .global _fn_chdir
    4093              
    4094              DW$388  .dwtag  DW_TAG_subprogram, DW_AT_name("fn_chdir"), DW_AT_symbol_name("_fn_chdir")
    4095                      .dwattr DW$388, DW_AT_low_pc(_fn_chdir)
    4096                      .dwattr DW$388, DW_AT_high_pc(0x00)
    4097                      .dwattr DW$388, DW_AT_begin_file("fat.c")
    4098                      .dwattr DW$388, DW_AT_begin_line(0x3b6)
    4099                      .dwattr DW$388, DW_AT_begin_column(0x05)
    4100                      .dwattr DW$388, DW_AT_frame_base[DW_OP_breg20 -52]
    4101                      .dwattr DW$388, DW_AT_skeletal(0x01)
    4102                      .dwpsn  "fat.c",950,47
    4103              
    4104              ;***************************************************************
    4105              ;* FNAME: _fn_chdir                     FR SIZE:  50           *
    4106              ;*                                                             *
    4107              ;* FUNCTION ENVIRONMENT                                        *
    4108              ;*                                                             *
    4109              ;* FUNCTION PROPERTIES                                         *
    4110              ;*                            2 Parameter, 46 Auto,  2 SOE     *
    4111              ;***************************************************************
    4112              
    4113              _fn_chdir:
    4114              ;* AR4   assigned to _fm
    4115              DW$389  .dwtag  DW_TAG_formal_parameter, DW_AT_name("fm"), DW_AT_symbol_name("_fm")
TMS320C2000 COFF Assembler PC v4.1.3 Thu Aug 18 12:16:14 2016

Tools Copyright (c) 1996-2006 Texas Instruments Incorporated
fat.asm                                                              PAGE   80

    4116                      .dwattr DW$389, DW_AT_type(*DW$T$117)
    4117                      .dwattr DW$389, DW_AT_location[DW_OP_reg12]
    4118              ;* AR5   assigned to _dirname
    4119              DW$390  .dwtag  DW_TAG_formal_parameter, DW_AT_name("dirname"), DW_AT_symbol_name("_dirname")
    4120                      .dwattr DW$390, DW_AT_type(*DW$T$146)
    4121                      .dwattr DW$390, DW_AT_location[DW_OP_reg14]
    4122 00000689 B2BD          MOVL      *SP++,XAR1
    4123 0000068a FE30          ADDB      SP,#48
    4124 0000068b 8BA4          MOVL      XAR1,XAR4             ; |950| 
    4125 0000068c 5CAD          MOVZ      AR4,SP                ; |958| 
    4126 0000068d DCB0          SUBB      XAR4,#48              ; |958| 
    4127 0000068e A842          MOVL      *-SP[2],XAR4          ; |958| 
    4128 0000068f 8AA1          MOVL      XAR4,XAR1             ; |958| 
    4129 00000690 7640'         LCR       #__f_setfsname        ; |958| 
         00000691 0175 
    4130                      ; call occurs [#__f_setfsname] ; |958| 
    4131 00000692 5201          CMPB      AL,#1                 ; |958| 
    4132 00000693 EC09          BF        L147,EQ               ; |958| 
    4133                      ; branchcc occurs ; |958| 
    4134 00000694 5DAD          MOVZ      AR5,SP                ; |961| 
    4135 00000695 5CAD          MOVZ      AR4,SP                ; |961| 
    4136 00000696 DD93          SUBB      XAR5,#19              ; |961| 
    4137 00000697 DC9B          SUBB      XAR4,#27              ; |961| 
    4138 00000698 7640'         LCR       #__f_checknamewc      ; |961| 
         00000699 00A7 
    4139                      ; call occurs [#__f_checknamewc] ; |961| 
    4140 0000069a FF58          TEST      ACC                   ; |961| 
    4141 0000069b EC04          BF        L148,EQ               ; |961| 
    4142                      ; branchcc occurs ; |961| 
    4143 0000069c       L147:    
    4144 0000069c 9A04          MOVB      AL,#4                 ; |961| 
    4145 0000069d 56CF          BF        L155,UNC              ; |961| 
         0000069e 0056 
    4146                      ; branch occurs ; |961| 
    4147 0000069f       L148:    
    4148 0000069f 5DAD          MOVZ      AR5,SP                ; |963| 
    4149 000006a0 8AA1          MOVL      XAR4,XAR1             ; |963| 
    4150 000006a1 9270          MOV       AL,*-SP[48]           ; |963| 
    4151 000006a2 DD84          SUBB      XAR5,#4               ; |963| 
    4152 000006a3 7640!         LCR       #__f_getvolume        ; |963| 
         000006a4 0000 
    4153                      ; call occurs [#__f_getvolume] ; |963| 
    4154 000006a5 5200          CMPB      AL,#0                 ; |963| 
    4155 000006a6 ED4D          BF        L155,NEQ              ; |963| 
    4156                      ; branchcc occurs ; |963| 
    4157 000006a7 9A00          MOVB      AL,#0
    4158 000006a8 936F          MOV       AH,*-SP[47]           ; |966| 
    4159 000006a9 EC0A          BF        L150,EQ               ; |966| 
    4160                      ; branchcc occurs ; |966| 
    4161              L149:    
    4162              DW$L$_fn_chdir$6$B:
    4163                      .dwpsn  "fat.c",966,0
    4164 000006aa 5CAD          MOVZ      AR4,SP                ; |966| 
    4165 000006ab 3B01          SETC      SXM
    4166 000006ac 9C01          ADDB      AL,#1                 ; |966| 
TMS320C2000 COFF Assembler PC v4.1.3 Thu Aug 18 12:16:14 2016

Tools Copyright (c) 1996-2006 Texas Instruments Incorporated
fat.asm                                                              PAGE   81

    4167 000006ad 85A9          MOV       ACC,AL                ; |966| 
    4168 000006ae DCAF          SUBB      XAR4,#47              ; |966| 
    4169 000006af 5601          ADDL      XAR4,ACC
         000006b0 00A4 
    4170 000006b1 93C4          MOV       AH,*+XAR4[0]          ; |966| 
    4171 000006b2 EDF8          BF        L149,NEQ              ; |966| 
    4172                      ; branchcc occurs ; |966| 
    4173 000006b3       DW$L$_fn_chdir$6$E:
    4174 000006b3       L150:    
    4175 000006b3 5200          CMPB      AL,#0                 ; |967| 
    4176 000006b4 EC10          BF        L152,EQ               ; |967| 
    4177                      ; branchcc occurs ; |967| 
    4178 000006b5 935B          MOV       AH,*-SP[27]           ; |967| 
    4179 000006b6 5320          CMPB      AH,#32                ; |967| 
    4180 000006b7 ED04          BF        L151,NEQ              ; |967| 
    4181                      ; branchcc occurs ; |967| 
    4182 000006b8 9353          MOV       AH,*-SP[19]           ; |967| 
    4183 000006b9 5320          CMPB      AH,#32                ; |967| 
    4184 000006ba EC0A          BF        L152,EQ               ; |967| 
    4185                      ; branchcc occurs ; |967| 
    4186 000006bb       L151:    
    4187 000006bb 5CAD          MOVZ      AR4,SP                ; |967| 
    4188 000006bc 3B01          SETC      SXM
    4189 000006bd 85A9          MOV       ACC,AL                ; |967| 
    4190 000006be DCAF          SUBB      XAR4,#47              ; |967| 
    4191 000006bf 5601          ADDL      XAR4,ACC
         000006c0 00A4 
    4192 000006c1 9C01          ADDB      AL,#1                 ; |967| 
    4193 000006c2 28C4          MOV       *+XAR4[0],#47         ; |967| 
         000006c3 002F 
    4194 000006c4       L152:    
    4195 000006c4 5CAD          MOVZ      AR4,SP                ; |969| 
    4196 000006c5 DC93          SUBB      XAR4,#19              ; |969| 
    4197 000006c6 A842          MOVL      *-SP[2],XAR4          ; |969| 
    4198 000006c7 5CAD          MOVZ      AR4,SP                ; |969| 
    4199 000006c8 3B01          SETC      SXM
    4200 000006c9 5DAD          MOVZ      AR5,SP                ; |969| 
    4201 000006ca 85A9          MOV       ACC,AL                ; |969| 
    4202 000006cb DCAF          SUBB      XAR4,#47              ; |969| 
    4203 000006cc 5601          ADDL      XAR4,ACC
         000006cd 00A4 
    4204 000006ce DD9B          SUBB      XAR5,#27              ; |969| 
    4205 000006cf 7640'         LCR       #__f_getfilename      ; |969| 
         000006d0 0424 
    4206                      ; call occurs [#__f_getfilename] ; |969| 
    4207 000006d1 5CAD          MOVZ      AR4,SP                ; |971| 
    4208 000006d2 5DAD          MOVZ      AR5,SP                ; |971| 
    4209 000006d3 DC90          SUBB      XAR4,#16              ; |971| 
    4210 000006d4 A842          MOVL      *-SP[2],XAR4          ; |971| 
    4211 000006d5 8A44          MOVL      XAR4,*-SP[4]          ; |971| 
    4212 000006d6 DDB0          SUBB      XAR5,#48              ; |971| 
    4213 000006d7 7640'         LCR       #__f_findpath         ; |971| 
         000006d8 0465 
    4214                      ; call occurs [#__f_findpath] ; |971| 
    4215 000006d9 5200          CMPB      AL,#0                 ; |971| 
TMS320C2000 COFF Assembler PC v4.1.3 Thu Aug 18 12:16:14 2016

Tools Copyright (c) 1996-2006 Texas Instruments Incorporated
fat.asm                                                              PAGE   82

    4216 000006da ED04          BF        L153,NEQ              ; |971| 
    4217                      ; branchcc occurs ; |971| 
    4218 000006db 9A05          MOVB      AL,#5                 ; |971| 
    4219 000006dc 56CF          BF        L155,UNC              ; |971| 
         000006dd 0017 
    4220                      ; branch occurs ; |971| 
    4221 000006de       L153:    
    4222 000006de 8D00          MOVL      XAR0,#1134            ; |973| 
         000006df 046E 
    4223 000006e0 3B01          SETC      SXM
    4224                      .dwpsn  "fat.c",973,0
    4225 000006e1 9A00          MOVB      AL,#0
    4226 000006e2       L154:    
    4227 000006e2       DW$L$_fn_chdir$14$B:
    4228 000006e2 5CAD          MOVZ      AR4,SP                ; |973| 
    4229 000006e3 85A9          MOV       ACC,AL                ; |973| 
    4230 000006e4 DCAF          SUBB      XAR4,#47              ; |973| 
    4231 000006e5 5601          ADDL      XAR4,ACC
         000006e6 00A4 
    4232 000006e7 88C4          MOVZ      AR6,*+XAR4[0]         ; |973| 
    4233 000006e8 8A44          MOVL      XAR4,*-SP[4]          ; |973| 
    4234 000006e9 8A94          MOVL      XAR4,*+XAR4[AR0]      ; |973| 
    4235 000006ea 85A9          MOV       ACC,AL                ; |973| 
    4236 000006eb 5601          ADDL      XAR4,ACC
         000006ec 00A4 
    4237 000006ed 9C01          ADDB      AL,#1                 ; |973| 
    4238 000006ee 5214          CMPB      AL,#20                ; |973| 
    4239 000006ef 7EC4          MOV       *+XAR4[0],AR6         ; |973| 
    4240 000006f0 56C4          BF        L154,LT               ; |973| 
         000006f1 FFF2 
    4241                      ; branchcc occurs ; |973| 
    4242 000006f2       DW$L$_fn_chdir$14$E:
    4243 000006f2 9A00          MOVB      AL,#0
    4244 000006f3       L155:    
    4245 000006f3 FEB0          SUBB      SP,#48                ; |975| 
    4246 000006f4 8BBE          MOVL      XAR1,*--SP            ; |975| 
    4247                      .dwpsn  "fat.c",976,1
    4248 000006f5 0006          LRETR
    4249                      ; return occurs
    4250              
    4251              DW$391  .dwtag  DW_TAG_loop
    4252                      .dwattr DW$391, DW_AT_name("D:\DEV\Amot\BearingWear\XTSW_V6_20\fat.asm:L154:1:1471518973")
    4253                      .dwattr DW$391, DW_AT_begin_file("fat.c")
    4254                      .dwattr DW$391, DW_AT_begin_line(0x3cd)
    4255                      .dwattr DW$391, DW_AT_end_line(0x3cd)
    4256              DW$392  .dwtag  DW_TAG_loop_range
    4257                      .dwattr DW$392, DW_AT_low_pc(DW$L$_fn_chdir$14$B)
    4258                      .dwattr DW$392, DW_AT_high_pc(DW$L$_fn_chdir$14$E)
    4259                      .dwendtag DW$391
    4260              
    4261              
    4262              DW$393  .dwtag  DW_TAG_loop
    4263                      .dwattr DW$393, DW_AT_name("D:\DEV\Amot\BearingWear\XTSW_V6_20\fat.asm:L149:1:1471518973")
    4264                      .dwattr DW$393, DW_AT_begin_file("fat.c")
    4265                      .dwattr DW$393, DW_AT_begin_line(0x3c6)
TMS320C2000 COFF Assembler PC v4.1.3 Thu Aug 18 12:16:14 2016

Tools Copyright (c) 1996-2006 Texas Instruments Incorporated
fat.asm                                                              PAGE   83

    4266                      .dwattr DW$393, DW_AT_end_line(0x3c6)
    4267              DW$394  .dwtag  DW_TAG_loop_range
    4268                      .dwattr DW$394, DW_AT_low_pc(DW$L$_fn_chdir$6$B)
    4269                      .dwattr DW$394, DW_AT_high_pc(DW$L$_fn_chdir$6$E)
    4270                      .dwendtag DW$393
    4271              
    4272                      .dwattr DW$388, DW_AT_end_file("fat.c")
    4273                      .dwattr DW$388, DW_AT_end_line(0x3d0)
    4274                      .dwattr DW$388, DW_AT_end_column(0x01)
    4275                      .dwendtag DW$388
    4276              
    4277 000006f6               .sect   ".text"
    4278                      .global _fn_rename
    4279              
    4280              DW$395  .dwtag  DW_TAG_subprogram, DW_AT_name("fn_rename"), DW_AT_symbol_name("_fn_rename")
    4281                      .dwattr DW$395, DW_AT_low_pc(_fn_rename)
    4282                      .dwattr DW$395, DW_AT_high_pc(0x00)
    4283                      .dwattr DW$395, DW_AT_begin_file("fat.c")
    4284                      .dwattr DW$395, DW_AT_begin_line(0x3e6)
    4285                      .dwattr DW$395, DW_AT_begin_column(0x05)
    4286                      .dwattr DW$395, DW_AT_frame_base[DW_OP_breg20 -86]
    4287                      .dwattr DW$395, DW_AT_skeletal(0x01)
    4288                      .dwpsn  "fat.c",998,70
    4289              
    4290              ;***************************************************************
    4291              ;* FNAME: _fn_rename                    FR SIZE:  84           *
    4292              ;*                                                             *
    4293              ;* FUNCTION ENVIRONMENT                                        *
    4294              ;*                                                             *
    4295              ;* FUNCTION PROPERTIES                                         *
    4296              ;*                            6 Parameter, 71 Auto,  6 SOE     *
    4297              ;***************************************************************
    4298              
    4299              _fn_rename:
    4300              ;* AR4   assigned to _fm
    4301              DW$396  .dwtag  DW_TAG_formal_parameter, DW_AT_name("fm"), DW_AT_symbol_name("_fm")
    4302                      .dwattr DW$396, DW_AT_type(*DW$T$117)
    4303                      .dwattr DW$396, DW_AT_location[DW_OP_reg12]
    4304              ;* AR5   assigned to _filename
    4305              DW$397  .dwtag  DW_TAG_formal_parameter, DW_AT_name("filename"), DW_AT_symbol_name("_filename")
    4306                      .dwattr DW$397, DW_AT_type(*DW$T$146)
    4307                      .dwattr DW$397, DW_AT_location[DW_OP_reg14]
    4308              DW$398  .dwtag  DW_TAG_formal_parameter, DW_AT_name("newname"), DW_AT_symbol_name("_newname")
    4309                      .dwattr DW$398, DW_AT_type(*DW$T$146)
    4310                      .dwattr DW$398, DW_AT_location[DW_OP_breg20 -88]
    4311 000006f6 B2BD          MOVL      *SP++,XAR1
    4312 000006f7 AABD          MOVL      *SP++,XAR2
    4313 000006f8 A2BD          MOVL      *SP++,XAR3
    4314 000006f9 5AAD          MOVZ      AR2,SP
    4315 000006fa 8BA4          MOVL      XAR1,XAR4             ; |998| 
    4316 000006fb FE4E          ADDB      SP,#78
    4317 000006fc 5CAD          MOVZ      AR4,SP                ; |1009| 
    4318 000006fd DA8A          SUBB      FP,#10
    4319 000006fe DCC2          SUBB      XAR4,#66              ; |1009| 
    4320 000006ff 82C2          MOVL      XAR3,*+FP[0]          ; |998| 
TMS320C2000 COFF Assembler PC v4.1.3 Thu Aug 18 12:16:14 2016

Tools Copyright (c) 1996-2006 Texas Instruments Incorporated
fat.asm                                                              PAGE   84

    4321 00000700 A842          MOVL      *-SP[2],XAR4          ; |1009| 
    4322 00000701 8AA1          MOVL      XAR4,XAR1             ; |1009| 
    4323 00000702 7640'         LCR       #__f_setfsname        ; |1009| 
         00000703 0175 
    4324                      ; call occurs [#__f_setfsname] ; |1009| 
    4325 00000704 5200          CMPB      AL,#0                 ; |1009| 
    4326 00000705 ED6C          BF        L163,NEQ              ; |1009| 
    4327                      ; branchcc occurs ; |1009| 
    4328 00000706 5DAD          MOVZ      AR5,SP                ; |1010| 
    4329 00000707 5CAD          MOVZ      AR4,SP                ; |1010| 
    4330 00000708 DDA5          SUBB      XAR5,#37              ; |1010| 
    4331 00000709 DCAD          SUBB      XAR4,#45              ; |1010| 
    4332 0000070a 7640'         LCR       #__f_checknamewc      ; |1010| 
         0000070b 00A7 
    4333                      ; call occurs [#__f_checknamewc] ; |1010| 
    4334 0000070c FF58          TEST      ACC                   ; |1010| 
    4335 0000070d ED64          BF        L163,NEQ              ; |1010| 
    4336                      ; branchcc occurs ; |1010| 
    4337 0000070e D016          MOVL      XAR0,#22              ; |1012| 
    4338 0000070f 5DAD          MOVZ      AR5,SP                ; |1012| 
    4339 00000710 8AA1          MOVL      XAR4,XAR1             ; |1012| 
    4340 00000711 9292          MOV       AL,*+FP[AR0]          ; |1012| 
    4341 00000712 DD8A          SUBB      XAR5,#10              ; |1012| 
    4342 00000713 7640!         LCR       #__f_getvolume        ; |1012| 
         00000714 0000 
    4343                      ; call occurs [#__f_getvolume] ; |1012| 
    4344 00000715 5200          CMPB      AL,#0                 ; |1012| 
    4345 00000716 56C0          BF        L168,NEQ              ; |1012| 
         00000717 009C 
    4346                      ; branchcc occurs ; |1012| 
    4347 00000718 5CAD          MOVZ      AR4,SP                ; |1015| 
    4348 00000719 5DAD          MOVZ      AR5,SP                ; |1015| 
    4349 0000071a DC96          SUBB      XAR4,#22              ; |1015| 
    4350 0000071b A842          MOVL      *-SP[2],XAR4          ; |1015| 
    4351 0000071c 8A4A          MOVL      XAR4,*-SP[10]         ; |1015| 
    4352 0000071d DDC2          SUBB      XAR5,#66              ; |1015| 
    4353 0000071e 7640'         LCR       #__f_findpath         ; |1015| 
         0000071f 0465 
    4354                      ; call occurs [#__f_findpath] ; |1015| 
    4355 00000720 5200          CMPB      AL,#0                 ; |1015| 
    4356 00000721 ED04          BF        L156,NEQ              ; |1015| 
    4357                      ; branchcc occurs ; |1015| 
    4358 00000722 9A03          MOVB      AL,#3                 ; |1015| 
    4359 00000723 56CF          BF        L168,UNC              ; |1015| 
         00000724 008F 
    4360                      ; branch occurs ; |1015| 
    4361 00000725       L156:    
    4362 00000725 0656          MOVL      ACC,*-SP[22]          ; |1017| 
    4363 00000726 1E62          MOVL      *-SP[34],ACC          ; |1017| 
    4364 00000727 0650          MOVL      ACC,*-SP[16]          ; |1018| 
    4365 00000728 1E5C          MOVL      *-SP[28],ACC          ; |1018| 
    4366 00000729 064E          MOVL      ACC,*-SP[14]          ; |1019| 
    4367 0000072a 1E5A          MOVL      *-SP[26],ACC          ; |1019| 
    4368 0000072b 064C          MOVL      ACC,*-SP[12]          ; |1020| 
    4369 0000072c 1E58          MOVL      *-SP[24],ACC          ; |1020| 
TMS320C2000 COFF Assembler PC v4.1.3 Thu Aug 18 12:16:14 2016

Tools Copyright (c) 1996-2006 Texas Instruments Incorporated
fat.asm                                                              PAGE   85

    4370 0000072d 926D          MOV       AL,*-SP[45]           ; |1022| 
    4371 0000072e 522E          CMPB      AL,#46                ; |1022| 
    4372 0000072f EC11          BF        L157,EQ               ; |1022| 
    4373                      ; branchcc occurs ; |1022| 
    4374 00000730 5CAD          MOVZ      AR4,SP                ; |1024| 
    4375 00000731 DCA5          SUBB      XAR4,#37              ; |1024| 
    4376 00000732 A842          MOVL      *-SP[2],XAR4          ; |1024| 
    4377 00000733 5CAD          MOVZ      AR4,SP                ; |1024| 
    4378 00000734 DCA2          SUBB      XAR4,#34              ; |1024| 
    4379 00000735 A844          MOVL      *-SP[4],XAR4          ; |1024| 
    4380 00000736 5CAD          MOVZ      AR4,SP                ; |1024| 
    4381 00000737 5DAD          MOVZ      AR5,SP                ; |1024| 
    4382 00000738 DC88          SUBB      XAR4,#8               ; |1024| 
    4383 00000739 A846          MOVL      *-SP[6],XAR4          ; |1024| 
    4384 0000073a 8A4A          MOVL      XAR4,*-SP[10]         ; |1024| 
    4385 0000073b DDAD          SUBB      XAR5,#45              ; |1024| 
    4386 0000073c 7640'         LCR       #__f_findfile         ; |1024| 
         0000073d 0255 
    4387                      ; call occurs [#__f_findfile] ; |1024| 
    4388 0000073e 5200          CMPB      AL,#0                 ; |1024| 
    4389 0000073f ED04          BF        L158,NEQ              ; |1024| 
    4390                      ; branchcc occurs ; |1024| 
    4391 00000740       L157:    
    4392 00000740 9A05          MOVB      AL,#5                 ; |1024| 
    4393 00000741 56CF          BF        L168,UNC              ; |1024| 
         00000742 0071 
    4394                      ; branch occurs ; |1024| 
    4395 00000743       L158:    
    4396 00000743 8A48          MOVL      XAR4,*-SP[8]          ; |1026| 
    4397 00000744 D00B          MOVB      XAR0,#11              ; |1026| 
    4398 00000745 4094          TBIT      *+XAR4[AR0],#0        ; |1026| 
    4399 00000746 EF04          BF        L159,NTC              ; |1026| 
    4400                      ; branchcc occurs ; |1026| 
    4401 00000747 9A0D          MOVB      AL,#13                ; |1026| 
    4402 00000748 56CF          BF        L168,UNC              ; |1026| 
         00000749 006A 
    4403                      ; branch occurs ; |1026| 
    4404 0000074a       L159:    
    4405 0000074a 5CAD          MOVZ      AR4,SP                ; |1028| 
    4406 0000074b D016          MOVL      XAR0,#22              ; |1028| 
    4407 0000074c 3B01          SETC      SXM
    4408 0000074d DCA2          SUBB      XAR4,#34              ; |1028| 
    4409 0000074e 8592          MOV       ACC,*+FP[AR0]         ; |1028| 
    4410 0000074f 7640!         LCR       #__f_checklocked      ; |1028| 
         00000750 0000 
    4411                      ; call occurs [#__f_checklocked] ; |1028| 
    4412 00000751 5200          CMPB      AL,#0                 ; |1028| 
    4413 00000752 EC04          BF        L160,EQ               ; |1028| 
    4414                      ; branchcc occurs ; |1028| 
    4415 00000753 9A0C          MOVB      AL,#12                ; |1028| 
    4416 00000754 56CF          BF        L168,UNC              ; |1028| 
         00000755 005E 
    4417                      ; branch occurs ; |1028| 
    4418 00000756       L160:    
    4419 00000756 5CAD          MOVZ      AR4,SP                ; |1030| 
TMS320C2000 COFF Assembler PC v4.1.3 Thu Aug 18 12:16:14 2016

Tools Copyright (c) 1996-2006 Texas Instruments Incorporated
fat.asm                                                              PAGE   86

    4420 00000757 5DAD          MOVZ      AR5,SP                ; |1030| 
    4421 00000758 DCCD          SUBB      XAR4,#77              ; |1030| 
    4422 00000759 A842          MOVL      *-SP[2],XAR4          ; |1030| 
    4423 0000075a 8AA3          MOVL      XAR4,XAR3             ; |1030| 
    4424 0000075b DDCA          SUBB      XAR5,#74              ; |1030| 
    4425 0000075c 7640'         LCR       #__f_setnameext       ; |1030| 
         0000075d 00CB 
    4426                      ; call occurs [#__f_setnameext] ; |1030| 
    4427 0000075e 5200          CMPB      AL,#0                 ; |1030| 
    4428 0000075f EC09          BF        L161,EQ               ; |1030| 
    4429                      ; branchcc occurs ; |1030| 
    4430 00000760 5DAD          MOVZ      AR5,SP                ; |1031| 
    4431 00000761 5CAD          MOVZ      AR4,SP                ; |1031| 
    4432 00000762 DDCD          SUBB      XAR5,#77              ; |1031| 
    4433 00000763 DCCA          SUBB      XAR4,#74              ; |1031| 
    4434 00000764 7640'         LCR       #__f_checknamewc      ; |1031| 
         00000765 00A7 
    4435                      ; call occurs [#__f_checknamewc] ; |1031| 
    4436 00000766 FF58          TEST      ACC                   ; |1031| 
    4437 00000767 EC04          BF        L162,EQ               ; |1031| 
    4438                      ; branchcc occurs ; |1031| 
    4439 00000768       L161:    
    4440 00000768 9A00          MOVB      AL,#0
    4441 00000769 56CF          BF        L168,UNC              ; |1031| 
         0000076a 0049 
    4442                      ; branch occurs ; |1031| 
    4443 0000076b       L162:    
    4444 0000076b D00E          MOVL      XAR0,#14              ; |1033| 
    4445 0000076c 9292          MOV       AL,*+FP[AR0]          ; |1033| 
    4446 0000076d 522E          CMPB      AL,#46                ; |1033| 
    4447 0000076e EC03          BF        L163,EQ               ; |1033| 
    4448                      ; branchcc occurs ; |1033| 
    4449 0000076f 5220          CMPB      AL,#32                ; |1033| 
    4450 00000770 ED04          BF        L164,NEQ              ; |1033| 
    4451                      ; branchcc occurs ; |1033| 
    4452 00000771       L163:    
    4453 00000771 9A04          MOVB      AL,#4                 ; |1034| 
    4454 00000772 56CF          BF        L168,UNC              ; |1034| 
         00000773 0040 
    4455                      ; branch occurs ; |1034| 
    4456 00000774       L164:    
    4457 00000774 5CAD          MOVZ      AR4,SP                ; |1036| 
    4458 00000775 DCCD          SUBB      XAR4,#77              ; |1036| 
    4459 00000776 A842          MOVL      *-SP[2],XAR4          ; |1036| 
    4460 00000777 5CAD          MOVZ      AR4,SP                ; |1036| 
    4461 00000778 5DAD          MOVZ      AR5,SP                ; |1036| 
    4462 00000779 0200          MOVB      ACC,#0
    4463 0000077a DC96          SUBB      XAR4,#22              ; |1036| 
    4464 0000077b A844          MOVL      *-SP[4],XAR4          ; |1036| 
    4465 0000077c 1E46          MOVL      *-SP[6],ACC           ; |1036| 
    4466 0000077d 8A4A          MOVL      XAR4,*-SP[10]         ; |1036| 
    4467 0000077e DDCA          SUBB      XAR5,#74              ; |1036| 
    4468 0000077f 7640'         LCR       #__f_findfile         ; |1036| 
         00000780 0255 
    4469                      ; call occurs [#__f_findfile] ; |1036| 
TMS320C2000 COFF Assembler PC v4.1.3 Thu Aug 18 12:16:14 2016

Tools Copyright (c) 1996-2006 Texas Instruments Incorporated
fat.asm                                                              PAGE   87

    4470 00000781 5200          CMPB      AL,#0                 ; |1036| 
    4471 00000782 EC04          BF        L165,EQ               ; |1036| 
    4472                      ; branchcc occurs ; |1036| 
    4473 00000783 9A06          MOVB      AL,#6                 ; |1036| 
    4474 00000784 56CF          BF        L168,UNC              ; |1036| 
         00000785 002E 
    4475                      ; branch occurs ; |1036| 
    4476 00000786       L165:    
    4477 00000786 8A4A          MOVL      XAR4,*-SP[10]         ; |1038| 
    4478 00000787 065C          MOVL      ACC,*-SP[28]          ; |1038| 
    4479 00000788 7640'         LCR       #__f_getdirsector     ; |1038| 
         00000789 0000 
    4480                      ; call occurs [#__f_getdirsector] ; |1038| 
    4481 0000078a 5200          CMPB      AL,#0                 ; |1038| 
    4482 0000078b ED27          BF        L168,NEQ              ; |1038| 
    4483                      ; branchcc occurs ; |1038| 
    4484 0000078c 3B01          SETC      SXM
    4485                      .dwpsn  "fat.c",1041,0
    4486 0000078d 9A00          MOVB      AL,#0
    4487 0000078e       L166:    
    4488 0000078e       DW$L$_fn_rename$23$B:
    4489 0000078e 5CAD          MOVZ      AR4,SP                ; |1041| 
    4490 0000078f 85A9          MOV       ACC,AL                ; |1041| 
    4491 00000790 DCCA          SUBB      XAR4,#74              ; |1041| 
    4492 00000791 5601          ADDL      XAR4,ACC
         00000792 00A4 
    4493 00000793 88C4          MOVZ      AR6,*+XAR4[0]         ; |1041| 
    4494 00000794 8A48          MOVL      XAR4,*-SP[8]          ; |1041| 
    4495 00000795 85A9          MOV       ACC,AL                ; |1041| 
    4496 00000796 5601          ADDL      XAR4,ACC
         00000797 00A4 
    4497 00000798 9C01          ADDB      AL,#1                 ; |1041| 
    4498 00000799 5208          CMPB      AL,#8                 ; |1041| 
    4499 0000079a 7EC4          MOV       *+XAR4[0],AR6         ; |1041| 
    4500 0000079b 56C4          BF        L166,LT               ; |1041| 
         0000079c FFF3 
    4501                      ; branchcc occurs ; |1041| 
    4502 0000079d       DW$L$_fn_rename$23$E:
    4503 0000079d D008          MOVB      XAR0,#8               ; |1042| 
    4504 0000079e 3B01          SETC      SXM
    4505                      .dwpsn  "fat.c",1042,0
    4506 0000079f 9A00          MOVB      AL,#0
    4507 000007a0       L167:    
    4508 000007a0       DW$L$_fn_rename$25$B:
    4509 000007a0 5CAD          MOVZ      AR4,SP                ; |1042| 
    4510 000007a1 85A9          MOV       ACC,AL                ; |1042| 
    4511 000007a2 DCCD          SUBB      XAR4,#77              ; |1042| 
    4512 000007a3 5601          ADDL      XAR4,ACC
         000007a4 00A4 
    4513 000007a5 88C4          MOVZ      AR6,*+XAR4[0]         ; |1042| 
    4514 000007a6 8A48          MOVL      XAR4,*-SP[8]          ; |1042| 
    4515 000007a7 85A9          MOV       ACC,AL                ; |1042| 
    4516 000007a8 5601          ADDL      XAR4,ACC
         000007a9 00A4 
    4517 000007aa 9C01          ADDB      AL,#1                 ; |1042| 
TMS320C2000 COFF Assembler PC v4.1.3 Thu Aug 18 12:16:14 2016

Tools Copyright (c) 1996-2006 Texas Instruments Incorporated
fat.asm                                                              PAGE   88

    4518 000007ab 5203          CMPB      AL,#3                 ; |1042| 
    4519 000007ac 7E94          MOV       *+XAR4[AR0],AR6       ; |1042| 
    4520 000007ad 56C4          BF        L167,LT               ; |1042| 
         000007ae FFF3 
    4521                      ; branchcc occurs ; |1042| 
    4522 000007af       DW$L$_fn_rename$25$E:
    4523 000007af 8A4A          MOVL      XAR4,*-SP[10]         ; |1044| 
    4524 000007b0 7640'         LCR       #__f_writedirsector   ; |1044| 
         000007b1 0027 
    4525                      ; call occurs [#__f_writedirsector] ; |1044| 
    4526 000007b2       L168:    
    4527 000007b2 FECE          SUBB      SP,#78                ; |1044| 
    4528 000007b3 82BE          MOVL      XAR3,*--SP            ; |1044| 
    4529 000007b4 86BE          MOVL      XAR2,*--SP            ; |1044| 
    4530 000007b5 8BBE          MOVL      XAR1,*--SP            ; |1044| 
    4531                      .dwpsn  "fat.c",1045,1
    4532 000007b6 0006          LRETR
    4533                      ; return occurs
    4534              
    4535              DW$399  .dwtag  DW_TAG_loop
    4536                      .dwattr DW$399, DW_AT_name("D:\DEV\Amot\BearingWear\XTSW_V6_20\fat.asm:L167:1:1471518973")
    4537                      .dwattr DW$399, DW_AT_begin_file("fat.c")
    4538                      .dwattr DW$399, DW_AT_begin_line(0x412)
    4539                      .dwattr DW$399, DW_AT_end_line(0x412)
    4540              DW$400  .dwtag  DW_TAG_loop_range
    4541                      .dwattr DW$400, DW_AT_low_pc(DW$L$_fn_rename$25$B)
    4542                      .dwattr DW$400, DW_AT_high_pc(DW$L$_fn_rename$25$E)
    4543                      .dwendtag DW$399
    4544              
    4545              
    4546              DW$401  .dwtag  DW_TAG_loop
    4547                      .dwattr DW$401, DW_AT_name("D:\DEV\Amot\BearingWear\XTSW_V6_20\fat.asm:L166:1:1471518973")
    4548                      .dwattr DW$401, DW_AT_begin_file("fat.c")
    4549                      .dwattr DW$401, DW_AT_begin_line(0x411)
    4550                      .dwattr DW$401, DW_AT_end_line(0x411)
    4551              DW$402  .dwtag  DW_TAG_loop_range
    4552                      .dwattr DW$402, DW_AT_low_pc(DW$L$_fn_rename$23$B)
    4553                      .dwattr DW$402, DW_AT_high_pc(DW$L$_fn_rename$23$E)
    4554                      .dwendtag DW$401
    4555              
    4556                      .dwattr DW$395, DW_AT_end_file("fat.c")
    4557                      .dwattr DW$395, DW_AT_end_line(0x415)
    4558                      .dwattr DW$395, DW_AT_end_column(0x01)
    4559                      .dwendtag DW$395
    4560              
    4561 000007b7               .sect   ".text"
    4562              
    4563              DW$403  .dwtag  DW_TAG_subprogram, DW_AT_name("_f_getintfile"), DW_AT_symbol_name("__f_getintfile")
    4564                      .dwattr DW$403, DW_AT_low_pc(__f_getintfile)
    4565                      .dwattr DW$403, DW_AT_high_pc(0x00)
    4566                      .dwattr DW$403, DW_AT_begin_file("fat.c")
    4567                      .dwattr DW$403, DW_AT_begin_line(0x425)
    4568                      .dwattr DW$403, DW_AT_begin_column(0x13)
    4569                      .dwattr DW$403, DW_AT_frame_base[DW_OP_breg20 -2]
    4570                      .dwattr DW$403, DW_AT_skeletal(0x01)
TMS320C2000 COFF Assembler PC v4.1.3 Thu Aug 18 12:16:14 2016

Tools Copyright (c) 1996-2006 Texas Instruments Incorporated
fat.asm                                                              PAGE   89

    4571                      .dwpsn  "fat.c",1061,39
    4572              
    4573              ;***************************************************************
    4574              ;* FNAME: __f_getintfile                FR SIZE:   0           *
    4575              ;*                                                             *
    4576              ;* FUNCTION ENVIRONMENT                                        *
    4577              ;*                                                             *
    4578              ;* FUNCTION PROPERTIES                                         *
    4579              ;*                            0 Parameter,  0 Auto,  0 SOE     *
    4580              ;***************************************************************
    4581              
    4582              __f_getintfile:
    4583                      .dwpsn  "fat.c",1063,0
    4584 000007b7 BE00          MOVB      XAR6,#0
    4585 000007b8       L169:    
    4586 000007b8       DW$L$__f_getintfile$2$B:
    4587 000007b8 2DA6          MOV       T,AR6
    4588              ;       MOV       T,T Implicitly done by - MPY ACC,OP,#IMM ; |1064| 
    4589 000007b9 8F00!         MOVL      XAR4,#_f_filesystem+1148 ; |1064| 
         000007ba 047C 
    4590 000007bb 8CA6          MPY       P,AR6,#974            ; |1064| 
         000007bc 03CE 
    4591 000007bd A9A9          MOVL      ACC,P                 ; |1064| 
    4592 000007be 5601          ADDL      XAR4,ACC
         000007bf 00A4 
    4593 000007c0 93E4          MOV       AH,*+XAR4[4]          ; |1064| 
    4594 000007c1 ED14          BF        L170,NEQ              ; |1064| 
    4595                      ; branchcc occurs ; |1064| 
    4596 000007c2       DW$L$__f_getintfile$2$E:
    4597 000007c2 761F!         MOVW      DP,#_MagicNumber
         000007c3 0000 
    4598 000007c4 0600!         MOVL      ACC,@_MagicNumber     ; |1067| 
    4599 000007c5 3B01          SETC      SXM
    4600 000007c6 FF33          LSL       ACC,4                 ; |1067| 
    4601 000007c7 1EA7          MOVL      XAR7,ACC              ; |1067| 
    4602 000007c8 8D00          MOVL      XAR0,#524             ; |1070| 
         000007c9 020C 
    4603 000007ca 92A6          MOV       AL,AR6                ; |1067| 
    4604 000007cb 85A9          MOV       ACC,AL                ; |1067| 
    4605 000007cc 07A7          ADDL      ACC,XAR7
    4606 000007cd 1EC4          MOVL      *+XAR4[0],ACC         ; |1067| 
    4607 000007ce 0200          MOVB      ACC,#0
    4608 000007cf 2B94          MOV       *+XAR4[AR0],#0        ; |1070| 
    4609 000007d0 8D00          MOVL      XAR0,#526             ; |1071| 
         000007d1 020E 
    4610 000007d2 1E94          MOVL      *+XAR4[AR0],ACC       ; |1071| 
    4611 000007d3 56CF          BF        L171,UNC              ; |1073| 
         000007d4 0008 
    4612                      ; branch occurs ; |1073| 
    4613 000007d5       L170:    
    4614 000007d5       DW$L$__f_getintfile$4$B:
    4615 000007d5 92A6          MOV       AL,AR6
    4616 000007d6 9C01          ADDB      AL,#1                 ; |1063| 
    4617 000007d7 88A9          MOVZ      AR6,AL                ; |1063| 
    4618                      .dwpsn  "fat.c",1075,0
TMS320C2000 COFF Assembler PC v4.1.3 Thu Aug 18 12:16:14 2016

Tools Copyright (c) 1996-2006 Texas Instruments Incorporated
fat.asm                                                              PAGE   90

    4619 000007d8 56C5          BF        L169,LEQ              ; |1063| 
         000007d9 FFE0 
    4620                      ; branchcc occurs ; |1063| 
    4621 000007da       DW$L$__f_getintfile$4$E:
    4622 000007da D400          MOVB      XAR4,#0
    4623              L171:    
    4624                      .dwpsn  "fat.c",1077,1
    4625 000007db 0006          LRETR
    4626                      ; return occurs
    4627              
    4628              DW$404  .dwtag  DW_TAG_loop
    4629                      .dwattr DW$404, DW_AT_name("D:\DEV\Amot\BearingWear\XTSW_V6_20\fat.asm:L169:1:1471518973")
    4630                      .dwattr DW$404, DW_AT_begin_file("fat.c")
    4631                      .dwattr DW$404, DW_AT_begin_line(0x427)
    4632                      .dwattr DW$404, DW_AT_end_line(0x433)
    4633              DW$405  .dwtag  DW_TAG_loop_range
    4634                      .dwattr DW$405, DW_AT_low_pc(DW$L$__f_getintfile$2$B)
    4635                      .dwattr DW$405, DW_AT_high_pc(DW$L$__f_getintfile$2$E)
    4636              DW$406  .dwtag  DW_TAG_loop_range
    4637                      .dwattr DW$406, DW_AT_low_pc(DW$L$__f_getintfile$4$B)
    4638                      .dwattr DW$406, DW_AT_high_pc(DW$L$__f_getintfile$4$E)
    4639                      .dwendtag DW$404
    4640              
    4641                      .dwattr DW$403, DW_AT_end_file("fat.c")
    4642                      .dwattr DW$403, DW_AT_end_line(0x435)
    4643                      .dwattr DW$403, DW_AT_end_column(0x01)
    4644                      .dwendtag DW$403
    4645              
    4646 000007dc               .sect   ".text"
    4647                      .global __f_addentry
    4648              
    4649              DW$407  .dwtag  DW_TAG_subprogram, DW_AT_name("_f_addentry"), DW_AT_symbol_name("__f_addentry")
    4650                      .dwattr DW$407, DW_AT_low_pc(__f_addentry)
    4651                      .dwattr DW$407, DW_AT_high_pc(0x00)
    4652                      .dwattr DW$407, DW_AT_begin_file("fat.c")
    4653                      .dwattr DW$407, DW_AT_begin_line(0x44d)
    4654                      .dwattr DW$407, DW_AT_begin_column(0x05)
    4655                      .dwattr DW$407, DW_AT_frame_base[DW_OP_breg20 -16]
    4656                      .dwattr DW$407, DW_AT_skeletal(0x01)
    4657                      .dwpsn  "fat.c",1101,74
    4658              
    4659              ;***************************************************************
    4660              ;* FNAME: __f_addentry                  FR SIZE:  14           *
    4661              ;*                                                             *
    4662              ;* FUNCTION ENVIRONMENT                                        *
    4663              ;*                                                             *
    4664              ;* FUNCTION PROPERTIES                                         *
    4665              ;*                            2 Parameter,  6 Auto,  6 SOE     *
    4666              ;***************************************************************
    4667              
    4668              __f_addentry:
    4669              ;* AR4   assigned to _vi
    4670              DW$408  .dwtag  DW_TAG_formal_parameter, DW_AT_name("vi"), DW_AT_symbol_name("_vi")
    4671                      .dwattr DW$408, DW_AT_type(*DW$T$89)
    4672                      .dwattr DW$408, DW_AT_location[DW_OP_reg12]
TMS320C2000 COFF Assembler PC v4.1.3 Thu Aug 18 12:16:14 2016

Tools Copyright (c) 1996-2006 Texas Instruments Incorporated
fat.asm                                                              PAGE   91

    4673              ;* AR5   assigned to _fsname
    4674              DW$409  .dwtag  DW_TAG_formal_parameter, DW_AT_name("fsname"), DW_AT_symbol_name("_fsname")
    4675                      .dwattr DW$409, DW_AT_type(*DW$T$149)
    4676                      .dwattr DW$409, DW_AT_location[DW_OP_reg14]
    4677              DW$410  .dwtag  DW_TAG_formal_parameter, DW_AT_name("pos"), DW_AT_symbol_name("_pos")
    4678                      .dwattr DW$410, DW_AT_type(*DW$T$66)
    4679                      .dwattr DW$410, DW_AT_location[DW_OP_breg20 -18]
    4680              DW$411  .dwtag  DW_TAG_formal_parameter, DW_AT_name("pde"), DW_AT_symbol_name("_pde")
    4681                      .dwattr DW$411, DW_AT_type(*DW$T$152)
    4682                      .dwattr DW$411, DW_AT_location[DW_OP_breg20 -20]
    4683 000007dc B2BD          MOVL      *SP++,XAR1
    4684 000007dd AABD          MOVL      *SP++,XAR2
    4685 000007de A2BD          MOVL      *SP++,XAR3
    4686 000007df FE08          ADDB      SP,#8
    4687 000007e0 8BA4          MOVL      XAR1,XAR4             ; |1101| 
    4688 000007e1 D015          MOVB      XAR0,#21              ; |1104| 
    4689 000007e2 82A5          MOVL      XAR3,XAR5             ; |1101| 
    4690 000007e3 0654          MOVL      ACC,*-SP[20]          ; |1101| 
    4691 000007e4 1E46          MOVL      *-SP[6],ACC           ; |1101| 
    4692 000007e5 8652          MOVL      XAR2,*-SP[18]         ; |1101| 
    4693 000007e6 9293          MOV       AL,*+XAR3[AR0]        ; |1104| 
    4694 000007e7 EC03          BF        L172,EQ               ; |1104| 
    4695                      ; branchcc occurs ; |1104| 
    4696 000007e8 522E          CMPB      AL,#46                ; |1104| 
    4697 000007e9 ED0F          BF        L176,NEQ              ; |1104| 
    4698                      ; branchcc occurs ; |1104| 
    4699 000007ea       L172:    
    4700 000007ea 9A04          MOVB      AL,#4                 ; |1105| 
    4701 000007eb 56CF          BF        L192,UNC              ; |1105| 
         000007ec 0117 
    4702                      ; branch occurs ; |1105| 
    4703 000007ed       L173:    
    4704 000007ed       DW$L$__f_addentry$4$B:
    4705 000007ed 8D00          MOVL      XAR0,#916             ; |1184| 
         000007ee 0394 
    4706 000007ef 8A48          MOVL      XAR4,*-SP[8]          ; |1184| 
    4707 000007f0 0694          MOVL      ACC,*+XAR4[AR0]       ; |1184| 
    4708 000007f1 56CF          BF        L175,UNC              ; |1185| 
         000007f2 0003 
    4709                      ; branch occurs ; |1185| 
    4710 000007f3       DW$L$__f_addentry$4$E:
    4711 000007f3       L174:    
    4712 000007f3       DW$L$__f_addentry$5$B:
    4713 000007f3 0644          MOVL      ACC,*-SP[4]           ; |1147| 
    4714 000007f4       DW$L$__f_addentry$5$E:
    4715 000007f4       L175:    
    4716 000007f4       DW$L$__f_addentry$6$B:
    4717 000007f4 83A2          MOVL      XAR5,XAR2             ; |1147| 
    4718 000007f5 8AA1          MOVL      XAR4,XAR1             ; |1147| 
    4719 000007f6 7640!         LCR       #__f_clustertopos     ; |1147| 
         000007f7 0000 
    4720                      ; call occurs [#__f_clustertopos] ; |1147| 
    4721 000007f8       DW$L$__f_addentry$6$E:
    4722 000007f8       L176:    
    4723 000007f8       DW$L$__f_addentry$7$B:
TMS320C2000 COFF Assembler PC v4.1.3 Thu Aug 18 12:16:14 2016

Tools Copyright (c) 1996-2006 Texas Instruments Incorporated
fat.asm                                                              PAGE   92

    4724 000007f8 28A9          MOV       AL,#65520
         000007f9 FFF0 
    4725 000007fa 28A8          MOV       AH,#4095
         000007fb 0FFF 
    4726 000007fc 0FC2          CMPL      ACC,*+XAR2[0]         ; |1107| 
    4727 000007fd 56C9          BF        L186,LOS              ; |1107| 
         000007fe 009D 
    4728                      ; branchcc occurs ; |1107| 
    4729 000007ff       DW$L$__f_addentry$7$E:
    4730 000007ff       DW$L$__f_addentry$8$B:
    4731 000007ff D008          MOVB      XAR0,#8               ; |1109| 
    4732 00000800 0692          MOVL      ACC,*+XAR2[AR0]       ; |1109| 
    4733 00000801 0FF2          CMPL      ACC,*+XAR2[6]         ; |1109| 
    4734 00000802 56C9          BF        L184,LOS              ; |1109| 
         00000803 0069 
    4735                      ; branchcc occurs ; |1109| 
    4736              DW$L$__f_addentry$8$E:
    4737              L177:    
    4738              DW$L$__f_addentry$9$B:
    4739                      .dwpsn  "fat.c",1109,0
    4740 00000804 D00A          MOVB      XAR0,#10              ; |1110| 
    4741 00000805 B2AB          MOVL      P,XAR1                ; |1110| 
    4742 00000806 0692          MOVL      ACC,*+XAR2[AR0]       ; |1110| 
    4743 00000807 8F00          MOVL      XAR4,#602             ; |1110| 
         00000808 025A 
    4744 00000809 FF34          LSL       ACC,5                 ; |1110| 
    4745 0000080a 5601          ADDL      P,ACC
         0000080b 00AB 
    4746 0000080c 5657          ADDUL     P,XAR4
         0000080d 00A4 
    4747 0000080e 8AA1          MOVL      XAR4,XAR1             ; |1112| 
    4748 0000080f A948          MOVL      *-SP[8],P             ; |1110| 
    4749 00000810 06F2          MOVL      ACC,*+XAR2[6]         ; |1112| 
    4750 00000811 7640'         LCR       #__f_getdirsector     ; |1112| 
         00000812 0000 
    4751                      ; call occurs [#__f_getdirsector] ; |1112| 
    4752 00000813 5200          CMPB      AL,#0                 ; |1112| 
    4753 00000814 88A9          MOVZ      AR6,AL                ; |1112| 
    4754 00000815 56C0          BF        L191,NEQ              ; |1112| 
         00000816 00EC 
    4755                      ; branchcc occurs ; |1112| 
    4756 00000817       DW$L$__f_addentry$9$E:
    4757 00000817       DW$L$__f_addentry$10$B:
    4758 00000817 D00A          MOVB      XAR0,#10              ; |1115| 
    4759 00000818 56CF          BF        L183,UNC              ; |1115| 
         00000819 0045 
    4760                      ; branch occurs ; |1115| 
    4761 0000081a       DW$L$__f_addentry$10$E:
    4762 0000081a       L178:    
    4763 0000081a       DW$L$__f_addentry$11$B:
    4764 0000081a 8A48          MOVL      XAR4,*-SP[8]
    4765 0000081b 92C4          MOV       AL,*+XAR4[0]          ; |1116| 
    4766 0000081c EC03          BF        L179,EQ               ; |1116| 
    4767                      ; branchcc occurs ; |1116| 
    4768 0000081d       DW$L$__f_addentry$11$E:
TMS320C2000 COFF Assembler PC v4.1.3 Thu Aug 18 12:16:14 2016

Tools Copyright (c) 1996-2006 Texas Instruments Incorporated
fat.asm                                                              PAGE   93

    4769 0000081d       DW$L$__f_addentry$12$B:
    4770 0000081d 52E5          CMPB      AL,#229               ; |1116| 
    4771 0000081e ED35          BF        L182,NEQ              ; |1116| 
    4772                      ; branchcc occurs ; |1116| 
    4773 0000081f       DW$L$__f_addentry$12$E:
    4774 0000081f       L179:    
    4775 0000081f 021D          MOVB      ACC,#29
    4776 00000820 07A3          ADDL      ACC,XAR3
    4777 00000821 1E42          MOVL      *-SP[2],ACC           ; |1117| 
    4778 00000822 0215          MOVB      ACC,#21
    4779 00000823 8A48          MOVL      XAR4,*-SP[8]          ; |1117| 
    4780 00000824 07A3          ADDL      ACC,XAR3
    4781 00000825 83A9          MOVL      XAR5,ACC              ; |1117| 
    4782 00000826 7640!         LCR       #__f_initentry        ; |1117| 
         00000827 0000 
    4783                      ; call occurs [#__f_initentry] ; |1117| 
    4784 00000828 8D00          MOVL      XAR0,#1136            ; |1119| 
         00000829 0470 
    4785 0000082a 0203          MOVB      ACC,#3
    4786 0000082b 0F91          CMPL      ACC,*+XAR1[AR0]       ; |1119| 
    4787 0000082c ED1F          BF        L180,NEQ              ; |1119| 
    4788                      ; branchcc occurs ; |1119| 
    4789 0000082d 7640!         LCR       #_f_getdate           ; |1120| 
         0000082e 0000 
    4790                      ; call occurs [#_f_getdate] ; |1120| 
    4791 0000082f C548          MOVL      XAR7,*-SP[8]          ; |1120| 
    4792 00000830 88A9          MOVZ      AR6,AL                ; |1120| 
    4793 00000831 0210          MOVB      ACC,#16
    4794 00000832 07A7          ADDL      ACC,XAR7
    4795 00000833 8AA9          MOVL      XAR4,ACC              ; |1120| 
    4796 00000834 92A6          MOV       AL,AR6                ; |1120| 
    4797 00000835 7640!         LCR       #__f_setword          ; |1120| 
         00000836 0000 
    4798                      ; call occurs [#__f_setword] ; |1120| 
    4799 00000837 7640!         LCR       #_f_gettime           ; |1121| 
         00000838 0000 
    4800                      ; call occurs [#_f_gettime] ; |1121| 
    4801 00000839 C548          MOVL      XAR7,*-SP[8]          ; |1121| 
    4802 0000083a 88A9          MOVZ      AR6,AL                ; |1121| 
    4803 0000083b 020E          MOVB      ACC,#14
    4804 0000083c 07A7          ADDL      ACC,XAR7
    4805 0000083d 8AA9          MOVL      XAR4,ACC              ; |1121| 
    4806 0000083e 92A6          MOV       AL,AR6                ; |1121| 
    4807 0000083f 7640!         LCR       #__f_setword          ; |1121| 
         00000840 0000 
    4808                      ; call occurs [#__f_setword] ; |1121| 
    4809 00000841 7640!         LCR       #_f_getdate           ; |1122| 
         00000842 0000 
    4810                      ; call occurs [#_f_getdate] ; |1122| 
    4811 00000843 C548          MOVL      XAR7,*-SP[8]          ; |1122| 
    4812 00000844 88A9          MOVZ      AR6,AL                ; |1122| 
    4813 00000845 0212          MOVB      ACC,#18
    4814 00000846 07A7          ADDL      ACC,XAR7
    4815 00000847 8AA9          MOVL      XAR4,ACC              ; |1122| 
    4816 00000848 92A6          MOV       AL,AR6                ; |1122| 
TMS320C2000 COFF Assembler PC v4.1.3 Thu Aug 18 12:16:14 2016

Tools Copyright (c) 1996-2006 Texas Instruments Incorporated
fat.asm                                                              PAGE   94

    4817 00000849 7640!         LCR       #__f_setword          ; |1122| 
         0000084a 0000 
    4818                      ; call occurs [#__f_setword] ; |1122| 
    4819 0000084b       L180:    
    4820 0000084b 0646          MOVL      ACC,*-SP[6]
    4821 0000084c EC04          BF        L181,EQ               ; |1125| 
    4822                      ; branchcc occurs ; |1125| 
    4823 0000084d 8A46          MOVL      XAR4,*-SP[6]
    4824 0000084e 0648          MOVL      ACC,*-SP[8]
    4825 0000084f 1EC4          MOVL      *+XAR4[0],ACC         ; |1125| 
    4826 00000850       L181:    
    4827 00000850 9A00          MOVB      AL,#0
    4828 00000851 56CF          BF        L192,UNC              ; |1126| 
         00000852 00B1 
    4829                      ; branch occurs ; |1126| 
    4830 00000853       L182:    
    4831 00000853       DW$L$__f_addentry$18$B:
    4832 00000853 0648          MOVL      ACC,*-SP[8]           ; |1115| 
    4833 00000854 D420          MOVB      XAR4,#32              ; |1115| 
    4834 00000855 0DA4          ADDU      ACC,AR4               ; |1115| 
    4835 00000856 1E48          MOVL      *-SP[8],ACC           ; |1115| 
    4836 00000857 020A          MOVB      ACC,#10
    4837 00000858 07A2          ADDL      ACC,XAR2
    4838 00000859 8AA9          MOVL      XAR4,ACC              ; |1115| 
    4839 0000085a 0201          MOVB      ACC,#1
    4840 0000085b 5601          ADDL      *+XAR4[0],ACC         ; |1115| 
         0000085c 00C4 
    4841 0000085d       DW$L$__f_addentry$18$E:
    4842 0000085d       L183:    
    4843 0000085d       DW$L$__f_addentry$19$B:
    4844 0000085d 0210          MOVB      ACC,#16
    4845 0000085e 0F92          CMPL      ACC,*+XAR2[AR0]       ; |1115| 
    4846 0000085f 56C6          BF        L178,HI               ; |1115| 
         00000860 FFBB 
    4847                      ; branchcc occurs ; |1115| 
    4848 00000861       DW$L$__f_addentry$19$E:
    4849 00000861       DW$L$__f_addentry$20$B:
    4850 00000861 0200          MOVB      ACC,#0
    4851 00000862 1E92          MOVL      *+XAR2[AR0],ACC       ; |1130| 
    4852 00000863 0201          MOVB      ACC,#1
    4853 00000864 D008          MOVB      XAR0,#8               ; |1109| 
    4854 00000865 5601          ADDL      *+XAR2[6],ACC         ; |1109| 
         00000866 00F2 
    4855 00000867 0692          MOVL      ACC,*+XAR2[AR0]       ; |1109| 
    4856 00000868 0FF2          CMPL      ACC,*+XAR2[6]         ; |1109| 
    4857                      .dwpsn  "fat.c",1131,0
    4858 00000869 56C6          BF        L177,HI               ; |1109| 
         0000086a FF9B 
    4859                      ; branchcc occurs ; |1109| 
    4860 0000086b       DW$L$__f_addentry$20$E:
    4861 0000086b       L184:    
    4862 0000086b       DW$L$__f_addentry$21$B:
    4863 0000086b 06C2          MOVL      ACC,*+XAR2[0]         ; |1133| 
    4864 0000086c ED09          BF        L185,NEQ              ; |1133| 
    4865                      ; branchcc occurs ; |1133| 
TMS320C2000 COFF Assembler PC v4.1.3 Thu Aug 18 12:16:14 2016

Tools Copyright (c) 1996-2006 Texas Instruments Incorporated
fat.asm                                                              PAGE   95

    4866 0000086d       DW$L$__f_addentry$21$E:
    4867 0000086d       DW$L$__f_addentry$22$B:
    4868 0000086d 8D00          MOVL      XAR0,#1136            ; |1134| 
         0000086e 0470 
    4869 0000086f 0203          MOVB      ACC,#3
    4870 00000870 0F91          CMPL      ACC,*+XAR1[AR0]       ; |1134| 
    4871 00000871 ED29          BF        L186,NEQ              ; |1134| 
    4872                      ; branchcc occurs ; |1134| 
    4873 00000872       DW$L$__f_addentry$22$E:
    4874 00000872       DW$L$__f_addentry$23$B:
    4875 00000872 D020          MOVB      XAR0,#32              ; |1135| 
    4876 00000873 0691          MOVL      ACC,*+XAR1[AR0]       ; |1135| 
    4877 00000874 1EC2          MOVL      *+XAR2[0],ACC         ; |1135| 
    4878 00000875       DW$L$__f_addentry$23$E:
    4879 00000875       L185:    
    4880 00000875       DW$L$__f_addentry$24$B:
    4881 00000875 5DAD          MOVZ      AR5,SP                ; |1143| 
    4882 00000876 8AA1          MOVL      XAR4,XAR1             ; |1143| 
    4883 00000877 06C2          MOVL      ACC,*+XAR2[0]         ; |1143| 
    4884 00000878 DD84          SUBB      XAR5,#4               ; |1143| 
    4885 00000879 7640!         LCR       #__f_getclustervalue  ; |1143| 
         0000087a 0000 
    4886                      ; call occurs [#__f_getclustervalue] ; |1143| 
    4887 0000087b 5200          CMPB      AL,#0                 ; |1143| 
    4888 0000087c 88A9          MOVZ      AR6,AL                ; |1143| 
    4889 0000087d 56C0          BF        L191,NEQ              ; |1143| 
         0000087e 0084 
    4890                      ; branchcc occurs ; |1143| 
    4891 0000087f       DW$L$__f_addentry$24$E:
    4892 0000087f       DW$L$__f_addentry$25$B:
    4893 0000087f 28A9          MOV       AL,#65520
         00000880 FFF0 
    4894 00000881 28A8          MOV       AH,#4095
         00000882 0FFF 
    4895 00000883 0F44          CMPL      ACC,*-SP[4]           ; |1146| 
    4896 00000884 56C6          BF        L174,HI               ; |1146| 
         00000885 FF6F 
    4897                      ; branchcc occurs ; |1146| 
    4898 00000886       DW$L$__f_addentry$25$E:
    4899 00000886       DW$L$__f_addentry$26$B:
    4900 00000886 5DAD          MOVZ      AR5,SP                ; |1150| 
    4901 00000887 8AA1          MOVL      XAR4,XAR1             ; |1150| 
    4902 00000888 DD84          SUBB      XAR5,#4               ; |1150| 
    4903 00000889 7640!         LCR       #__f_alloccluster     ; |1150| 
         0000088a 0000 
    4904                      ; call occurs [#__f_alloccluster] ; |1150| 
    4905 0000088b 5200          CMPB      AL,#0                 ; |1150| 
    4906 0000088c 88A9          MOVZ      AR6,AL                ; |1150| 
    4907 0000088d ED74          BF        L191,NEQ              ; |1150| 
    4908                      ; branchcc occurs ; |1150| 
    4909 0000088e       DW$L$__f_addentry$26$E:
    4910 0000088e       DW$L$__f_addentry$27$B:
    4911 0000088e 28A9          MOV       AL,#65520
         0000088f FFF0 
    4912 00000890 28A8          MOV       AH,#4095
TMS320C2000 COFF Assembler PC v4.1.3 Thu Aug 18 12:16:14 2016

Tools Copyright (c) 1996-2006 Texas Instruments Incorporated
fat.asm                                                              PAGE   96

         00000891 0FFF 
    4913 00000892 0F44          CMPL      ACC,*-SP[4]           ; |1153| 
    4914 00000893 56C9          BF        L186,LOS              ; |1153| 
         00000894 0007 
    4915                      ; branchcc occurs ; |1153| 
    4916 00000895       DW$L$__f_addentry$27$E:
    4917 00000895       DW$L$__f_addentry$28$B:
    4918 00000895 7640'         LCR       #__f_getintfile       ; |1154| 
         00000896 07B7 
    4919                      ; call occurs [#__f_getintfile] ; |1154| 
    4920 00000897 A848          MOVL      *-SP[8],XAR4          ; |1154| 
    4921 00000898 0648          MOVL      ACC,*-SP[8]           ; |1154| 
    4922 00000899 ED04          BF        L187,NEQ              ; |1154| 
    4923                      ; branchcc occurs ; |1154| 
    4924 0000089a       DW$L$__f_addentry$28$E:
    4925 0000089a       L186:    
    4926 0000089a 9A07          MOVB      AL,#7                 ; |1155| 
    4927 0000089b 56CF          BF        L192,UNC              ; |1155| 
         0000089c 0067 
    4928                      ; branch occurs ; |1155| 
    4929 0000089d       L187:    
    4930 0000089d       DW$L$__f_addentry$30$B:
    4931 0000089d 0648          MOVL      ACC,*-SP[8]           ; |1157| 
    4932 0000089e 8F40          MOVL      XAR5,#916             ; |1157| 
         0000089f 0394 
    4933 000008a0 8AA1          MOVL      XAR4,XAR1             ; |1157| 
    4934 000008a1 5601          ADDL      XAR5,ACC
         000008a2 00A5 
    4935 000008a3 0644          MOVL      ACC,*-SP[4]           ; |1157| 
    4936 000008a4 7640!         LCR       #__f_clustertopos     ; |1157| 
         000008a5 0000 
    4937                      ; call occurs [#__f_clustertopos] ; |1157| 
    4938 000008a6 C448          MOVL      XAR6,*-SP[8]          ; |1160| 
    4939 000008a7 020C          MOVB      ACC,#12
    4940 000008a8 07A6          ADDL      ACC,XAR6
    4941 000008a9 8AA9          MOVL      XAR4,ACC              ; |1160| 
    4942 000008aa D500          MOVB      XAR5,#0
    4943 000008ab FF29          MOV       ACC,#1 << 9
         000008ac 0001 
    4944 000008ad 7640!         LCR       #_memset              ; |1160| 
         000008ae 0000 
    4945                      ; call occurs [#_memset] ; |1160| 
    4946 000008af 56CF          BF        L190,UNC              ; |1161| 
         000008b0 0026 
    4947                      ; branch occurs ; |1161| 
    4948              DW$L$__f_addentry$30$E:
    4949              L188:    
    4950              DW$L$__f_addentry$31$B:
    4951                      .dwpsn  "fat.c",1161,0
    4952 000008b1 2841          MOV       *-SP[1],#1            ; |1163| 
         000008b2 0001 
    4953 000008b3 C448          MOVL      XAR6,*-SP[8]          ; |1163| 
    4954 000008b4 8D00          MOVL      XAR0,#922             ; |1163| 
         000008b5 039A 
    4955 000008b6 8A48          MOVL      XAR4,*-SP[8]          ; |1163| 
TMS320C2000 COFF Assembler PC v4.1.3 Thu Aug 18 12:16:14 2016

Tools Copyright (c) 1996-2006 Texas Instruments Incorporated
fat.asm                                                              PAGE   97

    4956 000008b7 020C          MOVB      ACC,#12
    4957 000008b8 07A6          ADDL      ACC,XAR6
    4958 000008b9 83A9          MOVL      XAR5,ACC              ; |1163| 
    4959 000008ba 0694          MOVL      ACC,*+XAR4[AR0]       ; |1163| 
    4960 000008bb 8AA1          MOVL      XAR4,XAR1             ; |1163| 
    4961 000008bc 7640!         LCR       #__f_writesector      ; |1163| 
         000008bd 0000 
    4962                      ; call occurs [#__f_writesector] ; |1163| 
    4963 000008be 5200          CMPB      AL,#0                 ; |1163| 
    4964 000008bf 88A9          MOVZ      AR6,AL                ; |1163| 
    4965 000008c0 EC0D          BF        L189,EQ               ; |1163| 
    4966                      ; branchcc occurs ; |1163| 
    4967 000008c1       DW$L$__f_addentry$31$E:
    4968 000008c1       DW$L$__f_addentry$32$B:
    4969 000008c1 0202          MOVB      ACC,#2
    4970 000008c2 0FC1          CMPL      ACC,*+XAR1[0]         ; |1165| 
    4971 000008c3 ED3E          BF        L191,NEQ              ; |1165| 
    4972                      ; branchcc occurs ; |1165| 
    4973 000008c4       DW$L$__f_addentry$32$E:
    4974 000008c4       DW$L$__f_addentry$33$B:
    4975 000008c4 8348          MOVL      XAR5,*-SP[8]          ; |1167| 
    4976 000008c5 8AA1          MOVL      XAR4,XAR1             ; |1167| 
    4977 000008c6 7640!         LCR       #__f_dobadblock       ; |1167| 
         000008c7 0000 
    4978                      ; call occurs [#__f_dobadblock] ; |1167| 
    4979 000008c8 5200          CMPB      AL,#0                 ; |1167| 
    4980 000008c9 88A9          MOVZ      AR6,AL                ; |1167| 
    4981                      .dwpsn  "fat.c",1173,0
    4982 000008ca ECE7          BF        L188,EQ               ; |1167| 
    4983                      ; branchcc occurs ; |1167| 
    4984 000008cb       DW$L$__f_addentry$33$E:
    4985 000008cb 56CF          BF        L191,UNC              ; |1167| 
         000008cc 0036 
    4986                      ; branch occurs ; |1167| 
    4987 000008cd       L189:    
    4988 000008cd       DW$L$__f_addentry$35$B:
    4989 000008cd 0648          MOVL      ACC,*-SP[8]           ; |1172| 
    4990 000008ce 8F00          MOVL      XAR4,#922             ; |1172| 
         000008cf 039A 
    4991 000008d0 5601          ADDL      XAR4,ACC
         000008d1 00A4 
    4992 000008d2 0201          MOVB      ACC,#1
    4993 000008d3 5601          ADDL      *+XAR4[0],ACC         ; |1172| 
         000008d4 00C4 
    4994 000008d5       DW$L$__f_addentry$35$E:
    4995 000008d5       L190:    
    4996 000008d5       DW$L$__f_addentry$36$B:
    4997 000008d5 8D00          MOVL      XAR0,#924             ; |1161| 
         000008d6 039C 
    4998 000008d7 8A48          MOVL      XAR4,*-SP[8]          ; |1161| 
    4999 000008d8 0694          MOVL      ACC,*+XAR4[AR0]       ; |1161| 
    5000 000008d9 8D00          MOVL      XAR0,#922             ; |1161| 
         000008da 039A 
    5001 000008db 8A48          MOVL      XAR4,*-SP[8]          ; |1161| 
    5002 000008dc 0F94          CMPL      ACC,*+XAR4[AR0]       ; |1161| 
TMS320C2000 COFF Assembler PC v4.1.3 Thu Aug 18 12:16:14 2016

Tools Copyright (c) 1996-2006 Texas Instruments Incorporated
fat.asm                                                              PAGE   98

    5003 000008dd 56C6          BF        L188,HI               ; |1161| 
         000008de FFD4 
    5004                      ; branchcc occurs ; |1161| 
    5005 000008df       DW$L$__f_addentry$36$E:
    5006 000008df       DW$L$__f_addentry$37$B:
    5007 000008df 28AA          MOV       PH,#4095
         000008e0 0FFF 
    5008 000008e1 8D00          MOVL      XAR0,#916             ; |1175| 
         000008e2 0394 
    5009 000008e3 28AB          MOV       PL,#65528
         000008e4 FFF8 
    5010 000008e5 A942          MOVL      *-SP[2],P             ; |1175| 
    5011 000008e6 8A48          MOVL      XAR4,*-SP[8]          ; |1175| 
    5012 000008e7 0694          MOVL      ACC,*+XAR4[AR0]       ; |1175| 
    5013 000008e8 8AA1          MOVL      XAR4,XAR1             ; |1175| 
    5014 000008e9 7640!         LCR       #__f_setclustervalue  ; |1175| 
         000008ea 0000 
    5015                      ; call occurs [#__f_setclustervalue] ; |1175| 
    5016 000008eb 5200          CMPB      AL,#0                 ; |1175| 
    5017 000008ec 88A9          MOVZ      AR6,AL                ; |1175| 
    5018 000008ed ED14          BF        L191,NEQ              ; |1175| 
    5019                      ; branchcc occurs ; |1175| 
    5020 000008ee       DW$L$__f_addentry$37$E:
    5021 000008ee       DW$L$__f_addentry$38$B:
    5022 000008ee 8D00          MOVL      XAR0,#916             ; |1178| 
         000008ef 0394 
    5023 000008f0 8A48          MOVL      XAR4,*-SP[8]          ; |1178| 
    5024 000008f1 0694          MOVL      ACC,*+XAR4[AR0]       ; |1178| 
    5025 000008f2 8AA1          MOVL      XAR4,XAR1             ; |1178| 
    5026 000008f3 1E42          MOVL      *-SP[2],ACC           ; |1178| 
    5027 000008f4 06C2          MOVL      ACC,*+XAR2[0]         ; |1178| 
    5028 000008f5 7640!         LCR       #__f_setclustervalue  ; |1178| 
         000008f6 0000 
    5029                      ; call occurs [#__f_setclustervalue] ; |1178| 
    5030 000008f7 5200          CMPB      AL,#0                 ; |1178| 
    5031 000008f8 88A9          MOVZ      AR6,AL                ; |1178| 
    5032 000008f9 ED08          BF        L191,NEQ              ; |1178| 
    5033                      ; branchcc occurs ; |1178| 
    5034 000008fa       DW$L$__f_addentry$38$E:
    5035 000008fa       DW$L$__f_addentry$39$B:
    5036 000008fa 8AA1          MOVL      XAR4,XAR1             ; |1181| 
    5037 000008fb 7640!         LCR       #__f_writefatsector   ; |1181| 
         000008fc 0000 
    5038                      ; call occurs [#__f_writefatsector] ; |1181| 
    5039 000008fd 5200          CMPB      AL,#0                 ; |1181| 
    5040 000008fe 88A9          MOVZ      AR6,AL                ; |1181| 
    5041 000008ff 56C1          BF        L173,EQ               ; |1181| 
         00000900 FEEE 
    5042                      ; branchcc occurs ; |1181| 
    5043 00000901       DW$L$__f_addentry$39$E:
    5044 00000901       L191:    
    5045 00000901 92A6          MOV       AL,AR6
    5046 00000902       L192:    
    5047 00000902 FE88          SUBB      SP,#8                 ; |1182| 
    5048 00000903 82BE          MOVL      XAR3,*--SP            ; |1182| 
TMS320C2000 COFF Assembler PC v4.1.3 Thu Aug 18 12:16:14 2016

Tools Copyright (c) 1996-2006 Texas Instruments Incorporated
fat.asm                                                              PAGE   99

    5049 00000904 86BE          MOVL      XAR2,*--SP            ; |1182| 
    5050 00000905 8BBE          MOVL      XAR1,*--SP            ; |1182| 
    5051                      .dwpsn  "fat.c",1193,1
    5052 00000906 0006          LRETR
    5053                      ; return occurs
    5054              
    5055              DW$412  .dwtag  DW_TAG_loop
    5056                      .dwattr DW$412, DW_AT_name("D:\DEV\Amot\BearingWear\XTSW_V6_20\fat.asm:L176:1:1471518973")
    5057                      .dwattr DW$412, DW_AT_begin_file("fat.c")
    5058                      .dwattr DW$412, DW_AT_begin_line(0x453)
    5059                      .dwattr DW$412, DW_AT_end_line(0x4a1)
    5060              DW$413  .dwtag  DW_TAG_loop_range
    5061                      .dwattr DW$413, DW_AT_low_pc(DW$L$__f_addentry$7$B)
    5062                      .dwattr DW$413, DW_AT_high_pc(DW$L$__f_addentry$7$E)
    5063              DW$414  .dwtag  DW_TAG_loop_range
    5064                      .dwattr DW$414, DW_AT_low_pc(DW$L$__f_addentry$22$B)
    5065                      .dwattr DW$414, DW_AT_high_pc(DW$L$__f_addentry$22$E)
    5066              DW$415  .dwtag  DW_TAG_loop_range
    5067                      .dwattr DW$415, DW_AT_low_pc(DW$L$__f_addentry$8$B)
    5068                      .dwattr DW$415, DW_AT_high_pc(DW$L$__f_addentry$8$E)
    5069              DW$416  .dwtag  DW_TAG_loop_range
    5070                      .dwattr DW$416, DW_AT_low_pc(DW$L$__f_addentry$21$B)
    5071                      .dwattr DW$416, DW_AT_high_pc(DW$L$__f_addentry$21$E)
    5072              DW$417  .dwtag  DW_TAG_loop_range
    5073                      .dwattr DW$417, DW_AT_low_pc(DW$L$__f_addentry$23$B)
    5074                      .dwattr DW$417, DW_AT_high_pc(DW$L$__f_addentry$23$E)
    5075              DW$418  .dwtag  DW_TAG_loop_range
    5076                      .dwattr DW$418, DW_AT_low_pc(DW$L$__f_addentry$24$B)
    5077                      .dwattr DW$418, DW_AT_high_pc(DW$L$__f_addentry$24$E)
    5078              DW$419  .dwtag  DW_TAG_loop_range
    5079                      .dwattr DW$419, DW_AT_low_pc(DW$L$__f_addentry$25$B)
    5080                      .dwattr DW$419, DW_AT_high_pc(DW$L$__f_addentry$25$E)
    5081              DW$420  .dwtag  DW_TAG_loop_range
    5082                      .dwattr DW$420, DW_AT_low_pc(DW$L$__f_addentry$26$B)
    5083                      .dwattr DW$420, DW_AT_high_pc(DW$L$__f_addentry$26$E)
    5084              DW$421  .dwtag  DW_TAG_loop_range
    5085                      .dwattr DW$421, DW_AT_low_pc(DW$L$__f_addentry$27$B)
    5086                      .dwattr DW$421, DW_AT_high_pc(DW$L$__f_addentry$27$E)
    5087              DW$422  .dwtag  DW_TAG_loop_range
    5088                      .dwattr DW$422, DW_AT_low_pc(DW$L$__f_addentry$28$B)
    5089                      .dwattr DW$422, DW_AT_high_pc(DW$L$__f_addentry$28$E)
    5090              DW$423  .dwtag  DW_TAG_loop_range
    5091                      .dwattr DW$423, DW_AT_low_pc(DW$L$__f_addentry$30$B)
    5092                      .dwattr DW$423, DW_AT_high_pc(DW$L$__f_addentry$30$E)
    5093              DW$424  .dwtag  DW_TAG_loop_range
    5094                      .dwattr DW$424, DW_AT_low_pc(DW$L$__f_addentry$37$B)
    5095                      .dwattr DW$424, DW_AT_high_pc(DW$L$__f_addentry$37$E)
    5096              DW$425  .dwtag  DW_TAG_loop_range
    5097                      .dwattr DW$425, DW_AT_low_pc(DW$L$__f_addentry$38$B)
    5098                      .dwattr DW$425, DW_AT_high_pc(DW$L$__f_addentry$38$E)
    5099              DW$426  .dwtag  DW_TAG_loop_range
    5100                      .dwattr DW$426, DW_AT_low_pc(DW$L$__f_addentry$39$B)
    5101                      .dwattr DW$426, DW_AT_high_pc(DW$L$__f_addentry$39$E)
    5102              DW$427  .dwtag  DW_TAG_loop_range
    5103                      .dwattr DW$427, DW_AT_low_pc(DW$L$__f_addentry$4$B)
TMS320C2000 COFF Assembler PC v4.1.3 Thu Aug 18 12:16:14 2016

Tools Copyright (c) 1996-2006 Texas Instruments Incorporated
fat.asm                                                              PAGE  100

    5104                      .dwattr DW$427, DW_AT_high_pc(DW$L$__f_addentry$4$E)
    5105              DW$428  .dwtag  DW_TAG_loop_range
    5106                      .dwattr DW$428, DW_AT_low_pc(DW$L$__f_addentry$5$B)
    5107                      .dwattr DW$428, DW_AT_high_pc(DW$L$__f_addentry$5$E)
    5108              DW$429  .dwtag  DW_TAG_loop_range
    5109                      .dwattr DW$429, DW_AT_low_pc(DW$L$__f_addentry$6$B)
    5110                      .dwattr DW$429, DW_AT_high_pc(DW$L$__f_addentry$6$E)
    5111              
    5112              DW$430  .dwtag  DW_TAG_loop
    5113                      .dwattr DW$430, DW_AT_name("D:\DEV\Amot\BearingWear\XTSW_V6_20\fat.asm:L177:2:1471518973")
    5114                      .dwattr DW$430, DW_AT_begin_file("fat.c")
    5115                      .dwattr DW$430, DW_AT_begin_line(0x455)
    5116                      .dwattr DW$430, DW_AT_end_line(0x46b)
    5117              DW$431  .dwtag  DW_TAG_loop_range
    5118                      .dwattr DW$431, DW_AT_low_pc(DW$L$__f_addentry$9$B)
    5119                      .dwattr DW$431, DW_AT_high_pc(DW$L$__f_addentry$9$E)
    5120              DW$432  .dwtag  DW_TAG_loop_range
    5121                      .dwattr DW$432, DW_AT_low_pc(DW$L$__f_addentry$10$B)
    5122                      .dwattr DW$432, DW_AT_high_pc(DW$L$__f_addentry$10$E)
    5123              DW$433  .dwtag  DW_TAG_loop_range
    5124                      .dwattr DW$433, DW_AT_low_pc(DW$L$__f_addentry$20$B)
    5125                      .dwattr DW$433, DW_AT_high_pc(DW$L$__f_addentry$20$E)
    5126              
    5127              DW$434  .dwtag  DW_TAG_loop
    5128                      .dwattr DW$434, DW_AT_name("D:\DEV\Amot\BearingWear\XTSW_V6_20\fat.asm:L183:3:1471518973")
    5129                      .dwattr DW$434, DW_AT_begin_file("fat.c")
    5130                      .dwattr DW$434, DW_AT_begin_line(0x45b)
    5131                      .dwattr DW$434, DW_AT_end_line(0x45c)
    5132              DW$435  .dwtag  DW_TAG_loop_range
    5133                      .dwattr DW$435, DW_AT_low_pc(DW$L$__f_addentry$19$B)
    5134                      .dwattr DW$435, DW_AT_high_pc(DW$L$__f_addentry$19$E)
    5135              DW$436  .dwtag  DW_TAG_loop_range
    5136                      .dwattr DW$436, DW_AT_low_pc(DW$L$__f_addentry$11$B)
    5137                      .dwattr DW$436, DW_AT_high_pc(DW$L$__f_addentry$11$E)
    5138              DW$437  .dwtag  DW_TAG_loop_range
    5139                      .dwattr DW$437, DW_AT_low_pc(DW$L$__f_addentry$12$B)
    5140                      .dwattr DW$437, DW_AT_high_pc(DW$L$__f_addentry$12$E)
    5141              DW$438  .dwtag  DW_TAG_loop_range
    5142                      .dwattr DW$438, DW_AT_low_pc(DW$L$__f_addentry$18$B)
    5143                      .dwattr DW$438, DW_AT_high_pc(DW$L$__f_addentry$18$E)
    5144                      .dwendtag DW$434
    5145              
    5146                      .dwendtag DW$430
    5147              
    5148              
    5149              DW$439  .dwtag  DW_TAG_loop
    5150                      .dwattr DW$439, DW_AT_name("D:\DEV\Amot\BearingWear\XTSW_V6_20\fat.asm:L190:2:1471518973")
    5151                      .dwattr DW$439, DW_AT_begin_file("fat.c")
    5152                      .dwattr DW$439, DW_AT_begin_line(0x489)
    5153                      .dwattr DW$439, DW_AT_end_line(0x494)
    5154              DW$440  .dwtag  DW_TAG_loop_range
    5155                      .dwattr DW$440, DW_AT_low_pc(DW$L$__f_addentry$36$B)
    5156                      .dwattr DW$440, DW_AT_high_pc(DW$L$__f_addentry$36$E)
    5157              DW$441  .dwtag  DW_TAG_loop_range
    5158                      .dwattr DW$441, DW_AT_low_pc(DW$L$__f_addentry$35$B)
TMS320C2000 COFF Assembler PC v4.1.3 Thu Aug 18 12:16:14 2016

Tools Copyright (c) 1996-2006 Texas Instruments Incorporated
fat.asm                                                              PAGE  101

    5159                      .dwattr DW$441, DW_AT_high_pc(DW$L$__f_addentry$35$E)
    5160              
    5161              DW$442  .dwtag  DW_TAG_loop
    5162                      .dwattr DW$442, DW_AT_name("D:\DEV\Amot\BearingWear\XTSW_V6_20\fat.asm:L188:3:1471518973")
    5163                      .dwattr DW$442, DW_AT_begin_file("fat.c")
    5164                      .dwattr DW$442, DW_AT_begin_line(0x489)
    5165                      .dwattr DW$442, DW_AT_end_line(0x495)
    5166              DW$443  .dwtag  DW_TAG_loop_range
    5167                      .dwattr DW$443, DW_AT_low_pc(DW$L$__f_addentry$31$B)
    5168                      .dwattr DW$443, DW_AT_high_pc(DW$L$__f_addentry$31$E)
    5169              DW$444  .dwtag  DW_TAG_loop_range
    5170                      .dwattr DW$444, DW_AT_low_pc(DW$L$__f_addentry$32$B)
    5171                      .dwattr DW$444, DW_AT_high_pc(DW$L$__f_addentry$32$E)
    5172              DW$445  .dwtag  DW_TAG_loop_range
    5173                      .dwattr DW$445, DW_AT_low_pc(DW$L$__f_addentry$33$B)
    5174                      .dwattr DW$445, DW_AT_high_pc(DW$L$__f_addentry$33$E)
    5175                      .dwendtag DW$442
    5176              
    5177                      .dwendtag DW$439
    5178              
    5179                      .dwendtag DW$412
    5180              
    5181                      .dwattr DW$407, DW_AT_end_file("fat.c")
    5182                      .dwattr DW$407, DW_AT_end_line(0x4a9)
    5183                      .dwattr DW$407, DW_AT_end_column(0x01)
    5184                      .dwendtag DW$407
    5185              
    5186 00000907               .sect   ".text"
    5187                      .global _fn_mkdir
    5188              
    5189              DW$446  .dwtag  DW_TAG_subprogram, DW_AT_name("fn_mkdir"), DW_AT_symbol_name("_fn_mkdir")
    5190                      .dwattr DW$446, DW_AT_low_pc(_fn_mkdir)
    5191                      .dwattr DW$446, DW_AT_high_pc(0x00)
    5192                      .dwattr DW$446, DW_AT_begin_file("fat.c")
    5193                      .dwattr DW$446, DW_AT_begin_line(0x4bc)
    5194                      .dwattr DW$446, DW_AT_begin_column(0x05)
    5195                      .dwattr DW$446, DW_AT_frame_base[DW_OP_breg20 -76]
    5196                      .dwattr DW$446, DW_AT_skeletal(0x01)
    5197                      .dwpsn  "fat.c",1212,47
    5198              
    5199              ;***************************************************************
    5200              ;* FNAME: _fn_mkdir                     FR SIZE:  74           *
    5201              ;*                                                             *
    5202              ;* FUNCTION ENVIRONMENT                                        *
    5203              ;*                                                             *
    5204              ;* FUNCTION PROPERTIES                                         *
    5205              ;*                            6 Parameter, 62 Auto,  6 SOE     *
    5206              ;***************************************************************
    5207              
    5208              _fn_mkdir:
    5209              ;* AR4   assigned to _fm
    5210              DW$447  .dwtag  DW_TAG_formal_parameter, DW_AT_name("fm"), DW_AT_symbol_name("_fm")
    5211                      .dwattr DW$447, DW_AT_type(*DW$T$117)
    5212                      .dwattr DW$447, DW_AT_location[DW_OP_reg12]
    5213              ;* AR5   assigned to _dirname
TMS320C2000 COFF Assembler PC v4.1.3 Thu Aug 18 12:16:14 2016

Tools Copyright (c) 1996-2006 Texas Instruments Incorporated
fat.asm                                                              PAGE  102

    5214              DW$448  .dwtag  DW_TAG_formal_parameter, DW_AT_name("dirname"), DW_AT_symbol_name("_dirname")
    5215                      .dwattr DW$448, DW_AT_type(*DW$T$146)
    5216                      .dwattr DW$448, DW_AT_location[DW_OP_reg14]
    5217 00000907 B2BD          MOVL      *SP++,XAR1
    5218 00000908 AABD          MOVL      *SP++,XAR2
    5219 00000909 A2BD          MOVL      *SP++,XAR3
    5220 0000090a 5AAD          MOVZ      AR2,SP
    5221 0000090b FE44          ADDB      SP,#68
    5222 0000090c 8BA4          MOVL      XAR1,XAR4             ; |1212| 
    5223 0000090d 5CAD          MOVZ      AR4,SP                ; |1223| 
    5224 0000090e DCC4          SUBB      XAR4,#68              ; |1223| 
    5225 0000090f A842          MOVL      *-SP[2],XAR4          ; |1223| 
    5226 00000910 8AA1          MOVL      XAR4,XAR1             ; |1223| 
    5227 00000911 7640'         LCR       #__f_setfsname        ; |1223| 
         00000912 0175 
    5228                      ; call occurs [#__f_setfsname] ; |1223| 
    5229 00000913 DA88          SUBB      FP,#8
    5230 00000914 5200          CMPB      AL,#0                 ; |1223| 
    5231 00000915 ED09          BF        L193,NEQ              ; |1223| 
    5232                      ; branchcc occurs ; |1223| 
    5233 00000916 5DAD          MOVZ      AR5,SP                ; |1224| 
    5234 00000917 5CAD          MOVZ      AR4,SP                ; |1224| 
    5235 00000918 DDA7          SUBB      XAR5,#39              ; |1224| 
    5236 00000919 DCAF          SUBB      XAR4,#47              ; |1224| 
    5237 0000091a 7640'         LCR       #__f_checknamewc      ; |1224| 
         0000091b 00A7 
    5238                      ; call occurs [#__f_checknamewc] ; |1224| 
    5239 0000091c FF58          TEST      ACC                   ; |1224| 
    5240 0000091d EC04          BF        L194,EQ               ; |1224| 
    5241                      ; branchcc occurs ; |1224| 
    5242 0000091e       L193:    
    5243 0000091e 9A04          MOVB      AL,#4                 ; |1224| 
    5244 0000091f 56CF          BF        L206,UNC              ; |1224| 
         00000920 0123 
    5245                      ; branch occurs ; |1224| 
    5246 00000921       L194:    
    5247 00000921 D008          MOVL      XAR0,#8               ; |1226| 
    5248 00000922 5DAD          MOVZ      AR5,SP                ; |1226| 
    5249 00000923 8AA1          MOVL      XAR4,XAR1             ; |1226| 
    5250 00000924 9292          MOV       AL,*+FP[AR0]          ; |1226| 
    5251 00000925 DD8A          SUBB      XAR5,#10              ; |1226| 
    5252 00000926 7640!         LCR       #__f_getvolume        ; |1226| 
         00000927 0000 
    5253                      ; call occurs [#__f_getvolume] ; |1226| 
    5254 00000928 5200          CMPB      AL,#0                 ; |1226| 
    5255 00000929 88A9          MOVZ      AR6,AL                ; |1226| 
    5256 0000092a 56C0          BF        L205,NEQ              ; |1226| 
         0000092b 0117 
    5257                      ; branchcc occurs ; |1226| 
    5258 0000092c 5CAD          MOVZ      AR4,SP                ; |1229| 
    5259 0000092d 5DAD          MOVZ      AR5,SP                ; |1229| 
    5260 0000092e DC98          SUBB      XAR4,#24              ; |1229| 
    5261 0000092f A842          MOVL      *-SP[2],XAR4          ; |1229| 
    5262 00000930 8A4A          MOVL      XAR4,*-SP[10]         ; |1229| 
    5263 00000931 DDC4          SUBB      XAR5,#68              ; |1229| 
TMS320C2000 COFF Assembler PC v4.1.3 Thu Aug 18 12:16:14 2016

Tools Copyright (c) 1996-2006 Texas Instruments Incorporated
fat.asm                                                              PAGE  103

    5264 00000932 7640'         LCR       #__f_findpath         ; |1229| 
         00000933 0465 
    5265                      ; call occurs [#__f_findpath] ; |1229| 
    5266 00000934 5200          CMPB      AL,#0                 ; |1229| 
    5267 00000935 ED04          BF        L195,NEQ              ; |1229| 
    5268                      ; branchcc occurs ; |1229| 
    5269 00000936 9A03          MOVB      AL,#3                 ; |1229| 
    5270 00000937 56CF          BF        L206,UNC              ; |1229| 
         00000938 010B 
    5271                      ; branch occurs ; |1229| 
    5272 00000939       L195:    
    5273 00000939 0658          MOVL      ACC,*-SP[24]          ; |1231| 
    5274 0000093a 1E64          MOVL      *-SP[36],ACC          ; |1231| 
    5275 0000093b 0652          MOVL      ACC,*-SP[18]          ; |1232| 
    5276 0000093c 1E5E          MOVL      *-SP[30],ACC          ; |1232| 
    5277 0000093d 0650          MOVL      ACC,*-SP[16]          ; |1233| 
    5278 0000093e 1E5C          MOVL      *-SP[28],ACC          ; |1233| 
    5279 0000093f 064E          MOVL      ACC,*-SP[14]          ; |1234| 
    5280 00000940 1E5A          MOVL      *-SP[26],ACC          ; |1234| 
    5281 00000941 926F          MOV       AL,*-SP[47]           ; |1236| 
    5282 00000942 522E          CMPB      AL,#46                ; |1236| 
    5283 00000943 ED04          BF        L196,NEQ              ; |1236| 
    5284                      ; branchcc occurs ; |1236| 
    5285 00000944 9A05          MOVB      AL,#5                 ; |1236| 
    5286 00000945 56CF          BF        L206,UNC              ; |1236| 
         00000946 00FD 
    5287                      ; branch occurs ; |1236| 
    5288 00000947       L196:    
    5289 00000947 5CAD          MOVZ      AR4,SP                ; |1237| 
    5290 00000948 DCA7          SUBB      XAR4,#39              ; |1237| 
    5291 00000949 A842          MOVL      *-SP[2],XAR4          ; |1237| 
    5292 0000094a 5CAD          MOVZ      AR4,SP                ; |1237| 
    5293 0000094b DCA4          SUBB      XAR4,#36              ; |1237| 
    5294 0000094c A844          MOVL      *-SP[4],XAR4          ; |1237| 
    5295 0000094d 5CAD          MOVZ      AR4,SP                ; |1237| 
    5296 0000094e 5DAD          MOVZ      AR5,SP                ; |1237| 
    5297 0000094f DC8C          SUBB      XAR4,#12              ; |1237| 
    5298 00000950 A846          MOVL      *-SP[6],XAR4          ; |1237| 
    5299 00000951 8A4A          MOVL      XAR4,*-SP[10]         ; |1237| 
    5300 00000952 DDAF          SUBB      XAR5,#47              ; |1237| 
    5301 00000953 7640'         LCR       #__f_findfile         ; |1237| 
         00000954 0255 
    5302                      ; call occurs [#__f_findfile] ; |1237| 
    5303 00000955 5200          CMPB      AL,#0                 ; |1237| 
    5304 00000956 EC04          BF        L197,EQ               ; |1237| 
    5305                      ; branchcc occurs ; |1237| 
    5306 00000957 9A06          MOVB      AL,#6                 ; |1237| 
    5307 00000958 56CF          BF        L206,UNC              ; |1237| 
         00000959 00EA 
    5308                      ; branch occurs ; |1237| 
    5309 0000095a       L197:    
    5310 0000095a 0658          MOVL      ACC,*-SP[24]          ; |1239| 
    5311 0000095b 1E64          MOVL      *-SP[36],ACC          ; |1239| 
    5312 0000095c 5DAD          MOVZ      AR5,SP                ; |1244| 
    5313 0000095d 0652          MOVL      ACC,*-SP[18]          ; |1240| 
TMS320C2000 COFF Assembler PC v4.1.3 Thu Aug 18 12:16:14 2016

Tools Copyright (c) 1996-2006 Texas Instruments Incorporated
fat.asm                                                              PAGE  104

    5314 0000095e 1E5E          MOVL      *-SP[30],ACC          ; |1240| 
    5315 0000095f 0650          MOVL      ACC,*-SP[16]          ; |1241| 
    5316 00000960 1E5C          MOVL      *-SP[28],ACC          ; |1241| 
    5317 00000961 064E          MOVL      ACC,*-SP[14]          ; |1242| 
    5318 00000962 1E5A          MOVL      *-SP[26],ACC          ; |1242| 
    5319 00000963 8A4A          MOVL      XAR4,*-SP[10]         ; |1244| 
    5320 00000964 DD88          SUBB      XAR5,#8               ; |1244| 
    5321 00000965 7640!         LCR       #__f_alloccluster     ; |1244| 
         00000966 0000 
    5322                      ; call occurs [#__f_alloccluster] ; |1244| 
    5323 00000967 5200          CMPB      AL,#0                 ; |1244| 
    5324 00000968 88A9          MOVZ      AR6,AL                ; |1244| 
    5325 00000969 56C0          BF        L205,NEQ              ; |1244| 
         0000096a 00D8 
    5326                      ; branchcc occurs ; |1244| 
    5327 0000096b 5CAD          MOVZ      AR4,SP                ; |1247| 
    5328 0000096c DCA4          SUBB      XAR4,#36              ; |1247| 
    5329 0000096d A842          MOVL      *-SP[2],XAR4          ; |1247| 
    5330 0000096e 5CAD          MOVZ      AR4,SP                ; |1247| 
    5331 0000096f 5DAD          MOVZ      AR5,SP                ; |1247| 
    5332 00000970 DC8C          SUBB      XAR4,#12              ; |1247| 
    5333 00000971 A844          MOVL      *-SP[4],XAR4          ; |1247| 
    5334 00000972 8A4A          MOVL      XAR4,*-SP[10]         ; |1247| 
    5335 00000973 DDC4          SUBB      XAR5,#68              ; |1247| 
    5336 00000974 7640'         LCR       #__f_addentry         ; |1247| 
         00000975 07DC 
    5337                      ; call occurs [#__f_addentry] ; |1247| 
    5338 00000976 5200          CMPB      AL,#0                 ; |1247| 
    5339 00000977 88A9          MOVZ      AR6,AL                ; |1247| 
    5340 00000978 56C0          BF        L205,NEQ              ; |1247| 
         00000979 00C9 
    5341                      ; branchcc occurs ; |1247| 
    5342 0000097a 8A4C          MOVL      XAR4,*-SP[12]         ; |1250| 
    5343 0000097b DC0B          ADDB      XAR4,#11              ; |1250| 
    5344 0000097c 1AC4          OR        *+XAR4[0],#0x0010     ; |1250| 
         0000097d 0010 
    5345 0000097e 7640'         LCR       #__f_getintfile       ; |1255| 
         0000097f 07B7 
    5346                      ; call occurs [#__f_getintfile] ; |1255| 
    5347 00000980 A8A9          MOVL      ACC,XAR4              ; |1255| 
    5348 00000981 8BA4          MOVL      XAR1,XAR4             ; |1255| 
    5349 00000982 ED04          BF        L198,NEQ              ; |1255| 
    5350                      ; branchcc occurs ; |1255| 
    5351 00000983 9A07          MOVB      AL,#7                 ; |1257| 
    5352 00000984 56CF          BF        L206,UNC              ; |1257| 
         00000985 00BE 
    5353                      ; branch occurs ; |1257| 
    5354 00000986       L198:    
    5355 00000986 B2A9          MOVL      ACC,XAR1              ; |1259| 
    5356 00000987 8F40          MOVL      XAR5,#916             ; |1259| 
         00000988 0394 
    5357 00000989 8A4A          MOVL      XAR4,*-SP[10]         ; |1259| 
    5358 0000098a 5601          ADDL      XAR5,ACC
         0000098b 00A5 
    5359 0000098c 0648          MOVL      ACC,*-SP[8]           ; |1259| 
TMS320C2000 COFF Assembler PC v4.1.3 Thu Aug 18 12:16:14 2016

Tools Copyright (c) 1996-2006 Texas Instruments Incorporated
fat.asm                                                              PAGE  105

    5360 0000098d 7640!         LCR       #__f_clustertopos     ; |1259| 
         0000098e 0000 
    5361                      ; call occurs [#__f_clustertopos] ; |1259| 
    5362 0000098f 8A4A          MOVL      XAR4,*-SP[10]         ; |1261| 
    5363 00000990 834C          MOVL      XAR5,*-SP[12]         ; |1261| 
    5364 00000991 0648          MOVL      ACC,*-SP[8]           ; |1261| 
    5365 00000992 7640!         LCR       #__f_setdecluster     ; |1261| 
         00000993 0000 
    5366                      ; call occurs [#__f_setdecluster] ; |1261| 
    5367 00000994 020C          MOVB      ACC,#12
    5368 00000995 07A1          ADDL      ACC,XAR1
    5369 00000996 8F00+         MOVL      XAR4,#FSL1            ; |1267| 
         00000997 0000 
    5370 00000998 1E4C          MOVL      *-SP[12],ACC          ; |1265| 
    5371 00000999 A842          MOVL      *-SP[2],XAR4          ; |1267| 
    5372 0000099a 8A4C          MOVL      XAR4,*-SP[12]         ; |1267| 
    5373 0000099b 8F40+         MOVL      XAR5,#FSL2            ; |1267| 
         0000099c 0004 
    5374 0000099d 7640!         LCR       #__f_initentry        ; |1267| 
         0000099e 0000 
    5375                      ; call occurs [#__f_initentry] ; |1267| 
    5376 0000099f 8A4C          MOVL      XAR4,*-SP[12]         ; |1268| 
    5377 000009a0 D00B          MOVB      XAR0,#11              ; |1268| 
    5378 000009a1 2894          MOV       *+XAR4[AR0],#16       ; |1268| 
         000009a2 0010 
    5379 000009a3 8A4A          MOVL      XAR4,*-SP[10]         ; |1269| 
    5380 000009a4 834C          MOVL      XAR5,*-SP[12]         ; |1269| 
    5381 000009a5 0648          MOVL      ACC,*-SP[8]           ; |1269| 
    5382 000009a6 7640!         LCR       #__f_setdecluster     ; |1269| 
         000009a7 0000 
    5383                      ; call occurs [#__f_setdecluster] ; |1269| 
    5384 000009a8 0220          MOVB      ACC,#32
    5385 000009a9 8F00+         MOVL      XAR4,#FSL1            ; |1272| 
         000009aa 0000 
    5386 000009ab 5601          ADDL      *-SP[12],ACC          ; |1270| 
         000009ac 004C 
    5387 000009ad A842          MOVL      *-SP[2],XAR4          ; |1272| 
    5388 000009ae 8A4C          MOVL      XAR4,*-SP[12]         ; |1272| 
    5389 000009af 8F40+         MOVL      XAR5,#FSL3            ; |1272| 
         000009b0 000E 
    5390 000009b1 7640!         LCR       #__f_initentry        ; |1272| 
         000009b2 0000 
    5391                      ; call occurs [#__f_initentry] ; |1272| 
    5392 000009b3 8A4C          MOVL      XAR4,*-SP[12]         ; |1273| 
    5393 000009b4 D00B          MOVB      XAR0,#11              ; |1273| 
    5394 000009b5 2894          MOV       *+XAR4[AR0],#16       ; |1273| 
         000009b6 0010 
    5395 000009b7 8A4A          MOVL      XAR4,*-SP[10]         ; |1274| 
    5396 000009b8 834C          MOVL      XAR5,*-SP[12]         ; |1274| 
    5397 000009b9 0658          MOVL      ACC,*-SP[24]          ; |1274| 
    5398 000009ba 7640!         LCR       #__f_setdecluster     ; |1274| 
         000009bb 0000 
    5399                      ; call occurs [#__f_setdecluster] ; |1274| 
    5400 000009bc D302          MOVB      XAR3,#2               ; |1277| 
    5401 000009bd 0220          MOVB      ACC,#32
TMS320C2000 COFF Assembler PC v4.1.3 Thu Aug 18 12:16:14 2016

Tools Copyright (c) 1996-2006 Texas Instruments Incorporated
fat.asm                                                              PAGE  106

    5402                      .dwpsn  "fat.c",1277,0
    5403 000009be 5601          ADDL      *-SP[12],ACC          ; |1275| 
         000009bf 004C 
    5404 000009c0       L199:    
    5405 000009c0       DW$L$_fn_mkdir$16$B:
    5406 000009c0 8A4C          MOVL      XAR4,*-SP[12]         ; |1278| 
    5407 000009c1 0220          MOVB      ACC,#32
    5408 000009c2 D500          MOVB      XAR5,#0
    5409 000009c3 7640!         LCR       #_memset              ; |1278| 
         000009c4 0000 
    5410                      ; call occurs [#_memset] ; |1278| 
    5411 000009c5 DB01          ADDB      XAR3,#1               ; |1277| 
    5412 000009c6 0220          MOVB      ACC,#32
    5413 000009c7 5601          ADDL      *-SP[12],ACC          ; |1277| 
         000009c8 004C 
    5414 000009c9 92A3          MOV       AL,AR3                ; |1277| 
    5415 000009ca 5210          CMPB      AL,#16                ; |1277| 
    5416                      .dwpsn  "fat.c",1279,0
    5417 000009cb 56C8          BF        L199,LO               ; |1277| 
         000009cc FFF5 
    5418                      ; branchcc occurs ; |1277| 
    5419 000009cd       DW$L$_fn_mkdir$16$E:
    5420 000009cd 020C          MOVB      ACC,#12
    5421 000009ce 2841          MOV       *-SP[1],#1            ; |1281| 
         000009cf 0001 
    5422 000009d0 8D00          MOVL      XAR0,#922             ; |1281| 
         000009d1 039A 
    5423 000009d2 07A1          ADDL      ACC,XAR1
    5424 000009d3 8A4A          MOVL      XAR4,*-SP[10]         ; |1281| 
    5425 000009d4 83A9          MOVL      XAR5,ACC              ; |1281| 
    5426 000009d5 0691          MOVL      ACC,*+XAR1[AR0]       ; |1281| 
    5427 000009d6 7640!         LCR       #__f_writesector      ; |1281| 
         000009d7 0000 
    5428                      ; call occurs [#__f_writesector] ; |1281| 
    5429 000009d8 5200          CMPB      AL,#0                 ; |1281| 
    5430 000009d9 88A9          MOVZ      AR6,AL                ; |1281| 
    5431 000009da ED67          BF        L205,NEQ              ; |1281| 
    5432                      ; branchcc occurs ; |1281| 
    5433 000009db B2A9          MOVL      ACC,XAR1              ; |1284| 
    5434 000009dc 8F00          MOVL      XAR4,#922             ; |1284| 
         000009dd 039A 
    5435 000009de 5601          ADDL      XAR4,ACC
         000009df 00A4 
    5436 000009e0 D300          MOVB      XAR3,#0
    5437 000009e1 0201          MOVB      ACC,#1
    5438 000009e2 5601          ADDL      *+XAR4[0],ACC         ; |1284| 
         000009e3 00C4 
    5439 000009e4 020C          MOVB      ACC,#12
    5440 000009e5 07A1          ADDL      ACC,XAR1
    5441                      .dwpsn  "fat.c",1288,0
    5442 000009e6 1E4C          MOVL      *-SP[12],ACC          ; |1286| 
    5443 000009e7       L200:    
    5444 000009e7       DW$L$_fn_mkdir$19$B:
    5445 000009e7 8A4C          MOVL      XAR4,*-SP[12]         ; |1289| 
    5446 000009e8 0220          MOVB      ACC,#32
TMS320C2000 COFF Assembler PC v4.1.3 Thu Aug 18 12:16:14 2016

Tools Copyright (c) 1996-2006 Texas Instruments Incorporated
fat.asm                                                              PAGE  107

    5447 000009e9 D500          MOVB      XAR5,#0
    5448 000009ea 7640!         LCR       #_memset              ; |1289| 
         000009eb 0000 
    5449                      ; call occurs [#_memset] ; |1289| 
    5450 000009ec DB01          ADDB      XAR3,#1               ; |1288| 
    5451 000009ed 0220          MOVB      ACC,#32
    5452 000009ee 5601          ADDL      *-SP[12],ACC          ; |1288| 
         000009ef 004C 
    5453 000009f0 92A3          MOV       AL,AR3                ; |1288| 
    5454 000009f1 5202          CMPB      AL,#2                 ; |1288| 
    5455                      .dwpsn  "fat.c",1290,0
    5456 000009f2 56C8          BF        L200,LO               ; |1288| 
         000009f3 FFF5 
    5457                      ; branchcc occurs ; |1288| 
    5458 000009f4       DW$L$_fn_mkdir$19$E:
    5459 000009f4 8D00          MOVL      XAR0,#924             ; |1292| 
         000009f5 039C 
    5460 000009f6 0691          MOVL      ACC,*+XAR1[AR0]       ; |1292| 
    5461 000009f7 8D00          MOVL      XAR0,#922             ; |1292| 
         000009f8 039A 
    5462 000009f9 0F91          CMPL      ACC,*+XAR1[AR0]       ; |1292| 
    5463 000009fa 56C9          BF        L203,LOS              ; |1292| 
         000009fb 0023 
    5464                      ; branchcc occurs ; |1292| 
    5465              L201:    
    5466              DW$L$_fn_mkdir$21$B:
    5467                      .dwpsn  "fat.c",1292,0
    5468 000009fc 020C          MOVB      ACC,#12
    5469 000009fd 07A1          ADDL      ACC,XAR1
    5470 000009fe 1E4C          MOVL      *-SP[12],ACC          ; |1293| 
    5471 000009ff       DW$L$_fn_mkdir$21$E:
    5472 000009ff       L202:    
    5473 000009ff       DW$L$_fn_mkdir$22$B:
    5474 000009ff 020C          MOVB      ACC,#12
    5475 00000a00 2841          MOV       *-SP[1],#1            ; |1296| 
         00000a01 0001 
    5476 00000a02 8D00          MOVL      XAR0,#922             ; |1296| 
         00000a03 039A 
    5477 00000a04 07A1          ADDL      ACC,XAR1
    5478 00000a05 8A4A          MOVL      XAR4,*-SP[10]         ; |1296| 
    5479 00000a06 83A9          MOVL      XAR5,ACC              ; |1296| 
    5480 00000a07 0691          MOVL      ACC,*+XAR1[AR0]       ; |1296| 
    5481 00000a08 7640!         LCR       #__f_writesector      ; |1296| 
         00000a09 0000 
    5482                      ; call occurs [#__f_writesector] ; |1296| 
    5483 00000a0a 5200          CMPB      AL,#0                 ; |1296| 
    5484 00000a0b 88A9          MOVZ      AR6,AL                ; |1296| 
    5485 00000a0c ED2A          BF        L204,NEQ              ; |1296| 
    5486                      ; branchcc occurs ; |1296| 
    5487 00000a0d       DW$L$_fn_mkdir$22$E:
    5488 00000a0d       DW$L$_fn_mkdir$23$B:
    5489 00000a0d B2A9          MOVL      ACC,XAR1              ; |1306| 
    5490 00000a0e 8F00          MOVL      XAR4,#922             ; |1306| 
         00000a0f 039A 
    5491 00000a10 5601          ADDL      XAR4,ACC
TMS320C2000 COFF Assembler PC v4.1.3 Thu Aug 18 12:16:14 2016

Tools Copyright (c) 1996-2006 Texas Instruments Incorporated
fat.asm                                                              PAGE  108

         00000a11 00A4 
    5492 00000a12 8D00          MOVL      XAR0,#924             ; |1306| 
         00000a13 039C 
    5493 00000a14 0201          MOVB      ACC,#1
    5494 00000a15 5601          ADDL      *+XAR4[0],ACC         ; |1306| 
         00000a16 00C4 
    5495 00000a17 0691          MOVL      ACC,*+XAR1[AR0]       ; |1306| 
    5496 00000a18 8D00          MOVL      XAR0,#922             ; |1306| 
         00000a19 039A 
    5497 00000a1a 0F91          CMPL      ACC,*+XAR1[AR0]       ; |1306| 
    5498                      .dwpsn  "fat.c",1307,0
    5499 00000a1b 56C6          BF        L201,HI               ; |1306| 
         00000a1c FFE1 
    5500                      ; branchcc occurs ; |1306| 
    5501 00000a1d       DW$L$_fn_mkdir$23$E:
    5502 00000a1d       L203:    
    5503 00000a1d 28AA          MOV       PH,#4095
         00000a1e 0FFF 
    5504 00000a1f 8D00          MOVL      XAR0,#916             ; |1309| 
         00000a20 0394 
    5505 00000a21 28AB          MOV       PL,#65528
         00000a22 FFF8 
    5506 00000a23 A942          MOVL      *-SP[2],P             ; |1309| 
    5507 00000a24 8A4A          MOVL      XAR4,*-SP[10]         ; |1309| 
    5508 00000a25 0691          MOVL      ACC,*+XAR1[AR0]       ; |1309| 
    5509 00000a26 7640!         LCR       #__f_setclustervalue  ; |1309| 
         00000a27 0000 
    5510                      ; call occurs [#__f_setclustervalue] ; |1309| 
    5511 00000a28 5200          CMPB      AL,#0                 ; |1309| 
    5512 00000a29 88A9          MOVZ      AR6,AL                ; |1309| 
    5513 00000a2a ED17          BF        L205,NEQ              ; |1309| 
    5514                      ; branchcc occurs ; |1309| 
    5515 00000a2b 8A4A          MOVL      XAR4,*-SP[10]         ; |1312| 
    5516 00000a2c 7640!         LCR       #__f_writefatsector   ; |1312| 
         00000a2d 0000 
    5517                      ; call occurs [#__f_writefatsector] ; |1312| 
    5518 00000a2e 5200          CMPB      AL,#0                 ; |1312| 
    5519 00000a2f 88A9          MOVZ      AR6,AL                ; |1312| 
    5520 00000a30 ED11          BF        L205,NEQ              ; |1312| 
    5521                      ; branchcc occurs ; |1312| 
    5522 00000a31 8A4A          MOVL      XAR4,*-SP[10]         ; |1319| 
    5523 00000a32 7640'         LCR       #__f_writedirsector   ; |1319| 
         00000a33 0027 
    5524                      ; call occurs [#__f_writedirsector] ; |1319| 
    5525 00000a34 56CF          BF        L206,UNC              ; |1319| 
         00000a35 000E 
    5526                      ; branch occurs ; |1319| 
    5527 00000a36       L204:    
    5528 00000a36       DW$L$_fn_mkdir$27$B:
    5529 00000a36 8A4A          MOVL      XAR4,*-SP[10]         ; |1298| 
    5530 00000a37 0202          MOVB      ACC,#2
    5531 00000a38 0FC4          CMPL      ACC,*+XAR4[0]         ; |1298| 
    5532 00000a39 ED08          BF        L205,NEQ              ; |1298| 
    5533                      ; branchcc occurs ; |1298| 
    5534 00000a3a       DW$L$_fn_mkdir$27$E:
TMS320C2000 COFF Assembler PC v4.1.3 Thu Aug 18 12:16:14 2016

Tools Copyright (c) 1996-2006 Texas Instruments Incorporated
fat.asm                                                              PAGE  109

    5535 00000a3a       DW$L$_fn_mkdir$28$B:
    5536 00000a3a 8A4A          MOVL      XAR4,*-SP[10]         ; |1300| 
    5537 00000a3b 83A1          MOVL      XAR5,XAR1             ; |1300| 
    5538 00000a3c 7640!         LCR       #__f_dobadblock       ; |1300| 
         00000a3d 0000 
    5539                      ; call occurs [#__f_dobadblock] ; |1300| 
    5540 00000a3e 5200          CMPB      AL,#0                 ; |1300| 
    5541 00000a3f 88A9          MOVZ      AR6,AL                ; |1300| 
    5542 00000a40 ECBF          BF        L202,EQ               ; |1300| 
    5543                      ; branchcc occurs ; |1300| 
    5544 00000a41       DW$L$_fn_mkdir$28$E:
    5545 00000a41       L205:    
    5546 00000a41 92A6          MOV       AL,AR6
    5547 00000a42       L206:    
    5548 00000a42 FEC4          SUBB      SP,#68                ; |1301| 
    5549 00000a43 82BE          MOVL      XAR3,*--SP            ; |1301| 
    5550 00000a44 86BE          MOVL      XAR2,*--SP            ; |1301| 
    5551 00000a45 8BBE          MOVL      XAR1,*--SP            ; |1301| 
    5552                      .dwpsn  "fat.c",1320,1
    5553 00000a46 0006          LRETR
    5554                      ; return occurs
    5555              
    5556              DW$449  .dwtag  DW_TAG_loop
    5557                      .dwattr DW$449, DW_AT_name("D:\DEV\Amot\BearingWear\XTSW_V6_20\fat.asm:L201:1:1471518973")
    5558                      .dwattr DW$449, DW_AT_begin_file("fat.c")
    5559                      .dwattr DW$449, DW_AT_begin_line(0x50c)
    5560                      .dwattr DW$449, DW_AT_end_line(0x51b)
    5561              DW$450  .dwtag  DW_TAG_loop_range
    5562                      .dwattr DW$450, DW_AT_low_pc(DW$L$_fn_mkdir$21$B)
    5563                      .dwattr DW$450, DW_AT_high_pc(DW$L$_fn_mkdir$21$E)
    5564              DW$451  .dwtag  DW_TAG_loop_range
    5565                      .dwattr DW$451, DW_AT_low_pc(DW$L$_fn_mkdir$23$B)
    5566                      .dwattr DW$451, DW_AT_high_pc(DW$L$_fn_mkdir$23$E)
    5567              
    5568              DW$452  .dwtag  DW_TAG_loop
    5569                      .dwattr DW$452, DW_AT_name("D:\DEV\Amot\BearingWear\XTSW_V6_20\fat.asm:L202:2:1471518973")
    5570                      .dwattr DW$452, DW_AT_begin_file("fat.c")
    5571                      .dwattr DW$452, DW_AT_begin_line(0x50d)
    5572                      .dwattr DW$452, DW_AT_end_line(0x514)
    5573              DW$453  .dwtag  DW_TAG_loop_range
    5574                      .dwattr DW$453, DW_AT_low_pc(DW$L$_fn_mkdir$22$B)
    5575                      .dwattr DW$453, DW_AT_high_pc(DW$L$_fn_mkdir$22$E)
    5576              DW$454  .dwtag  DW_TAG_loop_range
    5577                      .dwattr DW$454, DW_AT_low_pc(DW$L$_fn_mkdir$27$B)
    5578                      .dwattr DW$454, DW_AT_high_pc(DW$L$_fn_mkdir$27$E)
    5579              DW$455  .dwtag  DW_TAG_loop_range
    5580                      .dwattr DW$455, DW_AT_low_pc(DW$L$_fn_mkdir$28$B)
    5581                      .dwattr DW$455, DW_AT_high_pc(DW$L$_fn_mkdir$28$E)
    5582                      .dwendtag DW$452
    5583              
    5584                      .dwendtag DW$449
    5585              
    5586              
    5587              DW$456  .dwtag  DW_TAG_loop
    5588                      .dwattr DW$456, DW_AT_name("D:\DEV\Amot\BearingWear\XTSW_V6_20\fat.asm:L200:1:1471518973")
TMS320C2000 COFF Assembler PC v4.1.3 Thu Aug 18 12:16:14 2016

Tools Copyright (c) 1996-2006 Texas Instruments Incorporated
fat.asm                                                              PAGE  110

    5589                      .dwattr DW$456, DW_AT_begin_file("fat.c")
    5590                      .dwattr DW$456, DW_AT_begin_line(0x508)
    5591                      .dwattr DW$456, DW_AT_end_line(0x50a)
    5592              DW$457  .dwtag  DW_TAG_loop_range
    5593                      .dwattr DW$457, DW_AT_low_pc(DW$L$_fn_mkdir$19$B)
    5594                      .dwattr DW$457, DW_AT_high_pc(DW$L$_fn_mkdir$19$E)
    5595                      .dwendtag DW$456
    5596              
    5597              
    5598              DW$458  .dwtag  DW_TAG_loop
    5599                      .dwattr DW$458, DW_AT_name("D:\DEV\Amot\BearingWear\XTSW_V6_20\fat.asm:L199:1:1471518973")
    5600                      .dwattr DW$458, DW_AT_begin_file("fat.c")
    5601                      .dwattr DW$458, DW_AT_begin_line(0x4fd)
    5602                      .dwattr DW$458, DW_AT_end_line(0x4ff)
    5603              DW$459  .dwtag  DW_TAG_loop_range
    5604                      .dwattr DW$459, DW_AT_low_pc(DW$L$_fn_mkdir$16$B)
    5605                      .dwattr DW$459, DW_AT_high_pc(DW$L$_fn_mkdir$16$E)
    5606                      .dwendtag DW$458
    5607              
    5608                      .dwattr DW$446, DW_AT_end_file("fat.c")
    5609                      .dwattr DW$446, DW_AT_end_line(0x528)
    5610                      .dwattr DW$446, DW_AT_end_column(0x01)
    5611                      .dwendtag DW$446
    5612              
    5613 00000a47               .sect   ".text"
    5614                      .global _fn_filelength
    5615              
    5616              DW$460  .dwtag  DW_TAG_subprogram, DW_AT_name("fn_filelength"), DW_AT_symbol_name("_fn_filelength")
    5617                      .dwattr DW$460, DW_AT_low_pc(_fn_filelength)
    5618                      .dwattr DW$460, DW_AT_high_pc(0x00)
    5619                      .dwattr DW$460, DW_AT_begin_file("fat.c")
    5620                      .dwattr DW$460, DW_AT_begin_line(0x53b)
    5621                      .dwattr DW$460, DW_AT_begin_column(0x06)
    5622                      .dwattr DW$460, DW_AT_frame_base[DW_OP_breg20 -58]
    5623                      .dwattr DW$460, DW_AT_skeletal(0x01)
    5624                      .dwpsn  "fat.c",1339,54
    5625              
    5626              ;***************************************************************
    5627              ;* FNAME: _fn_filelength                FR SIZE:  56           *
    5628              ;*                                                             *
    5629              ;* FUNCTION ENVIRONMENT                                        *
    5630              ;*                                                             *
    5631              ;* FUNCTION PROPERTIES                                         *
    5632              ;*                            6 Parameter, 48 Auto,  2 SOE     *
    5633              ;***************************************************************
    5634              
    5635              _fn_filelength:
    5636              ;* AR4   assigned to _fm
    5637              DW$461  .dwtag  DW_TAG_formal_parameter, DW_AT_name("fm"), DW_AT_symbol_name("_fm")
    5638                      .dwattr DW$461, DW_AT_type(*DW$T$117)
    5639                      .dwattr DW$461, DW_AT_location[DW_OP_reg12]
    5640              ;* AR5   assigned to _filename
    5641              DW$462  .dwtag  DW_TAG_formal_parameter, DW_AT_name("filename"), DW_AT_symbol_name("_filename")
    5642                      .dwattr DW$462, DW_AT_type(*DW$T$146)
    5643                      .dwattr DW$462, DW_AT_location[DW_OP_reg14]
TMS320C2000 COFF Assembler PC v4.1.3 Thu Aug 18 12:16:14 2016

Tools Copyright (c) 1996-2006 Texas Instruments Incorporated
fat.asm                                                              PAGE  111

    5644 00000a47 B2BD          MOVL      *SP++,XAR1
    5645 00000a48 FE36          ADDB      SP,#54
    5646 00000a49 8BA4          MOVL      XAR1,XAR4             ; |1339| 
    5647 00000a4a 5CAD          MOVZ      AR4,SP                ; |1345| 
    5648 00000a4b DCB6          SUBB      XAR4,#54              ; |1345| 
    5649 00000a4c A842          MOVL      *-SP[2],XAR4          ; |1345| 
    5650 00000a4d 8AA1          MOVL      XAR4,XAR1             ; |1345| 
    5651 00000a4e 7640'         LCR       #__f_setfsname        ; |1345| 
         00000a4f 0175 
    5652                      ; call occurs [#__f_setfsname] ; |1345| 
    5653 00000a50 5200          CMPB      AL,#0                 ; |1345| 
    5654 00000a51 ED2F          BF        L207,NEQ              ; |1345| 
    5655                      ; branchcc occurs ; |1345| 
    5656 00000a52 5DAD          MOVZ      AR5,SP                ; |1346| 
    5657 00000a53 5CAD          MOVZ      AR4,SP                ; |1346| 
    5658 00000a54 DD99          SUBB      XAR5,#25              ; |1346| 
    5659 00000a55 DCA1          SUBB      XAR4,#33              ; |1346| 
    5660 00000a56 7640'         LCR       #__f_checknamewc      ; |1346| 
         00000a57 00A7 
    5661                      ; call occurs [#__f_checknamewc] ; |1346| 
    5662 00000a58 FF58          TEST      ACC                   ; |1346| 
    5663 00000a59 ED27          BF        L207,NEQ              ; |1346| 
    5664                      ; branchcc occurs ; |1346| 
    5665 00000a5a 5DAD          MOVZ      AR5,SP                ; |1348| 
    5666 00000a5b 8AA1          MOVL      XAR4,XAR1             ; |1348| 
    5667 00000a5c 9276          MOV       AL,*-SP[54]           ; |1348| 
    5668 00000a5d DD88          SUBB      XAR5,#8               ; |1348| 
    5669 00000a5e 7640!         LCR       #__f_getvolume        ; |1348| 
         00000a5f 0000 
    5670                      ; call occurs [#__f_getvolume] ; |1348| 
    5671 00000a60 5200          CMPB      AL,#0                 ; |1348| 
    5672 00000a61 ED1F          BF        L207,NEQ              ; |1348| 
    5673                      ; branchcc occurs ; |1348| 
    5674 00000a62 5CAD          MOVZ      AR4,SP                ; |1350| 
    5675 00000a63 5DAD          MOVZ      AR5,SP                ; |1350| 
    5676 00000a64 DC96          SUBB      XAR4,#22              ; |1350| 
    5677 00000a65 A842          MOVL      *-SP[2],XAR4          ; |1350| 
    5678 00000a66 8A48          MOVL      XAR4,*-SP[8]          ; |1350| 
    5679 00000a67 DDB6          SUBB      XAR5,#54              ; |1350| 
    5680 00000a68 7640'         LCR       #__f_findpath         ; |1350| 
         00000a69 0465 
    5681                      ; call occurs [#__f_findpath] ; |1350| 
    5682 00000a6a 5200          CMPB      AL,#0                 ; |1350| 
    5683 00000a6b EC15          BF        L207,EQ               ; |1350| 
    5684                      ; branchcc occurs ; |1350| 
    5685 00000a6c 5CAD          MOVZ      AR4,SP                ; |1351| 
    5686 00000a6d DC99          SUBB      XAR4,#25              ; |1351| 
    5687 00000a6e A842          MOVL      *-SP[2],XAR4          ; |1351| 
    5688 00000a6f 5CAD          MOVZ      AR4,SP                ; |1351| 
    5689 00000a70 DC96          SUBB      XAR4,#22              ; |1351| 
    5690 00000a71 A844          MOVL      *-SP[4],XAR4          ; |1351| 
    5691 00000a72 5CAD          MOVZ      AR4,SP                ; |1351| 
    5692 00000a73 5DAD          MOVZ      AR5,SP                ; |1351| 
    5693 00000a74 DC8A          SUBB      XAR4,#10              ; |1351| 
    5694 00000a75 A846          MOVL      *-SP[6],XAR4          ; |1351| 
TMS320C2000 COFF Assembler PC v4.1.3 Thu Aug 18 12:16:14 2016

Tools Copyright (c) 1996-2006 Texas Instruments Incorporated
fat.asm                                                              PAGE  112

    5695 00000a76 8A48          MOVL      XAR4,*-SP[8]          ; |1351| 
    5696 00000a77 DDA1          SUBB      XAR5,#33              ; |1351| 
    5697 00000a78 7640'         LCR       #__f_findfile         ; |1351| 
         00000a79 0255 
    5698                      ; call occurs [#__f_findfile] ; |1351| 
    5699 00000a7a 5200          CMPB      AL,#0                 ; |1351| 
    5700 00000a7b EC05          BF        L207,EQ               ; |1351| 
    5701                      ; branchcc occurs ; |1351| 
    5702 00000a7c 8A4A          MOVL      XAR4,*-SP[10]         ; |1351| 
    5703 00000a7d D00B          MOVB      XAR0,#11              ; |1351| 
    5704 00000a7e 4494          TBIT      *+XAR4[AR0],#4        ; |1351| 
    5705 00000a7f EF04          BF        L208,NTC              ; |1351| 
    5706                      ; branchcc occurs ; |1351| 
    5707 00000a80       L207:    
    5708 00000a80 0200          MOVB      ACC,#0
    5709 00000a81 56CF          BF        L209,UNC              ; |1353| 
         00000a82 0006 
    5710                      ; branch occurs ; |1353| 
    5711 00000a83       L208:    
    5712 00000a83 8A4A          MOVL      XAR4,*-SP[10]         ; |1355| 
    5713 00000a84 DC1C          ADDB      XAR4,#28              ; |1355| 
    5714 00000a85 7640!         LCR       #__f_getlong          ; |1355| 
         00000a86 0000 
    5715                      ; call occurs [#__f_getlong] ; |1355| 
    5716 00000a87       L209:    
    5717 00000a87 FEB6          SUBB      SP,#54                ; |1355| 
    5718 00000a88 8BBE          MOVL      XAR1,*--SP            ; |1355| 
    5719                      .dwpsn  "fat.c",1356,1
    5720 00000a89 0006          LRETR
    5721                      ; return occurs
    5722                      .dwattr DW$460, DW_AT_end_file("fat.c")
    5723                      .dwattr DW$460, DW_AT_end_line(0x54c)
    5724                      .dwattr DW$460, DW_AT_end_column(0x01)
    5725                      .dwendtag DW$460
    5726              
    5727 00000a8a               .sect   ".text"
    5728                      .global _fn_open
    5729              
    5730              DW$463  .dwtag  DW_TAG_subprogram, DW_AT_name("fn_open"), DW_AT_symbol_name("_fn_open")
    5731                      .dwattr DW$463, DW_AT_low_pc(_fn_open)
    5732                      .dwattr DW$463, DW_AT_high_pc(0x00)
    5733                      .dwattr DW$463, DW_AT_begin_file("fat.c")
    5734                      .dwattr DW$463, DW_AT_begin_line(0x560)
    5735                      .dwattr DW$463, DW_AT_begin_column(0x09)
    5736                      .dwattr DW$463, DW_AT_frame_base[DW_OP_breg20 -52]
    5737                      .dwattr DW$463, DW_AT_skeletal(0x01)
    5738                      .dwpsn  "fat.c",1376,68
    5739              
    5740              ;***************************************************************
    5741              ;* FNAME: _fn_open                      FR SIZE:  50           *
    5742              ;*                                                             *
    5743              ;* FUNCTION ENVIRONMENT                                        *
    5744              ;*                                                             *
    5745              ;* FUNCTION PROPERTIES                                         *
    5746              ;*                            6 Parameter, 37 Auto,  6 SOE     *
TMS320C2000 COFF Assembler PC v4.1.3 Thu Aug 18 12:16:14 2016

Tools Copyright (c) 1996-2006 Texas Instruments Incorporated
fat.asm                                                              PAGE  113

    5747              ;***************************************************************
    5748              
    5749              _fn_open:
    5750              ;* AR4   assigned to _fm
    5751              DW$464  .dwtag  DW_TAG_formal_parameter, DW_AT_name("fm"), DW_AT_symbol_name("_fm")
    5752                      .dwattr DW$464, DW_AT_type(*DW$T$117)
    5753                      .dwattr DW$464, DW_AT_location[DW_OP_reg12]
    5754              ;* AR5   assigned to _filename
    5755              DW$465  .dwtag  DW_TAG_formal_parameter, DW_AT_name("filename"), DW_AT_symbol_name("_filename")
    5756                      .dwattr DW$465, DW_AT_type(*DW$T$146)
    5757                      .dwattr DW$465, DW_AT_location[DW_OP_reg14]
    5758              DW$466  .dwtag  DW_TAG_formal_parameter, DW_AT_name("mode"), DW_AT_symbol_name("_mode")
    5759                      .dwattr DW$466, DW_AT_type(*DW$T$146)
    5760                      .dwattr DW$466, DW_AT_location[DW_OP_breg20 -54]
    5761 00000a8a B2BD          MOVL      *SP++,XAR1
    5762 00000a8b AABD          MOVL      *SP++,XAR2
    5763 00000a8c A2BD          MOVL      *SP++,XAR3
    5764 00000a8d FE2C          ADDB      SP,#44
    5765 00000a8e 8BA4          MOVL      XAR1,XAR4             ; |1376| 
    5766 00000a8f 8A76          MOVL      XAR4,*-SP[54]         ; |1376| 
    5767 00000a90 2B6B          MOV       *-SP[43],#0           ; |1380| 
    5768 00000a91 92C4          MOV       AL,*+XAR4[0]          ; |1383| 
    5769 00000a92 5272          CMPB      AL,#114               ; |1383| 
    5770 00000a93 ED05          BF        L210,NEQ              ; |1383| 
    5771                      ; branchcc occurs ; |1383| 
    5772 00000a94 92CC          MOV       AL,*+XAR4[1]          ; |1383| 
    5773 00000a95 ED03          BF        L210,NEQ              ; |1383| 
    5774                      ; branchcc occurs ; |1383| 
    5775 00000a96 286B          MOV       *-SP[43],#1           ; |1383| 
         00000a97 0001 
    5776 00000a98       L210:    
    5777 00000a98 92C4          MOV       AL,*+XAR4[0]          ; |1384| 
    5778 00000a99 5277          CMPB      AL,#119               ; |1384| 
    5779 00000a9a ED05          BF        L211,NEQ              ; |1384| 
    5780                      ; branchcc occurs ; |1384| 
    5781 00000a9b 92CC          MOV       AL,*+XAR4[1]          ; |1384| 
    5782 00000a9c ED03          BF        L211,NEQ              ; |1384| 
    5783                      ; branchcc occurs ; |1384| 
    5784 00000a9d 286B          MOV       *-SP[43],#2           ; |1384| 
         00000a9e 0002 
    5785 00000a9f       L211:    
    5786 00000a9f 92C4          MOV       AL,*+XAR4[0]          ; |1385| 
    5787 00000aa0 5261          CMPB      AL,#97                ; |1385| 
    5788 00000aa1 ED05          BF        L212,NEQ              ; |1385| 
    5789                      ; branchcc occurs ; |1385| 
    5790 00000aa2 92CC          MOV       AL,*+XAR4[1]          ; |1385| 
    5791 00000aa3 ED03          BF        L212,NEQ              ; |1385| 
    5792                      ; branchcc occurs ; |1385| 
    5793 00000aa4 286B          MOV       *-SP[43],#3           ; |1385| 
         00000aa5 0003 
    5794 00000aa6       L212:    
    5795 00000aa6 92C4          MOV       AL,*+XAR4[0]          ; |1386| 
    5796 00000aa7 5272          CMPB      AL,#114               ; |1386| 
    5797 00000aa8 ED08          BF        L213,NEQ              ; |1386| 
    5798                      ; branchcc occurs ; |1386| 
TMS320C2000 COFF Assembler PC v4.1.3 Thu Aug 18 12:16:14 2016

Tools Copyright (c) 1996-2006 Texas Instruments Incorporated
fat.asm                                                              PAGE  114

    5799 00000aa9 92CC          MOV       AL,*+XAR4[1]          ; |1386| 
    5800 00000aaa 522B          CMPB      AL,#43                ; |1386| 
    5801 00000aab ED05          BF        L213,NEQ              ; |1386| 
    5802                      ; branchcc occurs ; |1386| 
    5803 00000aac 92D4          MOV       AL,*+XAR4[2]          ; |1386| 
    5804 00000aad ED03          BF        L213,NEQ              ; |1386| 
    5805                      ; branchcc occurs ; |1386| 
    5806 00000aae 286B          MOV       *-SP[43],#4           ; |1386| 
         00000aaf 0004 
    5807 00000ab0       L213:    
    5808 00000ab0 92C4          MOV       AL,*+XAR4[0]          ; |1387| 
    5809 00000ab1 5277          CMPB      AL,#119               ; |1387| 
    5810 00000ab2 ED08          BF        L214,NEQ              ; |1387| 
    5811                      ; branchcc occurs ; |1387| 
    5812 00000ab3 92CC          MOV       AL,*+XAR4[1]          ; |1387| 
    5813 00000ab4 522B          CMPB      AL,#43                ; |1387| 
    5814 00000ab5 ED05          BF        L214,NEQ              ; |1387| 
    5815                      ; branchcc occurs ; |1387| 
    5816 00000ab6 92D4          MOV       AL,*+XAR4[2]          ; |1387| 
    5817 00000ab7 ED03          BF        L214,NEQ              ; |1387| 
    5818                      ; branchcc occurs ; |1387| 
    5819 00000ab8 286B          MOV       *-SP[43],#5           ; |1387| 
         00000ab9 0005 
    5820 00000aba       L214:    
    5821 00000aba 92C4          MOV       AL,*+XAR4[0]          ; |1388| 
    5822 00000abb 5261          CMPB      AL,#97                ; |1388| 
    5823 00000abc ED06          BF        L215,NEQ              ; |1388| 
    5824                      ; branchcc occurs ; |1388| 
    5825 00000abd 92CC          MOV       AL,*+XAR4[1]          ; |1388| 
    5826 00000abe 522B          CMPB      AL,#43                ; |1388| 
    5827 00000abf ED03          BF        L215,NEQ              ; |1388| 
    5828                      ; branchcc occurs ; |1388| 
    5829 00000ac0 92D4          MOV       AL,*+XAR4[2]          ; |1388| 
    5830 00000ac1 EC05          BF        L216,EQ               ; |1388| 
    5831                      ; branchcc occurs ; |1388| 
    5832 00000ac2       L215:    
    5833 00000ac2 926B          MOV       AL,*-SP[43]
    5834 00000ac3 ED05          BF        L217,NEQ              ; |1390| 
    5835                      ; branchcc occurs ; |1390| 
    5836 00000ac4 56CF          BF        L221,UNC              ; |1390| 
         00000ac5 00F5 
    5837                      ; branch occurs ; |1390| 
    5838 00000ac6       L216:    
    5839 00000ac6 286B          MOV       *-SP[43],#6           ; |1388| 
         00000ac7 0006 
    5840 00000ac8       L217:    
    5841 00000ac8 5CAD          MOVZ      AR4,SP                ; |1392| 
    5842 00000ac9 DCAA          SUBB      XAR4,#42              ; |1392| 
    5843 00000aca A842          MOVL      *-SP[2],XAR4          ; |1392| 
    5844 00000acb 8AA1          MOVL      XAR4,XAR1             ; |1392| 
    5845 00000acc 7640'         LCR       #__f_setfsname        ; |1392| 
         00000acd 0175 
    5846                      ; call occurs [#__f_setfsname] ; |1392| 
    5847 00000ace 5200          CMPB      AL,#0                 ; |1392| 
    5848 00000acf 56C0          BF        L221,NEQ              ; |1392| 
TMS320C2000 COFF Assembler PC v4.1.3 Thu Aug 18 12:16:14 2016

Tools Copyright (c) 1996-2006 Texas Instruments Incorporated
fat.asm                                                              PAGE  115

         00000ad0 00EA 
    5849                      ; branchcc occurs ; |1392| 
    5850 00000ad1 5DAD          MOVZ      AR5,SP                ; |1393| 
    5851 00000ad2 5CAD          MOVZ      AR4,SP                ; |1393| 
    5852 00000ad3 DD8D          SUBB      XAR5,#13              ; |1393| 
    5853 00000ad4 DC95          SUBB      XAR4,#21              ; |1393| 
    5854 00000ad5 7640'         LCR       #__f_checknamewc      ; |1393| 
         00000ad6 00A7 
    5855                      ; call occurs [#__f_checknamewc] ; |1393| 
    5856 00000ad7 FF58          TEST      ACC                   ; |1393| 
    5857 00000ad8 56C0          BF        L221,NEQ              ; |1393| 
         00000ad9 00E1 
    5858                      ; branchcc occurs ; |1393| 
    5859 00000ada 5DAD          MOVZ      AR5,SP                ; |1395| 
    5860 00000adb 8AA1          MOVL      XAR4,XAR1             ; |1395| 
    5861 00000adc 926A          MOV       AL,*-SP[42]           ; |1395| 
    5862 00000add DD8A          SUBB      XAR5,#10              ; |1395| 
    5863 00000ade 7640!         LCR       #__f_getvolume        ; |1395| 
         00000adf 0000 
    5864                      ; call occurs [#__f_getvolume] ; |1395| 
    5865 00000ae0 5200          CMPB      AL,#0                 ; |1395| 
    5866 00000ae1 56C0          BF        L221,NEQ              ; |1395| 
         00000ae2 00D8 
    5867                      ; branchcc occurs ; |1395| 
    5868 00000ae3 7640'         LCR       #__f_getintfile       ; |1397| 
         00000ae4 07B7 
    5869                      ; call occurs [#__f_getintfile] ; |1397| 
    5870 00000ae5 A8A9          MOVL      ACC,XAR4              ; |1397| 
    5871 00000ae6 86A4          MOVL      XAR2,XAR4             ; |1397| 
    5872 00000ae7 56C1          BF        L221,EQ               ; |1397| 
         00000ae8 00D2 
    5873                      ; branchcc occurs ; |1397| 
    5874 00000ae9 926A          MOV       AL,*-SP[42]           ; |1401| 
    5875 00000aea D008          MOVB      XAR0,#8               ; |1402| 
    5876 00000aeb 96EA          MOV       *+XAR2[5],AL          ; |1401| 
    5877 00000aec 0200          MOVB      ACC,#0
    5878 00000aed 1E92          MOVL      *+XAR2[AR0],ACC       ; |1402| 
    5879 00000aee D00A          MOVB      XAR0,#10              ; |1404| 
    5880 00000aef 1EF2          MOVL      *+XAR2[6],ACC         ; |1403| 
    5881 00000af0 1E92          MOVL      *+XAR2[AR0],ACC       ; |1404| 
    5882 00000af1 8D00          MOVL      XAR0,#918             ; |1405| 
         00000af2 0396 
    5883 00000af3 1E92          MOVL      *+XAR2[AR0],ACC       ; |1405| 
    5884 00000af4 1ED2          MOVL      *+XAR2[2],ACC         ; |1406| 
    5885 00000af5 9255          MOV       AL,*-SP[21]           ; |1408| 
    5886 00000af6 522E          CMPB      AL,#46                ; |1408| 
    5887 00000af7 56C1          BF        L221,EQ               ; |1408| 
         00000af8 00C2 
    5888                      ; branchcc occurs ; |1408| 
    5889 00000af9 926B          MOV       AL,*-SP[43]
    5890 00000afa 5204          CMPB      AL,#4                 ; |1410| 
    5891 00000afb 56C2          BF        L218,GT               ; |1410| 
         00000afc 000F 
    5892                      ; branchcc occurs ; |1410| 
    5893 00000afd 5204          CMPB      AL,#4                 ; |1410| 
TMS320C2000 COFF Assembler PC v4.1.3 Thu Aug 18 12:16:14 2016

Tools Copyright (c) 1996-2006 Texas Instruments Incorporated
fat.asm                                                              PAGE  116

    5894 00000afe 56C1          BF        L228,EQ               ; |1410| 
         00000aff 0174 
    5895                      ; branchcc occurs ; |1410| 
    5896 00000b00 5201          CMPB      AL,#1                 ; |1410| 
    5897 00000b01 56C1          BF        L228,EQ               ; |1410| 
         00000b02 0171 
    5898                      ; branchcc occurs ; |1410| 
    5899 00000b03 5202          CMPB      AL,#2                 ; |1410| 
    5900 00000b04 56C1          BF        L223,EQ               ; |1410| 
         00000b05 00C1 
    5901                      ; branchcc occurs ; |1410| 
    5902 00000b06 5203          CMPB      AL,#3                 ; |1410| 
    5903 00000b07 EC09          BF        L219,EQ               ; |1410| 
    5904                      ; branchcc occurs ; |1410| 
    5905 00000b08 56CF          BF        L221,UNC              ; |1410| 
         00000b09 00B1 
    5906                      ; branch occurs ; |1410| 
    5907 00000b0a       L218:    
    5908 00000b0a 5205          CMPB      AL,#5                 ; |1410| 
    5909 00000b0b 56C1          BF        L223,EQ               ; |1410| 
         00000b0c 00BA 
    5910                      ; branchcc occurs ; |1410| 
    5911 00000b0d 5206          CMPB      AL,#6                 ; |1410| 
    5912 00000b0e 56C0          BF        L221,NEQ              ; |1410| 
         00000b0f 00AB 
    5913                      ; branchcc occurs ; |1410| 
    5914 00000b10       L219:    
    5915 00000b10 AAA9          MOVL      ACC,XAR2              ; |1449| 
    5916 00000b11 8DC0          MOVL      XAR3,#928             ; |1449| 
         00000b12 03A0 
    5917 00000b13 5601          ADDL      XAR3,ACC
         00000b14 00A3 
    5918 00000b15 5DAD          MOVZ      AR5,SP                ; |1449| 
    5919 00000b16 A242          MOVL      *-SP[2],XAR3          ; |1449| 
    5920 00000b17 8A4A          MOVL      XAR4,*-SP[10]         ; |1449| 
    5921 00000b18 DDAA          SUBB      XAR5,#42              ; |1449| 
    5922 00000b19 7640'         LCR       #__f_findpath         ; |1449| 
         00000b1a 0465 
    5923                      ; call occurs [#__f_findpath] ; |1449| 
    5924 00000b1b 5200          CMPB      AL,#0                 ; |1449| 
    5925 00000b1c 56C1          BF        L221,EQ               ; |1449| 
         00000b1d 009D 
    5926                      ; branchcc occurs ; |1449| 
    5927 00000b1e 8D00          MOVL      XAR0,#928             ; |1451| 
         00000b1f 03A0 
    5928 00000b20 0692          MOVL      ACC,*+XAR2[AR0]       ; |1451| 
    5929 00000b21 8D00          MOVL      XAR0,#916             ; |1451| 
         00000b22 0394 
    5930 00000b23 1E92          MOVL      *+XAR2[AR0],ACC       ; |1451| 
    5931 00000b24 8D00          MOVL      XAR0,#938             ; |1452| 
         00000b25 03AA 
    5932 00000b26 0692          MOVL      ACC,*+XAR2[AR0]       ; |1452| 
    5933 00000b27 8D00          MOVL      XAR0,#926             ; |1452| 
         00000b28 039E 
    5934 00000b29 1E92          MOVL      *+XAR2[AR0],ACC       ; |1452| 
TMS320C2000 COFF Assembler PC v4.1.3 Thu Aug 18 12:16:14 2016

Tools Copyright (c) 1996-2006 Texas Instruments Incorporated
fat.asm                                                              PAGE  117

    5935 00000b2a 8D00          MOVL      XAR0,#934             ; |1453| 
         00000b2b 03A6 
    5936 00000b2c 0692          MOVL      ACC,*+XAR2[AR0]       ; |1453| 
    5937 00000b2d 8D00          MOVL      XAR0,#922             ; |1453| 
         00000b2e 039A 
    5938 00000b2f 1E92          MOVL      *+XAR2[AR0],ACC       ; |1453| 
    5939 00000b30 8D00          MOVL      XAR0,#936             ; |1454| 
         00000b31 03A8 
    5940 00000b32 5CAD          MOVZ      AR4,SP                ; |1456| 
    5941 00000b33 0692          MOVL      ACC,*+XAR2[AR0]       ; |1454| 
    5942 00000b34 8D00          MOVL      XAR0,#924             ; |1454| 
         00000b35 039C 
    5943 00000b36 DC8D          SUBB      XAR4,#13              ; |1456| 
    5944 00000b37 1E92          MOVL      *+XAR2[AR0],ACC       ; |1454| 
    5945 00000b38 A842          MOVL      *-SP[2],XAR4          ; |1456| 
    5946 00000b39 5CAD          MOVZ      AR4,SP                ; |1456| 
    5947 00000b3a 5DAD          MOVZ      AR5,SP                ; |1456| 
    5948 00000b3b DC88          SUBB      XAR4,#8               ; |1456| 
    5949 00000b3c A244          MOVL      *-SP[4],XAR3          ; |1456| 
    5950 00000b3d A846          MOVL      *-SP[6],XAR4          ; |1456| 
    5951 00000b3e 8A4A          MOVL      XAR4,*-SP[10]         ; |1456| 
    5952 00000b3f DD95          SUBB      XAR5,#21              ; |1456| 
    5953 00000b40 7640'         LCR       #__f_findfile         ; |1456| 
         00000b41 0255 
    5954                      ; call occurs [#__f_findfile] ; |1456| 
    5955 00000b42 5200          CMPB      AL,#0                 ; |1456| 
    5956 00000b43 ED32          BF        L220,NEQ              ; |1456| 
    5957                      ; branchcc occurs ; |1456| 
    5958 00000b44 8D00          MOVL      XAR0,#916             ; |1485| 
         00000b45 0394 
    5959 00000b46 0692          MOVL      ACC,*+XAR2[AR0]       ; |1485| 
    5960 00000b47 8D00          MOVL      XAR0,#928             ; |1485| 
         00000b48 03A0 
    5961 00000b49 1E92          MOVL      *+XAR2[AR0],ACC       ; |1485| 
    5962 00000b4a 8D00          MOVL      XAR0,#926             ; |1486| 
         00000b4b 039E 
    5963 00000b4c 0692          MOVL      ACC,*+XAR2[AR0]       ; |1486| 
    5964 00000b4d 8D00          MOVL      XAR0,#938             ; |1486| 
         00000b4e 03AA 
    5965 00000b4f 1E92          MOVL      *+XAR2[AR0],ACC       ; |1486| 
    5966 00000b50 8D00          MOVL      XAR0,#922             ; |1487| 
         00000b51 039A 
    5967 00000b52 0692          MOVL      ACC,*+XAR2[AR0]       ; |1487| 
    5968 00000b53 8D00          MOVL      XAR0,#934             ; |1487| 
         00000b54 03A6 
    5969 00000b55 1E92          MOVL      *+XAR2[AR0],ACC       ; |1487| 
    5970 00000b56 8D00          MOVL      XAR0,#924             ; |1488| 
         00000b57 039C 
    5971 00000b58 0692          MOVL      ACC,*+XAR2[AR0]       ; |1488| 
    5972 00000b59 8D00          MOVL      XAR0,#936             ; |1488| 
         00000b5a 03A8 
    5973 00000b5b 8F40          MOVL      XAR5,#916             ; |1490| 
         00000b5c 0394 
    5974 00000b5d 1E92          MOVL      *+XAR2[AR0],ACC       ; |1488| 
    5975 00000b5e 8D00          MOVL      XAR0,#928             ; |1490| 
TMS320C2000 COFF Assembler PC v4.1.3 Thu Aug 18 12:16:14 2016

Tools Copyright (c) 1996-2006 Texas Instruments Incorporated
fat.asm                                                              PAGE  118

         00000b5f 03A0 
    5976 00000b60 AAA9          MOVL      ACC,XAR2              ; |1490| 
    5977 00000b61 5601          ADDL      XAR5,ACC
         00000b62 00A5 
    5978 00000b63 8A4A          MOVL      XAR4,*-SP[10]         ; |1490| 
    5979 00000b64 0692          MOVL      ACC,*+XAR2[AR0]       ; |1490| 
    5980 00000b65 7640!         LCR       #__f_clustertopos     ; |1490| 
         00000b66 0000 
    5981                      ; call occurs [#__f_clustertopos] ; |1490| 
    5982 00000b67 5CAD          MOVZ      AR4,SP                ; |1492| 
    5983 00000b68 A242          MOVL      *-SP[2],XAR3          ; |1492| 
    5984 00000b69 5DAD          MOVZ      AR5,SP                ; |1492| 
    5985 00000b6a DC88          SUBB      XAR4,#8               ; |1492| 
    5986 00000b6b A844          MOVL      *-SP[4],XAR4          ; |1492| 
    5987 00000b6c 8A4A          MOVL      XAR4,*-SP[10]         ; |1492| 
    5988 00000b6d DDAA          SUBB      XAR5,#42              ; |1492| 
    5989 00000b6e 7640'         LCR       #__f_addentry         ; |1492| 
         00000b6f 07DC 
    5990                      ; call occurs [#__f_addentry] ; |1492| 
    5991 00000b70 5200          CMPB      AL,#0                 ; |1492| 
    5992 00000b71 56C1          BF        L224,EQ               ; |1492| 
         00000b72 0087 
    5993                      ; branchcc occurs ; |1492| 
    5994 00000b73 56CF          BF        L221,UNC              ; |1492| 
         00000b74 0046 
    5995                      ; branch occurs ; |1492| 
    5996 00000b75       L220:    
    5997 00000b75 8A48          MOVL      XAR4,*-SP[8]          ; |1458| 
    5998 00000b76 D00B          MOVB      XAR0,#11              ; |1458| 
    5999 00000b77 9294          MOV       AL,*+XAR4[AR0]        ; |1458| 
    6000 00000b78 CDA9          AND       AH,AL,#0x0010         ; |1458| 
         00000b79 0010 
    6001 00000b7a 9001          ANDB      AL,#1                 ; |1458| 
    6002 00000b7b CAA8          OR        AL,AH                 ; |1458| 
    6003 00000b7c ED3D          BF        L221,NEQ              ; |1458| 
    6004                      ; branchcc occurs ; |1458| 
    6005 00000b7d 3B01          SETC      SXM
    6006 00000b7e 856A          MOV       ACC,*-SP[42]          ; |1461| 
    6007 00000b7f 1EA6          MOVL      XAR6,ACC              ; |1461| 
    6008 00000b80 8F00          MOVL      XAR4,#928             ; |1461| 
         00000b81 03A0 
    6009 00000b82 AAA9          MOVL      ACC,XAR2              ; |1461| 
    6010 00000b83 5601          ADDL      XAR4,ACC
         00000b84 00A4 
    6011 00000b85 06A6          MOVL      ACC,XAR6              ; |1461| 
    6012 00000b86 7640!         LCR       #__f_checklocked      ; |1461| 
         00000b87 0000 
    6013                      ; call occurs [#__f_checklocked] ; |1461| 
    6014 00000b88 5200          CMPB      AL,#0                 ; |1461| 
    6015 00000b89 ED30          BF        L221,NEQ              ; |1461| 
    6016                      ; branchcc occurs ; |1461| 
    6017 00000b8a 8A4A          MOVL      XAR4,*-SP[10]         ; |1463| 
    6018 00000b8b 8348          MOVL      XAR5,*-SP[8]          ; |1463| 
    6019 00000b8c 7640!         LCR       #__f_getdecluster     ; |1463| 
         00000b8d 0000 
TMS320C2000 COFF Assembler PC v4.1.3 Thu Aug 18 12:16:14 2016

Tools Copyright (c) 1996-2006 Texas Instruments Incorporated
fat.asm                                                              PAGE  119

    6020                      ; call occurs [#__f_getdecluster] ; |1463| 
    6021 00000b8e 8D00          MOVL      XAR0,#914             ; |1463| 
         00000b8f 0392 
    6022 00000b90 1E92          MOVL      *+XAR2[AR0],ACC       ; |1463| 
    6023 00000b91 8A48          MOVL      XAR4,*-SP[8]          ; |1465| 
    6024 00000b92 DC1C          ADDB      XAR4,#28              ; |1465| 
    6025 00000b93 7640!         LCR       #__f_getlong          ; |1465| 
         00000b94 0000 
    6026                      ; call occurs [#__f_getlong] ; |1465| 
    6027 00000b95 D00A          MOVB      XAR0,#10              ; |1465| 
    6028 00000b96 1E92          MOVL      *+XAR2[AR0],ACC       ; |1465| 
    6029 00000b97 834A          MOVL      XAR5,*-SP[10]         ; |1467| 
    6030 00000b98 8AA2          MOVL      XAR4,XAR2             ; |1465| 
    6031 00000b99 7640!         LCR       #__fn_initseekdivisor ; |1467| 
         00000b9a 0000 
    6032                      ; call occurs [#__fn_initseekdivisor] ; |1467| 
    6033 00000b9b 8D00          MOVL      XAR0,#914             ; |1470| 
         00000b9c 0392 
    6034 00000b9d C492          MOVL      XAR6,*+XAR2[AR0]      ; |1470| 
    6035 00000b9e 06A6          MOVL      ACC,XAR6              ; |1470| 
    6036 00000b9f EC1D          BF        L222,EQ               ; |1470| 
    6037                      ; branchcc occurs ; |1470| 
    6038 00000ba0 AAA9          MOVL      ACC,XAR2              ; |1471| 
    6039 00000ba1 8F40          MOVL      XAR5,#916             ; |1471| 
         00000ba2 0394 
    6040 00000ba3 8A4A          MOVL      XAR4,*-SP[10]         ; |1471| 
    6041 00000ba4 5601          ADDL      XAR5,ACC
         00000ba5 00A5 
    6042 00000ba6 06A6          MOVL      ACC,XAR6              ; |1471| 
    6043 00000ba7 7640!         LCR       #__f_clustertopos     ; |1471| 
         00000ba8 0000 
    6044                      ; call occurs [#__f_clustertopos] ; |1471| 
    6045 00000ba9 28AA          MOV       PH,#65535
         00000baa FFFF 
    6046 00000bab 28AB          MOV       PL,#65024
         00000bac FE00 
    6047 00000bad A9F2          MOVL      *+XAR2[6],P           ; |1472| 
    6048 00000bae AA42          MOVL      *-SP[2],XAR2          ; |1473| 
    6049 00000baf 83A1          MOVL      XAR5,XAR1             ; |1473| 
    6050 00000bb0 8A4A          MOVL      XAR4,*-SP[10]         ; |1473| 
    6051 00000bb1 D00A          MOVB      XAR0,#10              ; |1473| 
    6052 00000bb2 0692          MOVL      ACC,*+XAR2[AR0]       ; |1473| 
    6053 00000bb3 7640!         LCR       #__f_fseek            ; |1473| 
         00000bb4 0000 
    6054                      ; call occurs [#__f_fseek] ; |1473| 
    6055 00000bb5 5200          CMPB      AL,#0                 ; |1473| 
    6056 00000bb6 56C1          BF        L234,EQ               ; |1473| 
         00000bb7 012F 
    6057                      ; branchcc occurs ; |1473| 
    6058 00000bb8 2BE2          MOV       *+XAR2[4],#0          ; |1474| 
    6059 00000bb9       L221:    
    6060 00000bb9 D400          MOVB      XAR4,#0
    6061 00000bba 56CF          BF        L235,UNC              ; |1475| 
         00000bbb 0136 
    6062                      ; branch occurs ; |1475| 
TMS320C2000 COFF Assembler PC v4.1.3 Thu Aug 18 12:16:14 2016

Tools Copyright (c) 1996-2006 Texas Instruments Incorporated
fat.asm                                                              PAGE  120

    6063 00000bbc       L222:    
    6064 00000bbc 8D00          MOVL      XAR0,#922             ; |1479| 
         00000bbd 039A 
    6065 00000bbe 0200          MOVB      ACC,#0
    6066 00000bbf 1E92          MOVL      *+XAR2[AR0],ACC       ; |1479| 
    6067 00000bc0 8D00          MOVL      XAR0,#924             ; |1480| 
         00000bc1 039C 
    6068 00000bc2 1E92          MOVL      *+XAR2[AR0],ACC       ; |1480| 
    6069 00000bc3 56CF          BF        L234,UNC              ; |1480| 
         00000bc4 0122 
    6070                      ; branch occurs ; |1480| 
    6071 00000bc5       L223:    
    6072 00000bc5 AAA9          MOVL      ACC,XAR2              ; |1509| 
    6073 00000bc6 8F00          MOVL      XAR4,#928             ; |1509| 
         00000bc7 03A0 
    6074 00000bc8 5601          ADDL      XAR4,ACC
         00000bc9 00A4 
    6075 00000bca 5DAD          MOVZ      AR5,SP                ; |1509| 
    6076 00000bcb 8BA4          MOVL      XAR1,XAR4             ; |1509| 
    6077 00000bcc A842          MOVL      *-SP[2],XAR4          ; |1509| 
    6078 00000bcd 8A4A          MOVL      XAR4,*-SP[10]         ; |1509| 
    6079 00000bce DDAA          SUBB      XAR5,#42              ; |1509| 
    6080 00000bcf 7640'         LCR       #__f_findpath         ; |1509| 
         00000bd0 0465 
    6081                      ; call occurs [#__f_findpath] ; |1509| 
    6082 00000bd1 5200          CMPB      AL,#0                 ; |1509| 
    6083 00000bd2 ECE7          BF        L221,EQ               ; |1509| 
    6084                      ; branchcc occurs ; |1509| 
    6085 00000bd3 AAA9          MOVL      ACC,XAR2              ; |1511| 
    6086 00000bd4 8DC0          MOVL      XAR3,#916             ; |1511| 
         00000bd5 0394 
    6087 00000bd6 5601          ADDL      XAR3,ACC
         00000bd7 00A3 
    6088 00000bd8 8D00          MOVL      XAR0,#928             ; |1511| 
         00000bd9 03A0 
    6089 00000bda 8A4A          MOVL      XAR4,*-SP[10]         ; |1511| 
    6090 00000bdb 83A3          MOVL      XAR5,XAR3             ; |1511| 
    6091 00000bdc 0692          MOVL      ACC,*+XAR2[AR0]       ; |1511| 
    6092 00000bdd 7640!         LCR       #__f_clustertopos     ; |1511| 
         00000bde 0000 
    6093                      ; call occurs [#__f_clustertopos] ; |1511| 
    6094 00000bdf 5CAD          MOVZ      AR4,SP                ; |1512| 
    6095 00000be0 DC8D          SUBB      XAR4,#13              ; |1512| 
    6096 00000be1 A842          MOVL      *-SP[2],XAR4          ; |1512| 
    6097 00000be2 5CAD          MOVZ      AR4,SP                ; |1512| 
    6098 00000be3 DC88          SUBB      XAR4,#8               ; |1512| 
    6099 00000be4 5DAD          MOVZ      AR5,SP                ; |1512| 
    6100 00000be5 A244          MOVL      *-SP[4],XAR3          ; |1512| 
    6101 00000be6 A846          MOVL      *-SP[6],XAR4          ; |1512| 
    6102 00000be7 8A4A          MOVL      XAR4,*-SP[10]         ; |1512| 
    6103 00000be8 DD95          SUBB      XAR5,#21              ; |1512| 
    6104 00000be9 7640'         LCR       #__f_findfile         ; |1512| 
         00000bea 0255 
    6105                      ; call occurs [#__f_findfile] ; |1512| 
    6106 00000beb 5200          CMPB      AL,#0                 ; |1512| 
TMS320C2000 COFF Assembler PC v4.1.3 Thu Aug 18 12:16:14 2016

Tools Copyright (c) 1996-2006 Texas Instruments Incorporated
fat.asm                                                              PAGE  121

    6107 00000bec ED17          BF        L225,NEQ              ; |1512| 
    6108                      ; branchcc occurs ; |1512| 
    6109 00000bed 5CAD          MOVZ      AR4,SP                ; |1547| 
    6110 00000bee B242          MOVL      *-SP[2],XAR1          ; |1547| 
    6111 00000bef 5DAD          MOVZ      AR5,SP                ; |1547| 
    6112 00000bf0 DC88          SUBB      XAR4,#8               ; |1547| 
    6113 00000bf1 A844          MOVL      *-SP[4],XAR4          ; |1547| 
    6114 00000bf2 8A4A          MOVL      XAR4,*-SP[10]         ; |1547| 
    6115 00000bf3 DDAA          SUBB      XAR5,#42              ; |1547| 
    6116 00000bf4 7640'         LCR       #__f_addentry         ; |1547| 
         00000bf5 07DC 
    6117                      ; call occurs [#__f_addentry] ; |1547| 
    6118 00000bf6 5200          CMPB      AL,#0                 ; |1547| 
    6119 00000bf7 EDC2          BF        L221,NEQ              ; |1547| 
    6120                      ; branchcc occurs ; |1547| 
    6121 00000bf8       L224:    
    6122 00000bf8 8A48          MOVL      XAR4,*-SP[8]          ; |1549| 
    6123 00000bf9 DC0B          ADDB      XAR4,#11              ; |1549| 
    6124 00000bfa 1AC4          OR        *+XAR4[0],#0x0020     ; |1549| 
         00000bfb 0020 
    6125 00000bfc 8A4A          MOVL      XAR4,*-SP[10]         ; |1550| 
    6126 00000bfd 7640'         LCR       #__f_writedirsector   ; |1550| 
         00000bfe 0027 
    6127                      ; call occurs [#__f_writedirsector] ; |1550| 
    6128 00000bff 5200          CMPB      AL,#0                 ; |1550| 
    6129 00000c00 EC6C          BF        L227,EQ               ; |1550| 
    6130                      ; branchcc occurs ; |1550| 
    6131 00000c01 56CF          BF        L221,UNC              ; |1550| 
         00000c02 FFB8 
    6132                      ; branch occurs ; |1550| 
    6133 00000c03       L225:    
    6134 00000c03 8A4A          MOVL      XAR4,*-SP[10]         ; |1513| 
    6135 00000c04 8348          MOVL      XAR5,*-SP[8]          ; |1513| 
    6136 00000c05 7640!         LCR       #__f_getdecluster     ; |1513| 
         00000c06 0000 
    6137                      ; call occurs [#__f_getdecluster] ; |1513| 
    6138 00000c07 8A48          MOVL      XAR4,*-SP[8]          ; |1515| 
    6139 00000c08 D00B          MOVB      XAR0,#11              ; |1515| 
    6140 00000c09 8BA9          MOVL      XAR1,ACC              ; |1513| 
    6141 00000c0a 9294          MOV       AL,*+XAR4[AR0]        ; |1515| 
    6142 00000c0b CDA9          AND       AH,AL,#0x0010         ; |1515| 
         00000c0c 0010 
    6143 00000c0d 9001          ANDB      AL,#1                 ; |1515| 
    6144 00000c0e CAA8          OR        AL,AH                 ; |1515| 
    6145 00000c0f EDAA          BF        L221,NEQ              ; |1515| 
    6146                      ; branchcc occurs ; |1515| 
    6147 00000c10 8D00          MOVL      XAR0,#916             ; |1518| 
         00000c11 0394 
    6148 00000c12 0692          MOVL      ACC,*+XAR2[AR0]       ; |1518| 
    6149 00000c13 8D00          MOVL      XAR0,#928             ; |1518| 
         00000c14 03A0 
    6150 00000c15 1E92          MOVL      *+XAR2[AR0],ACC       ; |1518| 
    6151 00000c16 8D00          MOVL      XAR0,#926             ; |1519| 
         00000c17 039E 
    6152 00000c18 0692          MOVL      ACC,*+XAR2[AR0]       ; |1519| 
TMS320C2000 COFF Assembler PC v4.1.3 Thu Aug 18 12:16:14 2016

Tools Copyright (c) 1996-2006 Texas Instruments Incorporated
fat.asm                                                              PAGE  122

    6153 00000c19 8D00          MOVL      XAR0,#938             ; |1519| 
         00000c1a 03AA 
    6154 00000c1b 1E92          MOVL      *+XAR2[AR0],ACC       ; |1519| 
    6155 00000c1c 8D00          MOVL      XAR0,#922             ; |1520| 
         00000c1d 039A 
    6156 00000c1e 0692          MOVL      ACC,*+XAR2[AR0]       ; |1520| 
    6157 00000c1f 8D00          MOVL      XAR0,#934             ; |1520| 
         00000c20 03A6 
    6158 00000c21 1E92          MOVL      *+XAR2[AR0],ACC       ; |1520| 
    6159 00000c22 8D00          MOVL      XAR0,#924             ; |1521| 
         00000c23 039C 
    6160 00000c24 0692          MOVL      ACC,*+XAR2[AR0]       ; |1521| 
    6161 00000c25 8D00          MOVL      XAR0,#936             ; |1521| 
         00000c26 03A8 
    6162 00000c27 3B01          SETC      SXM
    6163 00000c28 1E92          MOVL      *+XAR2[AR0],ACC       ; |1521| 
    6164 00000c29 856A          MOV       ACC,*-SP[42]          ; |1523| 
    6165 00000c2a 1EA6          MOVL      XAR6,ACC              ; |1523| 
    6166 00000c2b 8F00          MOVL      XAR4,#928             ; |1523| 
         00000c2c 03A0 
    6167 00000c2d AAA9          MOVL      ACC,XAR2              ; |1523| 
    6168 00000c2e 5601          ADDL      XAR4,ACC
         00000c2f 00A4 
    6169 00000c30 06A6          MOVL      ACC,XAR6              ; |1523| 
    6170 00000c31 7640!         LCR       #__f_checklocked      ; |1523| 
         00000c32 0000 
    6171                      ; call occurs [#__f_checklocked] ; |1523| 
    6172 00000c33 5200          CMPB      AL,#0                 ; |1523| 
    6173 00000c34 ED85          BF        L221,NEQ              ; |1523| 
    6174                      ; branchcc occurs ; |1523| 
    6175 00000c35 8A48          MOVL      XAR4,*-SP[8]          ; |1525| 
    6176 00000c36 DC1C          ADDB      XAR4,#28              ; |1525| 
    6177 00000c37 2BC4          MOV       *+XAR4[0],#0          ; |1525| 
    6178 00000c38 2BCC          MOV       *+XAR4[1],#0          ; |1526| 
    6179 00000c39 2BD4          MOV       *+XAR4[2],#0          ; |1527| 
    6180 00000c3a 2BDC          MOV       *+XAR4[3],#0          ; |1528| 
    6181 00000c3b 8A48          MOVL      XAR4,*-SP[8]          ; |1530| 
    6182 00000c3c DC0B          ADDB      XAR4,#11              ; |1530| 
    6183 00000c3d 1AC4          OR        *+XAR4[0],#0x0020     ; |1530| 
         00000c3e 0020 
    6184 00000c3f 8A48          MOVL      XAR4,*-SP[8]          ; |1531| 
    6185 00000c40 DC1A          ADDB      XAR4,#26              ; |1531| 
    6186 00000c41 2BC4          MOV       *+XAR4[0],#0          ; |1531| 
    6187 00000c42 2BCC          MOV       *+XAR4[1],#0          ; |1532| 
    6188 00000c43 8A48          MOVL      XAR4,*-SP[8]          ; |1533| 
    6189 00000c44 8D00          MOVL      XAR0,#1136            ; |1536| 
         00000c45 0470 
    6190 00000c46 DC14          ADDB      XAR4,#20              ; |1533| 
    6191 00000c47 2BC4          MOV       *+XAR4[0],#0          ; |1533| 
    6192 00000c48 2BCC          MOV       *+XAR4[1],#0          ; |1534| 
    6193 00000c49 8A4A          MOVL      XAR4,*-SP[10]         ; |1536| 
    6194 00000c4a 0203          MOVB      ACC,#3
    6195 00000c4b 0F94          CMPL      ACC,*+XAR4[AR0]       ; |1536| 
    6196 00000c4c ED13          BF        L226,NEQ              ; |1536| 
    6197                      ; branchcc occurs ; |1536| 
TMS320C2000 COFF Assembler PC v4.1.3 Thu Aug 18 12:16:14 2016

Tools Copyright (c) 1996-2006 Texas Instruments Incorporated
fat.asm                                                              PAGE  123

    6198 00000c4d 7640!         LCR       #_f_getdate           ; |1537| 
         00000c4e 0000 
    6199                      ; call occurs [#_f_getdate] ; |1537| 
    6200 00000c4f 8A48          MOVL      XAR4,*-SP[8]          ; |1537| 
    6201 00000c50 DC10          ADDB      XAR4,#16              ; |1537| 
    6202 00000c51 7640!         LCR       #__f_setword          ; |1537| 
         00000c52 0000 
    6203                      ; call occurs [#__f_setword] ; |1537| 
    6204 00000c53 7640!         LCR       #_f_gettime           ; |1538| 
         00000c54 0000 
    6205                      ; call occurs [#_f_gettime] ; |1538| 
    6206 00000c55 8A48          MOVL      XAR4,*-SP[8]          ; |1538| 
    6207 00000c56 DC0E          ADDB      XAR4,#14              ; |1538| 
    6208 00000c57 7640!         LCR       #__f_setword          ; |1538| 
         00000c58 0000 
    6209                      ; call occurs [#__f_setword] ; |1538| 
    6210 00000c59 7640!         LCR       #_f_getdate           ; |1539| 
         00000c5a 0000 
    6211                      ; call occurs [#_f_getdate] ; |1539| 
    6212 00000c5b 8A48          MOVL      XAR4,*-SP[8]          ; |1539| 
    6213 00000c5c DC12          ADDB      XAR4,#18              ; |1539| 
    6214 00000c5d 7640!         LCR       #__f_setword          ; |1539| 
         00000c5e 0000 
    6215                      ; call occurs [#__f_setword] ; |1539| 
    6216 00000c5f       L226:    
    6217 00000c5f 8A4A          MOVL      XAR4,*-SP[10]         ; |1542| 
    6218 00000c60 7640'         LCR       #__f_writedirsector   ; |1542| 
         00000c61 0027 
    6219                      ; call occurs [#__f_writedirsector] ; |1542| 
    6220 00000c62 5200          CMPB      AL,#0                 ; |1542| 
    6221 00000c63 56C0          BF        L221,NEQ              ; |1542| 
         00000c64 FF56 
    6222                      ; branchcc occurs ; |1542| 
    6223 00000c65 8A4A          MOVL      XAR4,*-SP[10]         ; |1544| 
    6224 00000c66 B2A9          MOVL      ACC,XAR1              ; |1544| 
    6225 00000c67 7640!         LCR       #__f_removechain      ; |1544| 
         00000c68 0000 
    6226                      ; call occurs [#__f_removechain] ; |1544| 
    6227 00000c69 5200          CMPB      AL,#0                 ; |1544| 
    6228 00000c6a 56C0          BF        L221,NEQ              ; |1544| 
         00000c6b FF4F 
    6229                      ; branchcc occurs ; |1544| 
    6230 00000c6c       L227:    
    6231 00000c6c 8D00          MOVL      XAR0,#914             ; |1554| 
         00000c6d 0392 
    6232 00000c6e 0200          MOVB      ACC,#0
    6233 00000c6f 1E92          MOVL      *+XAR2[AR0],ACC       ; |1554| 
    6234 00000c70 56CF          BF        L232,UNC              ; |1561| 
         00000c71 006B 
    6235                      ; branch occurs ; |1561| 
    6236 00000c72       L228:    
    6237 00000c72 AAA9          MOVL      ACC,XAR2              ; |1414| 
    6238 00000c73 8DC0          MOVL      XAR3,#928             ; |1414| 
         00000c74 03A0 
    6239 00000c75 5601          ADDL      XAR3,ACC
TMS320C2000 COFF Assembler PC v4.1.3 Thu Aug 18 12:16:14 2016

Tools Copyright (c) 1996-2006 Texas Instruments Incorporated
fat.asm                                                              PAGE  124

         00000c76 00A3 
    6240 00000c77 5DAD          MOVZ      AR5,SP                ; |1414| 
    6241 00000c78 A242          MOVL      *-SP[2],XAR3          ; |1414| 
    6242 00000c79 8A4A          MOVL      XAR4,*-SP[10]         ; |1414| 
    6243 00000c7a DDAA          SUBB      XAR5,#42              ; |1414| 
    6244 00000c7b 7640'         LCR       #__f_findpath         ; |1414| 
         00000c7c 0465 
    6245                      ; call occurs [#__f_findpath] ; |1414| 
    6246 00000c7d 5200          CMPB      AL,#0                 ; |1414| 
    6247 00000c7e 56C1          BF        L221,EQ               ; |1414| 
         00000c7f FF3B 
    6248                      ; branchcc occurs ; |1414| 
    6249 00000c80 5CAD          MOVZ      AR4,SP                ; |1415| 
    6250 00000c81 DC8D          SUBB      XAR4,#13              ; |1415| 
    6251 00000c82 A842          MOVL      *-SP[2],XAR4          ; |1415| 
    6252 00000c83 5CAD          MOVZ      AR4,SP                ; |1415| 
    6253 00000c84 5DAD          MOVZ      AR5,SP                ; |1415| 
    6254 00000c85 A244          MOVL      *-SP[4],XAR3          ; |1415| 
    6255 00000c86 DC88          SUBB      XAR4,#8               ; |1415| 
    6256 00000c87 A846          MOVL      *-SP[6],XAR4          ; |1415| 
    6257 00000c88 8A4A          MOVL      XAR4,*-SP[10]         ; |1415| 
    6258 00000c89 DD95          SUBB      XAR5,#21              ; |1415| 
    6259 00000c8a 7640'         LCR       #__f_findfile         ; |1415| 
         00000c8b 0255 
    6260                      ; call occurs [#__f_findfile] ; |1415| 
    6261 00000c8c 5200          CMPB      AL,#0                 ; |1415| 
    6262 00000c8d 56C1          BF        L221,EQ               ; |1415| 
         00000c8e FF2C 
    6263                      ; branchcc occurs ; |1415| 
    6264 00000c8f 8A48          MOVL      XAR4,*-SP[8]          ; |1415| 
    6265 00000c90 D00B          MOVB      XAR0,#11              ; |1415| 
    6266 00000c91 4494          TBIT      *+XAR4[AR0],#4        ; |1415| 
    6267 00000c92 56CD          BF        L221,TC               ; |1415| 
         00000c93 FF27 
    6268                      ; branchcc occurs ; |1415| 
    6269 00000c94 926B          MOV       AL,*-SP[43]
    6270 00000c95 5204          CMPB      AL,#4                 ; |1418| 
    6271 00000c96 EC0A          BF        L229,EQ               ; |1418| 
    6272                      ; branchcc occurs ; |1418| 
    6273 00000c97 8AA3          MOVL      XAR4,XAR3             ; |1423| 
    6274 00000c98 3B01          SETC      SXM
    6275 00000c99 856A          MOV       ACC,*-SP[42]          ; |1423| 
    6276 00000c9a 7640!         LCR       #__f_checkreadlocked  ; |1423| 
         00000c9b 0000 
    6277                      ; call occurs [#__f_checkreadlocked] ; |1423| 
    6278 00000c9c 5200          CMPB      AL,#0                 ; |1423| 
    6279 00000c9d EC15          BF        L230,EQ               ; |1423| 
    6280                      ; branchcc occurs ; |1423| 
    6281 00000c9e 56CF          BF        L221,UNC              ; |1423| 
         00000c9f FF1B 
    6282                      ; branch occurs ; |1423| 
    6283 00000ca0       L229:    
    6284 00000ca0 8A48          MOVL      XAR4,*-SP[8]          ; |1419| 
    6285 00000ca1 4094          TBIT      *+XAR4[AR0],#0        ; |1419| 
    6286 00000ca2 56CD          BF        L221,TC               ; |1419| 
TMS320C2000 COFF Assembler PC v4.1.3 Thu Aug 18 12:16:14 2016

Tools Copyright (c) 1996-2006 Texas Instruments Incorporated
fat.asm                                                              PAGE  125

         00000ca3 FF17 
    6287                      ; branchcc occurs ; |1419| 
    6288 00000ca4 3B01          SETC      SXM
    6289 00000ca5 856A          MOV       ACC,*-SP[42]          ; |1420| 
    6290 00000ca6 1EA6          MOVL      XAR6,ACC              ; |1420| 
    6291 00000ca7 8F00          MOVL      XAR4,#928             ; |1420| 
         00000ca8 03A0 
    6292 00000ca9 AAA9          MOVL      ACC,XAR2              ; |1420| 
    6293 00000caa 5601          ADDL      XAR4,ACC
         00000cab 00A4 
    6294 00000cac 06A6          MOVL      ACC,XAR6              ; |1420| 
    6295 00000cad 7640!         LCR       #__f_checklocked      ; |1420| 
         00000cae 0000 
    6296                      ; call occurs [#__f_checklocked] ; |1420| 
    6297 00000caf 5200          CMPB      AL,#0                 ; |1420| 
    6298 00000cb0 56C0          BF        L221,NEQ              ; |1420| 
         00000cb1 FF09 
    6299                      ; branchcc occurs ; |1420| 
    6300 00000cb2       L230:    
    6301 00000cb2 8A4A          MOVL      XAR4,*-SP[10]         ; |1426| 
    6302 00000cb3 8348          MOVL      XAR5,*-SP[8]          ; |1426| 
    6303 00000cb4 7640!         LCR       #__f_getdecluster     ; |1426| 
         00000cb5 0000 
    6304                      ; call occurs [#__f_getdecluster] ; |1426| 
    6305 00000cb6 8D00          MOVL      XAR0,#914             ; |1426| 
         00000cb7 0392 
    6306 00000cb8 1E92          MOVL      *+XAR2[AR0],ACC       ; |1426| 
    6307 00000cb9 C492          MOVL      XAR6,*+XAR2[AR0]      ; |1428| 
    6308 00000cba 06A6          MOVL      ACC,XAR6              ; |1428| 
    6309 00000cbb EC1F          BF        L231,EQ               ; |1428| 
    6310                      ; branchcc occurs ; |1428| 
    6311 00000cbc AAA9          MOVL      ACC,XAR2              ; |1429| 
    6312 00000cbd 8F40          MOVL      XAR5,#916             ; |1429| 
         00000cbe 0394 
    6313 00000cbf 8A4A          MOVL      XAR4,*-SP[10]         ; |1429| 
    6314 00000cc0 5601          ADDL      XAR5,ACC
         00000cc1 00A5 
    6315 00000cc2 06A6          MOVL      ACC,XAR6              ; |1429| 
    6316 00000cc3 7640!         LCR       #__f_clustertopos     ; |1429| 
         00000cc4 0000 
    6317                      ; call occurs [#__f_clustertopos] ; |1429| 
    6318 00000cc5 8A48          MOVL      XAR4,*-SP[8]          ; |1431| 
    6319 00000cc6 DC1C          ADDB      XAR4,#28              ; |1431| 
    6320 00000cc7 7640!         LCR       #__f_getlong          ; |1431| 
         00000cc8 0000 
    6321                      ; call occurs [#__f_getlong] ; |1431| 
    6322 00000cc9 D00A          MOVB      XAR0,#10              ; |1431| 
    6323 00000cca 28AA          MOV       PH,#65535
         00000ccb FFFF 
    6324 00000ccc 28AB          MOV       PL,#65024
         00000ccd FE00 
    6325 00000cce 1E92          MOVL      *+XAR2[AR0],ACC       ; |1431| 
    6326 00000ccf A9F2          MOVL      *+XAR2[6],P           ; |1433| 
    6327 00000cd0 AA42          MOVL      *-SP[2],XAR2          ; |1434| 
    6328 00000cd1 8A4A          MOVL      XAR4,*-SP[10]         ; |1434| 
TMS320C2000 COFF Assembler PC v4.1.3 Thu Aug 18 12:16:14 2016

Tools Copyright (c) 1996-2006 Texas Instruments Incorporated
fat.asm                                                              PAGE  126

    6329 00000cd2 83A1          MOVL      XAR5,XAR1             ; |1434| 
    6330 00000cd3 0200          MOVB      ACC,#0
    6331 00000cd4 7640!         LCR       #__f_fseek            ; |1434| 
         00000cd5 0000 
    6332                      ; call occurs [#__f_fseek] ; |1434| 
    6333 00000cd6 5200          CMPB      AL,#0                 ; |1434| 
    6334 00000cd7 EC0A          BF        L233,EQ               ; |1434| 
    6335                      ; branchcc occurs ; |1434| 
    6336 00000cd8 56CF          BF        L221,UNC              ; |1434| 
         00000cd9 FEE1 
    6337                      ; branch occurs ; |1434| 
    6338 00000cda       L231:    
    6339 00000cda 0200          MOVB      ACC,#0
    6340 00000cdb       L232:    
    6341 00000cdb 8D00          MOVL      XAR0,#922             ; |1437| 
         00000cdc 039A 
    6342 00000cdd 1E92          MOVL      *+XAR2[AR0],ACC       ; |1437| 
    6343 00000cde 8D00          MOVL      XAR0,#924             ; |1438| 
         00000cdf 039C 
    6344 00000ce0 1E92          MOVL      *+XAR2[AR0],ACC       ; |1438| 
    6345 00000ce1       L233:    
    6346 00000ce1 834A          MOVL      XAR5,*-SP[10]         ; |1442| 
    6347 00000ce2 8AA2          MOVL      XAR4,XAR2
    6348 00000ce3 7640!         LCR       #__fn_initseekdivisor ; |1442| 
         00000ce4 0000 
    6349                      ; call occurs [#__fn_initseekdivisor] ; |1442| 
    6350 00000ce5       L234:    
    6351 00000ce5 8D00          MOVL      XAR0,#528             ; |1570| 
         00000ce6 0210 
    6352 00000ce7 AAA9          MOVL      ACC,XAR2              ; |1570| 
    6353 00000ce8 8F00          MOVL      XAR4,#530             ; |1570| 
         00000ce9 0212 
    6354 00000cea 5601          ADDL      XAR4,ACC
         00000ceb 00A4 
    6355 00000cec A892          MOVL      *+XAR2[AR0],XAR4      ; |1570| 
    6356 00000ced 926B          MOV       AL,*-SP[43]           ; |1570| 
    6357 00000cee 96E2          MOV       *+XAR2[4],AL          ; |1572| 
    6358 00000cef 8AC2          MOVL      XAR4,*+XAR2[0]        ; |1574| 
    6359 00000cf0       L235:    
    6360 00000cf0 FEAC          SUBB      SP,#44                ; |1574| 
    6361 00000cf1 82BE          MOVL      XAR3,*--SP            ; |1574| 
    6362 00000cf2 86BE          MOVL      XAR2,*--SP            ; |1574| 
    6363 00000cf3 8BBE          MOVL      XAR1,*--SP            ; |1574| 
    6364                      .dwpsn  "fat.c",1575,1
    6365 00000cf4 0006          LRETR
    6366                      ; return occurs
    6367                      .dwattr DW$463, DW_AT_end_file("fat.c")
    6368                      .dwattr DW$463, DW_AT_end_line(0x627)
    6369                      .dwattr DW$463, DW_AT_end_column(0x01)
    6370                      .dwendtag DW$463
    6371              
    6372 00000cf5               .sect   ".text"
    6373                      .global _fn_settimedate
    6374              
    6375              DW$467  .dwtag  DW_TAG_subprogram, DW_AT_name("fn_settimedate"), DW_AT_symbol_name("_fn_settimedate")
TMS320C2000 COFF Assembler PC v4.1.3 Thu Aug 18 12:16:14 2016

Tools Copyright (c) 1996-2006 Texas Instruments Incorporated
fat.asm                                                              PAGE  127

    6376                      .dwattr DW$467, DW_AT_low_pc(_fn_settimedate)
    6377                      .dwattr DW$467, DW_AT_high_pc(0x00)
    6378                      .dwattr DW$467, DW_AT_begin_file("fat.c")
    6379                      .dwattr DW$467, DW_AT_begin_line(0x63c)
    6380                      .dwattr DW$467, DW_AT_begin_column(0x05)
    6381                      .dwattr DW$467, DW_AT_frame_base[DW_OP_breg20 -62]
    6382                      .dwattr DW$467, DW_AT_skeletal(0x01)
    6383                      .dwpsn  "fat.c",1596,96
    6384              
    6385              ;***************************************************************
    6386              ;* FNAME: _fn_settimedate               FR SIZE:  60           *
    6387              ;*                                                             *
    6388              ;* FUNCTION ENVIRONMENT                                        *
    6389              ;*                                                             *
    6390              ;* FUNCTION PROPERTIES                                         *
    6391              ;*                            6 Parameter, 49 Auto,  4 SOE     *
    6392              ;***************************************************************
    6393              
    6394              _fn_settimedate:
    6395              ;* AR4   assigned to _fm
    6396              DW$468  .dwtag  DW_TAG_formal_parameter, DW_AT_name("fm"), DW_AT_symbol_name("_fm")
    6397                      .dwattr DW$468, DW_AT_type(*DW$T$117)
    6398                      .dwattr DW$468, DW_AT_location[DW_OP_reg12]
    6399              ;* AR5   assigned to _filename
    6400              DW$469  .dwtag  DW_TAG_formal_parameter, DW_AT_name("filename"), DW_AT_symbol_name("_filename")
    6401                      .dwattr DW$469, DW_AT_type(*DW$T$146)
    6402                      .dwattr DW$469, DW_AT_location[DW_OP_reg14]
    6403              ;* AL    assigned to _ctime
    6404              DW$470  .dwtag  DW_TAG_formal_parameter, DW_AT_name("ctime"), DW_AT_symbol_name("_ctime")
    6405                      .dwattr DW$470, DW_AT_type(*DW$T$9)
    6406                      .dwattr DW$470, DW_AT_location[DW_OP_reg0]
    6407              ;* AH    assigned to _cdate
    6408              DW$471  .dwtag  DW_TAG_formal_parameter, DW_AT_name("cdate"), DW_AT_symbol_name("_cdate")
    6409                      .dwattr DW$471, DW_AT_type(*DW$T$9)
    6410                      .dwattr DW$471, DW_AT_location[DW_OP_reg1]
    6411 00000cf5 B2BD          MOVL      *SP++,XAR1
    6412 00000cf6 A2BD          MOVL      *SP++,XAR3
    6413 00000cf7 FE38          ADDB      SP,#56
    6414 00000cf8 8BA4          MOVL      XAR1,XAR4             ; |1596| 
    6415 00000cf9 5CAD          MOVZ      AR4,SP                ; |1603| 
    6416 00000cfa DCB6          SUBB      XAR4,#54              ; |1603| 
    6417 00000cfb A842          MOVL      *-SP[2],XAR4          ; |1603| 
    6418 00000cfc 8AA1          MOVL      XAR4,XAR1             ; |1603| 
    6419 00000cfd 9777          MOV       *-SP[55],AH           ; |1596| 
    6420 00000cfe 5BA9          MOVZ      AR3,AL                ; |1596| 
    6421 00000cff 7640'         LCR       #__f_setfsname        ; |1603| 
         00000d00 0175 
    6422                      ; call occurs [#__f_setfsname] ; |1603| 
    6423 00000d01 5200          CMPB      AL,#0                 ; |1603| 
    6424 00000d02 ED09          BF        L236,NEQ              ; |1603| 
    6425                      ; branchcc occurs ; |1603| 
    6426 00000d03 5DAD          MOVZ      AR5,SP                ; |1604| 
    6427 00000d04 5CAD          MOVZ      AR4,SP                ; |1604| 
    6428 00000d05 DD99          SUBB      XAR5,#25              ; |1604| 
    6429 00000d06 DCA1          SUBB      XAR4,#33              ; |1604| 
TMS320C2000 COFF Assembler PC v4.1.3 Thu Aug 18 12:16:14 2016

Tools Copyright (c) 1996-2006 Texas Instruments Incorporated
fat.asm                                                              PAGE  128

    6430 00000d07 7640'         LCR       #__f_checknamewc      ; |1604| 
         00000d08 00A7 
    6431                      ; call occurs [#__f_checknamewc] ; |1604| 
    6432 00000d09 FF58          TEST      ACC                   ; |1604| 
    6433 00000d0a EC04          BF        L237,EQ               ; |1604| 
    6434                      ; branchcc occurs ; |1604| 
    6435 00000d0b       L236:    
    6436 00000d0b 9A04          MOVB      AL,#4                 ; |1604| 
    6437 00000d0c 56CF          BF        L240,UNC              ; |1604| 
         00000d0d 0037 
    6438                      ; branch occurs ; |1604| 
    6439 00000d0e       L237:    
    6440 00000d0e 5DAD          MOVZ      AR5,SP                ; |1606| 
    6441 00000d0f 8AA1          MOVL      XAR4,XAR1             ; |1606| 
    6442 00000d10 9276          MOV       AL,*-SP[54]           ; |1606| 
    6443 00000d11 DD8A          SUBB      XAR5,#10              ; |1606| 
    6444 00000d12 7640!         LCR       #__f_getvolume        ; |1606| 
         00000d13 0000 
    6445                      ; call occurs [#__f_getvolume] ; |1606| 
    6446 00000d14 5200          CMPB      AL,#0                 ; |1606| 
    6447 00000d15 ED2E          BF        L240,NEQ              ; |1606| 
    6448                      ; branchcc occurs ; |1606| 
    6449 00000d16 5CAD          MOVZ      AR4,SP                ; |1609| 
    6450 00000d17 5DAD          MOVZ      AR5,SP                ; |1609| 
    6451 00000d18 DC96          SUBB      XAR4,#22              ; |1609| 
    6452 00000d19 A842          MOVL      *-SP[2],XAR4          ; |1609| 
    6453 00000d1a 8A4A          MOVL      XAR4,*-SP[10]         ; |1609| 
    6454 00000d1b DDB6          SUBB      XAR5,#54              ; |1609| 
    6455 00000d1c 7640'         LCR       #__f_findpath         ; |1609| 
         00000d1d 0465 
    6456                      ; call occurs [#__f_findpath] ; |1609| 
    6457 00000d1e 5200          CMPB      AL,#0                 ; |1609| 
    6458 00000d1f ED04          BF        L238,NEQ              ; |1609| 
    6459                      ; branchcc occurs ; |1609| 
    6460 00000d20 9A03          MOVB      AL,#3                 ; |1609| 
    6461 00000d21 56CF          BF        L240,UNC              ; |1609| 
         00000d22 0022 
    6462                      ; branch occurs ; |1609| 
    6463 00000d23       L238:    
    6464 00000d23 5CAD          MOVZ      AR4,SP                ; |1610| 
    6465 00000d24 DC99          SUBB      XAR4,#25              ; |1610| 
    6466 00000d25 A842          MOVL      *-SP[2],XAR4          ; |1610| 
    6467 00000d26 5CAD          MOVZ      AR4,SP                ; |1610| 
    6468 00000d27 DC96          SUBB      XAR4,#22              ; |1610| 
    6469 00000d28 A844          MOVL      *-SP[4],XAR4          ; |1610| 
    6470 00000d29 5CAD          MOVZ      AR4,SP                ; |1610| 
    6471 00000d2a 5DAD          MOVZ      AR5,SP                ; |1610| 
    6472 00000d2b DC88          SUBB      XAR4,#8               ; |1610| 
    6473 00000d2c A846          MOVL      *-SP[6],XAR4          ; |1610| 
    6474 00000d2d 8A4A          MOVL      XAR4,*-SP[10]         ; |1610| 
    6475 00000d2e DDA1          SUBB      XAR5,#33              ; |1610| 
    6476 00000d2f 7640'         LCR       #__f_findfile         ; |1610| 
         00000d30 0255 
    6477                      ; call occurs [#__f_findfile] ; |1610| 
    6478 00000d31 5200          CMPB      AL,#0                 ; |1610| 
TMS320C2000 COFF Assembler PC v4.1.3 Thu Aug 18 12:16:14 2016

Tools Copyright (c) 1996-2006 Texas Instruments Incorporated
fat.asm                                                              PAGE  129

    6479 00000d32 EC10          BF        L239,EQ               ; |1610| 
    6480                      ; branchcc occurs ; |1610| 
    6481 00000d33 8A48          MOVL      XAR4,*-SP[8]          ; |1612| 
    6482 00000d34 92A3          MOV       AL,AR3                ; |1612| 
    6483 00000d35 DC16          ADDB      XAR4,#22              ; |1612| 
    6484 00000d36 7640!         LCR       #__f_setword          ; |1612| 
         00000d37 0000 
    6485                      ; call occurs [#__f_setword] ; |1612| 
    6486 00000d38 8A48          MOVL      XAR4,*-SP[8]          ; |1613| 
    6487 00000d39 9277          MOV       AL,*-SP[55]           ; |1613| 
    6488 00000d3a DC18          ADDB      XAR4,#24              ; |1613| 
    6489 00000d3b 7640!         LCR       #__f_setword          ; |1613| 
         00000d3c 0000 
    6490                      ; call occurs [#__f_setword] ; |1613| 
    6491 00000d3d 8A4A          MOVL      XAR4,*-SP[10]         ; |1615| 
    6492 00000d3e 7640'         LCR       #__f_writedirsector   ; |1615| 
         00000d3f 0027 
    6493                      ; call occurs [#__f_writedirsector] ; |1615| 
    6494 00000d40 56CF          BF        L240,UNC              ; |1615| 
         00000d41 0003 
    6495                      ; branch occurs ; |1615| 
    6496 00000d42       L239:    
    6497 00000d42 9A05          MOVB      AL,#5                 ; |1610| 
    6498 00000d43       L240:    
    6499 00000d43 FEB8          SUBB      SP,#56                ; |1610| 
    6500 00000d44 82BE          MOVL      XAR3,*--SP            ; |1610| 
    6501 00000d45 8BBE          MOVL      XAR1,*--SP            ; |1610| 
    6502                      .dwpsn  "fat.c",1616,1
    6503 00000d46 0006          LRETR
    6504                      ; return occurs
    6505                      .dwattr DW$467, DW_AT_end_file("fat.c")
    6506                      .dwattr DW$467, DW_AT_end_line(0x650)
    6507                      .dwattr DW$467, DW_AT_end_column(0x01)
    6508                      .dwendtag DW$467
    6509              
    6510 00000d47               .sect   ".text"
    6511                      .global _fn_gettimedate
    6512              
    6513              DW$472  .dwtag  DW_TAG_subprogram, DW_AT_name("fn_gettimedate"), DW_AT_symbol_name("_fn_gettimedate")
    6514                      .dwattr DW$472, DW_AT_low_pc(_fn_gettimedate)
    6515                      .dwattr DW$472, DW_AT_high_pc(0x00)
    6516                      .dwattr DW$472, DW_AT_begin_file("fat.c")
    6517                      .dwattr DW$472, DW_AT_begin_line(0x664)
    6518                      .dwattr DW$472, DW_AT_begin_column(0x05)
    6519                      .dwattr DW$472, DW_AT_frame_base[DW_OP_breg20 -64]
    6520                      .dwattr DW$472, DW_AT_skeletal(0x01)
    6521                      .dwpsn  "fat.c",1636,100
    6522              
    6523              ;***************************************************************
    6524              ;* FNAME: _fn_gettimedate               FR SIZE:  62           *
    6525              ;*                                                             *
    6526              ;* FUNCTION ENVIRONMENT                                        *
    6527              ;*                                                             *
    6528              ;* FUNCTION PROPERTIES                                         *
    6529              ;*                            6 Parameter, 50 Auto,  6 SOE     *
TMS320C2000 COFF Assembler PC v4.1.3 Thu Aug 18 12:16:14 2016

Tools Copyright (c) 1996-2006 Texas Instruments Incorporated
fat.asm                                                              PAGE  130

    6530              ;***************************************************************
    6531              
    6532              _fn_gettimedate:
    6533              ;* AR4   assigned to _fm
    6534              DW$473  .dwtag  DW_TAG_formal_parameter, DW_AT_name("fm"), DW_AT_symbol_name("_fm")
    6535                      .dwattr DW$473, DW_AT_type(*DW$T$117)
    6536                      .dwattr DW$473, DW_AT_location[DW_OP_reg12]
    6537              ;* AR5   assigned to _filename
    6538              DW$474  .dwtag  DW_TAG_formal_parameter, DW_AT_name("filename"), DW_AT_symbol_name("_filename")
    6539                      .dwattr DW$474, DW_AT_type(*DW$T$146)
    6540                      .dwattr DW$474, DW_AT_location[DW_OP_reg14]
    6541              DW$475  .dwtag  DW_TAG_formal_parameter, DW_AT_name("pctime"), DW_AT_symbol_name("_pctime")
    6542                      .dwattr DW$475, DW_AT_type(*DW$T$109)
    6543                      .dwattr DW$475, DW_AT_location[DW_OP_breg20 -66]
    6544              DW$476  .dwtag  DW_TAG_formal_parameter, DW_AT_name("pcdate"), DW_AT_symbol_name("_pcdate")
    6545                      .dwattr DW$476, DW_AT_type(*DW$T$109)
    6546                      .dwattr DW$476, DW_AT_location[DW_OP_breg20 -68]
    6547 00000d47 B2BD          MOVL      *SP++,XAR1
    6548 00000d48 AABD          MOVL      *SP++,XAR2
    6549 00000d49 A2BD          MOVL      *SP++,XAR3
    6550 00000d4a 5AAD          MOVZ      AR2,SP
    6551 00000d4b 82A4          MOVL      XAR3,XAR4             ; |1636| 
    6552 00000d4c FE38          ADDB      SP,#56
    6553 00000d4d 5CAD          MOVZ      AR4,SP                ; |1643| 
    6554 00000d4e DA8C          SUBB      FP,#12
    6555 00000d4f DCB6          SUBB      XAR4,#54              ; |1643| 
    6556 00000d50 06D2          MOVL      ACC,*+FP[2]           ; |1636| 
    6557 00000d51 8BC2          MOVL      XAR1,*+FP[0]          ; |1636| 
    6558 00000d52 A842          MOVL      *-SP[2],XAR4          ; |1643| 
    6559 00000d53 8AA3          MOVL      XAR4,XAR3             ; |1643| 
    6560 00000d54 1E78          MOVL      *-SP[56],ACC          ; |1636| 
    6561 00000d55 7640'         LCR       #__f_setfsname        ; |1643| 
         00000d56 0175 
    6562                      ; call occurs [#__f_setfsname] ; |1643| 
    6563 00000d57 5200          CMPB      AL,#0                 ; |1643| 
    6564 00000d58 ED09          BF        L241,NEQ              ; |1643| 
    6565                      ; branchcc occurs ; |1643| 
    6566 00000d59 5DAD          MOVZ      AR5,SP                ; |1644| 
    6567 00000d5a 5CAD          MOVZ      AR4,SP                ; |1644| 
    6568 00000d5b DD99          SUBB      XAR5,#25              ; |1644| 
    6569 00000d5c DCA1          SUBB      XAR4,#33              ; |1644| 
    6570 00000d5d 7640'         LCR       #__f_checknamewc      ; |1644| 
         00000d5e 00A7 
    6571                      ; call occurs [#__f_checknamewc] ; |1644| 
    6572 00000d5f FF58          TEST      ACC                   ; |1644| 
    6573 00000d60 EC04          BF        L242,EQ               ; |1644| 
    6574                      ; branchcc occurs ; |1644| 
    6575 00000d61       L241:    
    6576 00000d61 9A04          MOVB      AL,#4                 ; |1644| 
    6577 00000d62 56CF          BF        L247,UNC              ; |1644| 
         00000d63 003A 
    6578                      ; branch occurs ; |1644| 
    6579 00000d64       L242:    
    6580 00000d64 5DAD          MOVZ      AR5,SP                ; |1646| 
    6581 00000d65 8AA3          MOVL      XAR4,XAR3             ; |1646| 
TMS320C2000 COFF Assembler PC v4.1.3 Thu Aug 18 12:16:14 2016

Tools Copyright (c) 1996-2006 Texas Instruments Incorporated
fat.asm                                                              PAGE  131

    6582 00000d66 9276          MOV       AL,*-SP[54]           ; |1646| 
    6583 00000d67 DD88          SUBB      XAR5,#8               ; |1646| 
    6584 00000d68 7640!         LCR       #__f_getvolume        ; |1646| 
         00000d69 0000 
    6585                      ; call occurs [#__f_getvolume] ; |1646| 
    6586 00000d6a 5200          CMPB      AL,#0                 ; |1646| 
    6587 00000d6b ED31          BF        L247,NEQ              ; |1646| 
    6588                      ; branchcc occurs ; |1646| 
    6589 00000d6c 5CAD          MOVZ      AR4,SP                ; |1649| 
    6590 00000d6d 5DAD          MOVZ      AR5,SP                ; |1649| 
    6591 00000d6e DC96          SUBB      XAR4,#22              ; |1649| 
    6592 00000d6f A842          MOVL      *-SP[2],XAR4          ; |1649| 
    6593 00000d70 8A48          MOVL      XAR4,*-SP[8]          ; |1649| 
    6594 00000d71 DDB6          SUBB      XAR5,#54              ; |1649| 
    6595 00000d72 7640'         LCR       #__f_findpath         ; |1649| 
         00000d73 0465 
    6596                      ; call occurs [#__f_findpath] ; |1649| 
    6597 00000d74 5200          CMPB      AL,#0                 ; |1649| 
    6598 00000d75 ED04          BF        L243,NEQ              ; |1649| 
    6599                      ; branchcc occurs ; |1649| 
    6600 00000d76 9A03          MOVB      AL,#3                 ; |1649| 
    6601 00000d77 56CF          BF        L247,UNC              ; |1649| 
         00000d78 0025 
    6602                      ; branch occurs ; |1649| 
    6603 00000d79       L243:    
    6604 00000d79 5CAD          MOVZ      AR4,SP                ; |1650| 
    6605 00000d7a DC99          SUBB      XAR4,#25              ; |1650| 
    6606 00000d7b A842          MOVL      *-SP[2],XAR4          ; |1650| 
    6607 00000d7c 5CAD          MOVZ      AR4,SP                ; |1650| 
    6608 00000d7d DC96          SUBB      XAR4,#22              ; |1650| 
    6609 00000d7e A844          MOVL      *-SP[4],XAR4          ; |1650| 
    6610 00000d7f 5CAD          MOVZ      AR4,SP                ; |1650| 
    6611 00000d80 5DAD          MOVZ      AR5,SP                ; |1650| 
    6612 00000d81 DC8A          SUBB      XAR4,#10              ; |1650| 
    6613 00000d82 A846          MOVL      *-SP[6],XAR4          ; |1650| 
    6614 00000d83 8A48          MOVL      XAR4,*-SP[8]          ; |1650| 
    6615 00000d84 DDA1          SUBB      XAR5,#33              ; |1650| 
    6616 00000d85 7640'         LCR       #__f_findfile         ; |1650| 
         00000d86 0255 
    6617                      ; call occurs [#__f_findfile] ; |1650| 
    6618 00000d87 5200          CMPB      AL,#0                 ; |1650| 
    6619 00000d88 ED04          BF        L244,NEQ              ; |1650| 
    6620                      ; branchcc occurs ; |1650| 
    6621 00000d89 9A05          MOVB      AL,#5                 ; |1650| 
    6622 00000d8a 56CF          BF        L247,UNC              ; |1650| 
         00000d8b 0012 
    6623                      ; branch occurs ; |1650| 
    6624 00000d8c       L244:    
    6625 00000d8c 0678          MOVL      ACC,*-SP[56]
    6626 00000d8d EC07          BF        L245,EQ               ; |1653| 
    6627                      ; branchcc occurs ; |1653| 
    6628 00000d8e 8A4A          MOVL      XAR4,*-SP[10]         ; |1653| 
    6629 00000d8f DC16          ADDB      XAR4,#22              ; |1653| 
    6630 00000d90 7640!         LCR       #__f_getword          ; |1653| 
         00000d91 0000 
TMS320C2000 COFF Assembler PC v4.1.3 Thu Aug 18 12:16:14 2016

Tools Copyright (c) 1996-2006 Texas Instruments Incorporated
fat.asm                                                              PAGE  132

    6631                      ; call occurs [#__f_getword] ; |1653| 
    6632 00000d92 8A78          MOVL      XAR4,*-SP[56]         ; |1653| 
    6633 00000d93 96C4          MOV       *+XAR4[0],AL          ; |1653| 
    6634 00000d94       L245:    
    6635 00000d94 B2A9          MOVL      ACC,XAR1
    6636 00000d95 EC06          BF        L246,EQ               ; |1654| 
    6637                      ; branchcc occurs ; |1654| 
    6638 00000d96 8A4A          MOVL      XAR4,*-SP[10]         ; |1654| 
    6639 00000d97 DC18          ADDB      XAR4,#24              ; |1654| 
    6640 00000d98 7640!         LCR       #__f_getword          ; |1654| 
         00000d99 0000 
    6641                      ; call occurs [#__f_getword] ; |1654| 
    6642 00000d9a 96C1          MOV       *+XAR1[0],AL          ; |1654| 
    6643 00000d9b       L246:    
    6644 00000d9b 9A00          MOVB      AL,#0
    6645 00000d9c       L247:    
    6646 00000d9c FEB8          SUBB      SP,#56                ; |1656| 
    6647 00000d9d 82BE          MOVL      XAR3,*--SP            ; |1656| 
    6648 00000d9e 86BE          MOVL      XAR2,*--SP            ; |1656| 
    6649 00000d9f 8BBE          MOVL      XAR1,*--SP            ; |1656| 
    6650                      .dwpsn  "fat.c",1657,1
    6651 00000da0 0006          LRETR
    6652                      ; return occurs
    6653                      .dwattr DW$472, DW_AT_end_file("fat.c")
    6654                      .dwattr DW$472, DW_AT_end_line(0x679)
    6655                      .dwattr DW$472, DW_AT_end_column(0x01)
    6656                      .dwendtag DW$472
    6657              
    6658 00000da1               .sect   ".text"
    6659                      .global _fn_delete
    6660              
    6661              DW$477  .dwtag  DW_TAG_subprogram, DW_AT_name("fn_delete"), DW_AT_symbol_name("_fn_delete")
    6662                      .dwattr DW$477, DW_AT_low_pc(_fn_delete)
    6663                      .dwattr DW$477, DW_AT_high_pc(0x00)
    6664                      .dwattr DW$477, DW_AT_begin_file("fat.c")
    6665                      .dwattr DW$477, DW_AT_begin_line(0x68b)
    6666                      .dwattr DW$477, DW_AT_begin_column(0x05)
    6667                      .dwattr DW$477, DW_AT_frame_base[DW_OP_breg20 -58]
    6668                      .dwattr DW$477, DW_AT_skeletal(0x01)
    6669                      .dwpsn  "fat.c",1675,49
    6670              
    6671              ;***************************************************************
    6672              ;* FNAME: _fn_delete                    FR SIZE:  56           *
    6673              ;*                                                             *
    6674              ;* FUNCTION ENVIRONMENT                                        *
    6675              ;*                                                             *
    6676              ;* FUNCTION PROPERTIES                                         *
    6677              ;*                            6 Parameter, 48 Auto,  2 SOE     *
    6678              ;***************************************************************
    6679              
    6680              _fn_delete:
    6681              ;* AR4   assigned to _fm
    6682              DW$478  .dwtag  DW_TAG_formal_parameter, DW_AT_name("fm"), DW_AT_symbol_name("_fm")
    6683                      .dwattr DW$478, DW_AT_type(*DW$T$117)
    6684                      .dwattr DW$478, DW_AT_location[DW_OP_reg12]
TMS320C2000 COFF Assembler PC v4.1.3 Thu Aug 18 12:16:14 2016

Tools Copyright (c) 1996-2006 Texas Instruments Incorporated
fat.asm                                                              PAGE  133

    6685              ;* AR5   assigned to _filename
    6686              DW$479  .dwtag  DW_TAG_formal_parameter, DW_AT_name("filename"), DW_AT_symbol_name("_filename")
    6687                      .dwattr DW$479, DW_AT_type(*DW$T$146)
    6688                      .dwattr DW$479, DW_AT_location[DW_OP_reg14]
    6689 00000da1 B2BD          MOVL      *SP++,XAR1
    6690 00000da2 FE36          ADDB      SP,#54
    6691 00000da3 8BA4          MOVL      XAR1,XAR4             ; |1675| 
    6692 00000da4 5CAD          MOVZ      AR4,SP                ; |1682| 
    6693 00000da5 DCB6          SUBB      XAR4,#54              ; |1682| 
    6694 00000da6 A842          MOVL      *-SP[2],XAR4          ; |1682| 
    6695 00000da7 8AA1          MOVL      XAR4,XAR1             ; |1682| 
    6696 00000da8 7640'         LCR       #__f_setfsname        ; |1682| 
         00000da9 0175 
    6697                      ; call occurs [#__f_setfsname] ; |1682| 
    6698 00000daa 5200          CMPB      AL,#0                 ; |1682| 
    6699 00000dab ED09          BF        L248,NEQ              ; |1682| 
    6700                      ; branchcc occurs ; |1682| 
    6701 00000dac 5DAD          MOVZ      AR5,SP                ; |1683| 
    6702 00000dad 5CAD          MOVZ      AR4,SP                ; |1683| 
    6703 00000dae DD99          SUBB      XAR5,#25              ; |1683| 
    6704 00000daf DCA1          SUBB      XAR4,#33              ; |1683| 
    6705 00000db0 7640'         LCR       #__f_checknamewc      ; |1683| 
         00000db1 00A7 
    6706                      ; call occurs [#__f_checknamewc] ; |1683| 
    6707 00000db2 FF58          TEST      ACC                   ; |1683| 
    6708 00000db3 EC04          BF        L249,EQ               ; |1683| 
    6709                      ; branchcc occurs ; |1683| 
    6710 00000db4       L248:    
    6711 00000db4 9A04          MOVB      AL,#4                 ; |1683| 
    6712 00000db5 56CF          BF        L256,UNC              ; |1683| 
         00000db6 0052 
    6713                      ; branch occurs ; |1683| 
    6714 00000db7       L249:    
    6715 00000db7 5DAD          MOVZ      AR5,SP                ; |1685| 
    6716 00000db8 8AA1          MOVL      XAR4,XAR1             ; |1685| 
    6717 00000db9 9276          MOV       AL,*-SP[54]           ; |1685| 
    6718 00000dba DD8A          SUBB      XAR5,#10              ; |1685| 
    6719 00000dbb 7640!         LCR       #__f_getvolume        ; |1685| 
         00000dbc 0000 
    6720                      ; call occurs [#__f_getvolume] ; |1685| 
    6721 00000dbd 5200          CMPB      AL,#0                 ; |1685| 
    6722 00000dbe ED49          BF        L256,NEQ              ; |1685| 
    6723                      ; branchcc occurs ; |1685| 
    6724 00000dbf 9261          MOV       AL,*-SP[33]           ; |1688| 
    6725 00000dc0 522E          CMPB      AL,#46                ; |1688| 
    6726 00000dc1 EC1B          BF        L250,EQ               ; |1688| 
    6727                      ; branchcc occurs ; |1688| 
    6728 00000dc2 5CAD          MOVZ      AR4,SP                ; |1689| 
    6729 00000dc3 5DAD          MOVZ      AR5,SP                ; |1689| 
    6730 00000dc4 DC96          SUBB      XAR4,#22              ; |1689| 
    6731 00000dc5 A842          MOVL      *-SP[2],XAR4          ; |1689| 
    6732 00000dc6 8A4A          MOVL      XAR4,*-SP[10]         ; |1689| 
    6733 00000dc7 DDB6          SUBB      XAR5,#54              ; |1689| 
    6734 00000dc8 7640'         LCR       #__f_findpath         ; |1689| 
         00000dc9 0465 
TMS320C2000 COFF Assembler PC v4.1.3 Thu Aug 18 12:16:14 2016

Tools Copyright (c) 1996-2006 Texas Instruments Incorporated
fat.asm                                                              PAGE  134

    6735                      ; call occurs [#__f_findpath] ; |1689| 
    6736 00000dca 5200          CMPB      AL,#0                 ; |1689| 
    6737 00000dcb EC1A          BF        L252,EQ               ; |1689| 
    6738                      ; branchcc occurs ; |1689| 
    6739 00000dcc 5CAD          MOVZ      AR4,SP                ; |1690| 
    6740 00000dcd DC99          SUBB      XAR4,#25              ; |1690| 
    6741 00000dce A842          MOVL      *-SP[2],XAR4          ; |1690| 
    6742 00000dcf 5CAD          MOVZ      AR4,SP                ; |1690| 
    6743 00000dd0 DC96          SUBB      XAR4,#22              ; |1690| 
    6744 00000dd1 A844          MOVL      *-SP[4],XAR4          ; |1690| 
    6745 00000dd2 5CAD          MOVZ      AR4,SP                ; |1690| 
    6746 00000dd3 5DAD          MOVZ      AR5,SP                ; |1690| 
    6747 00000dd4 DC88          SUBB      XAR4,#8               ; |1690| 
    6748 00000dd5 A846          MOVL      *-SP[6],XAR4          ; |1690| 
    6749 00000dd6 8A4A          MOVL      XAR4,*-SP[10]         ; |1690| 
    6750 00000dd7 DDA1          SUBB      XAR5,#33              ; |1690| 
    6751 00000dd8 7640'         LCR       #__f_findfile         ; |1690| 
         00000dd9 0255 
    6752                      ; call occurs [#__f_findfile] ; |1690| 
    6753 00000dda 5200          CMPB      AL,#0                 ; |1690| 
    6754 00000ddb ED04          BF        L251,NEQ              ; |1690| 
    6755                      ; branchcc occurs ; |1690| 
    6756 00000ddc       L250:    
    6757 00000ddc 9A05          MOVB      AL,#5                 ; |1690| 
    6758 00000ddd 56CF          BF        L256,UNC              ; |1690| 
         00000dde 002A 
    6759                      ; branch occurs ; |1690| 
    6760 00000ddf       L251:    
    6761 00000ddf 8A48          MOVL      XAR4,*-SP[8]          ; |1692| 
    6762 00000de0 D00B          MOVB      XAR0,#11              ; |1692| 
    6763 00000de1 9294          MOV       AL,*+XAR4[AR0]        ; |1692| 
    6764 00000de2 CDA9          AND       AH,AL,#0x0010         ; |1692| 
         00000de3 0010 
    6765 00000de4 EC04          BF        L253,EQ               ; |1692| 
    6766                      ; branchcc occurs ; |1692| 
    6767 00000de5       L252:    
    6768 00000de5 9A03          MOVB      AL,#3                 ; |1692| 
    6769 00000de6 56CF          BF        L256,UNC              ; |1692| 
         00000de7 0021 
    6770                      ; branch occurs ; |1692| 
    6771 00000de8       L253:    
    6772 00000de8 9001          ANDB      AL,#1                 ; |1693| 
    6773 00000de9 EC04          BF        L254,EQ               ; |1693| 
    6774                      ; branchcc occurs ; |1693| 
    6775 00000dea 9A0D          MOVB      AL,#13                ; |1693| 
    6776 00000deb 56CF          BF        L256,UNC              ; |1693| 
         00000dec 001C 
    6777                      ; branch occurs ; |1693| 
    6778 00000ded       L254:    
    6779 00000ded 5CAD          MOVZ      AR4,SP                ; |1695| 
    6780 00000dee 3B01          SETC      SXM
    6781 00000def 8576          MOV       ACC,*-SP[54]          ; |1695| 
    6782 00000df0 DC96          SUBB      XAR4,#22              ; |1695| 
    6783 00000df1 7640!         LCR       #__f_checklocked      ; |1695| 
         00000df2 0000 
TMS320C2000 COFF Assembler PC v4.1.3 Thu Aug 18 12:16:14 2016

Tools Copyright (c) 1996-2006 Texas Instruments Incorporated
fat.asm                                                              PAGE  135

    6784                      ; call occurs [#__f_checklocked] ; |1695| 
    6785 00000df3 5200          CMPB      AL,#0                 ; |1695| 
    6786 00000df4 EC04          BF        L255,EQ               ; |1695| 
    6787                      ; branchcc occurs ; |1695| 
    6788 00000df5 9A0C          MOVB      AL,#12                ; |1695| 
    6789 00000df6 56CF          BF        L256,UNC              ; |1695| 
         00000df7 0011 
    6790                      ; branch occurs ; |1695| 
    6791 00000df8       L255:    
    6792 00000df8 8A48          MOVL      XAR4,*-SP[8]          ; |1697| 
    6793 00000df9 28C4          MOV       *+XAR4[0],#229        ; |1697| 
         00000dfa 00E5 
    6794 00000dfb 8A4A          MOVL      XAR4,*-SP[10]         ; |1699| 
    6795 00000dfc 7640'         LCR       #__f_writedirsector   ; |1699| 
         00000dfd 0027 
    6796                      ; call occurs [#__f_writedirsector] ; |1699| 
    6797 00000dfe 5200          CMPB      AL,#0                 ; |1699| 
    6798 00000dff ED08          BF        L256,NEQ              ; |1699| 
    6799                      ; branchcc occurs ; |1699| 
    6800 00000e00 8A4A          MOVL      XAR4,*-SP[10]         ; |1702| 
    6801 00000e01 8348          MOVL      XAR5,*-SP[8]          ; |1702| 
    6802 00000e02 7640!         LCR       #__f_getdecluster     ; |1702| 
         00000e03 0000 
    6803                      ; call occurs [#__f_getdecluster] ; |1702| 
    6804 00000e04 8A4A          MOVL      XAR4,*-SP[10]         ; |1702| 
    6805 00000e05 7640!         LCR       #__f_removechain      ; |1702| 
         00000e06 0000 
    6806                      ; call occurs [#__f_removechain] ; |1702| 
    6807 00000e07       L256:    
    6808 00000e07 FEB6          SUBB      SP,#54                ; |1708| 
    6809 00000e08 8BBE          MOVL      XAR1,*--SP            ; |1708| 
    6810                      .dwpsn  "fat.c",1709,1
    6811 00000e09 0006          LRETR
    6812                      ; return occurs
    6813                      .dwattr DW$477, DW_AT_end_file("fat.c")
    6814                      .dwattr DW$477, DW_AT_end_line(0x6ad)
    6815                      .dwattr DW$477, DW_AT_end_column(0x01)
    6816                      .dwendtag DW$477
    6817              
    6818 00000e0a               .sect   ".text"
    6819                      .global _fn_getattr
    6820              
    6821              DW$480  .dwtag  DW_TAG_subprogram, DW_AT_name("fn_getattr"), DW_AT_symbol_name("_fn_getattr")
    6822                      .dwattr DW$480, DW_AT_low_pc(_fn_getattr)
    6823                      .dwattr DW$480, DW_AT_high_pc(0x00)
    6824                      .dwattr DW$480, DW_AT_begin_file("fat.c")
    6825                      .dwattr DW$480, DW_AT_begin_line(0x6c1)
    6826                      .dwattr DW$480, DW_AT_begin_column(0x05)
    6827                      .dwattr DW$480, DW_AT_frame_base[DW_OP_breg20 -62]
    6828                      .dwattr DW$480, DW_AT_skeletal(0x01)
    6829                      .dwpsn  "fat.c",1729,70
    6830              
    6831              ;***************************************************************
    6832              ;* FNAME: _fn_getattr                   FR SIZE:  60           *
    6833              ;*                                                             *
TMS320C2000 COFF Assembler PC v4.1.3 Thu Aug 18 12:16:14 2016

Tools Copyright (c) 1996-2006 Texas Instruments Incorporated
fat.asm                                                              PAGE  136

    6834              ;* FUNCTION ENVIRONMENT                                        *
    6835              ;*                                                             *
    6836              ;* FUNCTION PROPERTIES                                         *
    6837              ;*                            6 Parameter, 48 Auto,  6 SOE     *
    6838              ;***************************************************************
    6839              
    6840              _fn_getattr:
    6841              ;* AR4   assigned to _fm
    6842              DW$481  .dwtag  DW_TAG_formal_parameter, DW_AT_name("fm"), DW_AT_symbol_name("_fm")
    6843                      .dwattr DW$481, DW_AT_type(*DW$T$117)
    6844                      .dwattr DW$481, DW_AT_location[DW_OP_reg12]
    6845              ;* AR5   assigned to _filename
    6846              DW$482  .dwtag  DW_TAG_formal_parameter, DW_AT_name("filename"), DW_AT_symbol_name("_filename")
    6847                      .dwattr DW$482, DW_AT_type(*DW$T$146)
    6848                      .dwattr DW$482, DW_AT_location[DW_OP_reg14]
    6849              DW$483  .dwtag  DW_TAG_formal_parameter, DW_AT_name("attr"), DW_AT_symbol_name("_attr")
    6850                      .dwattr DW$483, DW_AT_type(*DW$T$107)
    6851                      .dwattr DW$483, DW_AT_location[DW_OP_breg20 -64]
    6852 00000e0a B2BD          MOVL      *SP++,XAR1
    6853 00000e0b AABD          MOVL      *SP++,XAR2
    6854 00000e0c A2BD          MOVL      *SP++,XAR3
    6855 00000e0d 5AAD          MOVZ      AR2,SP
    6856 00000e0e 82A4          MOVL      XAR3,XAR4             ; |1729| 
    6857 00000e0f FE36          ADDB      SP,#54
    6858 00000e10 5CAD          MOVZ      AR4,SP                ; |1736| 
    6859 00000e11 DA8A          SUBB      FP,#10
    6860 00000e12 DCB6          SUBB      XAR4,#54              ; |1736| 
    6861 00000e13 8BC2          MOVL      XAR1,*+FP[0]          ; |1729| 
    6862 00000e14 A842          MOVL      *-SP[2],XAR4          ; |1736| 
    6863 00000e15 8AA3          MOVL      XAR4,XAR3             ; |1736| 
    6864 00000e16 7640'         LCR       #__f_setfsname        ; |1736| 
         00000e17 0175 
    6865                      ; call occurs [#__f_setfsname] ; |1736| 
    6866 00000e18 5200          CMPB      AL,#0                 ; |1736| 
    6867 00000e19 ED09          BF        L257,NEQ              ; |1736| 
    6868                      ; branchcc occurs ; |1736| 
    6869 00000e1a 5DAD          MOVZ      AR5,SP                ; |1737| 
    6870 00000e1b 5CAD          MOVZ      AR4,SP                ; |1737| 
    6871 00000e1c DD99          SUBB      XAR5,#25              ; |1737| 
    6872 00000e1d DCA1          SUBB      XAR4,#33              ; |1737| 
    6873 00000e1e 7640'         LCR       #__f_checknamewc      ; |1737| 
         00000e1f 00A7 
    6874                      ; call occurs [#__f_checknamewc] ; |1737| 
    6875 00000e20 FF58          TEST      ACC                   ; |1737| 
    6876 00000e21 EC04          BF        L258,EQ               ; |1737| 
    6877                      ; branchcc occurs ; |1737| 
    6878 00000e22       L257:    
    6879 00000e22 9A04          MOVB      AL,#4                 ; |1737| 
    6880 00000e23 56CF          BF        L262,UNC              ; |1737| 
         00000e24 0031 
    6881                      ; branch occurs ; |1737| 
    6882 00000e25       L258:    
    6883 00000e25 5DAD          MOVZ      AR5,SP                ; |1739| 
    6884 00000e26 8AA3          MOVL      XAR4,XAR3             ; |1739| 
    6885 00000e27 9276          MOV       AL,*-SP[54]           ; |1739| 
TMS320C2000 COFF Assembler PC v4.1.3 Thu Aug 18 12:16:14 2016

Tools Copyright (c) 1996-2006 Texas Instruments Incorporated
fat.asm                                                              PAGE  137

    6886 00000e28 DD88          SUBB      XAR5,#8               ; |1739| 
    6887 00000e29 7640!         LCR       #__f_getvolume        ; |1739| 
         00000e2a 0000 
    6888                      ; call occurs [#__f_getvolume] ; |1739| 
    6889 00000e2b 5200          CMPB      AL,#0                 ; |1739| 
    6890 00000e2c ED28          BF        L262,NEQ              ; |1739| 
    6891                      ; branchcc occurs ; |1739| 
    6892 00000e2d 5CAD          MOVZ      AR4,SP                ; |1742| 
    6893 00000e2e 5DAD          MOVZ      AR5,SP                ; |1742| 
    6894 00000e2f DC96          SUBB      XAR4,#22              ; |1742| 
    6895 00000e30 A842          MOVL      *-SP[2],XAR4          ; |1742| 
    6896 00000e31 8A48          MOVL      XAR4,*-SP[8]          ; |1742| 
    6897 00000e32 DDB6          SUBB      XAR5,#54              ; |1742| 
    6898 00000e33 7640'         LCR       #__f_findpath         ; |1742| 
         00000e34 0465 
    6899                      ; call occurs [#__f_findpath] ; |1742| 
    6900 00000e35 5200          CMPB      AL,#0                 ; |1742| 
    6901 00000e36 ED04          BF        L259,NEQ              ; |1742| 
    6902                      ; branchcc occurs ; |1742| 
    6903 00000e37 9A03          MOVB      AL,#3                 ; |1742| 
    6904 00000e38 56CF          BF        L262,UNC              ; |1742| 
         00000e39 001C 
    6905                      ; branch occurs ; |1742| 
    6906 00000e3a       L259:    
    6907 00000e3a 5CAD          MOVZ      AR4,SP                ; |1743| 
    6908 00000e3b DC99          SUBB      XAR4,#25              ; |1743| 
    6909 00000e3c A842          MOVL      *-SP[2],XAR4          ; |1743| 
    6910 00000e3d 5CAD          MOVZ      AR4,SP                ; |1743| 
    6911 00000e3e DC96          SUBB      XAR4,#22              ; |1743| 
    6912 00000e3f A844          MOVL      *-SP[4],XAR4          ; |1743| 
    6913 00000e40 5CAD          MOVZ      AR4,SP                ; |1743| 
    6914 00000e41 5DAD          MOVZ      AR5,SP                ; |1743| 
    6915 00000e42 DC8A          SUBB      XAR4,#10              ; |1743| 
    6916 00000e43 A846          MOVL      *-SP[6],XAR4          ; |1743| 
    6917 00000e44 8A48          MOVL      XAR4,*-SP[8]          ; |1743| 
    6918 00000e45 DDA1          SUBB      XAR5,#33              ; |1743| 
    6919 00000e46 7640'         LCR       #__f_findfile         ; |1743| 
         00000e47 0255 
    6920                      ; call occurs [#__f_findfile] ; |1743| 
    6921 00000e48 5200          CMPB      AL,#0                 ; |1743| 
    6922 00000e49 ED04          BF        L260,NEQ              ; |1743| 
    6923                      ; branchcc occurs ; |1743| 
    6924 00000e4a 9A05          MOVB      AL,#5                 ; |1743| 
    6925 00000e4b 56CF          BF        L262,UNC              ; |1743| 
         00000e4c 0009 
    6926                      ; branch occurs ; |1743| 
    6927 00000e4d       L260:    
    6928 00000e4d B2A9          MOVL      ACC,XAR1
    6929 00000e4e EC05          BF        L261,EQ               ; |1745| 
    6930                      ; branchcc occurs ; |1745| 
    6931 00000e4f 8A4A          MOVL      XAR4,*-SP[10]         ; |1745| 
    6932 00000e50 D00B          MOVB      XAR0,#11              ; |1745| 
    6933 00000e51 9294          MOV       AL,*+XAR4[AR0]        ; |1745| 
    6934 00000e52 96C1          MOV       *+XAR1[0],AL          ; |1745| 
    6935 00000e53       L261:    
TMS320C2000 COFF Assembler PC v4.1.3 Thu Aug 18 12:16:14 2016

Tools Copyright (c) 1996-2006 Texas Instruments Incorporated
fat.asm                                                              PAGE  138

    6936 00000e53 9A00          MOVB      AL,#0
    6937 00000e54       L262:    
    6938 00000e54 FEB6          SUBB      SP,#54                ; |1747| 
    6939 00000e55 82BE          MOVL      XAR3,*--SP            ; |1747| 
    6940 00000e56 86BE          MOVL      XAR2,*--SP            ; |1747| 
    6941 00000e57 8BBE          MOVL      XAR1,*--SP            ; |1747| 
    6942                      .dwpsn  "fat.c",1748,1
    6943 00000e58 0006          LRETR
    6944                      ; return occurs
    6945                      .dwattr DW$480, DW_AT_end_file("fat.c")
    6946                      .dwattr DW$480, DW_AT_end_line(0x6d4)
    6947                      .dwattr DW$480, DW_AT_end_column(0x01)
    6948                      .dwendtag DW$480
    6949              
    6950 00000e59               .sect   ".text"
    6951                      .global _fn_setattr
    6952              
    6953              DW$484  .dwtag  DW_TAG_subprogram, DW_AT_name("fn_setattr"), DW_AT_symbol_name("_fn_setattr")
    6954                      .dwattr DW$484, DW_AT_low_pc(_fn_setattr)
    6955                      .dwattr DW$484, DW_AT_high_pc(0x00)
    6956                      .dwattr DW$484, DW_AT_begin_file("fat.c")
    6957                      .dwattr DW$484, DW_AT_begin_line(0x6e7)
    6958                      .dwattr DW$484, DW_AT_begin_column(0x05)
    6959                      .dwattr DW$484, DW_AT_frame_base[DW_OP_breg20 -60]
    6960                      .dwattr DW$484, DW_AT_skeletal(0x01)
    6961                      .dwpsn  "fat.c",1767,69
    6962              
    6963              ;***************************************************************
    6964              ;* FNAME: _fn_setattr                   FR SIZE:  58           *
    6965              ;*                                                             *
    6966              ;* FUNCTION ENVIRONMENT                                        *
    6967              ;*                                                             *
    6968              ;* FUNCTION PROPERTIES                                         *
    6969              ;*                            6 Parameter, 48 Auto,  4 SOE     *
    6970              ;***************************************************************
    6971              
    6972              _fn_setattr:
    6973              ;* AR4   assigned to _fm
    6974              DW$485  .dwtag  DW_TAG_formal_parameter, DW_AT_name("fm"), DW_AT_symbol_name("_fm")
    6975                      .dwattr DW$485, DW_AT_type(*DW$T$117)
    6976                      .dwattr DW$485, DW_AT_location[DW_OP_reg12]
    6977              ;* AR5   assigned to _filename
    6978              DW$486  .dwtag  DW_TAG_formal_parameter, DW_AT_name("filename"), DW_AT_symbol_name("_filename")
    6979                      .dwattr DW$486, DW_AT_type(*DW$T$146)
    6980                      .dwattr DW$486, DW_AT_location[DW_OP_reg14]
    6981              ;* AL    assigned to _attr
    6982              DW$487  .dwtag  DW_TAG_formal_parameter, DW_AT_name("attr"), DW_AT_symbol_name("_attr")
    6983                      .dwattr DW$487, DW_AT_type(*DW$T$6)
    6984                      .dwattr DW$487, DW_AT_location[DW_OP_reg0]
    6985 00000e59 B2BD          MOVL      *SP++,XAR1
    6986 00000e5a AABD          MOVL      *SP++,XAR2
    6987 00000e5b FE36          ADDB      SP,#54
    6988 00000e5c 86A4          MOVL      XAR2,XAR4             ; |1767| 
    6989 00000e5d 5CAD          MOVZ      AR4,SP                ; |1774| 
    6990 00000e5e DCB6          SUBB      XAR4,#54              ; |1774| 
TMS320C2000 COFF Assembler PC v4.1.3 Thu Aug 18 12:16:14 2016

Tools Copyright (c) 1996-2006 Texas Instruments Incorporated
fat.asm                                                              PAGE  139

    6991 00000e5f A842          MOVL      *-SP[2],XAR4          ; |1774| 
    6992 00000e60 8AA2          MOVL      XAR4,XAR2             ; |1774| 
    6993 00000e61 59A9          MOVZ      AR1,AL                ; |1767| 
    6994 00000e62 7640'         LCR       #__f_setfsname        ; |1774| 
         00000e63 0175 
    6995                      ; call occurs [#__f_setfsname] ; |1774| 
    6996 00000e64 5200          CMPB      AL,#0                 ; |1774| 
    6997 00000e65 ED09          BF        L263,NEQ              ; |1774| 
    6998                      ; branchcc occurs ; |1774| 
    6999 00000e66 5DAD          MOVZ      AR5,SP                ; |1775| 
    7000 00000e67 5CAD          MOVZ      AR4,SP                ; |1775| 
    7001 00000e68 DD99          SUBB      XAR5,#25              ; |1775| 
    7002 00000e69 DCA1          SUBB      XAR4,#33              ; |1775| 
    7003 00000e6a 7640'         LCR       #__f_checknamewc      ; |1775| 
         00000e6b 00A7 
    7004                      ; call occurs [#__f_checknamewc] ; |1775| 
    7005 00000e6c FF58          TEST      ACC                   ; |1775| 
    7006 00000e6d EC04          BF        L264,EQ               ; |1775| 
    7007                      ; branchcc occurs ; |1775| 
    7008 00000e6e       L263:    
    7009 00000e6e 9A04          MOVB      AL,#4                 ; |1775| 
    7010 00000e6f 56CF          BF        L268,UNC              ; |1775| 
         00000e70 003E 
    7011                      ; branch occurs ; |1775| 
    7012 00000e71       L264:    
    7013 00000e71 5DAD          MOVZ      AR5,SP                ; |1777| 
    7014 00000e72 8AA2          MOVL      XAR4,XAR2             ; |1777| 
    7015 00000e73 9276          MOV       AL,*-SP[54]           ; |1777| 
    7016 00000e74 DD8A          SUBB      XAR5,#10              ; |1777| 
    7017 00000e75 7640!         LCR       #__f_getvolume        ; |1777| 
         00000e76 0000 
    7018                      ; call occurs [#__f_getvolume] ; |1777| 
    7019 00000e77 5200          CMPB      AL,#0                 ; |1777| 
    7020 00000e78 ED35          BF        L268,NEQ              ; |1777| 
    7021                      ; branchcc occurs ; |1777| 
    7022 00000e79 5CAD          MOVZ      AR4,SP                ; |1780| 
    7023 00000e7a 5DAD          MOVZ      AR5,SP                ; |1780| 
    7024 00000e7b DC96          SUBB      XAR4,#22              ; |1780| 
    7025 00000e7c A842          MOVL      *-SP[2],XAR4          ; |1780| 
    7026 00000e7d 8A4A          MOVL      XAR4,*-SP[10]         ; |1780| 
    7027 00000e7e DDB6          SUBB      XAR5,#54              ; |1780| 
    7028 00000e7f 7640'         LCR       #__f_findpath         ; |1780| 
         00000e80 0465 
    7029                      ; call occurs [#__f_findpath] ; |1780| 
    7030 00000e81 5200          CMPB      AL,#0                 ; |1780| 
    7031 00000e82 ED04          BF        L265,NEQ              ; |1780| 
    7032                      ; branchcc occurs ; |1780| 
    7033 00000e83 9A03          MOVB      AL,#3                 ; |1780| 
    7034 00000e84 56CF          BF        L268,UNC              ; |1780| 
         00000e85 0029 
    7035                      ; branch occurs ; |1780| 
    7036 00000e86       L265:    
    7037 00000e86 5CAD          MOVZ      AR4,SP                ; |1781| 
    7038 00000e87 DC99          SUBB      XAR4,#25              ; |1781| 
    7039 00000e88 A842          MOVL      *-SP[2],XAR4          ; |1781| 
TMS320C2000 COFF Assembler PC v4.1.3 Thu Aug 18 12:16:14 2016

Tools Copyright (c) 1996-2006 Texas Instruments Incorporated
fat.asm                                                              PAGE  140

    7040 00000e89 5CAD          MOVZ      AR4,SP                ; |1781| 
    7041 00000e8a DC96          SUBB      XAR4,#22              ; |1781| 
    7042 00000e8b A844          MOVL      *-SP[4],XAR4          ; |1781| 
    7043 00000e8c 5CAD          MOVZ      AR4,SP                ; |1781| 
    7044 00000e8d 5DAD          MOVZ      AR5,SP                ; |1781| 
    7045 00000e8e DC88          SUBB      XAR4,#8               ; |1781| 
    7046 00000e8f A846          MOVL      *-SP[6],XAR4          ; |1781| 
    7047 00000e90 8A4A          MOVL      XAR4,*-SP[10]         ; |1781| 
    7048 00000e91 DDA1          SUBB      XAR5,#33              ; |1781| 
    7049 00000e92 7640'         LCR       #__f_findfile         ; |1781| 
         00000e93 0255 
    7050                      ; call occurs [#__f_findfile] ; |1781| 
    7051 00000e94 5200          CMPB      AL,#0                 ; |1781| 
    7052 00000e95 ED04          BF        L266,NEQ              ; |1781| 
    7053                      ; branchcc occurs ; |1781| 
    7054 00000e96 9A05          MOVB      AL,#5                 ; |1781| 
    7055 00000e97 56CF          BF        L268,UNC              ; |1781| 
         00000e98 0016 
    7056                      ; branch occurs ; |1781| 
    7057 00000e99       L266:    
    7058 00000e99 92A1          MOV       AL,AR1
    7059 00000e9a 8A48          MOVL      XAR4,*-SP[8]          ; |1785| 
    7060 00000e9b 9027          ANDB      AL,#0x27              ; |1783| 
    7061 00000e9c 59A9          MOVZ      AR1,AL                ; |1783| 
    7062 00000e9d D00B          MOVB      XAR0,#11              ; |1785| 
    7063 00000e9e 9394          MOV       AH,*+XAR4[AR0]        ; |1785| 
    7064 00000e9f CCA8          AND       AL,AH,#0x0018         ; |1785| 
         00000ea0 0018 
    7065 00000ea1 98A1          OR        AR1,AL                ; |1785| 
    7066 00000ea2 92A1          MOV       AL,AR1                ; |1785| 
    7067 00000ea3 54A8          CMP       AL,AH                 ; |1787| 
    7068 00000ea4 ED04          BF        L267,NEQ              ; |1787| 
    7069                      ; branchcc occurs ; |1787| 
    7070 00000ea5 9A00          MOVB      AL,#0
    7071 00000ea6 56CF          BF        L268,UNC              ; |1787| 
         00000ea7 0007 
    7072                      ; branch occurs ; |1787| 
    7073 00000ea8       L267:    
    7074 00000ea8 8A48          MOVL      XAR4,*-SP[8]          ; |1789| 
    7075 00000ea9 7994          MOV       *+XAR4[AR0],AR1       ; |1789| 
    7076 00000eaa 8A4A          MOVL      XAR4,*-SP[10]         ; |1791| 
    7077 00000eab 7640'         LCR       #__f_writedirsector   ; |1791| 
         00000eac 0027 
    7078                      ; call occurs [#__f_writedirsector] ; |1791| 
    7079 00000ead       L268:    
    7080 00000ead FEB6          SUBB      SP,#54                ; |1791| 
    7081 00000eae 86BE          MOVL      XAR2,*--SP            ; |1791| 
    7082 00000eaf 8BBE          MOVL      XAR1,*--SP            ; |1791| 
    7083                      .dwpsn  "fat.c",1792,1
    7084 00000eb0 0006          LRETR
    7085                      ; return occurs
    7086                      .dwattr DW$484, DW_AT_end_file("fat.c")
    7087                      .dwattr DW$484, DW_AT_end_line(0x700)
    7088                      .dwattr DW$484, DW_AT_end_column(0x01)
    7089                      .dwendtag DW$484
TMS320C2000 COFF Assembler PC v4.1.3 Thu Aug 18 12:16:14 2016

Tools Copyright (c) 1996-2006 Texas Instruments Incorporated
fat.asm                                                              PAGE  141

    7090              
    7091 00000eb1               .sect   ".text"
    7092                      .global _fn_rmdir
    7093              
    7094              DW$488  .dwtag  DW_TAG_subprogram, DW_AT_name("fn_rmdir"), DW_AT_symbol_name("_fn_rmdir")
    7095                      .dwattr DW$488, DW_AT_low_pc(_fn_rmdir)
    7096                      .dwattr DW$488, DW_AT_high_pc(0x00)
    7097                      .dwattr DW$488, DW_AT_begin_file("fat.c")
    7098                      .dwattr DW$488, DW_AT_begin_line(0x712)
    7099                      .dwattr DW$488, DW_AT_begin_column(0x05)
    7100                      .dwattr DW$488, DW_AT_frame_base[DW_OP_breg20 -58]
    7101                      .dwattr DW$488, DW_AT_skeletal(0x01)
    7102                      .dwpsn  "fat.c",1810,47
    7103              
    7104              ;***************************************************************
    7105              ;* FNAME: _fn_rmdir                     FR SIZE:  56           *
    7106              ;*                                                             *
    7107              ;* FUNCTION ENVIRONMENT                                        *
    7108              ;*                                                             *
    7109              ;* FUNCTION PROPERTIES                                         *
    7110              ;*                            6 Parameter, 48 Auto,  2 SOE     *
    7111              ;***************************************************************
    7112              
    7113              _fn_rmdir:
    7114              ;* AR4   assigned to _fm
    7115              DW$489  .dwtag  DW_TAG_formal_parameter, DW_AT_name("fm"), DW_AT_symbol_name("_fm")
    7116                      .dwattr DW$489, DW_AT_type(*DW$T$117)
    7117                      .dwattr DW$489, DW_AT_location[DW_OP_reg12]
    7118              ;* AR5   assigned to _dirname
    7119              DW$490  .dwtag  DW_TAG_formal_parameter, DW_AT_name("dirname"), DW_AT_symbol_name("_dirname")
    7120                      .dwattr DW$490, DW_AT_type(*DW$T$146)
    7121                      .dwattr DW$490, DW_AT_location[DW_OP_reg14]
    7122 00000eb1 B2BD          MOVL      *SP++,XAR1
    7123 00000eb2 FE36          ADDB      SP,#54
    7124 00000eb3 8BA4          MOVL      XAR1,XAR4             ; |1810| 
    7125 00000eb4 5CAD          MOVZ      AR4,SP                ; |1819| 
    7126 00000eb5 DCB6          SUBB      XAR4,#54              ; |1819| 
    7127 00000eb6 A842          MOVL      *-SP[2],XAR4          ; |1819| 
    7128 00000eb7 8AA1          MOVL      XAR4,XAR1             ; |1819| 
    7129 00000eb8 7640'         LCR       #__f_setfsname        ; |1819| 
         00000eb9 0175 
    7130                      ; call occurs [#__f_setfsname] ; |1819| 
    7131 00000eba 5200          CMPB      AL,#0                 ; |1819| 
    7132 00000ebb ED09          BF        L269,NEQ              ; |1819| 
    7133                      ; branchcc occurs ; |1819| 
    7134 00000ebc 5DAD          MOVZ      AR5,SP                ; |1820| 
    7135 00000ebd 5CAD          MOVZ      AR4,SP                ; |1820| 
    7136 00000ebe DD99          SUBB      XAR5,#25              ; |1820| 
    7137 00000ebf DCA1          SUBB      XAR4,#33              ; |1820| 
    7138 00000ec0 7640'         LCR       #__f_checknamewc      ; |1820| 
         00000ec1 00A7 
    7139                      ; call occurs [#__f_checknamewc] ; |1820| 
    7140 00000ec2 FF58          TEST      ACC                   ; |1820| 
    7141 00000ec3 EC04          BF        L270,EQ               ; |1820| 
    7142                      ; branchcc occurs ; |1820| 
TMS320C2000 COFF Assembler PC v4.1.3 Thu Aug 18 12:16:14 2016

Tools Copyright (c) 1996-2006 Texas Instruments Incorporated
fat.asm                                                              PAGE  142

    7143 00000ec4       L269:    
    7144 00000ec4 9A04          MOVB      AL,#4                 ; |1820| 
    7145 00000ec5 56CF          BF        L281,UNC              ; |1820| 
         00000ec6 0081 
    7146                      ; branch occurs ; |1820| 
    7147 00000ec7       L270:    
    7148 00000ec7 5DAD          MOVZ      AR5,SP                ; |1822| 
    7149 00000ec8 8AA1          MOVL      XAR4,XAR1             ; |1822| 
    7150 00000ec9 9276          MOV       AL,*-SP[54]           ; |1822| 
    7151 00000eca DD88          SUBB      XAR5,#8               ; |1822| 
    7152 00000ecb 7640!         LCR       #__f_getvolume        ; |1822| 
         00000ecc 0000 
    7153                      ; call occurs [#__f_getvolume] ; |1822| 
    7154 00000ecd 5200          CMPB      AL,#0                 ; |1822| 
    7155 00000ece ED78          BF        L281,NEQ              ; |1822| 
    7156                      ; branchcc occurs ; |1822| 
    7157 00000ecf 5CAD          MOVZ      AR4,SP                ; |1825| 
    7158 00000ed0 5DAD          MOVZ      AR5,SP                ; |1825| 
    7159 00000ed1 DC96          SUBB      XAR4,#22              ; |1825| 
    7160 00000ed2 A842          MOVL      *-SP[2],XAR4          ; |1825| 
    7161 00000ed3 8A48          MOVL      XAR4,*-SP[8]          ; |1825| 
    7162 00000ed4 DDB6          SUBB      XAR5,#54              ; |1825| 
    7163 00000ed5 7640'         LCR       #__f_findpath         ; |1825| 
         00000ed6 0465 
    7164                      ; call occurs [#__f_findpath] ; |1825| 
    7165 00000ed7 5200          CMPB      AL,#0                 ; |1825| 
    7166 00000ed8 EC15          BF        L271,EQ               ; |1825| 
    7167                      ; branchcc occurs ; |1825| 
    7168 00000ed9 5CAD          MOVZ      AR4,SP                ; |1826| 
    7169 00000eda DC99          SUBB      XAR4,#25              ; |1826| 
    7170 00000edb A842          MOVL      *-SP[2],XAR4          ; |1826| 
    7171 00000edc 5CAD          MOVZ      AR4,SP                ; |1826| 
    7172 00000edd DC96          SUBB      XAR4,#22              ; |1826| 
    7173 00000ede A844          MOVL      *-SP[4],XAR4          ; |1826| 
    7174 00000edf 5CAD          MOVZ      AR4,SP                ; |1826| 
    7175 00000ee0 5DAD          MOVZ      AR5,SP                ; |1826| 
    7176 00000ee1 DC8A          SUBB      XAR4,#10              ; |1826| 
    7177 00000ee2 A846          MOVL      *-SP[6],XAR4          ; |1826| 
    7178 00000ee3 8A48          MOVL      XAR4,*-SP[8]          ; |1826| 
    7179 00000ee4 DDA1          SUBB      XAR5,#33              ; |1826| 
    7180 00000ee5 7640'         LCR       #__f_findfile         ; |1826| 
         00000ee6 0255 
    7181                      ; call occurs [#__f_findfile] ; |1826| 
    7182 00000ee7 5200          CMPB      AL,#0                 ; |1826| 
    7183 00000ee8 EC0B          BF        L273,EQ               ; |1826| 
    7184                      ; branchcc occurs ; |1826| 
    7185 00000ee9 8A4A          MOVL      XAR4,*-SP[10]         ; |1828| 
    7186 00000eea D00B          MOVB      XAR0,#11              ; |1828| 
    7187 00000eeb 4494          TBIT      *+XAR4[AR0],#4        ; |1828| 
    7188 00000eec EE04          BF        L272,TC               ; |1828| 
    7189                      ; branchcc occurs ; |1828| 
    7190 00000eed       L271:    
    7191 00000eed 9A03          MOVB      AL,#3                 ; |1828| 
    7192 00000eee 56CF          BF        L281,UNC              ; |1828| 
         00000eef 0058 
TMS320C2000 COFF Assembler PC v4.1.3 Thu Aug 18 12:16:14 2016

Tools Copyright (c) 1996-2006 Texas Instruments Incorporated
fat.asm                                                              PAGE  143

    7193                      ; branch occurs ; |1828| 
    7194 00000ef0       L272:    
    7195 00000ef0 9261          MOV       AL,*-SP[33]           ; |1830| 
    7196 00000ef1 522E          CMPB      AL,#46                ; |1830| 
    7197 00000ef2 ED04          BF        L274,NEQ              ; |1830| 
    7198                      ; branchcc occurs ; |1830| 
    7199 00000ef3       L273:    
    7200 00000ef3 9A05          MOVB      AL,#5                 ; |1830| 
    7201 00000ef4 56CF          BF        L281,UNC              ; |1830| 
         00000ef5 0052 
    7202                      ; branch occurs ; |1830| 
    7203 00000ef6       L274:    
    7204 00000ef6 7640'         LCR       #__f_getintfile       ; |1832| 
         00000ef7 07B7 
    7205                      ; call occurs [#__f_getintfile] ; |1832| 
    7206 00000ef8 A8A9          MOVL      ACC,XAR4              ; |1832| 
    7207 00000ef9 8BA4          MOVL      XAR1,XAR4             ; |1832| 
    7208 00000efa ED04          BF        L275,NEQ              ; |1832| 
    7209                      ; branchcc occurs ; |1832| 
    7210 00000efb 9A07          MOVB      AL,#7                 ; |1834| 
    7211 00000efc 56CF          BF        L281,UNC              ; |1834| 
         00000efd 004A 
    7212                      ; branch occurs ; |1834| 
    7213 00000efe       L275:    
    7214 00000efe 8A48          MOVL      XAR4,*-SP[8]          ; |1836| 
    7215 00000eff 834A          MOVL      XAR5,*-SP[10]         ; |1836| 
    7216 00000f00 7640!         LCR       #__f_getdecluster     ; |1836| 
         00000f01 0000 
    7217                      ; call occurs [#__f_getdecluster] ; |1836| 
    7218 00000f02 1EA6          MOVL      XAR6,ACC              ; |1836| 
    7219 00000f03 8F40          MOVL      XAR5,#916             ; |1836| 
         00000f04 0394 
    7220 00000f05 B2A9          MOVL      ACC,XAR1              ; |1836| 
    7221 00000f06 5601          ADDL      XAR5,ACC
         00000f07 00A5 
    7222 00000f08 8A48          MOVL      XAR4,*-SP[8]          ; |1836| 
    7223 00000f09 06A6          MOVL      ACC,XAR6              ; |1836| 
    7224 00000f0a 7640!         LCR       #__f_clustertopos     ; |1836| 
         00000f0b 0000 
    7225                      ; call occurs [#__f_clustertopos] ; |1836| 
    7226 00000f0c 56CF          BF        L280,UNC
         00000f0d 0022 
    7227                      ; branch occurs
    7228 00000f0e       L276:    
    7229 00000f0e       DW$L$_fn_rmdir$14$B:
    7230 00000f0e 5200          CMPB      AL,#0                 ; |1843| 
    7231 00000f0f ED37          BF        L281,NEQ              ; |1843| 
    7232                      ; branchcc occurs ; |1843| 
    7233 00000f10       DW$L$_fn_rmdir$14$E:
    7234 00000f10       DW$L$_fn_rmdir$15$B:
    7235 00000f10 020C          MOVB      ACC,#12
    7236 00000f11 BE20          MOVB      XAR6,#32              ; |1847| 
    7237 00000f12 D500          MOVB      XAR5,#0
    7238 00000f13 07A1          ADDL      ACC,XAR1
    7239                      .dwpsn  "fat.c",1847,0
TMS320C2000 COFF Assembler PC v4.1.3 Thu Aug 18 12:16:14 2016

Tools Copyright (c) 1996-2006 Texas Instruments Incorporated
fat.asm                                                              PAGE  144

    7240 00000f14 8AA9          MOVL      XAR4,ACC              ; |1845| 
    7241 00000f15       DW$L$_fn_rmdir$15$E:
    7242 00000f15       L277:    
    7243 00000f15       DW$L$_fn_rmdir$16$B:
    7244 00000f15 92C4          MOV       AL,*+XAR4[0]          ; |1848| 
    7245 00000f16 EC10          BF        L279,EQ               ; |1848| 
    7246                      ; branchcc occurs ; |1848| 
    7247 00000f17       DW$L$_fn_rmdir$16$E:
    7248 00000f17       DW$L$_fn_rmdir$17$B:
    7249 00000f17 52E5          CMPB      AL,#229               ; |1850| 
    7250 00000f18 EC06          BF        L278,EQ               ; |1850| 
    7251                      ; branchcc occurs ; |1850| 
    7252 00000f19       DW$L$_fn_rmdir$17$E:
    7253 00000f19       DW$L$_fn_rmdir$18$B:
    7254 00000f19 522E          CMPB      AL,#46                ; |1850| 
    7255 00000f1a EC04          BF        L278,EQ               ; |1850| 
    7256                      ; branchcc occurs ; |1850| 
    7257 00000f1b       DW$L$_fn_rmdir$18$E:
    7258 00000f1b 9A0E          MOVB      AL,#14                ; |1852| 
    7259 00000f1c 56CF          BF        L281,UNC              ; |1852| 
         00000f1d 002A 
    7260                      ; branch occurs ; |1852| 
    7261 00000f1e       L278:    
    7262 00000f1e       DW$L$_fn_rmdir$20$B:
    7263 00000f1e A8A9          MOVL      ACC,XAR4              ; |1847| 
    7264 00000f1f DD01          ADDB      XAR5,#1               ; |1847| 
    7265 00000f20 0DA6          ADDU      ACC,AR6               ; |1847| 
    7266 00000f21 8AA9          MOVL      XAR4,ACC              ; |1847| 
    7267 00000f22 92A5          MOV       AL,AR5                ; |1847| 
    7268 00000f23 5210          CMPB      AL,#16                ; |1847| 
    7269                      .dwpsn  "fat.c",1853,0
    7270 00000f24 56C8          BF        L277,LO               ; |1847| 
         00000f25 FFF1 
    7271                      ; branchcc occurs ; |1847| 
    7272 00000f26       DW$L$_fn_rmdir$20$E:
    7273 00000f26       L279:    
    7274 00000f26       DW$L$_fn_rmdir$21$B:
    7275 00000f26 B2A9          MOVL      ACC,XAR1              ; |1854| 
    7276 00000f27 8F00          MOVL      XAR4,#922             ; |1854| 
         00000f28 039A 
    7277 00000f29 5601          ADDL      XAR4,ACC
         00000f2a 00A4 
    7278 00000f2b 0201          MOVB      ACC,#1
    7279 00000f2c 5601          ADDL      *+XAR4[0],ACC         ; |1854| 
         00000f2d 00C4 
    7280 00000f2e       DW$L$_fn_rmdir$21$E:
    7281 00000f2e       L280:    
    7282 00000f2e       DW$L$_fn_rmdir$22$B:
    7283 00000f2e 0200          MOVB      ACC,#0
    7284 00000f2f 83A1          MOVL      XAR5,XAR1             ; |1840| 
    7285 00000f30 1E42          MOVL      *-SP[2],ACC           ; |1840| 
    7286 00000f31 1E44          MOVL      *-SP[4],ACC           ; |1840| 
    7287 00000f32 8A48          MOVL      XAR4,*-SP[8]          ; |1840| 
    7288 00000f33 7640!         LCR       #__f_getcurrsector    ; |1840| 
         00000f34 0000 
TMS320C2000 COFF Assembler PC v4.1.3 Thu Aug 18 12:16:14 2016

Tools Copyright (c) 1996-2006 Texas Instruments Incorporated
fat.asm                                                              PAGE  145

    7289                      ; call occurs [#__f_getcurrsector] ; |1840| 
    7290 00000f35 5209          CMPB      AL,#9                 ; |1840| 
    7291 00000f36 EDD8          BF        L276,NEQ              ; |1840| 
    7292                      ; branchcc occurs ; |1840| 
    7293 00000f37       DW$L$_fn_rmdir$22$E:
    7294 00000f37 8A4A          MOVL      XAR4,*-SP[10]         ; |1857| 
    7295 00000f38 28C4          MOV       *+XAR4[0],#229        ; |1857| 
         00000f39 00E5 
    7296 00000f3a 8A48          MOVL      XAR4,*-SP[8]          ; |1859| 
    7297 00000f3b 7640'         LCR       #__f_writedirsector   ; |1859| 
         00000f3c 0027 
    7298                      ; call occurs [#__f_writedirsector] ; |1859| 
    7299 00000f3d 5200          CMPB      AL,#0                 ; |1859| 
    7300 00000f3e ED08          BF        L281,NEQ              ; |1859| 
    7301                      ; branchcc occurs ; |1859| 
    7302 00000f3f 8A48          MOVL      XAR4,*-SP[8]          ; |1862| 
    7303 00000f40 834A          MOVL      XAR5,*-SP[10]         ; |1862| 
    7304 00000f41 7640!         LCR       #__f_getdecluster     ; |1862| 
         00000f42 0000 
    7305                      ; call occurs [#__f_getdecluster] ; |1862| 
    7306 00000f43 8A48          MOVL      XAR4,*-SP[8]          ; |1862| 
    7307 00000f44 7640!         LCR       #__f_removechain      ; |1862| 
         00000f45 0000 
    7308                      ; call occurs [#__f_removechain] ; |1862| 
    7309 00000f46       L281:    
    7310 00000f46 FEB6          SUBB      SP,#54                ; |1868| 
    7311 00000f47 8BBE          MOVL      XAR1,*--SP            ; |1868| 
    7312                      .dwpsn  "fat.c",1869,1
    7313 00000f48 0006          LRETR
    7314                      ; return occurs
    7315              
    7316              DW$491  .dwtag  DW_TAG_loop
    7317                      .dwattr DW$491, DW_AT_name("D:\DEV\Amot\BearingWear\XTSW_V6_20\fat.asm:L280:1:1471518973")
    7318                      .dwattr DW$491, DW_AT_begin_file("fat.c")
    7319                      .dwattr DW$491, DW_AT_begin_line(0x730)
    7320                      .dwattr DW$491, DW_AT_end_line(0x73e)
    7321              DW$492  .dwtag  DW_TAG_loop_range
    7322                      .dwattr DW$492, DW_AT_low_pc(DW$L$_fn_rmdir$22$B)
    7323                      .dwattr DW$492, DW_AT_high_pc(DW$L$_fn_rmdir$22$E)
    7324              DW$493  .dwtag  DW_TAG_loop_range
    7325                      .dwattr DW$493, DW_AT_low_pc(DW$L$_fn_rmdir$14$B)
    7326                      .dwattr DW$493, DW_AT_high_pc(DW$L$_fn_rmdir$14$E)
    7327              DW$494  .dwtag  DW_TAG_loop_range
    7328                      .dwattr DW$494, DW_AT_low_pc(DW$L$_fn_rmdir$15$B)
    7329                      .dwattr DW$494, DW_AT_high_pc(DW$L$_fn_rmdir$15$E)
    7330              DW$495  .dwtag  DW_TAG_loop_range
    7331                      .dwattr DW$495, DW_AT_low_pc(DW$L$_fn_rmdir$21$B)
    7332                      .dwattr DW$495, DW_AT_high_pc(DW$L$_fn_rmdir$21$E)
    7333              
    7334              DW$496  .dwtag  DW_TAG_loop
    7335                      .dwattr DW$496, DW_AT_name("D:\DEV\Amot\BearingWear\XTSW_V6_20\fat.asm:L277:2:1471518973")
    7336                      .dwattr DW$496, DW_AT_begin_file("fat.c")
    7337                      .dwattr DW$496, DW_AT_begin_line(0x737)
    7338                      .dwattr DW$496, DW_AT_end_line(0x73d)
    7339              DW$497  .dwtag  DW_TAG_loop_range
TMS320C2000 COFF Assembler PC v4.1.3 Thu Aug 18 12:16:14 2016

Tools Copyright (c) 1996-2006 Texas Instruments Incorporated
fat.asm                                                              PAGE  146

    7340                      .dwattr DW$497, DW_AT_low_pc(DW$L$_fn_rmdir$16$B)
    7341                      .dwattr DW$497, DW_AT_high_pc(DW$L$_fn_rmdir$16$E)
    7342              DW$498  .dwtag  DW_TAG_loop_range
    7343                      .dwattr DW$498, DW_AT_low_pc(DW$L$_fn_rmdir$17$B)
    7344                      .dwattr DW$498, DW_AT_high_pc(DW$L$_fn_rmdir$17$E)
    7345              DW$499  .dwtag  DW_TAG_loop_range
    7346                      .dwattr DW$499, DW_AT_low_pc(DW$L$_fn_rmdir$18$B)
    7347                      .dwattr DW$499, DW_AT_high_pc(DW$L$_fn_rmdir$18$E)
    7348              DW$500  .dwtag  DW_TAG_loop_range
    7349                      .dwattr DW$500, DW_AT_low_pc(DW$L$_fn_rmdir$20$B)
    7350                      .dwattr DW$500, DW_AT_high_pc(DW$L$_fn_rmdir$20$E)
    7351                      .dwendtag DW$496
    7352              
    7353                      .dwendtag DW$491
    7354              
    7355                      .dwattr DW$488, DW_AT_end_file("fat.c")
    7356                      .dwattr DW$488, DW_AT_end_line(0x74d)
    7357                      .dwattr DW$488, DW_AT_end_column(0x01)
    7358                      .dwendtag DW$488
    7359              
    7360 00000f49               .sect   ".text"
    7361                      .global _fn_getlabel
    7362              
    7363              DW$501  .dwtag  DW_TAG_subprogram, DW_AT_name("fn_getlabel"), DW_AT_symbol_name("_fn_getlabel")
    7364                      .dwattr DW$501, DW_AT_low_pc(_fn_getlabel)
    7365                      .dwattr DW$501, DW_AT_high_pc(0x00)
    7366                      .dwattr DW$501, DW_AT_begin_file("fat.c")
    7367                      .dwattr DW$501, DW_AT_begin_line(0x762)
    7368                      .dwattr DW$501, DW_AT_begin_column(0x05)
    7369                      .dwattr DW$501, DW_AT_frame_base[DW_OP_breg20 -36]
    7370                      .dwattr DW$501, DW_AT_skeletal(0x01)
    7371                      .dwpsn  "fat.c",1890,66
    7372              
    7373              ;***************************************************************
    7374              ;* FNAME: _fn_getlabel                  FR SIZE:  34           *
    7375              ;*                                                             *
    7376              ;* FUNCTION ENVIRONMENT                                        *
    7377              ;*                                                             *
    7378              ;* FUNCTION PROPERTIES                                         *
    7379              ;*                            0 Parameter, 28 Auto,  6 SOE     *
    7380              ;***************************************************************
    7381              
    7382              _fn_getlabel:
    7383              ;* AR4   assigned to _fm
    7384              DW$502  .dwtag  DW_TAG_formal_parameter, DW_AT_name("fm"), DW_AT_symbol_name("_fm")
    7385                      .dwattr DW$502, DW_AT_type(*DW$T$117)
    7386                      .dwattr DW$502, DW_AT_location[DW_OP_reg12]
    7387              DW$503  .dwtag  DW_TAG_formal_parameter, DW_AT_name("drivenum"), DW_AT_symbol_name("_drivenum")
    7388                      .dwattr DW$503, DW_AT_type(*DW$T$10)
    7389                      .dwattr DW$503, DW_AT_location[DW_OP_breg20 -37]
    7390              ;* AR5   assigned to _label
    7391              DW$504  .dwtag  DW_TAG_formal_parameter, DW_AT_name("label"), DW_AT_symbol_name("_label")
    7392                      .dwattr DW$504, DW_AT_type(*DW$T$59)
    7393                      .dwattr DW$504, DW_AT_location[DW_OP_reg14]
    7394              ;* AL    assigned to _len
TMS320C2000 COFF Assembler PC v4.1.3 Thu Aug 18 12:16:14 2016

Tools Copyright (c) 1996-2006 Texas Instruments Incorporated
fat.asm                                                              PAGE  147

    7395              DW$505  .dwtag  DW_TAG_formal_parameter, DW_AT_name("len"), DW_AT_symbol_name("_len")
    7396                      .dwattr DW$505, DW_AT_type(*DW$T$12)
    7397                      .dwattr DW$505, DW_AT_location[DW_OP_reg0]
    7398 00000f49 B2BD          MOVL      *SP++,XAR1
    7399 00000f4a AABD          MOVL      *SP++,XAR2
    7400 00000f4b A2BD          MOVL      *SP++,XAR3
    7401 00000f4c FE1C          ADDB      SP,#28
    7402 00000f4d 8BA5          MOVL      XAR1,XAR5             ; |1890| 
    7403 00000f4e FF58          TEST      ACC                   ; |1896| 
    7404 00000f4f 82A9          MOVL      XAR3,ACC              ; |1890| 
    7405 00000f50 8865          MOVZ      AR6,*-SP[37]          ; |1890| 
    7406 00000f51 56C1          BF        L294,EQ               ; |1896| 
         00000f52 00B5 
    7407                      ; branchcc occurs ; |1896| 
    7408 00000f53 5DAD          MOVZ      AR5,SP                ; |1898| 
    7409 00000f54 92A6          MOV       AL,AR6                ; |1898| 
    7410 00000f55 DD84          SUBB      XAR5,#4               ; |1898| 
    7411 00000f56 7640!         LCR       #__f_getvolume        ; |1898| 
         00000f57 0000 
    7412                      ; call occurs [#__f_getvolume] ; |1898| 
    7413 00000f58 5200          CMPB      AL,#0                 ; |1898| 
    7414 00000f59 56C0          BF        L295,NEQ              ; |1898| 
         00000f5a 00AE 
    7415                      ; branchcc occurs ; |1898| 
    7416 00000f5b 5DAD          MOVZ      AR5,SP                ; |1901| 
    7417 00000f5c 8A44          MOVL      XAR4,*-SP[4]          ; |1901| 
    7418 00000f5d 0200          MOVB      ACC,#0
    7419 00000f5e DD9C          SUBB      XAR5,#28              ; |1901| 
    7420 00000f5f 7640!         LCR       #__f_clustertopos     ; |1901| 
         00000f60 0000 
    7421                      ; call occurs [#__f_clustertopos] ; |1901| 
    7422 00000f61 5CAD          MOVZ      AR4,SP                ; |1902| 
    7423 00000f62 8344          MOVL      XAR5,*-SP[4]          ; |1902| 
    7424 00000f63 020B          MOVB      ACC,#11
    7425 00000f64 DC8F          SUBB      XAR4,#15              ; |1902| 
    7426 00000f65 DD34          ADDB      XAR5,#52              ; |1902| 
    7427 00000f66 7640!         LCR       #___memcpy_ff         ; |1902| 
         00000f67 0000 
    7428                      ; call occurs [#___memcpy_ff] ; |1902| 
    7429 00000f68 28A9          MOV       AL,#65520
         00000f69 FFF0 
    7430 00000f6a 28A8          MOV       AH,#4095
         00000f6b 0FFF 
    7431 00000f6c 0F5C          CMPL      ACC,*-SP[28]          ; |1904| 
    7432 00000f6d 56C9          BF        L290,LOS              ; |1904| 
         00000f6e 006D 
    7433                      ; branchcc occurs ; |1904| 
    7434              L282:    
    7435              DW$L$_fn_getlabel$4$B:
    7436                      .dwpsn  "fat.c",1904,0
    7437 00000f6f 0654          MOVL      ACC,*-SP[20]          ; |1905| 
    7438 00000f70 0F56          CMPL      ACC,*-SP[22]          ; |1905| 
    7439 00000f71 56C9          BF        L288,LOS              ; |1905| 
         00000f72 0041 
    7440                      ; branchcc occurs ; |1905| 
TMS320C2000 COFF Assembler PC v4.1.3 Thu Aug 18 12:16:14 2016

Tools Copyright (c) 1996-2006 Texas Instruments Incorporated
fat.asm                                                              PAGE  148

    7441              DW$L$_fn_getlabel$4$E:
    7442              L283:    
    7443              DW$L$_fn_getlabel$5$B:
    7444                      .dwpsn  "fat.c",1905,0
    7445 00000f73 0644          MOVL      ACC,*-SP[4]           ; |1906| 
    7446 00000f74 8F00          MOVL      XAR4,#602             ; |1906| 
         00000f75 025A 
    7447 00000f76 5601          ADDL      XAR4,ACC
         00000f77 00A4 
    7448 00000f78 86A4          MOVL      XAR2,XAR4             ; |1906| 
    7449 00000f79 8A44          MOVL      XAR4,*-SP[4]          ; |1908| 
    7450 00000f7a 0656          MOVL      ACC,*-SP[22]          ; |1908| 
    7451 00000f7b 7640'         LCR       #__f_getdirsector     ; |1908| 
         00000f7c 0000 
    7452                      ; call occurs [#__f_getdirsector] ; |1908| 
    7453 00000f7d 5200          CMPB      AL,#0                 ; |1908| 
    7454 00000f7e 56C0          BF        L295,NEQ              ; |1908| 
         00000f7f 0089 
    7455                      ; branchcc occurs ; |1908| 
    7456 00000f80       DW$L$_fn_getlabel$5$E:
    7457 00000f80       DW$L$_fn_getlabel$6$B:
    7458 00000f80 0200          MOVB      ACC,#0
    7459 00000f81 1E52          MOVL      *-SP[18],ACC          ; |1911| 
    7460 00000f82 0210          MOVB      ACC,#16
    7461 00000f83 0F52          CMPL      ACC,*-SP[18]          ; |1911| 
    7462 00000f84 56C9          BF        L287,LOS              ; |1911| 
         00000f85 0027 
    7463                      ; branchcc occurs ; |1911| 
    7464              DW$L$_fn_getlabel$6$E:
    7465              L284:    
    7466              DW$L$_fn_getlabel$7$B:
    7467                      .dwpsn  "fat.c",1911,0
    7468 00000f86 83A2          MOVL      XAR5,XAR2
    7469 00000f87 92C5          MOV       AL,*+XAR5[0]          ; |1913| 
    7470 00000f88 EC07          BF        L285,EQ               ; |1913| 
    7471                      ; branchcc occurs ; |1913| 
    7472 00000f89       DW$L$_fn_getlabel$7$E:
    7473 00000f89       DW$L$_fn_getlabel$8$B:
    7474 00000f89 52E5          CMPB      AL,#229               ; |1913| 
    7475 00000f8a EC05          BF        L285,EQ               ; |1913| 
    7476                      ; branchcc occurs ; |1913| 
    7477 00000f8b       DW$L$_fn_getlabel$8$E:
    7478 00000f8b       DW$L$_fn_getlabel$9$B:
    7479 00000f8b D00B          MOVB      XAR0,#11              ; |1913| 
    7480 00000f8c 9292          MOV       AL,*+XAR2[AR0]        ; |1913| 
    7481 00000f8d 5208          CMPB      AL,#8                 ; |1913| 
    7482 00000f8e EC0E          BF        L286,EQ               ; |1913| 
    7483                      ; branchcc occurs ; |1913| 
    7484 00000f8f       DW$L$_fn_getlabel$9$E:
    7485 00000f8f       L285:    
    7486 00000f8f       DW$L$_fn_getlabel$10$B:
    7487 00000f8f AAA9          MOVL      ACC,XAR2              ; |1911| 
    7488 00000f90 D420          MOVB      XAR4,#32              ; |1911| 
    7489 00000f91 0DA4          ADDU      ACC,AR4               ; |1911| 
    7490 00000f92 86A9          MOVL      XAR2,ACC              ; |1911| 
TMS320C2000 COFF Assembler PC v4.1.3 Thu Aug 18 12:16:14 2016

Tools Copyright (c) 1996-2006 Texas Instruments Incorporated
fat.asm                                                              PAGE  149

    7491 00000f93 0201          MOVB      ACC,#1
    7492 00000f94 0752          ADDL      ACC,*-SP[18]          ; |1911| 
    7493 00000f95 1E52          MOVL      *-SP[18],ACC          ; |1911| 
    7494 00000f96 0210          MOVB      ACC,#16
    7495 00000f97 0F52          CMPL      ACC,*-SP[18]          ; |1911| 
    7496                      .dwpsn  "fat.c",1920,0
    7497 00000f98 56C6          BF        L284,HI               ; |1911| 
         00000f99 FFEE 
    7498                      ; branchcc occurs ; |1911| 
    7499 00000f9a       DW$L$_fn_getlabel$10$E:
    7500 00000f9a       DW$L$_fn_getlabel$11$B:
    7501 00000f9a 56CF          BF        L287,UNC              ; |1911| 
         00000f9b 0011 
    7502                      ; branch occurs ; |1911| 
    7503 00000f9c       DW$L$_fn_getlabel$11$E:
    7504 00000f9c       L286:    
    7505 00000f9c 5CAD          MOVZ      AR4,SP                ; |1916| 
    7506 00000f9d 0208          MOVB      ACC,#8
    7507 00000f9e DC8F          SUBB      XAR4,#15              ; |1916| 
    7508 00000f9f 7640!         LCR       #___memcpy_ff         ; |1916| 
         00000fa0 0000 
    7509                      ; call occurs [#___memcpy_ff] ; |1916| 
    7510 00000fa1 5CAD          MOVZ      AR4,SP                ; |1917| 
    7511 00000fa2 0208          MOVB      ACC,#8
    7512 00000fa3 07A2          ADDL      ACC,XAR2
    7513 00000fa4 83A9          MOVL      XAR5,ACC              ; |1917| 
    7514 00000fa5 DC87          SUBB      XAR4,#7               ; |1917| 
    7515 00000fa6 0203          MOVB      ACC,#3
    7516 00000fa7 7640!         LCR       #___memcpy_ff         ; |1917| 
         00000fa8 0000 
    7517                      ; call occurs [#___memcpy_ff] ; |1917| 
    7518 00000fa9 56CF          BF        L290,UNC              ; |1918| 
         00000faa 0031 
    7519                      ; branch occurs ; |1918| 
    7520 00000fab       L287:    
    7521 00000fab       DW$L$_fn_getlabel$13$B:
    7522 00000fab 0201          MOVB      ACC,#1
    7523 00000fac 0756          ADDL      ACC,*-SP[22]          ; |1905| 
    7524 00000fad 1E56          MOVL      *-SP[22],ACC          ; |1905| 
    7525 00000fae 0654          MOVL      ACC,*-SP[20]          ; |1905| 
    7526 00000faf 0F56          CMPL      ACC,*-SP[22]          ; |1905| 
    7527                      .dwpsn  "fat.c",1921,0
    7528 00000fb0 56C6          BF        L283,HI               ; |1905| 
         00000fb1 FFC3 
    7529                      ; branchcc occurs ; |1905| 
    7530 00000fb2       DW$L$_fn_getlabel$13$E:
    7531 00000fb2       L288:    
    7532 00000fb2       DW$L$_fn_getlabel$14$B:
    7533 00000fb2 065C          MOVL      ACC,*-SP[28]          ; |1923| 
    7534 00000fb3 ED0B          BF        L289,NEQ              ; |1923| 
    7535                      ; branchcc occurs ; |1923| 
    7536 00000fb4       DW$L$_fn_getlabel$14$E:
    7537 00000fb4       DW$L$_fn_getlabel$15$B:
    7538 00000fb4 8D00          MOVL      XAR0,#1136            ; |1924| 
         00000fb5 0470 
TMS320C2000 COFF Assembler PC v4.1.3 Thu Aug 18 12:16:14 2016

Tools Copyright (c) 1996-2006 Texas Instruments Incorporated
fat.asm                                                              PAGE  150

    7539 00000fb6 8A44          MOVL      XAR4,*-SP[4]          ; |1924| 
    7540 00000fb7 0203          MOVB      ACC,#3
    7541 00000fb8 0F94          CMPL      ACC,*+XAR4[AR0]       ; |1924| 
    7542 00000fb9 ED21          BF        L290,NEQ              ; |1924| 
    7543                      ; branchcc occurs ; |1924| 
    7544 00000fba       DW$L$_fn_getlabel$15$E:
    7545 00000fba       DW$L$_fn_getlabel$16$B:
    7546 00000fba 8A44          MOVL      XAR4,*-SP[4]          ; |1925| 
    7547 00000fbb D020          MOVB      XAR0,#32              ; |1925| 
    7548 00000fbc 0694          MOVL      ACC,*+XAR4[AR0]       ; |1925| 
    7549 00000fbd 1E5C          MOVL      *-SP[28],ACC          ; |1925| 
    7550 00000fbe       DW$L$_fn_getlabel$16$E:
    7551 00000fbe       L289:    
    7552 00000fbe       DW$L$_fn_getlabel$17$B:
    7553 00000fbe 5DAD          MOVZ      AR5,SP                ; |1932| 
    7554 00000fbf 8A44          MOVL      XAR4,*-SP[4]          ; |1932| 
    7555 00000fc0 065C          MOVL      ACC,*-SP[28]          ; |1932| 
    7556 00000fc1 DD82          SUBB      XAR5,#2               ; |1932| 
    7557 00000fc2 7640!         LCR       #__f_getclustervalue  ; |1932| 
         00000fc3 0000 
    7558                      ; call occurs [#__f_getclustervalue] ; |1932| 
    7559 00000fc4 5200          CMPB      AL,#0                 ; |1932| 
    7560 00000fc5 ED15          BF        L290,NEQ              ; |1932| 
    7561                      ; branchcc occurs ; |1932| 
    7562 00000fc6       DW$L$_fn_getlabel$17$E:
    7563 00000fc6       DW$L$_fn_getlabel$18$B:
    7564 00000fc6 28A9          MOV       AL,#65520
         00000fc7 FFF0 
    7565 00000fc8 28A8          MOV       AH,#4095
         00000fc9 0FFF 
    7566 00000fca 0F42          CMPL      ACC,*-SP[2]           ; |1932| 
    7567 00000fcb 56C9          BF        L290,LOS              ; |1932| 
         00000fcc 000F 
    7568                      ; branchcc occurs ; |1932| 
    7569 00000fcd       DW$L$_fn_getlabel$18$E:
    7570 00000fcd       DW$L$_fn_getlabel$19$B:
    7571 00000fcd 5DAD          MOVZ      AR5,SP                ; |1936| 
    7572 00000fce 8A44          MOVL      XAR4,*-SP[4]          ; |1936| 
    7573 00000fcf 0642          MOVL      ACC,*-SP[2]           ; |1936| 
    7574 00000fd0 DD9C          SUBB      XAR5,#28              ; |1936| 
    7575 00000fd1 7640!         LCR       #__f_clustertopos     ; |1936| 
         00000fd2 0000 
    7576                      ; call occurs [#__f_clustertopos] ; |1936| 
    7577 00000fd3 28A9          MOV       AL,#65520
         00000fd4 FFF0 
    7578 00000fd5 28A8          MOV       AH,#4095
         00000fd6 0FFF 
    7579 00000fd7 0F5C          CMPL      ACC,*-SP[28]          ; |1936| 
    7580                      .dwpsn  "fat.c",1938,0
    7581 00000fd8 56C6          BF        L282,HI               ; |1936| 
         00000fd9 FF97 
    7582                      ; branchcc occurs ; |1936| 
    7583 00000fda       DW$L$_fn_getlabel$19$E:
    7584 00000fda       L290:    
    7585 00000fda BE00          MOVB      XAR6,#0
TMS320C2000 COFF Assembler PC v4.1.3 Thu Aug 18 12:16:14 2016

Tools Copyright (c) 1996-2006 Texas Instruments Incorporated
fat.asm                                                              PAGE  151

    7586                      .dwpsn  "fat.c",1942,0
    7587 00000fdb DB81          SUBB      XAR3,#1               ; |1941| 
    7588 00000fdc       L291:    
    7589 00000fdc       DW$L$_fn_getlabel$21$B:
    7590 00000fdc A2A9          MOVL      ACC,XAR3
    7591 00000fdd 0FA6          CMPL      ACC,XAR6              ; |1942| 
    7592 00000fde 56C5          BF        L292,LEQ              ; |1942| 
         00000fdf 0014 
    7593                      ; branchcc occurs ; |1942| 
    7594 00000fe0       DW$L$_fn_getlabel$21$E:
    7595 00000fe0       DW$L$_fn_getlabel$22$B:
    7596 00000fe0 5CAD          MOVZ      AR4,SP                ; |1944| 
    7597 00000fe1 06A6          MOVL      ACC,XAR6              ; |1944| 
    7598 00000fe2 DC8F          SUBB      XAR4,#15              ; |1944| 
    7599 00000fe3 5601          ADDL      XAR4,ACC
         00000fe4 00A4 
    7600 00000fe5 80C4          MOVZ      AR7,*+XAR4[0]         ; |1944| 
    7601 00000fe6 8AA1          MOVL      XAR4,XAR1             ; |1944| 
    7602 00000fe7 06A6          MOVL      ACC,XAR6              ; |1944| 
    7603 00000fe8 5601          ADDL      XAR4,ACC
         00000fe9 00A4 
    7604 00000fea 06A6          MOVL      ACC,XAR6              ; |1944| 
    7605 00000feb 0901          ADDB      ACC,#1                ; |1942| 
    7606 00000fec 1EA6          MOVL      XAR6,ACC              ; |1942| 
    7607 00000fed 020B          MOVB      ACC,#11
    7608 00000fee 0FA6          CMPL      ACC,XAR6              ; |1942| 
    7609 00000fef 7FC4          MOV       *+XAR4[0],AR7         ; |1944| 
    7610                      .dwpsn  "fat.c",1946,0
    7611 00000ff0 56C2          BF        L291,GT               ; |1942| 
         00000ff1 FFEC 
    7612                      ; branchcc occurs ; |1942| 
    7613 00000ff2       DW$L$_fn_getlabel$22$E:
    7614 00000ff2       L292:    
    7615 00000ff2 8AA1          MOVL      XAR4,XAR1             ; |1947| 
    7616 00000ff3 06A6          MOVL      ACC,XAR6              ; |1947| 
    7617 00000ff4 5601          ADDL      XAR4,ACC
         00000ff5 00A4 
    7618 00000ff6 06A6          MOVL      ACC,XAR6              ; |1947| 
    7619 00000ff7 2BC4          MOV       *+XAR4[0],#0          ; |1947| 
    7620 00000ff8 56C4          BF        L294,LT               ; |1949| 
         00000ff9 000E 
    7621                      ; branchcc occurs ; |1949| 
    7622              L293:    
    7623              DW$L$_fn_getlabel$24$B:
    7624                      .dwpsn  "fat.c",1949,0
    7625 00000ffa B2A9          MOVL      ACC,XAR1              ; |1950| 
    7626 00000ffb 07A6          ADDL      ACC,XAR6
    7627 00000ffc 8AA9          MOVL      XAR4,ACC              ; |1950| 
    7628 00000ffd 92C4          MOV       AL,*+XAR4[0]          ; |1950| 
    7629 00000ffe 5220          CMPB      AL,#32                ; |1950| 
    7630 00000fff 56C2          BF        L294,GT               ; |1950| 
         00001000 0007 
    7631                      ; branchcc occurs ; |1950| 
    7632 00001001       DW$L$_fn_getlabel$24$E:
    7633 00001001       DW$L$_fn_getlabel$25$B:
TMS320C2000 COFF Assembler PC v4.1.3 Thu Aug 18 12:16:14 2016

Tools Copyright (c) 1996-2006 Texas Instruments Incorporated
fat.asm                                                              PAGE  152

    7634 00001001 DE81          SUBB      XAR6,#1               ; |1950| 
    7635 00001002 2BC4          MOV       *+XAR4[0],#0          ; |1950| 
    7636 00001003 06A6          MOVL      ACC,XAR6              ; |1950| 
    7637                      .dwpsn  "fat.c",1952,0
    7638 00001004 56C3          BF        L293,GEQ              ; |1950| 
         00001005 FFF6 
    7639                      ; branchcc occurs ; |1950| 
    7640 00001006       DW$L$_fn_getlabel$25$E:
    7641 00001006       L294:    
    7642 00001006 9A00          MOVB      AL,#0
    7643 00001007       L295:    
    7644 00001007 FE9C          SUBB      SP,#28                ; |1954| 
    7645 00001008 82BE          MOVL      XAR3,*--SP            ; |1954| 
    7646 00001009 86BE          MOVL      XAR2,*--SP            ; |1954| 
    7647 0000100a 8BBE          MOVL      XAR1,*--SP            ; |1954| 
    7648                      .dwpsn  "fat.c",1955,1
    7649 0000100b 0006          LRETR
    7650                      ; return occurs
    7651              
    7652              DW$506  .dwtag  DW_TAG_loop
    7653                      .dwattr DW$506, DW_AT_name("D:\DEV\Amot\BearingWear\XTSW_V6_20\fat.asm:L293:1:1471518973")
    7654                      .dwattr DW$506, DW_AT_begin_file("fat.c")
    7655                      .dwattr DW$506, DW_AT_begin_line(0x79d)
    7656                      .dwattr DW$506, DW_AT_end_line(0x7a0)
    7657              DW$507  .dwtag  DW_TAG_loop_range
    7658                      .dwattr DW$507, DW_AT_low_pc(DW$L$_fn_getlabel$24$B)
    7659                      .dwattr DW$507, DW_AT_high_pc(DW$L$_fn_getlabel$24$E)
    7660              DW$508  .dwtag  DW_TAG_loop_range
    7661                      .dwattr DW$508, DW_AT_low_pc(DW$L$_fn_getlabel$25$B)
    7662                      .dwattr DW$508, DW_AT_high_pc(DW$L$_fn_getlabel$25$E)
    7663                      .dwendtag DW$506
    7664              
    7665              
    7666              DW$509  .dwtag  DW_TAG_loop
    7667                      .dwattr DW$509, DW_AT_name("D:\DEV\Amot\BearingWear\XTSW_V6_20\fat.asm:L291:1:1471518973")
    7668                      .dwattr DW$509, DW_AT_begin_file("fat.c")
    7669                      .dwattr DW$509, DW_AT_begin_line(0x796)
    7670                      .dwattr DW$509, DW_AT_end_line(0x79a)
    7671              DW$510  .dwtag  DW_TAG_loop_range
    7672                      .dwattr DW$510, DW_AT_low_pc(DW$L$_fn_getlabel$21$B)
    7673                      .dwattr DW$510, DW_AT_high_pc(DW$L$_fn_getlabel$21$E)
    7674              DW$511  .dwtag  DW_TAG_loop_range
    7675                      .dwattr DW$511, DW_AT_low_pc(DW$L$_fn_getlabel$22$B)
    7676                      .dwattr DW$511, DW_AT_high_pc(DW$L$_fn_getlabel$22$E)
    7677                      .dwendtag DW$509
    7678              
    7679              
    7680              DW$512  .dwtag  DW_TAG_loop
    7681                      .dwattr DW$512, DW_AT_name("D:\DEV\Amot\BearingWear\XTSW_V6_20\fat.asm:L282:1:1471518973")
    7682                      .dwattr DW$512, DW_AT_begin_file("fat.c")
    7683                      .dwattr DW$512, DW_AT_begin_line(0x770)
    7684                      .dwattr DW$512, DW_AT_end_line(0x792)
    7685              DW$513  .dwtag  DW_TAG_loop_range
    7686                      .dwattr DW$513, DW_AT_low_pc(DW$L$_fn_getlabel$4$B)
    7687                      .dwattr DW$513, DW_AT_high_pc(DW$L$_fn_getlabel$4$E)
TMS320C2000 COFF Assembler PC v4.1.3 Thu Aug 18 12:16:14 2016

Tools Copyright (c) 1996-2006 Texas Instruments Incorporated
fat.asm                                                              PAGE  153

    7688              DW$514  .dwtag  DW_TAG_loop_range
    7689                      .dwattr DW$514, DW_AT_low_pc(DW$L$_fn_getlabel$15$B)
    7690                      .dwattr DW$514, DW_AT_high_pc(DW$L$_fn_getlabel$15$E)
    7691              DW$515  .dwtag  DW_TAG_loop_range
    7692                      .dwattr DW$515, DW_AT_low_pc(DW$L$_fn_getlabel$14$B)
    7693                      .dwattr DW$515, DW_AT_high_pc(DW$L$_fn_getlabel$14$E)
    7694              DW$516  .dwtag  DW_TAG_loop_range
    7695                      .dwattr DW$516, DW_AT_low_pc(DW$L$_fn_getlabel$16$B)
    7696                      .dwattr DW$516, DW_AT_high_pc(DW$L$_fn_getlabel$16$E)
    7697              DW$517  .dwtag  DW_TAG_loop_range
    7698                      .dwattr DW$517, DW_AT_low_pc(DW$L$_fn_getlabel$17$B)
    7699                      .dwattr DW$517, DW_AT_high_pc(DW$L$_fn_getlabel$17$E)
    7700              DW$518  .dwtag  DW_TAG_loop_range
    7701                      .dwattr DW$518, DW_AT_low_pc(DW$L$_fn_getlabel$18$B)
    7702                      .dwattr DW$518, DW_AT_high_pc(DW$L$_fn_getlabel$18$E)
    7703              DW$519  .dwtag  DW_TAG_loop_range
    7704                      .dwattr DW$519, DW_AT_low_pc(DW$L$_fn_getlabel$19$B)
    7705                      .dwattr DW$519, DW_AT_high_pc(DW$L$_fn_getlabel$19$E)
    7706              
    7707              DW$520  .dwtag  DW_TAG_loop
    7708                      .dwattr DW$520, DW_AT_name("D:\DEV\Amot\BearingWear\XTSW_V6_20\fat.asm:L283:2:1471518973")
    7709                      .dwattr DW$520, DW_AT_begin_file("fat.c")
    7710                      .dwattr DW$520, DW_AT_begin_line(0x771)
    7711                      .dwattr DW$520, DW_AT_end_line(0x781)
    7712              DW$521  .dwtag  DW_TAG_loop_range
    7713                      .dwattr DW$521, DW_AT_low_pc(DW$L$_fn_getlabel$5$B)
    7714                      .dwattr DW$521, DW_AT_high_pc(DW$L$_fn_getlabel$5$E)
    7715              DW$522  .dwtag  DW_TAG_loop_range
    7716                      .dwattr DW$522, DW_AT_low_pc(DW$L$_fn_getlabel$6$B)
    7717                      .dwattr DW$522, DW_AT_high_pc(DW$L$_fn_getlabel$6$E)
    7718              DW$523  .dwtag  DW_TAG_loop_range
    7719                      .dwattr DW$523, DW_AT_low_pc(DW$L$_fn_getlabel$11$B)
    7720                      .dwattr DW$523, DW_AT_high_pc(DW$L$_fn_getlabel$11$E)
    7721              DW$524  .dwtag  DW_TAG_loop_range
    7722                      .dwattr DW$524, DW_AT_low_pc(DW$L$_fn_getlabel$13$B)
    7723                      .dwattr DW$524, DW_AT_high_pc(DW$L$_fn_getlabel$13$E)
    7724              
    7725              DW$525  .dwtag  DW_TAG_loop
    7726                      .dwattr DW$525, DW_AT_name("D:\DEV\Amot\BearingWear\XTSW_V6_20\fat.asm:L284:3:1471518973")
    7727                      .dwattr DW$525, DW_AT_begin_file("fat.c")
    7728                      .dwattr DW$525, DW_AT_begin_line(0x777)
    7729                      .dwattr DW$525, DW_AT_end_line(0x780)
    7730              DW$526  .dwtag  DW_TAG_loop_range
    7731                      .dwattr DW$526, DW_AT_low_pc(DW$L$_fn_getlabel$7$B)
    7732                      .dwattr DW$526, DW_AT_high_pc(DW$L$_fn_getlabel$7$E)
    7733              DW$527  .dwtag  DW_TAG_loop_range
    7734                      .dwattr DW$527, DW_AT_low_pc(DW$L$_fn_getlabel$8$B)
    7735                      .dwattr DW$527, DW_AT_high_pc(DW$L$_fn_getlabel$8$E)
    7736              DW$528  .dwtag  DW_TAG_loop_range
    7737                      .dwattr DW$528, DW_AT_low_pc(DW$L$_fn_getlabel$9$B)
    7738                      .dwattr DW$528, DW_AT_high_pc(DW$L$_fn_getlabel$9$E)
    7739              DW$529  .dwtag  DW_TAG_loop_range
    7740                      .dwattr DW$529, DW_AT_low_pc(DW$L$_fn_getlabel$10$B)
    7741                      .dwattr DW$529, DW_AT_high_pc(DW$L$_fn_getlabel$10$E)
    7742                      .dwendtag DW$525
TMS320C2000 COFF Assembler PC v4.1.3 Thu Aug 18 12:16:14 2016

Tools Copyright (c) 1996-2006 Texas Instruments Incorporated
fat.asm                                                              PAGE  154

    7743              
    7744                      .dwendtag DW$520
    7745              
    7746                      .dwendtag DW$512
    7747              
    7748                      .dwattr DW$501, DW_AT_end_file("fat.c")
    7749                      .dwattr DW$501, DW_AT_end_line(0x7a3)
    7750                      .dwattr DW$501, DW_AT_end_column(0x01)
    7751                      .dwendtag DW$501
    7752              
    7753 0000100c               .sect   ".text"
    7754                      .global _fn_setlabel
    7755              
    7756              DW$530  .dwtag  DW_TAG_subprogram, DW_AT_name("fn_setlabel"), DW_AT_symbol_name("_fn_setlabel")
    7757                      .dwattr DW$530, DW_AT_low_pc(_fn_setlabel)
    7758                      .dwattr DW$530, DW_AT_high_pc(0x00)
    7759                      .dwattr DW$530, DW_AT_begin_file("fat.c")
    7760                      .dwattr DW$530, DW_AT_begin_line(0x7b6)
    7761                      .dwattr DW$530, DW_AT_begin_column(0x05)
    7762                      .dwattr DW$530, DW_AT_frame_base[DW_OP_breg20 -74]
    7763                      .dwattr DW$530, DW_AT_skeletal(0x01)
    7764                      .dwpsn  "fat.c",1974,62
    7765              
    7766              ;***************************************************************
    7767              ;* FNAME: _fn_setlabel                  FR SIZE:  72           *
    7768              ;*                                                             *
    7769              ;* FUNCTION ENVIRONMENT                                        *
    7770              ;*                                                             *
    7771              ;* FUNCTION PROPERTIES                                         *
    7772              ;*                            4 Parameter, 62 Auto,  6 SOE     *
    7773              ;***************************************************************
    7774              
    7775              _fn_setlabel:
    7776              ;* AR4   assigned to _fm
    7777              DW$531  .dwtag  DW_TAG_formal_parameter, DW_AT_name("fm"), DW_AT_symbol_name("_fm")
    7778                      .dwattr DW$531, DW_AT_type(*DW$T$117)
    7779                      .dwattr DW$531, DW_AT_location[DW_OP_reg12]
    7780              ;* AL    assigned to _drivenum
    7781              DW$532  .dwtag  DW_TAG_formal_parameter, DW_AT_name("drivenum"), DW_AT_symbol_name("_drivenum")
    7782                      .dwattr DW$532, DW_AT_type(*DW$T$10)
    7783                      .dwattr DW$532, DW_AT_location[DW_OP_reg0]
    7784              ;* AR5   assigned to _label
    7785              DW$533  .dwtag  DW_TAG_formal_parameter, DW_AT_name("label"), DW_AT_symbol_name("_label")
    7786                      .dwattr DW$533, DW_AT_type(*DW$T$146)
    7787                      .dwattr DW$533, DW_AT_location[DW_OP_reg14]
    7788 0000100c B2BD          MOVL      *SP++,XAR1
    7789 0000100d AABD          MOVL      *SP++,XAR2
    7790 0000100e 8BA5          MOVL      XAR1,XAR5             ; |1974| 
    7791 0000100f A2BD          MOVL      *SP++,XAR3
    7792 00001010 5AAD          MOVZ      AR2,SP
    7793 00001011 FE42          ADDB      SP,#66
    7794 00001012 5DAD          MOVZ      AR5,SP                ; |1983| 
    7795 00001013 5BA9          MOVZ      AR3,AL                ; |1974| 
    7796 00001014 DD8A          SUBB      XAR5,#10              ; |1983| 
    7797 00001015 7640!         LCR       #__f_getvolume        ; |1983| 
TMS320C2000 COFF Assembler PC v4.1.3 Thu Aug 18 12:16:14 2016

Tools Copyright (c) 1996-2006 Texas Instruments Incorporated
fat.asm                                                              PAGE  155

         00001016 0000 
    7798                      ; call occurs [#__f_getvolume] ; |1983| 
    7799 00001017 5200          CMPB      AL,#0                 ; |1983| 
    7800 00001018 DA88          SUBB      FP,#8
    7801 00001019 56C0          BF        L310,NEQ              ; |1983| 
         0000101a 00D1 
    7802                      ; branchcc occurs ; |1983| 
    7803 0000101b 5DAD          MOVZ      AR5,SP                ; |1986| 
    7804 0000101c 8A4A          MOVL      XAR4,*-SP[10]         ; |1986| 
    7805 0000101d 0200          MOVB      ACC,#0
    7806 0000101e DDC2          SUBB      XAR5,#66              ; |1986| 
    7807 0000101f 7640!         LCR       #__f_clustertopos     ; |1986| 
         00001020 0000 
    7808                      ; call occurs [#__f_clustertopos] ; |1986| 
    7809 00001021 B600          MOVB      XAR7,#0
    7810 00001022 3B01          SETC      SXM
    7811                      .dwpsn  "fat.c",1988,0
    7812 00001023 88A7          MOVZ      AR6,AR7               ; |1988| 
    7813 00001024       L296:    
    7814 00001024       DW$L$_fn_setlabel$3$B:
    7815 00001024 8AA1          MOVL      XAR4,XAR1             ; |1989| 
    7816 00001025 92A7          MOV       AL,AR7
    7817 00001026 85A9          MOV       ACC,AL                ; |1989| 
    7818 00001027 5601          ADDL      XAR4,ACC
         00001028 00A4 
    7819 00001029 92C4          MOV       AL,*+XAR4[0]          ; |1989| 
    7820 0000102a 5261          CMPB      AL,#97                ; |1989| 
    7821 0000102b 27A9          MOV       PL,AL                 ; |1989| 
    7822 0000102c 56C4          BF        L297,LT               ; |1989| 
         0000102d 0007 
    7823                      ; branchcc occurs ; |1989| 
    7824 0000102e       DW$L$_fn_setlabel$3$E:
    7825 0000102e       DW$L$_fn_setlabel$4$B:
    7826 0000102e 527A          CMPB      AL,#122               ; |1989| 
    7827 0000102f 56C2          BF        L297,GT               ; |1989| 
         00001030 0004 
    7828                      ; branchcc occurs ; |1989| 
    7829 00001031       DW$L$_fn_setlabel$4$E:
    7830 00001031       DW$L$_fn_setlabel$5$B:
    7831 00001031 9CE0          ADDB      AL,#-32
    7832 00001032 27A9          MOV       PL,AL                 ; |1990| 
    7833 00001033       DW$L$_fn_setlabel$5$E:
    7834 00001033       L297:    
    7835 00001033       DW$L$_fn_setlabel$6$B:
    7836 00001033 5220          CMPB      AL,#32                ; |1992| 
    7837 00001034 56C3          BF        L298,GEQ              ; |1992| 
         00001035 0006 
    7838                      ; branchcc occurs ; |1992| 
    7839 00001036       DW$L$_fn_setlabel$6$E:
    7840 00001036       DW$L$_fn_setlabel$7$B:
    7841 00001036 9A20          MOVB      AL,#32                ; |1993| 
    7842 00001037 27A9          MOV       PL,AL                 ; |1993| 
    7843 00001038 56CF          BF        L299,UNC              ; |1993| 
         00001039 0005 
    7844                      ; branch occurs ; |1993| 
TMS320C2000 COFF Assembler PC v4.1.3 Thu Aug 18 12:16:14 2016

Tools Copyright (c) 1996-2006 Texas Instruments Incorporated
fat.asm                                                              PAGE  156

    7845 0000103a       DW$L$_fn_setlabel$7$E:
    7846 0000103a       L298:    
    7847 0000103a       DW$L$_fn_setlabel$8$B:
    7848 0000103a 92A7          MOV       AL,AR7
    7849 0000103b 9C01          ADDB      AL,#1                 ; |1992| 
    7850 0000103c 80A9          MOVZ      AR7,AL                ; |1992| 
    7851 0000103d       DW$L$_fn_setlabel$8$E:
    7852 0000103d       L299:    
    7853 0000103d       DW$L$_fn_setlabel$9$B:
    7854 0000103d 5CAD          MOVZ      AR4,SP                ; |1995| 
    7855 0000103e 92A6          MOV       AL,AR6
    7856 0000103f 85A9          MOV       ACC,AL                ; |1995| 
    7857 00001040 DCB5          SUBB      XAR4,#53              ; |1995| 
    7858 00001041 5601          ADDL      XAR4,ACC
         00001042 00A4 
    7859 00001043 92A6          MOV       AL,AR6                ; |1995| 
    7860 00001044 9C01          ADDB      AL,#1                 ; |1988| 
    7861 00001045 520B          CMPB      AL,#11                ; |1988| 
    7862 00001046 3FC4          MOV       *+XAR4[0],P           ; |1995| 
    7863 00001047 88A9          MOVZ      AR6,AL                ; |1988| 
    7864                      .dwpsn  "fat.c",1996,0
    7865 00001048 56C4          BF        L296,LT               ; |1988| 
         00001049 FFDC 
    7866                      ; branchcc occurs ; |1988| 
    7867 0000104a       DW$L$_fn_setlabel$9$E:
    7868 0000104a D008          MOVL      XAR0,#8               ; |1998| 
    7869 0000104b 28A9          MOV       AL,#65520
         0000104c FFF0 
    7870 0000104d 28A8          MOV       AH,#4095
         0000104e 0FFF 
    7871 0000104f 0F92          CMPL      ACC,*+FP[AR0]         ; |1998| 
    7872 00001050 56C9          BF        L307,LOS              ; |1998| 
         00001051 006E 
    7873                      ; branchcc occurs ; |1998| 
    7874              L300:    
    7875              DW$L$_fn_setlabel$11$B:
    7876                      .dwpsn  "fat.c",1998,0
    7877 00001052 067A          MOVL      ACC,*-SP[58]          ; |1999| 
    7878 00001053 0F7C          CMPL      ACC,*-SP[60]          ; |1999| 
    7879 00001054 56C9          BF        L305,LOS              ; |1999| 
         00001055 003E 
    7880                      ; branchcc occurs ; |1999| 
    7881              DW$L$_fn_setlabel$11$E:
    7882              L301:    
    7883              DW$L$_fn_setlabel$12$B:
    7884                      .dwpsn  "fat.c",1999,0
    7885 00001056 064A          MOVL      ACC,*-SP[10]          ; |2000| 
    7886 00001057 8F00          MOVL      XAR4,#602             ; |2000| 
         00001058 025A 
    7887 00001059 5601          ADDL      XAR4,ACC
         0000105a 00A4 
    7888 0000105b A848          MOVL      *-SP[8],XAR4          ; |2000| 
    7889 0000105c 8A4A          MOVL      XAR4,*-SP[10]         ; |2002| 
    7890 0000105d 067C          MOVL      ACC,*-SP[60]          ; |2002| 
    7891 0000105e 7640'         LCR       #__f_getdirsector     ; |2002| 
TMS320C2000 COFF Assembler PC v4.1.3 Thu Aug 18 12:16:14 2016

Tools Copyright (c) 1996-2006 Texas Instruments Incorporated
fat.asm                                                              PAGE  157

         0000105f 0000 
    7892                      ; call occurs [#__f_getdirsector] ; |2002| 
    7893 00001060 5200          CMPB      AL,#0                 ; |2002| 
    7894 00001061 56C0          BF        L310,NEQ              ; |2002| 
         00001062 0089 
    7895                      ; branchcc occurs ; |2002| 
    7896 00001063       DW$L$_fn_setlabel$12$E:
    7897 00001063       DW$L$_fn_setlabel$13$B:
    7898 00001063 0200          MOVB      ACC,#0
    7899 00001064 1E78          MOVL      *-SP[56],ACC          ; |2005| 
    7900 00001065 0210          MOVB      ACC,#16
    7901 00001066 0F78          CMPL      ACC,*-SP[56]          ; |2005| 
    7902 00001067 56C9          BF        L304,LOS              ; |2005| 
         00001068 0024 
    7903                      ; branchcc occurs ; |2005| 
    7904              DW$L$_fn_setlabel$13$E:
    7905              L302:    
    7906              DW$L$_fn_setlabel$14$B:
    7907                      .dwpsn  "fat.c",2005,0
    7908 00001069 8A48          MOVL      XAR4,*-SP[8]          ; |2007| 
    7909 0000106a 92C4          MOV       AL,*+XAR4[0]          ; |2007| 
    7910 0000106b EC16          BF        L303,EQ               ; |2007| 
    7911                      ; branchcc occurs ; |2007| 
    7912 0000106c       DW$L$_fn_setlabel$14$E:
    7913 0000106c       DW$L$_fn_setlabel$15$B:
    7914 0000106c 52E5          CMPB      AL,#229               ; |2007| 
    7915 0000106d EC14          BF        L303,EQ               ; |2007| 
    7916                      ; branchcc occurs ; |2007| 
    7917 0000106e       DW$L$_fn_setlabel$15$E:
    7918 0000106e       DW$L$_fn_setlabel$16$B:
    7919 0000106e 8348          MOVL      XAR5,*-SP[8]          ; |2007| 
    7920 0000106f D00B          MOVB      XAR0,#11              ; |2007| 
    7921 00001070 9295          MOV       AL,*+XAR5[AR0]        ; |2007| 
    7922 00001071 5208          CMPB      AL,#8                 ; |2007| 
    7923 00001072 ED0F          BF        L303,NEQ              ; |2007| 
    7924                      ; branchcc occurs ; |2007| 
    7925 00001073       DW$L$_fn_setlabel$16$E:
    7926 00001073 5DAD          MOVZ      AR5,SP                ; |2010| 
    7927 00001074 0208          MOVB      ACC,#8
    7928 00001075 DDB5          SUBB      XAR5,#53              ; |2010| 
    7929 00001076 7640!         LCR       #___memcpy_ff         ; |2010| 
         00001077 0000 
    7930                      ; call occurs [#___memcpy_ff] ; |2010| 
    7931 00001078 5DAD          MOVZ      AR5,SP                ; |2011| 
    7932 00001079 8A48          MOVL      XAR4,*-SP[8]          ; |2011| 
    7933 0000107a 0203          MOVB      ACC,#3
    7934 0000107b DDAD          SUBB      XAR5,#45              ; |2011| 
    7935 0000107c DC08          ADDB      XAR4,#8               ; |2011| 
    7936 0000107d 7640!         LCR       #___memcpy_ff         ; |2011| 
         0000107e 0000 
    7937                      ; call occurs [#___memcpy_ff] ; |2011| 
    7938 0000107f 56CF          BF        L309,UNC              ; |2012| 
         00001080 0068 
    7939                      ; branch occurs ; |2012| 
    7940 00001081       L303:    
TMS320C2000 COFF Assembler PC v4.1.3 Thu Aug 18 12:16:14 2016

Tools Copyright (c) 1996-2006 Texas Instruments Incorporated
fat.asm                                                              PAGE  158

    7941 00001081       DW$L$_fn_setlabel$18$B:
    7942 00001081 0220          MOVB      ACC,#32
    7943 00001082 5601          ADDL      *-SP[8],ACC           ; |2005| 
         00001083 0048 
    7944 00001084 0201          MOVB      ACC,#1
    7945 00001085 0778          ADDL      ACC,*-SP[56]          ; |2005| 
    7946 00001086 1E78          MOVL      *-SP[56],ACC          ; |2005| 
    7947 00001087 0210          MOVB      ACC,#16
    7948 00001088 0F78          CMPL      ACC,*-SP[56]          ; |2005| 
    7949                      .dwpsn  "fat.c",2014,0
    7950 00001089 56C6          BF        L302,HI               ; |2005| 
         0000108a FFE0 
    7951                      ; branchcc occurs ; |2005| 
    7952 0000108b       DW$L$_fn_setlabel$18$E:
    7953 0000108b       L304:    
    7954 0000108b       DW$L$_fn_setlabel$19$B:
    7955 0000108b 0201          MOVB      ACC,#1
    7956 0000108c 077C          ADDL      ACC,*-SP[60]          ; |1999| 
    7957 0000108d 1E7C          MOVL      *-SP[60],ACC          ; |1999| 
    7958 0000108e 067A          MOVL      ACC,*-SP[58]          ; |1999| 
    7959 0000108f 0F7C          CMPL      ACC,*-SP[60]          ; |1999| 
    7960                      .dwpsn  "fat.c",2015,0
    7961 00001090 56C6          BF        L301,HI               ; |1999| 
         00001091 FFC6 
    7962                      ; branchcc occurs ; |1999| 
    7963 00001092       DW$L$_fn_setlabel$19$E:
    7964 00001092       L305:    
    7965 00001092       DW$L$_fn_setlabel$20$B:
    7966 00001092 D008          MOVL      XAR0,#8               ; |2017| 
    7967 00001093 0692          MOVL      ACC,*+FP[AR0]         ; |2017| 
    7968 00001094 ED0C          BF        L306,NEQ              ; |2017| 
    7969                      ; branchcc occurs ; |2017| 
    7970 00001095       DW$L$_fn_setlabel$20$E:
    7971 00001095       DW$L$_fn_setlabel$21$B:
    7972 00001095 8D00          MOVL      XAR0,#1136            ; |2018| 
         00001096 0470 
    7973 00001097 8A4A          MOVL      XAR4,*-SP[10]         ; |2018| 
    7974 00001098 0203          MOVB      ACC,#3
    7975 00001099 0F94          CMPL      ACC,*+XAR4[AR0]       ; |2018| 
    7976 0000109a ED24          BF        L307,NEQ              ; |2018| 
    7977                      ; branchcc occurs ; |2018| 
    7978 0000109b       DW$L$_fn_setlabel$21$E:
    7979 0000109b       DW$L$_fn_setlabel$22$B:
    7980 0000109b 8A4A          MOVL      XAR4,*-SP[10]         ; |2019| 
    7981 0000109c D020          MOVB      XAR0,#32              ; |2019| 
    7982 0000109d 0694          MOVL      ACC,*+XAR4[AR0]       ; |2019| 
    7983 0000109e D008          MOVL      XAR0,#8               ; |2019| 
    7984 0000109f 1E92          MOVL      *+FP[AR0],ACC         ; |2019| 
    7985 000010a0       DW$L$_fn_setlabel$22$E:
    7986 000010a0       L306:    
    7987 000010a0       DW$L$_fn_setlabel$23$B:
    7988 000010a0 D008          MOVL      XAR0,#8               ; |2026| 
    7989 000010a1 5DAD          MOVZ      AR5,SP                ; |2026| 
    7990 000010a2 8A4A          MOVL      XAR4,*-SP[10]         ; |2026| 
    7991 000010a3 0692          MOVL      ACC,*+FP[AR0]         ; |2026| 
TMS320C2000 COFF Assembler PC v4.1.3 Thu Aug 18 12:16:14 2016

Tools Copyright (c) 1996-2006 Texas Instruments Incorporated
fat.asm                                                              PAGE  159

    7992 000010a4 DD86          SUBB      XAR5,#6               ; |2026| 
    7993 000010a5 7640!         LCR       #__f_getclustervalue  ; |2026| 
         000010a6 0000 
    7994                      ; call occurs [#__f_getclustervalue] ; |2026| 
    7995 000010a7 5200          CMPB      AL,#0                 ; |2026| 
    7996 000010a8 ED16          BF        L307,NEQ              ; |2026| 
    7997                      ; branchcc occurs ; |2026| 
    7998 000010a9       DW$L$_fn_setlabel$23$E:
    7999 000010a9       DW$L$_fn_setlabel$24$B:
    8000 000010a9 28A9          MOV       AL,#65520
         000010aa FFF0 
    8001 000010ab 28A8          MOV       AH,#4095
         000010ac 0FFF 
    8002 000010ad 0F46          CMPL      ACC,*-SP[6]           ; |2026| 
    8003 000010ae 56C9          BF        L307,LOS              ; |2026| 
         000010af 0010 
    8004                      ; branchcc occurs ; |2026| 
    8005 000010b0       DW$L$_fn_setlabel$24$E:
    8006 000010b0       DW$L$_fn_setlabel$25$B:
    8007 000010b0 5DAD          MOVZ      AR5,SP                ; |2030| 
    8008 000010b1 8A4A          MOVL      XAR4,*-SP[10]         ; |2030| 
    8009 000010b2 0646          MOVL      ACC,*-SP[6]           ; |2030| 
    8010 000010b3 DDC2          SUBB      XAR5,#66              ; |2030| 
    8011 000010b4 7640!         LCR       #__f_clustertopos     ; |2030| 
         000010b5 0000 
    8012                      ; call occurs [#__f_clustertopos] ; |2030| 
    8013 000010b6 D008          MOVL      XAR0,#8               ; |2030| 
    8014 000010b7 28A9          MOV       AL,#65520
         000010b8 FFF0 
    8015 000010b9 28A8          MOV       AH,#4095
         000010ba 0FFF 
    8016 000010bb 0F92          CMPL      ACC,*+FP[AR0]         ; |2030| 
    8017                      .dwpsn  "fat.c",2032,0
    8018 000010bc 56C6          BF        L300,HI               ; |2030| 
         000010bd FF96 
    8019                      ; branchcc occurs ; |2030| 
    8020 000010be       DW$L$_fn_setlabel$25$E:
    8021 000010be       L307:    
    8022 000010be 5DAD          MOVZ      AR5,SP                ; |2034| 
    8023 000010bf 8A4A          MOVL      XAR4,*-SP[10]         ; |2034| 
    8024 000010c0 0200          MOVB      ACC,#0
    8025 000010c1 DDC2          SUBB      XAR5,#66              ; |2034| 
    8026 000010c2 7640!         LCR       #__f_clustertopos     ; |2034| 
         000010c3 0000 
    8027                      ; call occurs [#__f_clustertopos] ; |2034| 
    8028 000010c4 5DAD          MOVZ      AR5,SP                ; |2037| 
    8029 000010c5 5CAD          MOVZ      AR4,SP                ; |2037| 
    8030 000010c6 7B6A          MOV       *-SP[42],AR3          ; |2036| 
    8031 000010c7 0208          MOVB      ACC,#8
    8032 000010c8 DDB5          SUBB      XAR5,#53              ; |2037| 
    8033 000010c9 DC95          SUBB      XAR4,#21              ; |2037| 
    8034 000010ca 7640!         LCR       #___memcpy_ff         ; |2037| 
         000010cb 0000 
    8035                      ; call occurs [#___memcpy_ff] ; |2037| 
    8036 000010cc 5DAD          MOVZ      AR5,SP                ; |2038| 
TMS320C2000 COFF Assembler PC v4.1.3 Thu Aug 18 12:16:14 2016

Tools Copyright (c) 1996-2006 Texas Instruments Incorporated
fat.asm                                                              PAGE  160

    8037 000010cd 5CAD          MOVZ      AR4,SP                ; |2038| 
    8038 000010ce 0203          MOVB      ACC,#3
    8039 000010cf DDAD          SUBB      XAR5,#45              ; |2038| 
    8040 000010d0 DC8D          SUBB      XAR4,#13              ; |2038| 
    8041 000010d1 7640!         LCR       #___memcpy_ff         ; |2038| 
         000010d2 0000 
    8042                      ; call occurs [#___memcpy_ff] ; |2038| 
    8043 000010d3 5CAD          MOVZ      AR4,SP                ; |2040| 
    8044 000010d4 DCC2          SUBB      XAR4,#66              ; |2040| 
    8045 000010d5 A842          MOVL      *-SP[2],XAR4          ; |2040| 
    8046 000010d6 5CAD          MOVZ      AR4,SP                ; |2040| 
    8047 000010d7 5DAD          MOVZ      AR5,SP                ; |2040| 
    8048 000010d8 DC88          SUBB      XAR4,#8               ; |2040| 
    8049 000010d9 A844          MOVL      *-SP[4],XAR4          ; |2040| 
    8050 000010da 8A4A          MOVL      XAR4,*-SP[10]         ; |2040| 
    8051 000010db DDAA          SUBB      XAR5,#42              ; |2040| 
    8052 000010dc 7640'         LCR       #__f_addentry         ; |2040| 
         000010dd 07DC 
    8053                      ; call occurs [#__f_addentry] ; |2040| 
    8054 000010de 5200          CMPB      AL,#0                 ; |2040| 
    8055 000010df EC04          BF        L308,EQ               ; |2040| 
    8056                      ; branchcc occurs ; |2040| 
    8057 000010e0 9A07          MOVB      AL,#7                 ; |2040| 
    8058 000010e1 56CF          BF        L310,UNC              ; |2040| 
         000010e2 0009 
    8059                      ; branch occurs ; |2040| 
    8060 000010e3       L308:    
    8061 000010e3 8A48          MOVL      XAR4,*-SP[8]          ; |2042| 
    8062 000010e4 D00B          MOVB      XAR0,#11              ; |2042| 
    8063 000010e5 2894          MOV       *+XAR4[AR0],#8        ; |2042| 
         000010e6 0008 
    8064 000010e7       L309:    
    8065 000010e7 8A4A          MOVL      XAR4,*-SP[10]         ; |2043| 
    8066 000010e8 7640'         LCR       #__f_writedirsector   ; |2043| 
         000010e9 0027 
    8067                      ; call occurs [#__f_writedirsector] ; |2043| 
    8068 000010ea       L310:    
    8069 000010ea FEC2          SUBB      SP,#66                ; |2043| 
    8070 000010eb 82BE          MOVL      XAR3,*--SP            ; |2043| 
    8071 000010ec 86BE          MOVL      XAR2,*--SP            ; |2043| 
    8072 000010ed 8BBE          MOVL      XAR1,*--SP            ; |2043| 
    8073                      .dwpsn  "fat.c",2044,1
    8074 000010ee 0006          LRETR
    8075                      ; return occurs
    8076              
    8077              DW$534  .dwtag  DW_TAG_loop
    8078                      .dwattr DW$534, DW_AT_name("D:\DEV\Amot\BearingWear\XTSW_V6_20\fat.asm:L300:1:1471518973")
    8079                      .dwattr DW$534, DW_AT_begin_file("fat.c")
    8080                      .dwattr DW$534, DW_AT_begin_line(0x7ce)
    8081                      .dwattr DW$534, DW_AT_end_line(0x7f0)
    8082              DW$535  .dwtag  DW_TAG_loop_range
    8083                      .dwattr DW$535, DW_AT_low_pc(DW$L$_fn_setlabel$11$B)
    8084                      .dwattr DW$535, DW_AT_high_pc(DW$L$_fn_setlabel$11$E)
    8085              DW$536  .dwtag  DW_TAG_loop_range
    8086                      .dwattr DW$536, DW_AT_low_pc(DW$L$_fn_setlabel$21$B)
TMS320C2000 COFF Assembler PC v4.1.3 Thu Aug 18 12:16:14 2016

Tools Copyright (c) 1996-2006 Texas Instruments Incorporated
fat.asm                                                              PAGE  161

    8087                      .dwattr DW$536, DW_AT_high_pc(DW$L$_fn_setlabel$21$E)
    8088              DW$537  .dwtag  DW_TAG_loop_range
    8089                      .dwattr DW$537, DW_AT_low_pc(DW$L$_fn_setlabel$20$B)
    8090                      .dwattr DW$537, DW_AT_high_pc(DW$L$_fn_setlabel$20$E)
    8091              DW$538  .dwtag  DW_TAG_loop_range
    8092                      .dwattr DW$538, DW_AT_low_pc(DW$L$_fn_setlabel$22$B)
    8093                      .dwattr DW$538, DW_AT_high_pc(DW$L$_fn_setlabel$22$E)
    8094              DW$539  .dwtag  DW_TAG_loop_range
    8095                      .dwattr DW$539, DW_AT_low_pc(DW$L$_fn_setlabel$23$B)
    8096                      .dwattr DW$539, DW_AT_high_pc(DW$L$_fn_setlabel$23$E)
    8097              DW$540  .dwtag  DW_TAG_loop_range
    8098                      .dwattr DW$540, DW_AT_low_pc(DW$L$_fn_setlabel$24$B)
    8099                      .dwattr DW$540, DW_AT_high_pc(DW$L$_fn_setlabel$24$E)
    8100              DW$541  .dwtag  DW_TAG_loop_range
    8101                      .dwattr DW$541, DW_AT_low_pc(DW$L$_fn_setlabel$25$B)
    8102                      .dwattr DW$541, DW_AT_high_pc(DW$L$_fn_setlabel$25$E)
    8103              
    8104              DW$542  .dwtag  DW_TAG_loop
    8105                      .dwattr DW$542, DW_AT_name("D:\DEV\Amot\BearingWear\XTSW_V6_20\fat.asm:L301:2:1471518973")
    8106                      .dwattr DW$542, DW_AT_begin_file("fat.c")
    8107                      .dwattr DW$542, DW_AT_begin_line(0x7cf)
    8108                      .dwattr DW$542, DW_AT_end_line(0x7df)
    8109              DW$543  .dwtag  DW_TAG_loop_range
    8110                      .dwattr DW$543, DW_AT_low_pc(DW$L$_fn_setlabel$12$B)
    8111                      .dwattr DW$543, DW_AT_high_pc(DW$L$_fn_setlabel$12$E)
    8112              DW$544  .dwtag  DW_TAG_loop_range
    8113                      .dwattr DW$544, DW_AT_low_pc(DW$L$_fn_setlabel$13$B)
    8114                      .dwattr DW$544, DW_AT_high_pc(DW$L$_fn_setlabel$13$E)
    8115              DW$545  .dwtag  DW_TAG_loop_range
    8116                      .dwattr DW$545, DW_AT_low_pc(DW$L$_fn_setlabel$19$B)
    8117                      .dwattr DW$545, DW_AT_high_pc(DW$L$_fn_setlabel$19$E)
    8118              
    8119              DW$546  .dwtag  DW_TAG_loop
    8120                      .dwattr DW$546, DW_AT_name("D:\DEV\Amot\BearingWear\XTSW_V6_20\fat.asm:L302:3:1471518973")
    8121                      .dwattr DW$546, DW_AT_begin_file("fat.c")
    8122                      .dwattr DW$546, DW_AT_begin_line(0x7d5)
    8123                      .dwattr DW$546, DW_AT_end_line(0x7de)
    8124              DW$547  .dwtag  DW_TAG_loop_range
    8125                      .dwattr DW$547, DW_AT_low_pc(DW$L$_fn_setlabel$14$B)
    8126                      .dwattr DW$547, DW_AT_high_pc(DW$L$_fn_setlabel$14$E)
    8127              DW$548  .dwtag  DW_TAG_loop_range
    8128                      .dwattr DW$548, DW_AT_low_pc(DW$L$_fn_setlabel$15$B)
    8129                      .dwattr DW$548, DW_AT_high_pc(DW$L$_fn_setlabel$15$E)
    8130              DW$549  .dwtag  DW_TAG_loop_range
    8131                      .dwattr DW$549, DW_AT_low_pc(DW$L$_fn_setlabel$16$B)
    8132                      .dwattr DW$549, DW_AT_high_pc(DW$L$_fn_setlabel$16$E)
    8133              DW$550  .dwtag  DW_TAG_loop_range
    8134                      .dwattr DW$550, DW_AT_low_pc(DW$L$_fn_setlabel$18$B)
    8135                      .dwattr DW$550, DW_AT_high_pc(DW$L$_fn_setlabel$18$E)
    8136                      .dwendtag DW$546
    8137              
    8138                      .dwendtag DW$542
    8139              
    8140                      .dwendtag DW$534
    8141              
TMS320C2000 COFF Assembler PC v4.1.3 Thu Aug 18 12:16:14 2016

Tools Copyright (c) 1996-2006 Texas Instruments Incorporated
fat.asm                                                              PAGE  162

    8142              
    8143              DW$551  .dwtag  DW_TAG_loop
    8144                      .dwattr DW$551, DW_AT_name("D:\DEV\Amot\BearingWear\XTSW_V6_20\fat.asm:L296:1:1471518973")
    8145                      .dwattr DW$551, DW_AT_begin_file("fat.c")
    8146                      .dwattr DW$551, DW_AT_begin_line(0x7c4)
    8147                      .dwattr DW$551, DW_AT_end_line(0x7cc)
    8148              DW$552  .dwtag  DW_TAG_loop_range
    8149                      .dwattr DW$552, DW_AT_low_pc(DW$L$_fn_setlabel$3$B)
    8150                      .dwattr DW$552, DW_AT_high_pc(DW$L$_fn_setlabel$3$E)
    8151              DW$553  .dwtag  DW_TAG_loop_range
    8152                      .dwattr DW$553, DW_AT_low_pc(DW$L$_fn_setlabel$4$B)
    8153                      .dwattr DW$553, DW_AT_high_pc(DW$L$_fn_setlabel$4$E)
    8154              DW$554  .dwtag  DW_TAG_loop_range
    8155                      .dwattr DW$554, DW_AT_low_pc(DW$L$_fn_setlabel$5$B)
    8156                      .dwattr DW$554, DW_AT_high_pc(DW$L$_fn_setlabel$5$E)
    8157              DW$555  .dwtag  DW_TAG_loop_range
    8158                      .dwattr DW$555, DW_AT_low_pc(DW$L$_fn_setlabel$6$B)
    8159                      .dwattr DW$555, DW_AT_high_pc(DW$L$_fn_setlabel$6$E)
    8160              DW$556  .dwtag  DW_TAG_loop_range
    8161                      .dwattr DW$556, DW_AT_low_pc(DW$L$_fn_setlabel$7$B)
    8162                      .dwattr DW$556, DW_AT_high_pc(DW$L$_fn_setlabel$7$E)
    8163              DW$557  .dwtag  DW_TAG_loop_range
    8164                      .dwattr DW$557, DW_AT_low_pc(DW$L$_fn_setlabel$8$B)
    8165                      .dwattr DW$557, DW_AT_high_pc(DW$L$_fn_setlabel$8$E)
    8166              DW$558  .dwtag  DW_TAG_loop_range
    8167                      .dwattr DW$558, DW_AT_low_pc(DW$L$_fn_setlabel$9$B)
    8168                      .dwattr DW$558, DW_AT_high_pc(DW$L$_fn_setlabel$9$E)
    8169                      .dwendtag DW$551
    8170              
    8171                      .dwattr DW$530, DW_AT_end_file("fat.c")
    8172                      .dwattr DW$530, DW_AT_end_line(0x7fc)
    8173                      .dwattr DW$530, DW_AT_end_column(0x01)
    8174                      .dwendtag DW$530
    8175              
    8176 000010ef               .sect   ".text"
    8177                      .global _fn_truncate
    8178              
    8179              DW$559  .dwtag  DW_TAG_subprogram, DW_AT_name("fn_truncate"), DW_AT_symbol_name("_fn_truncate")
    8180                      .dwattr DW$559, DW_AT_low_pc(_fn_truncate)
    8181                      .dwattr DW$559, DW_AT_high_pc(0x00)
    8182                      .dwattr DW$559, DW_AT_begin_file("fat.c")
    8183                      .dwattr DW$559, DW_AT_begin_line(0x812)
    8184                      .dwattr DW$559, DW_AT_begin_column(0x09)
    8185                      .dwattr DW$559, DW_AT_frame_base[DW_OP_breg20 -54]
    8186                      .dwattr DW$559, DW_AT_skeletal(0x01)
    8187                      .dwpsn  "fat.c",2066,76
    8188              
    8189              ;***************************************************************
    8190              ;* FNAME: _fn_truncate                  FR SIZE:  52           *
    8191              ;*                                                             *
    8192              ;* FUNCTION ENVIRONMENT                                        *
    8193              ;*                                                             *
    8194              ;* FUNCTION PROPERTIES                                         *
    8195              ;*                            6 Parameter, 40 Auto,  6 SOE     *
    8196              ;***************************************************************
TMS320C2000 COFF Assembler PC v4.1.3 Thu Aug 18 12:16:14 2016

Tools Copyright (c) 1996-2006 Texas Instruments Incorporated
fat.asm                                                              PAGE  163

    8197              
    8198              _fn_truncate:
    8199              ;* AR4   assigned to _fm
    8200              DW$560  .dwtag  DW_TAG_formal_parameter, DW_AT_name("fm"), DW_AT_symbol_name("_fm")
    8201                      .dwattr DW$560, DW_AT_type(*DW$T$117)
    8202                      .dwattr DW$560, DW_AT_location[DW_OP_reg12]
    8203              ;* AR5   assigned to _filename
    8204              DW$561  .dwtag  DW_TAG_formal_parameter, DW_AT_name("filename"), DW_AT_symbol_name("_filename")
    8205                      .dwattr DW$561, DW_AT_type(*DW$T$146)
    8206                      .dwattr DW$561, DW_AT_location[DW_OP_reg14]
    8207              ;* AL    assigned to _length
    8208              DW$562  .dwtag  DW_TAG_formal_parameter, DW_AT_name("length"), DW_AT_symbol_name("_length")
    8209                      .dwattr DW$562, DW_AT_type(*DW$T$13)
    8210                      .dwattr DW$562, DW_AT_location[DW_OP_reg0]
    8211 000010ef B2BD          MOVL      *SP++,XAR1
    8212 000010f0 AABD          MOVL      *SP++,XAR2
    8213 000010f1 A2BD          MOVL      *SP++,XAR3
    8214 000010f2 FE2E          ADDB      SP,#46
    8215 000010f3 FF58          TEST      ACC                   ; |2073| 
    8216 000010f4 86A4          MOVL      XAR2,XAR4             ; |2066| 
    8217 000010f5 1E6E          MOVL      *-SP[46],ACC          ; |2066| 
    8218 000010f6 ED09          BF        L311,NEQ              ; |2073| 
    8219                      ; branchcc occurs ; |2073| 
    8220 000010f7 8F00+         MOVL      XAR4,#FSL4            ; |2073| 
         000010f8 0018 
    8221 000010f9 A842          MOVL      *-SP[2],XAR4          ; |2073| 
    8222 000010fa 8AA2          MOVL      XAR4,XAR2             ; |2073| 
    8223 000010fb 7640'         LCR       #_fn_open             ; |2073| 
         000010fc 0A8A 
    8224                      ; call occurs [#_fn_open] ; |2073| 
    8225 000010fd 56CF          BF        L322,UNC              ; |2073| 
         000010fe 00FD 
    8226                      ; branch occurs ; |2073| 
    8227 000010ff       L311:    
    8228 000010ff 5CAD          MOVZ      AR4,SP                ; |2075| 
    8229 00001100 DCAC          SUBB      XAR4,#44              ; |2075| 
    8230 00001101 A842          MOVL      *-SP[2],XAR4          ; |2075| 
    8231 00001102 8AA2          MOVL      XAR4,XAR2             ; |2075| 
    8232 00001103 7640'         LCR       #__f_setfsname        ; |2075| 
         00001104 0175 
    8233                      ; call occurs [#__f_setfsname] ; |2075| 
    8234 00001105 5200          CMPB      AL,#0                 ; |2075| 
    8235 00001106 56C0          BF        L318,NEQ              ; |2075| 
         00001107 00BD 
    8236                      ; branchcc occurs ; |2075| 
    8237 00001108 5DAD          MOVZ      AR5,SP                ; |2076| 
    8238 00001109 5CAD          MOVZ      AR4,SP                ; |2076| 
    8239 0000110a DD8F          SUBB      XAR5,#15              ; |2076| 
    8240 0000110b DC97          SUBB      XAR4,#23              ; |2076| 
    8241 0000110c 7640'         LCR       #__f_checknamewc      ; |2076| 
         0000110d 00A7 
    8242                      ; call occurs [#__f_checknamewc] ; |2076| 
    8243 0000110e FF58          TEST      ACC                   ; |2076| 
    8244 0000110f 56C0          BF        L318,NEQ              ; |2076| 
         00001110 00B4 
TMS320C2000 COFF Assembler PC v4.1.3 Thu Aug 18 12:16:14 2016

Tools Copyright (c) 1996-2006 Texas Instruments Incorporated
fat.asm                                                              PAGE  164

    8245                      ; branchcc occurs ; |2076| 
    8246 00001111 5DAD          MOVZ      AR5,SP                ; |2078| 
    8247 00001112 8AA2          MOVL      XAR4,XAR2             ; |2078| 
    8248 00001113 926C          MOV       AL,*-SP[44]           ; |2078| 
    8249 00001114 DD8A          SUBB      XAR5,#10              ; |2078| 
    8250 00001115 7640!         LCR       #__f_getvolume        ; |2078| 
         00001116 0000 
    8251                      ; call occurs [#__f_getvolume] ; |2078| 
    8252 00001117 5200          CMPB      AL,#0                 ; |2078| 
    8253 00001118 56C0          BF        L318,NEQ              ; |2078| 
         00001119 00AB 
    8254                      ; branchcc occurs ; |2078| 
    8255 0000111a 7640'         LCR       #__f_getintfile       ; |2080| 
         0000111b 07B7 
    8256                      ; call occurs [#__f_getintfile] ; |2080| 
    8257 0000111c A8A9          MOVL      ACC,XAR4              ; |2080| 
    8258 0000111d 8BA4          MOVL      XAR1,XAR4             ; |2080| 
    8259 0000111e 56C1          BF        L318,EQ               ; |2080| 
         0000111f 00A5 
    8260                      ; branchcc occurs ; |2080| 
    8261 00001120 926C          MOV       AL,*-SP[44]           ; |2083| 
    8262 00001121 D008          MOVB      XAR0,#8               ; |2084| 
    8263 00001122 96E9          MOV       *+XAR1[5],AL          ; |2083| 
    8264 00001123 0200          MOVB      ACC,#0
    8265 00001124 1E91          MOVL      *+XAR1[AR0],ACC       ; |2084| 
    8266 00001125 D00A          MOVB      XAR0,#10              ; |2086| 
    8267 00001126 1EF1          MOVL      *+XAR1[6],ACC         ; |2085| 
    8268 00001127 1E91          MOVL      *+XAR1[AR0],ACC       ; |2086| 
    8269 00001128 8D00          MOVL      XAR0,#918             ; |2087| 
         00001129 0396 
    8270 0000112a 1E91          MOVL      *+XAR1[AR0],ACC       ; |2087| 
    8271 0000112b 1ED1          MOVL      *+XAR1[2],ACC         ; |2088| 
    8272 0000112c 9257          MOV       AL,*-SP[23]           ; |2090| 
    8273 0000112d 522E          CMPB      AL,#46                ; |2090| 
    8274 0000112e 56C1          BF        L318,EQ               ; |2090| 
         0000112f 0095 
    8275                      ; branchcc occurs ; |2090| 
    8276 00001130 B2A9          MOVL      ACC,XAR1              ; |2092| 
    8277 00001131 8DC0          MOVL      XAR3,#928             ; |2092| 
         00001132 03A0 
    8278 00001133 5601          ADDL      XAR3,ACC
         00001134 00A3 
    8279 00001135 5DAD          MOVZ      AR5,SP                ; |2092| 
    8280 00001136 A242          MOVL      *-SP[2],XAR3          ; |2092| 
    8281 00001137 8A4A          MOVL      XAR4,*-SP[10]         ; |2092| 
    8282 00001138 DDAC          SUBB      XAR5,#44              ; |2092| 
    8283 00001139 7640'         LCR       #__f_findpath         ; |2092| 
         0000113a 0465 
    8284                      ; call occurs [#__f_findpath] ; |2092| 
    8285 0000113b 5200          CMPB      AL,#0                 ; |2092| 
    8286 0000113c 56C1          BF        L318,EQ               ; |2092| 
         0000113d 0087 
    8287                      ; branchcc occurs ; |2092| 
    8288 0000113e 5CAD          MOVZ      AR4,SP                ; |2093| 
    8289 0000113f DC8F          SUBB      XAR4,#15              ; |2093| 
TMS320C2000 COFF Assembler PC v4.1.3 Thu Aug 18 12:16:14 2016

Tools Copyright (c) 1996-2006 Texas Instruments Incorporated
fat.asm                                                              PAGE  165

    8290 00001140 A842          MOVL      *-SP[2],XAR4          ; |2093| 
    8291 00001141 5CAD          MOVZ      AR4,SP                ; |2093| 
    8292 00001142 5DAD          MOVZ      AR5,SP                ; |2093| 
    8293 00001143 A244          MOVL      *-SP[4],XAR3          ; |2093| 
    8294 00001144 DC88          SUBB      XAR4,#8               ; |2093| 
    8295 00001145 A846          MOVL      *-SP[6],XAR4          ; |2093| 
    8296 00001146 8A4A          MOVL      XAR4,*-SP[10]         ; |2093| 
    8297 00001147 DD97          SUBB      XAR5,#23              ; |2093| 
    8298 00001148 7640'         LCR       #__f_findfile         ; |2093| 
         00001149 0255 
    8299                      ; call occurs [#__f_findfile] ; |2093| 
    8300 0000114a 5200          CMPB      AL,#0                 ; |2093| 
    8301 0000114b EC78          BF        L318,EQ               ; |2093| 
    8302                      ; branchcc occurs ; |2093| 
    8303 0000114c 8AA3          MOVL      XAR4,XAR3             ; |2094| 
    8304 0000114d 3B01          SETC      SXM
    8305 0000114e 856C          MOV       ACC,*-SP[44]          ; |2094| 
    8306 0000114f 7640!         LCR       #__f_checklocked      ; |2094| 
         00001150 0000 
    8307                      ; call occurs [#__f_checklocked] ; |2094| 
    8308 00001151 5200          CMPB      AL,#0                 ; |2094| 
    8309 00001152 ED71          BF        L318,NEQ              ; |2094| 
    8310                      ; branchcc occurs ; |2094| 
    8311 00001153 8A48          MOVL      XAR4,*-SP[8]          ; |2094| 
    8312 00001154 D00B          MOVB      XAR0,#11              ; |2094| 
    8313 00001155 4494          TBIT      *+XAR4[AR0],#4        ; |2094| 
    8314 00001156 EE6D          BF        L318,TC               ; |2094| 
    8315                      ; branchcc occurs ; |2094| 
    8316 00001157 8A4A          MOVL      XAR4,*-SP[10]         ; |2098| 
    8317 00001158 8348          MOVL      XAR5,*-SP[8]          ; |2098| 
    8318 00001159 7640!         LCR       #__f_getdecluster     ; |2098| 
         0000115a 0000 
    8319                      ; call occurs [#__f_getdecluster] ; |2098| 
    8320 0000115b 8D00          MOVL      XAR0,#914             ; |2098| 
         0000115c 0392 
    8321 0000115d 1E91          MOVL      *+XAR1[AR0],ACC       ; |2098| 
    8322 0000115e C491          MOVL      XAR6,*+XAR1[AR0]      ; |2100| 
    8323 0000115f 06A6          MOVL      ACC,XAR6              ; |2100| 
    8324 00001160 EC2B          BF        L314,EQ               ; |2100| 
    8325                      ; branchcc occurs ; |2100| 
    8326 00001161 B2A9          MOVL      ACC,XAR1              ; |2103| 
    8327 00001162 8F40          MOVL      XAR5,#916             ; |2103| 
         00001163 0394 
    8328 00001164 8A4A          MOVL      XAR4,*-SP[10]         ; |2103| 
    8329 00001165 5601          ADDL      XAR5,ACC
         00001166 00A5 
    8330 00001167 06A6          MOVL      ACC,XAR6              ; |2103| 
    8331 00001168 7640!         LCR       #__f_clustertopos     ; |2103| 
         00001169 0000 
    8332                      ; call occurs [#__f_clustertopos] ; |2103| 
    8333 0000116a 8A48          MOVL      XAR4,*-SP[8]          ; |2105| 
    8334 0000116b DC1C          ADDB      XAR4,#28              ; |2105| 
    8335 0000116c 7640!         LCR       #__f_getlong          ; |2105| 
         0000116d 0000 
    8336                      ; call occurs [#__f_getlong] ; |2105| 
TMS320C2000 COFF Assembler PC v4.1.3 Thu Aug 18 12:16:14 2016

Tools Copyright (c) 1996-2006 Texas Instruments Incorporated
fat.asm                                                              PAGE  166

    8337 0000116e D00A          MOVB      XAR0,#10              ; |2105| 
    8338 0000116f 1E91          MOVL      *+XAR1[AR0],ACC       ; |2105| 
    8339 00001170 834A          MOVL      XAR5,*-SP[10]         ; |2107| 
    8340 00001171 8AA1          MOVL      XAR4,XAR1             ; |2105| 
    8341 00001172 7640!         LCR       #__fn_initseekdivisor ; |2107| 
         00001173 0000 
    8342                      ; call occurs [#__fn_initseekdivisor] ; |2107| 
    8343 00001174 28AA          MOV       PH,#65535
         00001175 FFFF 
    8344 00001176 28AB          MOV       PL,#65024
         00001177 FE00 
    8345 00001178 A9F1          MOVL      *+XAR1[6],P           ; |2110| 
    8346 00001179 D00A          MOVB      XAR0,#10              ; |2112| 
    8347 0000117a 066E          MOVL      ACC,*-SP[46]          ; |2112| 
    8348 0000117b 0F91          CMPL      ACC,*+XAR1[AR0]       ; |2112| 
    8349 0000117c 56C9          BF        L312,LOS              ; |2112| 
         0000117d 0005 
    8350                      ; branchcc occurs ; |2112| 
    8351 0000117e 0691          MOVL      ACC,*+XAR1[AR0]       ; |2112| 
    8352 0000117f 56CF          BF        L313,UNC              ; |2112| 
         00001180 0003 
    8353                      ; branch occurs ; |2112| 
    8354 00001181       L312:    
    8355 00001181 066E          MOVL      ACC,*-SP[46]
    8356 00001182       L313:    
    8357 00001182 83A2          MOVL      XAR5,XAR2             ; |2112| 
    8358 00001183 B242          MOVL      *-SP[2],XAR1          ; |2112| 
    8359 00001184 8A4A          MOVL      XAR4,*-SP[10]         ; |2112| 
    8360 00001185 7640!         LCR       #__f_fseek            ; |2112| 
         00001186 0000 
    8361                      ; call occurs [#__f_fseek] ; |2112| 
    8362 00001187 5200          CMPB      AL,#0                 ; |2112| 
    8363 00001188 EC0E          BF        L315,EQ               ; |2112| 
    8364                      ; branchcc occurs ; |2112| 
    8365 00001189 56CF          BF        L318,UNC              ; |2112| 
         0000118a 003A 
    8366                      ; branch occurs ; |2112| 
    8367 0000118b       L314:    
    8368 0000118b 8D00          MOVL      XAR0,#922             ; |2118| 
         0000118c 039A 
    8369 0000118d 0200          MOVB      ACC,#0
    8370 0000118e 1E91          MOVL      *+XAR1[AR0],ACC       ; |2118| 
    8371 0000118f 8D00          MOVL      XAR0,#924             ; |2119| 
         00001190 039C 
    8372 00001191 8AA1          MOVL      XAR4,XAR1             ; |2119| 
    8373 00001192 1E91          MOVL      *+XAR1[AR0],ACC       ; |2119| 
    8374 00001193 834A          MOVL      XAR5,*-SP[10]         ; |2121| 
    8375 00001194 7640!         LCR       #__fn_initseekdivisor ; |2121| 
         00001195 0000 
    8376                      ; call occurs [#__fn_initseekdivisor] ; |2121| 
    8377 00001196       L315:    
    8378 00001196 C46E          MOVL      XAR6,*-SP[46]         ; |2125| 
    8379 00001197 D00A          MOVB      XAR0,#10              ; |2125| 
    8380 00001198 0691          MOVL      ACC,*+XAR1[AR0]       ; |2125| 
    8381 00001199 0FA6          CMPL      ACC,XAR6              ; |2125| 
TMS320C2000 COFF Assembler PC v4.1.3 Thu Aug 18 12:16:14 2016

Tools Copyright (c) 1996-2006 Texas Instruments Incorporated
fat.asm                                                              PAGE  167

    8382 0000119a 56C6          BF        L320,HI               ; |2125| 
         0000119b 0032 
    8383                      ; branchcc occurs ; |2125| 
    8384 0000119c C46E          MOVL      XAR6,*-SP[46]
    8385 0000119d 0FA6          CMPL      ACC,XAR6              ; |2142| 
    8386 0000119e 56C7          BF        L321,HIS              ; |2142| 
         0000119f 0051 
    8387                      ; branchcc occurs ; |2142| 
    8388 000011a0 C46E          MOVL      XAR6,*-SP[46]
    8389 000011a1 5641          SUBL      XAR6,ACC
         000011a2 00A6 
    8390 000011a3 D500          MOVB      XAR5,#0
    8391 000011a4 8F00-         MOVL      XAR4,#_truncate_tmp   ; |2146| 
         000011a5 0000 
    8392 000011a6 C26E          MOVL      *-SP[46],XAR6         ; |2143| 
    8393 000011a7 FF29          MOV       ACC,#1 << 9
         000011a8 0001 
    8394 000011a9 28E1          MOV       *+XAR1[4],#5          ; |2145| 
         000011aa 0005 
    8395 000011ab 7640!         LCR       #_memset              ; |2146| 
         000011ac 0000 
    8396                      ; call occurs [#_memset] ; |2146| 
    8397 000011ad 066E          MOVL      ACC,*-SP[46]          ; |2146| 
    8398 000011ae EC41          BF        L321,EQ               ; |2148| 
    8399                      ; branchcc occurs ; |2148| 
    8400              L316:    
    8401              DW$L$_fn_truncate$22$B:
    8402                      .dwpsn  "fat.c",2148,0
    8403 000011af 826E          MOVL      XAR3,*-SP[46]
    8404 000011b0 FF20          MOV       ACC,#512              ; |2149| 
         000011b1 0200 
    8405 000011b2 0FA3          CMPL      ACC,XAR3              ; |2149| 
    8406 000011b3 56C3          BF        L317,GEQ              ; |2149| 
         000011b4 0004 
    8407                      ; branchcc occurs ; |2149| 
    8408 000011b5       DW$L$_fn_truncate$22$E:
    8409 000011b5       DW$L$_fn_truncate$23$B:
    8410 000011b5 8DC0          MOVL      XAR3,#512             ; |2150| 
         000011b6 0200 
    8411 000011b7       DW$L$_fn_truncate$23$E:
    8412 000011b7       L317:    
    8413 000011b7       DW$L$_fn_truncate$24$B:
    8414 000011b7 A242          MOVL      *-SP[2],XAR3          ; |2152| 
    8415 000011b8 8F40-         MOVL      XAR5,#_truncate_tmp   ; |2152| 
         000011b9 0000 
    8416 000011ba 06C1          MOVL      ACC,*+XAR1[0]         ; |2152| 
    8417 000011bb 8AA2          MOVL      XAR4,XAR2             ; |2152| 
    8418 000011bc 1E44          MOVL      *-SP[4],ACC           ; |2152| 
    8419 000011bd 0201          MOVB      ACC,#1
    8420 000011be 7640!         LCR       #_fn_write            ; |2152| 
         000011bf 0000 
    8421                      ; call occurs [#_fn_write] ; |2152| 
    8422 000011c0 0FA3          CMPL      ACC,XAR3              ; |2152| 
    8423 000011c1 EC05          BF        L319,EQ               ; |2152| 
    8424                      ; branchcc occurs ; |2152| 
TMS320C2000 COFF Assembler PC v4.1.3 Thu Aug 18 12:16:14 2016

Tools Copyright (c) 1996-2006 Texas Instruments Incorporated
fat.asm                                                              PAGE  168

    8425 000011c2       DW$L$_fn_truncate$24$E:
    8426 000011c2 2BE1          MOV       *+XAR1[4],#0          ; |2153| 
    8427 000011c3       L318:    
    8428 000011c3 D400          MOVB      XAR4,#0
    8429 000011c4 56CF          BF        L322,UNC              ; |2154| 
         000011c5 0036 
    8430                      ; branch occurs ; |2154| 
    8431 000011c6       L319:    
    8432 000011c6       DW$L$_fn_truncate$27$B:
    8433 000011c6 066E          MOVL      ACC,*-SP[46]
    8434 000011c7 03A3          SUBL      ACC,XAR3
    8435 000011c8 1E6E          MOVL      *-SP[46],ACC          ; |2156| 
    8436                      .dwpsn  "fat.c",2157,0
    8437 000011c9 EDE6          BF        L316,NEQ              ; |2156| 
    8438                      ; branchcc occurs ; |2156| 
    8439 000011ca       DW$L$_fn_truncate$27$E:
    8440 000011ca 56CF          BF        L321,UNC              ; |2156| 
         000011cb 0025 
    8441                      ; branch occurs ; |2156| 
    8442 000011cc       L320:    
    8443 000011cc 8D00          MOVL      XAR0,#916             ; |2129| 
         000011cd 0394 
    8444 000011ce 5DAD          MOVZ      AR5,SP                ; |2129| 
    8445 000011cf 8A4A          MOVL      XAR4,*-SP[10]         ; |2129| 
    8446 000011d0 0691          MOVL      ACC,*+XAR1[AR0]       ; |2129| 
    8447 000011d1 DD8C          SUBB      XAR5,#12              ; |2129| 
    8448 000011d2 7640!         LCR       #__f_getclustervalue  ; |2129| 
         000011d3 0000 
    8449                      ; call occurs [#__f_getclustervalue] ; |2129| 
    8450 000011d4 5200          CMPB      AL,#0                 ; |2129| 
    8451 000011d5 EDEE          BF        L318,NEQ              ; |2129| 
    8452                      ; branchcc occurs ; |2129| 
    8453 000011d6 8A4A          MOVL      XAR4,*-SP[10]         ; |2132| 
    8454 000011d7 064C          MOVL      ACC,*-SP[12]          ; |2132| 
    8455 000011d8 7640!         LCR       #__f_removechain      ; |2132| 
         000011d9 0000 
    8456                      ; call occurs [#__f_removechain] ; |2132| 
    8457 000011da 5200          CMPB      AL,#0                 ; |2132| 
    8458 000011db EDE8          BF        L318,NEQ              ; |2132| 
    8459                      ; branchcc occurs ; |2132| 
    8460 000011dc 28AA          MOV       PH,#4095
         000011dd 0FFF 
    8461 000011de 8D00          MOVL      XAR0,#916             ; |2134| 
         000011df 0394 
    8462 000011e0 28AB          MOV       PL,#65528
         000011e1 FFF8 
    8463 000011e2 A942          MOVL      *-SP[2],P             ; |2134| 
    8464 000011e3 8A4A          MOVL      XAR4,*-SP[10]         ; |2134| 
    8465 000011e4 0691          MOVL      ACC,*+XAR1[AR0]       ; |2134| 
    8466 000011e5 7640!         LCR       #__f_setclustervalue  ; |2134| 
         000011e6 0000 
    8467                      ; call occurs [#__f_setclustervalue] ; |2134| 
    8468 000011e7 5200          CMPB      AL,#0                 ; |2134| 
    8469 000011e8 EDDB          BF        L318,NEQ              ; |2134| 
    8470                      ; branchcc occurs ; |2134| 
TMS320C2000 COFF Assembler PC v4.1.3 Thu Aug 18 12:16:14 2016

Tools Copyright (c) 1996-2006 Texas Instruments Incorporated
fat.asm                                                              PAGE  169

    8471 000011e9 066E          MOVL      ACC,*-SP[46]          ; |2137| 
    8472 000011ea 8AA1          MOVL      XAR4,XAR1             ; |2137| 
    8473 000011eb D00A          MOVB      XAR0,#10              ; |2137| 
    8474 000011ec 1E91          MOVL      *+XAR1[AR0],ACC       ; |2137| 
    8475 000011ed 7640!         LCR       #__fn_removeseekpos   ; |2139| 
         000011ee 0000 
    8476                      ; call occurs [#__fn_removeseekpos] ; |2139| 
    8477 000011ef       L321:    
    8478 000011ef B2A9          MOVL      ACC,XAR1              ; |2166| 
    8479 000011f0 8D00          MOVL      XAR0,#528             ; |2166| 
         000011f1 0210 
    8480 000011f2 8F00          MOVL      XAR4,#530             ; |2166| 
         000011f3 0212 
    8481 000011f4 5601          ADDL      XAR4,ACC
         000011f5 00A4 
    8482 000011f6 28E1          MOV       *+XAR1[4],#5          ; |2160| 
         000011f7 0005 
    8483 000011f8 A891          MOVL      *+XAR1[AR0],XAR4      ; |2166| 
    8484 000011f9 8AC1          MOVL      XAR4,*+XAR1[0]        ; |2169| 
    8485 000011fa       L322:    
    8486 000011fa FEAE          SUBB      SP,#46                ; |2169| 
    8487 000011fb 82BE          MOVL      XAR3,*--SP            ; |2169| 
    8488 000011fc 86BE          MOVL      XAR2,*--SP            ; |2169| 
    8489 000011fd 8BBE          MOVL      XAR1,*--SP            ; |2169| 
    8490                      .dwpsn  "fat.c",2170,1
    8491 000011fe 0006          LRETR
    8492                      ; return occurs
    8493              
    8494              DW$563  .dwtag  DW_TAG_loop
    8495                      .dwattr DW$563, DW_AT_name("D:\DEV\Amot\BearingWear\XTSW_V6_20\fat.asm:L316:1:1471518973")
    8496                      .dwattr DW$563, DW_AT_begin_file("fat.c")
    8497                      .dwattr DW$563, DW_AT_begin_line(0x864)
    8498                      .dwattr DW$563, DW_AT_end_line(0x86d)
    8499              DW$564  .dwtag  DW_TAG_loop_range
    8500                      .dwattr DW$564, DW_AT_low_pc(DW$L$_fn_truncate$22$B)
    8501                      .dwattr DW$564, DW_AT_high_pc(DW$L$_fn_truncate$22$E)
    8502              DW$565  .dwtag  DW_TAG_loop_range
    8503                      .dwattr DW$565, DW_AT_low_pc(DW$L$_fn_truncate$23$B)
    8504                      .dwattr DW$565, DW_AT_high_pc(DW$L$_fn_truncate$23$E)
    8505              DW$566  .dwtag  DW_TAG_loop_range
    8506                      .dwattr DW$566, DW_AT_low_pc(DW$L$_fn_truncate$24$B)
    8507                      .dwattr DW$566, DW_AT_high_pc(DW$L$_fn_truncate$24$E)
    8508              DW$567  .dwtag  DW_TAG_loop_range
    8509                      .dwattr DW$567, DW_AT_low_pc(DW$L$_fn_truncate$27$B)
    8510                      .dwattr DW$567, DW_AT_high_pc(DW$L$_fn_truncate$27$E)
    8511                      .dwendtag DW$563
    8512              
    8513                      .dwattr DW$559, DW_AT_end_file("fat.c")
    8514                      .dwattr DW$559, DW_AT_end_line(0x87a)
    8515                      .dwattr DW$559, DW_AT_end_column(0x01)
    8516                      .dwendtag DW$559
    8517              
    8518              ;***************************************************************
    8519              ;* FAR STRINGS                                                 *
    8520              ;***************************************************************
TMS320C2000 COFF Assembler PC v4.1.3 Thu Aug 18 12:16:14 2016

Tools Copyright (c) 1996-2006 Texas Instruments Incorporated
fat.asm                                                              PAGE  170

    8521 00000000               .sect   ".econst"
    8522                      .align  2
    8523 00000000 0020  FSL1:   .string "   ",0
         00000001 0020 
         00000002 0020 
         00000003 0000 
    8524                      .align  2
    8525 00000004 002E  FSL2:   .string ".       ",0
         00000005 0020 
         00000006 0020 
         00000007 0020 
         00000008 0020 
         00000009 0020 
         0000000a 0020 
         0000000b 0020 
         0000000c 0000 
    8526                      .align  2
    8527 0000000e 002E  FSL3:   .string "..      ",0
         0000000f 002E 
         00000010 0020 
         00000011 0020 
         00000012 0020 
         00000013 0020 
         00000014 0020 
         00000015 0020 
         00000016 0000 
    8528                      .align  2
    8529 00000018 0077  FSL4:   .string "w+",0
         00000019 002B 
         0000001a 0000 
    8530              ;***************************************************************
    8531              ;* UNDEFINED EXTERNAL REFERENCES                               *
    8532              ;***************************************************************
    8533                      .global _memset
    8534                      .global _fn_getdrive
    8535                      .global _fn_write
    8536                      .global _f_getdate
    8537                      .global _f_gettime
    8538                      .global __f_readsector
    8539                      .global __f_writesector
    8540                      .global __f_getclustervalue
    8541                      .global __f_clustertopos
    8542                      .global __f_getdecluster
    8543                      .global __f_checkstatus
    8544                      .global __f_getvolume
    8545                      .global __f_getword
    8546                      .global __f_getlong
    8547                      .global __f_checklocked
    8548                      .global __f_checkreadlocked
    8549                      .global __f_initentry
    8550                      .global __f_setword
    8551                      .global __f_alloccluster
    8552                      .global __f_dobadblock
    8553                      .global __f_setclustervalue
    8554                      .global __f_writefatsector
TMS320C2000 COFF Assembler PC v4.1.3 Thu Aug 18 12:16:14 2016

Tools Copyright (c) 1996-2006 Texas Instruments Incorporated
fat.asm                                                              PAGE  171

    8555                      .global __f_setdecluster
    8556                      .global __f_fseek
    8557                      .global __f_getcurrsector
    8558                      .global __f_removechain
    8559                      .global __fn_removeseekpos
    8560                      .global __fn_initseekdivisor
    8561                      .global __f_mutex_get
    8562                      .global _f_filesystem
    8563                      .global _MagicNumber
    8564                      .global ___memcpy_ff
    8565              
    8566              ;***************************************************************
    8567              ;* TYPE INFORMATION                                            *
    8568              ;***************************************************************
    8569              DW$T$3  .dwtag  DW_TAG_pointer_type
    8570                      .dwattr DW$T$3, DW_AT_address_class(0x16)
    8571              
    8572              DW$T$85 .dwtag  DW_TAG_subroutine_type, DW_AT_type(*DW$T$3)
    8573                      .dwattr DW$T$85, DW_AT_language(DW_LANG_C)
    8574              DW$568  .dwtag  DW_TAG_formal_parameter, DW_AT_type(*DW$T$3)
    8575              DW$569  .dwtag  DW_TAG_formal_parameter, DW_AT_type(*DW$T$84)
    8576              DW$570  .dwtag  DW_TAG_formal_parameter, DW_AT_type(*DW$T$13)
    8577                      .dwendtag DW$T$85
    8578              
    8579              
    8580              DW$T$87 .dwtag  DW_TAG_subroutine_type, DW_AT_type(*DW$T$3)
    8581                      .dwattr DW$T$87, DW_AT_language(DW_LANG_C)
    8582              DW$571  .dwtag  DW_TAG_formal_parameter, DW_AT_type(*DW$T$3)
    8583              DW$572  .dwtag  DW_TAG_formal_parameter, DW_AT_type(*DW$T$10)
    8584              DW$573  .dwtag  DW_TAG_formal_parameter, DW_AT_type(*DW$T$86)
    8585                      .dwendtag DW$T$87
    8586              
    8587              DW$T$84 .dwtag  DW_TAG_pointer_type, DW_AT_type(*DW$T$83)
    8588                      .dwattr DW$T$84, DW_AT_address_class(0x16)
    8589              
    8590              DW$T$90 .dwtag  DW_TAG_subroutine_type
    8591                      .dwattr DW$T$90, DW_AT_language(DW_LANG_C)
    8592              DW$574  .dwtag  DW_TAG_formal_parameter, DW_AT_type(*DW$T$89)
    8593              DW$575  .dwtag  DW_TAG_formal_parameter, DW_AT_type(*DW$T$13)
    8594              DW$576  .dwtag  DW_TAG_formal_parameter, DW_AT_type(*DW$T$66)
    8595                      .dwendtag DW$T$90
    8596              
    8597              
    8598              DW$T$94 .dwtag  DW_TAG_subroutine_type
    8599                      .dwattr DW$T$94, DW_AT_language(DW_LANG_C)
    8600              DW$577  .dwtag  DW_TAG_formal_parameter, DW_AT_type(*DW$T$93)
    8601              DW$578  .dwtag  DW_TAG_formal_parameter, DW_AT_type(*DW$T$59)
    8602              DW$579  .dwtag  DW_TAG_formal_parameter, DW_AT_type(*DW$T$59)
    8603                      .dwendtag DW$T$94
    8604              
    8605              
    8606              DW$T$96 .dwtag  DW_TAG_subroutine_type
    8607                      .dwattr DW$T$96, DW_AT_language(DW_LANG_C)
    8608              DW$580  .dwtag  DW_TAG_formal_parameter, DW_AT_type(*DW$T$3)
    8609              DW$581  .dwtag  DW_TAG_formal_parameter, DW_AT_type(*DW$T$9)
TMS320C2000 COFF Assembler PC v4.1.3 Thu Aug 18 12:16:14 2016

Tools Copyright (c) 1996-2006 Texas Instruments Incorporated
fat.asm                                                              PAGE  172

    8610                      .dwendtag DW$T$96
    8611              
    8612              
    8613              DW$T$98 .dwtag  DW_TAG_subroutine_type
    8614                      .dwattr DW$T$98, DW_AT_language(DW_LANG_C)
    8615              DW$582  .dwtag  DW_TAG_formal_parameter, DW_AT_type(*DW$T$89)
    8616              DW$583  .dwtag  DW_TAG_formal_parameter, DW_AT_type(*DW$T$93)
    8617              DW$584  .dwtag  DW_TAG_formal_parameter, DW_AT_type(*DW$T$13)
    8618                      .dwendtag DW$T$98
    8619              
    8620              
    8621              DW$T$101        .dwtag  DW_TAG_subroutine_type
    8622                      .dwattr DW$T$101, DW_AT_language(DW_LANG_C)
    8623              DW$585  .dwtag  DW_TAG_formal_parameter, DW_AT_type(*DW$T$100)
    8624                      .dwendtag DW$T$101
    8625              
    8626              
    8627              DW$T$103        .dwtag  DW_TAG_subroutine_type
    8628                      .dwattr DW$T$103, DW_AT_language(DW_LANG_C)
    8629              DW$586  .dwtag  DW_TAG_formal_parameter, DW_AT_type(*DW$T$100)
    8630              DW$587  .dwtag  DW_TAG_formal_parameter, DW_AT_type(*DW$T$89)
    8631                      .dwendtag DW$T$103
    8632              
    8633              
    8634              DW$T$105        .dwtag  DW_TAG_subroutine_type
    8635                      .dwattr DW$T$105, DW_AT_language(DW_LANG_C)
    8636              DW$588  .dwtag  DW_TAG_formal_parameter, DW_AT_type(*DW$T$59)
    8637              DW$589  .dwtag  DW_TAG_formal_parameter, DW_AT_type(*DW$T$59)
    8638              DW$590  .dwtag  DW_TAG_formal_parameter, DW_AT_type(*DW$T$59)
    8639                      .dwendtag DW$T$105
    8640              
    8641              DW$T$6  .dwtag  DW_TAG_base_type, DW_AT_name("unsigned char")
    8642                      .dwattr DW$T$6, DW_AT_encoding(DW_ATE_unsigned_char)
    8643                      .dwattr DW$T$6, DW_AT_byte_size(0x01)
    8644              DW$T$107        .dwtag  DW_TAG_pointer_type, DW_AT_type(*DW$T$6)
    8645                      .dwattr DW$T$107, DW_AT_address_class(0x16)
    8646              DW$T$9  .dwtag  DW_TAG_base_type, DW_AT_name("unsigned short")
    8647                      .dwattr DW$T$9, DW_AT_encoding(DW_ATE_unsigned)
    8648                      .dwattr DW$T$9, DW_AT_byte_size(0x01)
    8649              DW$T$109        .dwtag  DW_TAG_pointer_type, DW_AT_type(*DW$T$9)
    8650                      .dwattr DW$T$109, DW_AT_address_class(0x16)
    8651              
    8652              DW$T$111        .dwtag  DW_TAG_subroutine_type, DW_AT_type(*DW$T$9)
    8653                      .dwattr DW$T$111, DW_AT_language(DW_LANG_C)
    8654              
    8655              DW$T$112        .dwtag  DW_TAG_subroutine_type, DW_AT_type(*DW$T$9)
    8656                      .dwattr DW$T$112, DW_AT_language(DW_LANG_C)
    8657              DW$591  .dwtag  DW_TAG_formal_parameter, DW_AT_type(*DW$T$3)
    8658                      .dwendtag DW$T$112
    8659              
    8660              DW$T$10 .dwtag  DW_TAG_base_type, DW_AT_name("int")
    8661                      .dwattr DW$T$10, DW_AT_encoding(DW_ATE_signed)
    8662                      .dwattr DW$T$10, DW_AT_byte_size(0x01)
    8663              DW$T$114        .dwtag  DW_TAG_pointer_type, DW_AT_type(*DW$T$10)
    8664                      .dwattr DW$T$114, DW_AT_address_class(0x16)
TMS320C2000 COFF Assembler PC v4.1.3 Thu Aug 18 12:16:14 2016

Tools Copyright (c) 1996-2006 Texas Instruments Incorporated
fat.asm                                                              PAGE  173

    8665              
    8666              DW$T$118        .dwtag  DW_TAG_subroutine_type, DW_AT_type(*DW$T$10)
    8667                      .dwattr DW$T$118, DW_AT_language(DW_LANG_C)
    8668              DW$592  .dwtag  DW_TAG_formal_parameter, DW_AT_type(*DW$T$117)
    8669                      .dwendtag DW$T$118
    8670              
    8671              
    8672              DW$T$120        .dwtag  DW_TAG_subroutine_type, DW_AT_type(*DW$T$10)
    8673                      .dwattr DW$T$120, DW_AT_language(DW_LANG_C)
    8674              DW$593  .dwtag  DW_TAG_formal_parameter, DW_AT_type(*DW$T$89)
    8675              DW$594  .dwtag  DW_TAG_formal_parameter, DW_AT_type(*DW$T$3)
    8676              DW$595  .dwtag  DW_TAG_formal_parameter, DW_AT_type(*DW$T$13)
    8677              DW$596  .dwtag  DW_TAG_formal_parameter, DW_AT_type(*DW$T$10)
    8678                      .dwendtag DW$T$120
    8679              
    8680              
    8681              DW$T$122        .dwtag  DW_TAG_subroutine_type, DW_AT_type(*DW$T$10)
    8682                      .dwattr DW$T$122, DW_AT_language(DW_LANG_C)
    8683              DW$597  .dwtag  DW_TAG_formal_parameter, DW_AT_type(*DW$T$89)
    8684              DW$598  .dwtag  DW_TAG_formal_parameter, DW_AT_type(*DW$T$13)
    8685              DW$599  .dwtag  DW_TAG_formal_parameter, DW_AT_type(*DW$T$23)
    8686                      .dwendtag DW$T$122
    8687              
    8688              
    8689              DW$T$124        .dwtag  DW_TAG_subroutine_type, DW_AT_type(*DW$T$10)
    8690                      .dwattr DW$T$124, DW_AT_language(DW_LANG_C)
    8691              DW$600  .dwtag  DW_TAG_formal_parameter, DW_AT_type(*DW$T$89)
    8692                      .dwendtag DW$T$124
    8693              
    8694              
    8695              DW$T$127        .dwtag  DW_TAG_subroutine_type, DW_AT_type(*DW$T$10)
    8696                      .dwattr DW$T$127, DW_AT_language(DW_LANG_C)
    8697              DW$601  .dwtag  DW_TAG_formal_parameter, DW_AT_type(*DW$T$117)
    8698              DW$602  .dwtag  DW_TAG_formal_parameter, DW_AT_type(*DW$T$10)
    8699              DW$603  .dwtag  DW_TAG_formal_parameter, DW_AT_type(*DW$T$126)
    8700                      .dwendtag DW$T$127
    8701              
    8702              
    8703              DW$T$129        .dwtag  DW_TAG_subroutine_type, DW_AT_type(*DW$T$10)
    8704                      .dwattr DW$T$129, DW_AT_language(DW_LANG_C)
    8705              DW$604  .dwtag  DW_TAG_formal_parameter, DW_AT_type(*DW$T$12)
    8706              DW$605  .dwtag  DW_TAG_formal_parameter, DW_AT_type(*DW$T$66)
    8707                      .dwendtag DW$T$129
    8708              
    8709              
    8710              DW$T$131        .dwtag  DW_TAG_subroutine_type, DW_AT_type(*DW$T$10)
    8711                      .dwattr DW$T$131, DW_AT_language(DW_LANG_C)
    8712              DW$606  .dwtag  DW_TAG_formal_parameter, DW_AT_type(*DW$T$89)
    8713              DW$607  .dwtag  DW_TAG_formal_parameter, DW_AT_type(*DW$T$23)
    8714                      .dwendtag DW$T$131
    8715              
    8716              
    8717              DW$T$133        .dwtag  DW_TAG_subroutine_type, DW_AT_type(*DW$T$10)
    8718                      .dwattr DW$T$133, DW_AT_language(DW_LANG_C)
    8719              DW$608  .dwtag  DW_TAG_formal_parameter, DW_AT_type(*DW$T$89)
TMS320C2000 COFF Assembler PC v4.1.3 Thu Aug 18 12:16:14 2016

Tools Copyright (c) 1996-2006 Texas Instruments Incorporated
fat.asm                                                              PAGE  174

    8720              DW$609  .dwtag  DW_TAG_formal_parameter, DW_AT_type(*DW$T$100)
    8721                      .dwendtag DW$T$133
    8722              
    8723              
    8724              DW$T$135        .dwtag  DW_TAG_subroutine_type, DW_AT_type(*DW$T$10)
    8725                      .dwattr DW$T$135, DW_AT_language(DW_LANG_C)
    8726              DW$610  .dwtag  DW_TAG_formal_parameter, DW_AT_type(*DW$T$89)
    8727              DW$611  .dwtag  DW_TAG_formal_parameter, DW_AT_type(*DW$T$13)
    8728              DW$612  .dwtag  DW_TAG_formal_parameter, DW_AT_type(*DW$T$13)
    8729                      .dwendtag DW$T$135
    8730              
    8731              
    8732              DW$T$137        .dwtag  DW_TAG_subroutine_type, DW_AT_type(*DW$T$10)
    8733                      .dwattr DW$T$137, DW_AT_language(DW_LANG_C)
    8734              DW$613  .dwtag  DW_TAG_formal_parameter, DW_AT_type(*DW$T$89)
    8735              DW$614  .dwtag  DW_TAG_formal_parameter, DW_AT_type(*DW$T$117)
    8736              DW$615  .dwtag  DW_TAG_formal_parameter, DW_AT_type(*DW$T$100)
    8737              DW$616  .dwtag  DW_TAG_formal_parameter, DW_AT_type(*DW$T$12)
    8738                      .dwendtag DW$T$137
    8739              
    8740              
    8741              DW$T$139        .dwtag  DW_TAG_subroutine_type, DW_AT_type(*DW$T$10)
    8742                      .dwattr DW$T$139, DW_AT_language(DW_LANG_C)
    8743              DW$617  .dwtag  DW_TAG_formal_parameter, DW_AT_type(*DW$T$89)
    8744              DW$618  .dwtag  DW_TAG_formal_parameter, DW_AT_type(*DW$T$100)
    8745              DW$619  .dwtag  DW_TAG_formal_parameter, DW_AT_type(*DW$T$59)
    8746              DW$620  .dwtag  DW_TAG_formal_parameter, DW_AT_type(*DW$T$114)
    8747                      .dwendtag DW$T$139
    8748              
    8749              
    8750              DW$T$141        .dwtag  DW_TAG_subroutine_type, DW_AT_type(*DW$T$10)
    8751                      .dwattr DW$T$141, DW_AT_language(DW_LANG_C)
    8752              DW$621  .dwtag  DW_TAG_formal_parameter, DW_AT_type(*DW$T$89)
    8753              DW$622  .dwtag  DW_TAG_formal_parameter, DW_AT_type(*DW$T$13)
    8754                      .dwendtag DW$T$141
    8755              
    8756              
    8757              DW$T$143        .dwtag  DW_TAG_subroutine_type, DW_AT_type(*DW$T$10)
    8758                      .dwattr DW$T$143, DW_AT_language(DW_LANG_C)
    8759              DW$623  .dwtag  DW_TAG_formal_parameter, DW_AT_type(*DW$T$117)
    8760              DW$624  .dwtag  DW_TAG_formal_parameter, DW_AT_type(*DW$T$89)
    8761                      .dwendtag DW$T$143
    8762              
    8763              
    8764              DW$T$147        .dwtag  DW_TAG_subroutine_type, DW_AT_type(*DW$T$10)
    8765                      .dwattr DW$T$147, DW_AT_language(DW_LANG_C)
    8766              DW$625  .dwtag  DW_TAG_formal_parameter, DW_AT_type(*DW$T$146)
    8767              DW$626  .dwtag  DW_TAG_formal_parameter, DW_AT_type(*DW$T$59)
    8768              DW$627  .dwtag  DW_TAG_formal_parameter, DW_AT_type(*DW$T$59)
    8769                      .dwendtag DW$T$147
    8770              
    8771              
    8772              DW$T$150        .dwtag  DW_TAG_subroutine_type, DW_AT_type(*DW$T$10)
    8773                      .dwattr DW$T$150, DW_AT_language(DW_LANG_C)
    8774              DW$628  .dwtag  DW_TAG_formal_parameter, DW_AT_type(*DW$T$117)
TMS320C2000 COFF Assembler PC v4.1.3 Thu Aug 18 12:16:14 2016

Tools Copyright (c) 1996-2006 Texas Instruments Incorporated
fat.asm                                                              PAGE  175

    8775              DW$629  .dwtag  DW_TAG_formal_parameter, DW_AT_type(*DW$T$146)
    8776              DW$630  .dwtag  DW_TAG_formal_parameter, DW_AT_type(*DW$T$149)
    8777                      .dwendtag DW$T$150
    8778              
    8779              
    8780              DW$T$153        .dwtag  DW_TAG_subroutine_type, DW_AT_type(*DW$T$10)
    8781                      .dwattr DW$T$153, DW_AT_language(DW_LANG_C)
    8782              DW$631  .dwtag  DW_TAG_formal_parameter, DW_AT_type(*DW$T$89)
    8783              DW$632  .dwtag  DW_TAG_formal_parameter, DW_AT_type(*DW$T$59)
    8784              DW$633  .dwtag  DW_TAG_formal_parameter, DW_AT_type(*DW$T$59)
    8785              DW$634  .dwtag  DW_TAG_formal_parameter, DW_AT_type(*DW$T$66)
    8786              DW$635  .dwtag  DW_TAG_formal_parameter, DW_AT_type(*DW$T$152)
    8787                      .dwendtag DW$T$153
    8788              
    8789              
    8790              DW$T$155        .dwtag  DW_TAG_subroutine_type, DW_AT_type(*DW$T$10)
    8791                      .dwattr DW$T$155, DW_AT_language(DW_LANG_C)
    8792              DW$636  .dwtag  DW_TAG_formal_parameter, DW_AT_type(*DW$T$146)
    8793              DW$637  .dwtag  DW_TAG_formal_parameter, DW_AT_type(*DW$T$146)
    8794                      .dwendtag DW$T$155
    8795              
    8796              
    8797              DW$T$157        .dwtag  DW_TAG_subroutine_type, DW_AT_type(*DW$T$10)
    8798                      .dwattr DW$T$157, DW_AT_language(DW_LANG_C)
    8799              DW$638  .dwtag  DW_TAG_formal_parameter, DW_AT_type(*DW$T$89)
    8800              DW$639  .dwtag  DW_TAG_formal_parameter, DW_AT_type(*DW$T$149)
    8801              DW$640  .dwtag  DW_TAG_formal_parameter, DW_AT_type(*DW$T$66)
    8802                      .dwendtag DW$T$157
    8803              
    8804              
    8805              DW$T$159        .dwtag  DW_TAG_subroutine_type, DW_AT_type(*DW$T$10)
    8806                      .dwattr DW$T$159, DW_AT_language(DW_LANG_C)
    8807              DW$641  .dwtag  DW_TAG_formal_parameter, DW_AT_type(*DW$T$117)
    8808              DW$642  .dwtag  DW_TAG_formal_parameter, DW_AT_type(*DW$T$10)
    8809              DW$643  .dwtag  DW_TAG_formal_parameter, DW_AT_type(*DW$T$59)
    8810              DW$644  .dwtag  DW_TAG_formal_parameter, DW_AT_type(*DW$T$10)
    8811                      .dwendtag DW$T$159
    8812              
    8813              
    8814              DW$T$161        .dwtag  DW_TAG_subroutine_type, DW_AT_type(*DW$T$10)
    8815                      .dwattr DW$T$161, DW_AT_language(DW_LANG_C)
    8816              DW$645  .dwtag  DW_TAG_formal_parameter, DW_AT_type(*DW$T$117)
    8817              DW$646  .dwtag  DW_TAG_formal_parameter, DW_AT_type(*DW$T$59)
    8818              DW$647  .dwtag  DW_TAG_formal_parameter, DW_AT_type(*DW$T$10)
    8819                      .dwendtag DW$T$161
    8820              
    8821              
    8822              DW$T$164        .dwtag  DW_TAG_subroutine_type, DW_AT_type(*DW$T$10)
    8823                      .dwattr DW$T$164, DW_AT_language(DW_LANG_C)
    8824              DW$648  .dwtag  DW_TAG_formal_parameter, DW_AT_type(*DW$T$117)
    8825              DW$649  .dwtag  DW_TAG_formal_parameter, DW_AT_type(*DW$T$146)
    8826              DW$650  .dwtag  DW_TAG_formal_parameter, DW_AT_type(*DW$T$163)
    8827                      .dwendtag DW$T$164
    8828              
    8829              
TMS320C2000 COFF Assembler PC v4.1.3 Thu Aug 18 12:16:14 2016

Tools Copyright (c) 1996-2006 Texas Instruments Incorporated
fat.asm                                                              PAGE  176

    8830              DW$T$165        .dwtag  DW_TAG_subroutine_type, DW_AT_type(*DW$T$10)
    8831                      .dwattr DW$T$165, DW_AT_language(DW_LANG_C)
    8832              DW$651  .dwtag  DW_TAG_formal_parameter, DW_AT_type(*DW$T$117)
    8833              DW$652  .dwtag  DW_TAG_formal_parameter, DW_AT_type(*DW$T$163)
    8834                      .dwendtag DW$T$165
    8835              
    8836              
    8837              DW$T$167        .dwtag  DW_TAG_subroutine_type, DW_AT_type(*DW$T$10)
    8838                      .dwattr DW$T$167, DW_AT_language(DW_LANG_C)
    8839              DW$653  .dwtag  DW_TAG_formal_parameter, DW_AT_type(*DW$T$117)
    8840              DW$654  .dwtag  DW_TAG_formal_parameter, DW_AT_type(*DW$T$146)
    8841                      .dwendtag DW$T$167
    8842              
    8843              
    8844              DW$T$168        .dwtag  DW_TAG_subroutine_type, DW_AT_type(*DW$T$10)
    8845                      .dwattr DW$T$168, DW_AT_language(DW_LANG_C)
    8846              DW$655  .dwtag  DW_TAG_formal_parameter, DW_AT_type(*DW$T$117)
    8847              DW$656  .dwtag  DW_TAG_formal_parameter, DW_AT_type(*DW$T$146)
    8848              DW$657  .dwtag  DW_TAG_formal_parameter, DW_AT_type(*DW$T$146)
    8849                      .dwendtag DW$T$168
    8850              
    8851              
    8852              DW$T$169        .dwtag  DW_TAG_subroutine_type, DW_AT_type(*DW$T$10)
    8853                      .dwattr DW$T$169, DW_AT_language(DW_LANG_C)
    8854              DW$658  .dwtag  DW_TAG_formal_parameter, DW_AT_type(*DW$T$89)
    8855              DW$659  .dwtag  DW_TAG_formal_parameter, DW_AT_type(*DW$T$149)
    8856              DW$660  .dwtag  DW_TAG_formal_parameter, DW_AT_type(*DW$T$66)
    8857              DW$661  .dwtag  DW_TAG_formal_parameter, DW_AT_type(*DW$T$152)
    8858                      .dwendtag DW$T$169
    8859              
    8860              
    8861              DW$T$171        .dwtag  DW_TAG_subroutine_type, DW_AT_type(*DW$T$10)
    8862                      .dwattr DW$T$171, DW_AT_language(DW_LANG_C)
    8863              DW$662  .dwtag  DW_TAG_formal_parameter, DW_AT_type(*DW$T$117)
    8864              DW$663  .dwtag  DW_TAG_formal_parameter, DW_AT_type(*DW$T$146)
    8865              DW$664  .dwtag  DW_TAG_formal_parameter, DW_AT_type(*DW$T$9)
    8866              DW$665  .dwtag  DW_TAG_formal_parameter, DW_AT_type(*DW$T$9)
    8867                      .dwendtag DW$T$171
    8868              
    8869              
    8870              DW$T$172        .dwtag  DW_TAG_subroutine_type, DW_AT_type(*DW$T$10)
    8871                      .dwattr DW$T$172, DW_AT_language(DW_LANG_C)
    8872              DW$666  .dwtag  DW_TAG_formal_parameter, DW_AT_type(*DW$T$117)
    8873              DW$667  .dwtag  DW_TAG_formal_parameter, DW_AT_type(*DW$T$146)
    8874              DW$668  .dwtag  DW_TAG_formal_parameter, DW_AT_type(*DW$T$109)
    8875              DW$669  .dwtag  DW_TAG_formal_parameter, DW_AT_type(*DW$T$109)
    8876                      .dwendtag DW$T$172
    8877              
    8878              
    8879              DW$T$173        .dwtag  DW_TAG_subroutine_type, DW_AT_type(*DW$T$10)
    8880                      .dwattr DW$T$173, DW_AT_language(DW_LANG_C)
    8881              DW$670  .dwtag  DW_TAG_formal_parameter, DW_AT_type(*DW$T$117)
    8882              DW$671  .dwtag  DW_TAG_formal_parameter, DW_AT_type(*DW$T$146)
    8883              DW$672  .dwtag  DW_TAG_formal_parameter, DW_AT_type(*DW$T$107)
    8884                      .dwendtag DW$T$173
TMS320C2000 COFF Assembler PC v4.1.3 Thu Aug 18 12:16:14 2016

Tools Copyright (c) 1996-2006 Texas Instruments Incorporated
fat.asm                                                              PAGE  177

    8885              
    8886              
    8887              DW$T$174        .dwtag  DW_TAG_subroutine_type, DW_AT_type(*DW$T$10)
    8888                      .dwattr DW$T$174, DW_AT_language(DW_LANG_C)
    8889              DW$673  .dwtag  DW_TAG_formal_parameter, DW_AT_type(*DW$T$117)
    8890              DW$674  .dwtag  DW_TAG_formal_parameter, DW_AT_type(*DW$T$146)
    8891              DW$675  .dwtag  DW_TAG_formal_parameter, DW_AT_type(*DW$T$6)
    8892                      .dwendtag DW$T$174
    8893              
    8894              
    8895              DW$T$175        .dwtag  DW_TAG_subroutine_type, DW_AT_type(*DW$T$10)
    8896                      .dwattr DW$T$175, DW_AT_language(DW_LANG_C)
    8897              DW$676  .dwtag  DW_TAG_formal_parameter, DW_AT_type(*DW$T$117)
    8898              DW$677  .dwtag  DW_TAG_formal_parameter, DW_AT_type(*DW$T$10)
    8899              DW$678  .dwtag  DW_TAG_formal_parameter, DW_AT_type(*DW$T$59)
    8900              DW$679  .dwtag  DW_TAG_formal_parameter, DW_AT_type(*DW$T$12)
    8901                      .dwendtag DW$T$175
    8902              
    8903              
    8904              DW$T$176        .dwtag  DW_TAG_subroutine_type, DW_AT_type(*DW$T$10)
    8905                      .dwattr DW$T$176, DW_AT_language(DW_LANG_C)
    8906              DW$680  .dwtag  DW_TAG_formal_parameter, DW_AT_type(*DW$T$117)
    8907              DW$681  .dwtag  DW_TAG_formal_parameter, DW_AT_type(*DW$T$10)
    8908              DW$682  .dwtag  DW_TAG_formal_parameter, DW_AT_type(*DW$T$146)
    8909                      .dwendtag DW$T$176
    8910              
    8911              DW$T$12 .dwtag  DW_TAG_base_type, DW_AT_name("long")
    8912                      .dwattr DW$T$12, DW_AT_encoding(DW_ATE_signed)
    8913                      .dwattr DW$T$12, DW_AT_byte_size(0x02)
    8914              
    8915              DW$T$211        .dwtag  DW_TAG_subroutine_type, DW_AT_type(*DW$T$12)
    8916                      .dwattr DW$T$211, DW_AT_language(DW_LANG_C)
    8917              DW$683  .dwtag  DW_TAG_formal_parameter, DW_AT_type(*DW$T$117)
    8918              DW$684  .dwtag  DW_TAG_formal_parameter, DW_AT_type(*DW$T$84)
    8919              DW$685  .dwtag  DW_TAG_formal_parameter, DW_AT_type(*DW$T$12)
    8920              DW$686  .dwtag  DW_TAG_formal_parameter, DW_AT_type(*DW$T$12)
    8921              DW$687  .dwtag  DW_TAG_formal_parameter, DW_AT_type(*DW$T$210)
    8922                      .dwendtag DW$T$211
    8923              
    8924              
    8925              DW$T$213        .dwtag  DW_TAG_subroutine_type, DW_AT_type(*DW$T$12)
    8926                      .dwattr DW$T$213, DW_AT_language(DW_LANG_C)
    8927              DW$688  .dwtag  DW_TAG_formal_parameter, DW_AT_type(*DW$T$59)
    8928              DW$689  .dwtag  DW_TAG_formal_parameter, DW_AT_type(*DW$T$59)
    8929                      .dwendtag DW$T$213
    8930              
    8931              
    8932              DW$T$215        .dwtag  DW_TAG_subroutine_type, DW_AT_type(*DW$T$12)
    8933                      .dwattr DW$T$215, DW_AT_language(DW_LANG_C)
    8934              DW$690  .dwtag  DW_TAG_formal_parameter, DW_AT_type(*DW$T$117)
    8935              DW$691  .dwtag  DW_TAG_formal_parameter, DW_AT_type(*DW$T$146)
    8936                      .dwendtag DW$T$215
    8937              
    8938              DW$T$13 .dwtag  DW_TAG_base_type, DW_AT_name("unsigned long")
    8939                      .dwattr DW$T$13, DW_AT_encoding(DW_ATE_unsigned)
TMS320C2000 COFF Assembler PC v4.1.3 Thu Aug 18 12:16:14 2016

Tools Copyright (c) 1996-2006 Texas Instruments Incorporated
fat.asm                                                              PAGE  178

    8940                      .dwattr DW$T$13, DW_AT_byte_size(0x02)
    8941              DW$T$23 .dwtag  DW_TAG_pointer_type, DW_AT_type(*DW$T$13)
    8942                      .dwattr DW$T$23, DW_AT_address_class(0x16)
    8943              DW$T$86 .dwtag  DW_TAG_typedef, DW_AT_name("size_t"), DW_AT_type(*DW$T$13)
    8944                      .dwattr DW$T$86, DW_AT_language(DW_LANG_C)
    8945              
    8946              DW$T$216        .dwtag  DW_TAG_subroutine_type, DW_AT_type(*DW$T$13)
    8947                      .dwattr DW$T$216, DW_AT_language(DW_LANG_C)
    8948              DW$692  .dwtag  DW_TAG_formal_parameter, DW_AT_type(*DW$T$89)
    8949              DW$693  .dwtag  DW_TAG_formal_parameter, DW_AT_type(*DW$T$93)
    8950                      .dwendtag DW$T$216
    8951              
    8952              
    8953              DW$T$218        .dwtag  DW_TAG_subroutine_type, DW_AT_type(*DW$T$13)
    8954                      .dwattr DW$T$218, DW_AT_language(DW_LANG_C)
    8955              DW$694  .dwtag  DW_TAG_formal_parameter, DW_AT_type(*DW$T$3)
    8956                      .dwendtag DW$T$218
    8957              
    8958              DW$T$59 .dwtag  DW_TAG_pointer_type, DW_AT_type(*DW$T$19)
    8959                      .dwattr DW$T$59, DW_AT_address_class(0x16)
    8960              DW$T$146        .dwtag  DW_TAG_pointer_type, DW_AT_type(*DW$T$145)
    8961                      .dwattr DW$T$146, DW_AT_address_class(0x16)
    8962              
    8963              DW$T$223        .dwtag  DW_TAG_array_type, DW_AT_type(*DW$T$19)
    8964                      .dwattr DW$T$223, DW_AT_language(DW_LANG_C)
    8965                      .dwattr DW$T$223, DW_AT_byte_size(0x200)
    8966              DW$695  .dwtag  DW_TAG_subrange_type
    8967                      .dwattr DW$695, DW_AT_upper_bound(0x1ff)
    8968                      .dwendtag DW$T$223
    8969              
    8970              DW$T$117        .dwtag  DW_TAG_pointer_type, DW_AT_type(*DW$T$116)
    8971                      .dwattr DW$T$117, DW_AT_address_class(0x16)
    8972              DW$T$210        .dwtag  DW_TAG_pointer_type, DW_AT_type(*DW$T$69)
    8973                      .dwattr DW$T$210, DW_AT_address_class(0x16)
    8974              
    8975              DW$T$231        .dwtag  DW_TAG_subroutine_type, DW_AT_type(*DW$T$210)
    8976                      .dwattr DW$T$231, DW_AT_language(DW_LANG_C)
    8977              DW$696  .dwtag  DW_TAG_formal_parameter, DW_AT_type(*DW$T$117)
    8978              DW$697  .dwtag  DW_TAG_formal_parameter, DW_AT_type(*DW$T$146)
    8979              DW$698  .dwtag  DW_TAG_formal_parameter, DW_AT_type(*DW$T$146)
    8980                      .dwendtag DW$T$231
    8981              
    8982              
    8983              DW$T$232        .dwtag  DW_TAG_subroutine_type, DW_AT_type(*DW$T$210)
    8984                      .dwattr DW$T$232, DW_AT_language(DW_LANG_C)
    8985              DW$699  .dwtag  DW_TAG_formal_parameter, DW_AT_type(*DW$T$117)
    8986              DW$700  .dwtag  DW_TAG_formal_parameter, DW_AT_type(*DW$T$146)
    8987              DW$701  .dwtag  DW_TAG_formal_parameter, DW_AT_type(*DW$T$13)
    8988                      .dwendtag DW$T$232
    8989              
    8990              DW$T$89 .dwtag  DW_TAG_pointer_type, DW_AT_type(*DW$T$78)
    8991                      .dwattr DW$T$89, DW_AT_address_class(0x16)
    8992              DW$T$126        .dwtag  DW_TAG_pointer_type, DW_AT_type(*DW$T$89)
    8993                      .dwattr DW$T$126, DW_AT_address_class(0x16)
    8994              DW$T$66 .dwtag  DW_TAG_pointer_type, DW_AT_type(*DW$T$65)
TMS320C2000 COFF Assembler PC v4.1.3 Thu Aug 18 12:16:14 2016

Tools Copyright (c) 1996-2006 Texas Instruments Incorporated
fat.asm                                                              PAGE  179

    8995                      .dwattr DW$T$66, DW_AT_address_class(0x16)
    8996              DW$T$93 .dwtag  DW_TAG_pointer_type, DW_AT_type(*DW$T$92)
    8997                      .dwattr DW$T$93, DW_AT_address_class(0x16)
    8998              DW$T$152        .dwtag  DW_TAG_pointer_type, DW_AT_type(*DW$T$93)
    8999                      .dwattr DW$T$152, DW_AT_address_class(0x16)
    9000              DW$T$100        .dwtag  DW_TAG_pointer_type, DW_AT_type(*DW$T$80)
    9001                      .dwattr DW$T$100, DW_AT_address_class(0x16)
    9002              
    9003              DW$T$252        .dwtag  DW_TAG_subroutine_type, DW_AT_type(*DW$T$100)
    9004                      .dwattr DW$T$252, DW_AT_language(DW_LANG_C)
    9005              DW$T$149        .dwtag  DW_TAG_pointer_type, DW_AT_type(*DW$T$76)
    9006                      .dwattr DW$T$149, DW_AT_address_class(0x16)
    9007              DW$T$163        .dwtag  DW_TAG_pointer_type, DW_AT_type(*DW$T$162)
    9008                      .dwattr DW$T$163, DW_AT_address_class(0x16)
    9009              DW$T$264        .dwtag  DW_TAG_typedef, DW_AT_name("F_FILESYSTEM"), DW_AT_type(*DW$T$82)
    9010                      .dwattr DW$T$264, DW_AT_language(DW_LANG_C)
    9011              DW$702  .dwtag  DW_TAG_far_type
    9012              DW$T$83 .dwtag  DW_TAG_const_type
    9013                      .dwattr DW$T$83, DW_AT_type(*DW$702)
    9014              DW$T$19 .dwtag  DW_TAG_base_type, DW_AT_name("signed char")
    9015                      .dwattr DW$T$19, DW_AT_encoding(DW_ATE_signed_char)
    9016                      .dwattr DW$T$19, DW_AT_byte_size(0x01)
    9017              DW$703  .dwtag  DW_TAG_far_type
    9018                      .dwattr DW$703, DW_AT_type(*DW$T$19)
    9019              DW$T$145        .dwtag  DW_TAG_const_type
    9020                      .dwattr DW$T$145, DW_AT_type(*DW$703)
    9021              DW$T$116        .dwtag  DW_TAG_typedef, DW_AT_name("F_MULTI"), DW_AT_type(*DW$T$24)
    9022                      .dwattr DW$T$116, DW_AT_language(DW_LANG_C)
    9023              DW$T$69 .dwtag  DW_TAG_typedef, DW_AT_name("F_FILE"), DW_AT_type(*DW$T$25)
    9024                      .dwattr DW$T$69, DW_AT_language(DW_LANG_C)
    9025              DW$T$78 .dwtag  DW_TAG_typedef, DW_AT_name("F_VOLUME"), DW_AT_type(*DW$T$61)
    9026                      .dwattr DW$T$78, DW_AT_language(DW_LANG_C)
    9027              DW$T$65 .dwtag  DW_TAG_typedef, DW_AT_name("F_POS"), DW_AT_type(*DW$T$62)
    9028                      .dwattr DW$T$65, DW_AT_language(DW_LANG_C)
    9029              DW$T$92 .dwtag  DW_TAG_typedef, DW_AT_name("F_DIRENTRY"), DW_AT_type(*DW$T$64)
    9030                      .dwattr DW$T$92, DW_AT_language(DW_LANG_C)
    9031              DW$T$80 .dwtag  DW_TAG_typedef, DW_AT_name("F_FILEINT"), DW_AT_type(*DW$T$72)
    9032                      .dwattr DW$T$80, DW_AT_language(DW_LANG_C)
    9033              DW$T$76 .dwtag  DW_TAG_typedef, DW_AT_name("F_NAME"), DW_AT_type(*DW$T$75)
    9034                      .dwattr DW$T$76, DW_AT_language(DW_LANG_C)
    9035              DW$T$162        .dwtag  DW_TAG_typedef, DW_AT_name("F_FIND"), DW_AT_type(*DW$T$77)
    9036                      .dwattr DW$T$162, DW_AT_language(DW_LANG_C)
    9037              
    9038              DW$T$82 .dwtag  DW_TAG_structure_type
    9039                      .dwattr DW$T$82, DW_AT_byte_size(0xa4a)
    9040              DW$704  .dwtag  DW_TAG_member, DW_AT_type(*DW$T$79)
    9041                      .dwattr DW$704, DW_AT_name("volumes"), DW_AT_symbol_name("_volumes")
    9042                      .dwattr DW$704, DW_AT_data_member_location[DW_OP_plus_uconst 0x0]
    9043                      .dwattr DW$704, DW_AT_accessibility(DW_ACCESS_public)
    9044              DW$705  .dwtag  DW_TAG_member, DW_AT_type(*DW$T$81)
    9045                      .dwattr DW$705, DW_AT_name("files"), DW_AT_symbol_name("_files")
    9046                      .dwattr DW$705, DW_AT_data_member_location[DW_OP_plus_uconst 0x47c]
    9047                      .dwattr DW$705, DW_AT_accessibility(DW_ACCESS_public)
    9048              DW$706  .dwtag  DW_TAG_member, DW_AT_type(*DW$T$57)
    9049                      .dwattr DW$706, DW_AT_name("sectorbuffer"), DW_AT_symbol_name("_sectorbuffer")
TMS320C2000 COFF Assembler PC v4.1.3 Thu Aug 18 12:16:14 2016

Tools Copyright (c) 1996-2006 Texas Instruments Incorporated
fat.asm                                                              PAGE  180

    9050                      .dwattr DW$706, DW_AT_data_member_location[DW_OP_plus_uconst 0x84a]
    9051                      .dwattr DW$706, DW_AT_accessibility(DW_ACCESS_public)
    9052                      .dwendtag DW$T$82
    9053              
    9054              
    9055              DW$T$57 .dwtag  DW_TAG_array_type, DW_AT_type(*DW$T$6)
    9056                      .dwattr DW$T$57, DW_AT_language(DW_LANG_C)
    9057                      .dwattr DW$T$57, DW_AT_byte_size(0x200)
    9058              DW$707  .dwtag  DW_TAG_subrange_type
    9059                      .dwattr DW$707, DW_AT_upper_bound(0x1ff)
    9060                      .dwendtag DW$T$57
    9061              
    9062              
    9063              DW$T$24 .dwtag  DW_TAG_structure_type
    9064                      .dwattr DW$T$24, DW_AT_byte_size(0x1a)
    9065              DW$708  .dwtag  DW_TAG_member, DW_AT_type(*DW$T$12)
    9066                      .dwattr DW$708, DW_AT_name("ID"), DW_AT_symbol_name("_ID")
    9067                      .dwattr DW$708, DW_AT_data_member_location[DW_OP_plus_uconst 0x0]
    9068                      .dwattr DW$708, DW_AT_accessibility(DW_ACCESS_public)
    9069              DW$709  .dwtag  DW_TAG_member, DW_AT_type(*DW$T$10)
    9070                      .dwattr DW$709, DW_AT_name("f_curdrive"), DW_AT_symbol_name("_f_curdrive")
    9071                      .dwattr DW$709, DW_AT_data_member_location[DW_OP_plus_uconst 0x2]
    9072                      .dwattr DW$709, DW_AT_accessibility(DW_ACCESS_public)
    9073              DW$710  .dwtag  DW_TAG_member, DW_AT_type(*DW$T$22)
    9074                      .dwattr DW$710, DW_AT_name("f_vols"), DW_AT_symbol_name("_f_vols")
    9075                      .dwattr DW$710, DW_AT_data_member_location[DW_OP_plus_uconst 0x3]
    9076                      .dwattr DW$710, DW_AT_accessibility(DW_ACCESS_public)
    9077              DW$711  .dwtag  DW_TAG_member, DW_AT_type(*DW$T$23)
    9078                      .dwattr DW$711, DW_AT_name("pmutex"), DW_AT_symbol_name("_pmutex")
    9079                      .dwattr DW$711, DW_AT_data_member_location[DW_OP_plus_uconst 0x18]
    9080                      .dwattr DW$711, DW_AT_accessibility(DW_ACCESS_public)
    9081                      .dwendtag DW$T$24
    9082              
    9083              
    9084              DW$T$25 .dwtag  DW_TAG_structure_type
    9085                      .dwattr DW$T$25, DW_AT_byte_size(0x02)
    9086              DW$712  .dwtag  DW_TAG_member, DW_AT_type(*DW$T$3)
    9087                      .dwattr DW$712, DW_AT_name("reference"), DW_AT_symbol_name("_reference")
    9088                      .dwattr DW$712, DW_AT_data_member_location[DW_OP_plus_uconst 0x0]
    9089                      .dwattr DW$712, DW_AT_accessibility(DW_ACCESS_public)
    9090                      .dwendtag DW$T$25
    9091              
    9092              
    9093              DW$T$61 .dwtag  DW_TAG_structure_type
    9094                      .dwattr DW$T$61, DW_AT_byte_size(0x47c)
    9095              DW$713  .dwtag  DW_TAG_member, DW_AT_type(*DW$T$12)
    9096                      .dwattr DW$713, DW_AT_name("state"), DW_AT_symbol_name("_state")
    9097                      .dwattr DW$713, DW_AT_data_member_location[DW_OP_plus_uconst 0x0]
    9098                      .dwattr DW$713, DW_AT_accessibility(DW_ACCESS_public)
    9099              DW$714  .dwtag  DW_TAG_member, DW_AT_type(*DW$T$55)
    9100                      .dwattr DW$714, DW_AT_name("bootrecord"), DW_AT_symbol_name("_bootrecord")
    9101                      .dwattr DW$714, DW_AT_data_member_location[DW_OP_plus_uconst 0x2]
    9102                      .dwattr DW$714, DW_AT_accessibility(DW_ACCESS_public)
    9103              DW$715  .dwtag  DW_TAG_member, DW_AT_type(*DW$T$56)
    9104                      .dwattr DW$715, DW_AT_name("firstfat"), DW_AT_symbol_name("_firstfat")
TMS320C2000 COFF Assembler PC v4.1.3 Thu Aug 18 12:16:14 2016

Tools Copyright (c) 1996-2006 Texas Instruments Incorporated
fat.asm                                                              PAGE  181

    9105                      .dwattr DW$715, DW_AT_data_member_location[DW_OP_plus_uconst 0x4a]
    9106                      .dwattr DW$715, DW_AT_accessibility(DW_ACCESS_public)
    9107              DW$716  .dwtag  DW_TAG_member, DW_AT_type(*DW$T$56)
    9108                      .dwattr DW$716, DW_AT_name("root"), DW_AT_symbol_name("_root")
    9109                      .dwattr DW$716, DW_AT_data_member_location[DW_OP_plus_uconst 0x4e]
    9110                      .dwattr DW$716, DW_AT_accessibility(DW_ACCESS_public)
    9111              DW$717  .dwtag  DW_TAG_member, DW_AT_type(*DW$T$56)
    9112                      .dwattr DW$717, DW_AT_name("data"), DW_AT_symbol_name("_data")
    9113                      .dwattr DW$717, DW_AT_data_member_location[DW_OP_plus_uconst 0x52]
    9114                      .dwattr DW$717, DW_AT_accessibility(DW_ACCESS_public)
    9115              DW$718  .dwtag  DW_TAG_member, DW_AT_type(*DW$T$57)
    9116                      .dwattr DW$718, DW_AT_name("fat"), DW_AT_symbol_name("_fat")
    9117                      .dwattr DW$718, DW_AT_data_member_location[DW_OP_plus_uconst 0x56]
    9118                      .dwattr DW$718, DW_AT_accessibility(DW_ACCESS_public)
    9119              DW$719  .dwtag  DW_TAG_member, DW_AT_type(*DW$T$13)
    9120                      .dwattr DW$719, DW_AT_name("fatsector"), DW_AT_symbol_name("_fatsector")
    9121                      .dwattr DW$719, DW_AT_data_member_location[DW_OP_plus_uconst 0x256]
    9122                      .dwattr DW$719, DW_AT_accessibility(DW_ACCESS_public)
    9123              DW$720  .dwtag  DW_TAG_member, DW_AT_type(*DW$T$12)
    9124                      .dwattr DW$720, DW_AT_name("fatmodified"), DW_AT_symbol_name("_fatmodified")
    9125                      .dwattr DW$720, DW_AT_data_member_location[DW_OP_plus_uconst 0x258]
    9126                      .dwattr DW$720, DW_AT_accessibility(DW_ACCESS_public)
    9127              DW$721  .dwtag  DW_TAG_member, DW_AT_type(*DW$T$57)
    9128                      .dwattr DW$721, DW_AT_name("direntry"), DW_AT_symbol_name("_direntry")
    9129                      .dwattr DW$721, DW_AT_data_member_location[DW_OP_plus_uconst 0x25a]
    9130                      .dwattr DW$721, DW_AT_accessibility(DW_ACCESS_public)
    9131              DW$722  .dwtag  DW_TAG_member, DW_AT_type(*DW$T$13)
    9132                      .dwattr DW$722, DW_AT_name("direntrysector"), DW_AT_symbol_name("_direntrysector")
    9133                      .dwattr DW$722, DW_AT_data_member_location[DW_OP_plus_uconst 0x45a]
    9134                      .dwattr DW$722, DW_AT_accessibility(DW_ACCESS_public)
    9135              DW$723  .dwtag  DW_TAG_member, DW_AT_type(*DW$T$13)
    9136                      .dwattr DW$723, DW_AT_name("lastalloccluster"), DW_AT_symbol_name("_lastalloccluster")
    9137                      .dwattr DW$723, DW_AT_data_member_location[DW_OP_plus_uconst 0x45c]
    9138                      .dwattr DW$723, DW_AT_accessibility(DW_ACCESS_public)
    9139              DW$724  .dwtag  DW_TAG_member, DW_AT_type(*DW$T$58)
    9140                      .dwattr DW$724, DW_AT_name("func"), DW_AT_symbol_name("_func")
    9141                      .dwattr DW$724, DW_AT_data_member_location[DW_OP_plus_uconst 0x45e]
    9142                      .dwattr DW$724, DW_AT_accessibility(DW_ACCESS_public)
    9143              DW$725  .dwtag  DW_TAG_member, DW_AT_type(*DW$T$59)
    9144                      .dwattr DW$725, DW_AT_name("cwd"), DW_AT_symbol_name("_cwd")
    9145                      .dwattr DW$725, DW_AT_data_member_location[DW_OP_plus_uconst 0x46e]
    9146                      .dwattr DW$725, DW_AT_accessibility(DW_ACCESS_public)
    9147              DW$726  .dwtag  DW_TAG_member, DW_AT_type(*DW$T$12)
    9148                      .dwattr DW$726, DW_AT_name("mediatype"), DW_AT_symbol_name("_mediatype")
    9149                      .dwattr DW$726, DW_AT_data_member_location[DW_OP_plus_uconst 0x470]
    9150                      .dwattr DW$726, DW_AT_accessibility(DW_ACCESS_public)
    9151              DW$727  .dwtag  DW_TAG_member, DW_AT_type(*DW$T$60)
    9152                      .dwattr DW$727, DW_AT_name("clspace"), DW_AT_symbol_name("_clspace")
    9153                      .dwattr DW$727, DW_AT_data_member_location[DW_OP_plus_uconst 0x472]
    9154                      .dwattr DW$727, DW_AT_accessibility(DW_ACCESS_public)
    9155              DW$728  .dwtag  DW_TAG_member, DW_AT_type(*DW$T$19)
    9156                      .dwattr DW$728, DW_AT_name("cspaceok"), DW_AT_symbol_name("_cspaceok")
    9157                      .dwattr DW$728, DW_AT_data_member_location[DW_OP_plus_uconst 0x478]
    9158                      .dwattr DW$728, DW_AT_accessibility(DW_ACCESS_public)
    9159              DW$729  .dwtag  DW_TAG_member, DW_AT_type(*DW$T$13)
TMS320C2000 COFF Assembler PC v4.1.3 Thu Aug 18 12:16:14 2016

Tools Copyright (c) 1996-2006 Texas Instruments Incorporated
fat.asm                                                              PAGE  182

    9160                      .dwattr DW$729, DW_AT_name("mutex"), DW_AT_symbol_name("_mutex")
    9161                      .dwattr DW$729, DW_AT_data_member_location[DW_OP_plus_uconst 0x47a]
    9162                      .dwattr DW$729, DW_AT_accessibility(DW_ACCESS_public)
    9163                      .dwendtag DW$T$61
    9164              
    9165              
    9166              DW$T$79 .dwtag  DW_TAG_array_type, DW_AT_type(*DW$T$78)
    9167                      .dwattr DW$T$79, DW_AT_language(DW_LANG_C)
    9168                      .dwattr DW$T$79, DW_AT_byte_size(0x47c)
    9169              DW$730  .dwtag  DW_TAG_subrange_type
    9170                      .dwattr DW$730, DW_AT_upper_bound(0x00)
    9171                      .dwendtag DW$T$79
    9172              
    9173              
    9174              DW$T$62 .dwtag  DW_TAG_structure_type
    9175                      .dwattr DW$T$62, DW_AT_byte_size(0x0c)
    9176              DW$731  .dwtag  DW_TAG_member, DW_AT_type(*DW$T$13)
    9177                      .dwattr DW$731, DW_AT_name("cluster"), DW_AT_symbol_name("_cluster")
    9178                      .dwattr DW$731, DW_AT_data_member_location[DW_OP_plus_uconst 0x0]
    9179                      .dwattr DW$731, DW_AT_accessibility(DW_ACCESS_public)
    9180              DW$732  .dwtag  DW_TAG_member, DW_AT_type(*DW$T$13)
    9181                      .dwattr DW$732, DW_AT_name("prevcluster"), DW_AT_symbol_name("_prevcluster")
    9182                      .dwattr DW$732, DW_AT_data_member_location[DW_OP_plus_uconst 0x2]
    9183                      .dwattr DW$732, DW_AT_accessibility(DW_ACCESS_public)
    9184              DW$733  .dwtag  DW_TAG_member, DW_AT_type(*DW$T$13)
    9185                      .dwattr DW$733, DW_AT_name("sectorbegin"), DW_AT_symbol_name("_sectorbegin")
    9186                      .dwattr DW$733, DW_AT_data_member_location[DW_OP_plus_uconst 0x4]
    9187                      .dwattr DW$733, DW_AT_accessibility(DW_ACCESS_public)
    9188              DW$734  .dwtag  DW_TAG_member, DW_AT_type(*DW$T$13)
    9189                      .dwattr DW$734, DW_AT_name("sector"), DW_AT_symbol_name("_sector")
    9190                      .dwattr DW$734, DW_AT_data_member_location[DW_OP_plus_uconst 0x6]
    9191                      .dwattr DW$734, DW_AT_accessibility(DW_ACCESS_public)
    9192              DW$735  .dwtag  DW_TAG_member, DW_AT_type(*DW$T$13)
    9193                      .dwattr DW$735, DW_AT_name("sectorend"), DW_AT_symbol_name("_sectorend")
    9194                      .dwattr DW$735, DW_AT_data_member_location[DW_OP_plus_uconst 0x8]
    9195                      .dwattr DW$735, DW_AT_accessibility(DW_ACCESS_public)
    9196              DW$736  .dwtag  DW_TAG_member, DW_AT_type(*DW$T$13)
    9197                      .dwattr DW$736, DW_AT_name("pos"), DW_AT_symbol_name("_pos")
    9198                      .dwattr DW$736, DW_AT_data_member_location[DW_OP_plus_uconst 0xa]
    9199                      .dwattr DW$736, DW_AT_accessibility(DW_ACCESS_public)
    9200                      .dwendtag DW$T$62
    9201              
    9202              
    9203              DW$T$64 .dwtag  DW_TAG_structure_type
    9204                      .dwattr DW$T$64, DW_AT_byte_size(0x20)
    9205              DW$737  .dwtag  DW_TAG_member, DW_AT_type(*DW$T$27)
    9206                      .dwattr DW$737, DW_AT_name("name"), DW_AT_symbol_name("_name")
    9207                      .dwattr DW$737, DW_AT_data_member_location[DW_OP_plus_uconst 0x0]
    9208                      .dwattr DW$737, DW_AT_accessibility(DW_ACCESS_public)
    9209              DW$738  .dwtag  DW_TAG_member, DW_AT_type(*DW$T$26)
    9210                      .dwattr DW$738, DW_AT_name("ext"), DW_AT_symbol_name("_ext")
    9211                      .dwattr DW$738, DW_AT_data_member_location[DW_OP_plus_uconst 0x8]
    9212                      .dwattr DW$738, DW_AT_accessibility(DW_ACCESS_public)
    9213              DW$739  .dwtag  DW_TAG_member, DW_AT_type(*DW$T$6)
    9214                      .dwattr DW$739, DW_AT_name("attr"), DW_AT_symbol_name("_attr")
TMS320C2000 COFF Assembler PC v4.1.3 Thu Aug 18 12:16:14 2016

Tools Copyright (c) 1996-2006 Texas Instruments Incorporated
fat.asm                                                              PAGE  183

    9215                      .dwattr DW$739, DW_AT_data_member_location[DW_OP_plus_uconst 0xb]
    9216                      .dwattr DW$739, DW_AT_accessibility(DW_ACCESS_public)
    9217              DW$740  .dwtag  DW_TAG_member, DW_AT_type(*DW$T$6)
    9218                      .dwattr DW$740, DW_AT_name("ntres"), DW_AT_symbol_name("_ntres")
    9219                      .dwattr DW$740, DW_AT_data_member_location[DW_OP_plus_uconst 0xc]
    9220                      .dwattr DW$740, DW_AT_accessibility(DW_ACCESS_public)
    9221              DW$741  .dwtag  DW_TAG_member, DW_AT_type(*DW$T$6)
    9222                      .dwattr DW$741, DW_AT_name("crttimetenth"), DW_AT_symbol_name("_crttimetenth")
    9223                      .dwattr DW$741, DW_AT_data_member_location[DW_OP_plus_uconst 0xd]
    9224                      .dwattr DW$741, DW_AT_accessibility(DW_ACCESS_public)
    9225              DW$742  .dwtag  DW_TAG_member, DW_AT_type(*DW$T$30)
    9226                      .dwattr DW$742, DW_AT_name("crttime"), DW_AT_symbol_name("_crttime")
    9227                      .dwattr DW$742, DW_AT_data_member_location[DW_OP_plus_uconst 0xe]
    9228                      .dwattr DW$742, DW_AT_accessibility(DW_ACCESS_public)
    9229              DW$743  .dwtag  DW_TAG_member, DW_AT_type(*DW$T$30)
    9230                      .dwattr DW$743, DW_AT_name("crtdate"), DW_AT_symbol_name("_crtdate")
    9231                      .dwattr DW$743, DW_AT_data_member_location[DW_OP_plus_uconst 0x10]
    9232                      .dwattr DW$743, DW_AT_accessibility(DW_ACCESS_public)
    9233              DW$744  .dwtag  DW_TAG_member, DW_AT_type(*DW$T$30)
    9234                      .dwattr DW$744, DW_AT_name("lastaccessdate"), DW_AT_symbol_name("_lastaccessdate")
    9235                      .dwattr DW$744, DW_AT_data_member_location[DW_OP_plus_uconst 0x12]
    9236                      .dwattr DW$744, DW_AT_accessibility(DW_ACCESS_public)
    9237              DW$745  .dwtag  DW_TAG_member, DW_AT_type(*DW$T$30)
    9238                      .dwattr DW$745, DW_AT_name("clusterhi"), DW_AT_symbol_name("_clusterhi")
    9239                      .dwattr DW$745, DW_AT_data_member_location[DW_OP_plus_uconst 0x14]
    9240                      .dwattr DW$745, DW_AT_accessibility(DW_ACCESS_public)
    9241              DW$746  .dwtag  DW_TAG_member, DW_AT_type(*DW$T$30)
    9242                      .dwattr DW$746, DW_AT_name("ctime"), DW_AT_symbol_name("_ctime")
    9243                      .dwattr DW$746, DW_AT_data_member_location[DW_OP_plus_uconst 0x16]
    9244                      .dwattr DW$746, DW_AT_accessibility(DW_ACCESS_public)
    9245              DW$747  .dwtag  DW_TAG_member, DW_AT_type(*DW$T$30)
    9246                      .dwattr DW$747, DW_AT_name("cdate"), DW_AT_symbol_name("_cdate")
    9247                      .dwattr DW$747, DW_AT_data_member_location[DW_OP_plus_uconst 0x18]
    9248                      .dwattr DW$747, DW_AT_accessibility(DW_ACCESS_public)
    9249              DW$748  .dwtag  DW_TAG_member, DW_AT_type(*DW$T$30)
    9250                      .dwattr DW$748, DW_AT_name("clusterlo"), DW_AT_symbol_name("_clusterlo")
    9251                      .dwattr DW$748, DW_AT_data_member_location[DW_OP_plus_uconst 0x1a]
    9252                      .dwattr DW$748, DW_AT_accessibility(DW_ACCESS_public)
    9253              DW$749  .dwtag  DW_TAG_member, DW_AT_type(*DW$T$63)
    9254                      .dwattr DW$749, DW_AT_name("filesize"), DW_AT_symbol_name("_filesize")
    9255                      .dwattr DW$749, DW_AT_data_member_location[DW_OP_plus_uconst 0x1c]
    9256                      .dwattr DW$749, DW_AT_accessibility(DW_ACCESS_public)
    9257                      .dwendtag DW$T$64
    9258              
    9259              
    9260              DW$T$72 .dwtag  DW_TAG_structure_type
    9261                      .dwattr DW$T$72, DW_AT_byte_size(0x3ce)
    9262              DW$750  .dwtag  DW_TAG_member, DW_AT_type(*DW$T$69)
    9263                      .dwattr DW$750, DW_AT_name("file"), DW_AT_symbol_name("_file")
    9264                      .dwattr DW$750, DW_AT_data_member_location[DW_OP_plus_uconst 0x0]
    9265                      .dwattr DW$750, DW_AT_accessibility(DW_ACCESS_public)
    9266              DW$751  .dwtag  DW_TAG_member, DW_AT_type(*DW$T$12)
    9267                      .dwattr DW$751, DW_AT_name("modified"), DW_AT_symbol_name("_modified")
    9268                      .dwattr DW$751, DW_AT_data_member_location[DW_OP_plus_uconst 0x2]
    9269                      .dwattr DW$751, DW_AT_accessibility(DW_ACCESS_public)
TMS320C2000 COFF Assembler PC v4.1.3 Thu Aug 18 12:16:14 2016

Tools Copyright (c) 1996-2006 Texas Instruments Incorporated
fat.asm                                                              PAGE  184

    9270              DW$752  .dwtag  DW_TAG_member, DW_AT_type(*DW$T$19)
    9271                      .dwattr DW$752, DW_AT_name("mode"), DW_AT_symbol_name("_mode")
    9272                      .dwattr DW$752, DW_AT_data_member_location[DW_OP_plus_uconst 0x4]
    9273                      .dwattr DW$752, DW_AT_accessibility(DW_ACCESS_public)
    9274              DW$753  .dwtag  DW_TAG_member, DW_AT_type(*DW$T$10)
    9275                      .dwattr DW$753, DW_AT_name("drivenum"), DW_AT_symbol_name("_drivenum")
    9276                      .dwattr DW$753, DW_AT_data_member_location[DW_OP_plus_uconst 0x5]
    9277                      .dwattr DW$753, DW_AT_accessibility(DW_ACCESS_public)
    9278              DW$754  .dwtag  DW_TAG_member, DW_AT_type(*DW$T$13)
    9279                      .dwattr DW$754, DW_AT_name("abspos"), DW_AT_symbol_name("_abspos")
    9280                      .dwattr DW$754, DW_AT_data_member_location[DW_OP_plus_uconst 0x6]
    9281                      .dwattr DW$754, DW_AT_accessibility(DW_ACCESS_public)
    9282              DW$755  .dwtag  DW_TAG_member, DW_AT_type(*DW$T$13)
    9283                      .dwattr DW$755, DW_AT_name("relpos"), DW_AT_symbol_name("_relpos")
    9284                      .dwattr DW$755, DW_AT_data_member_location[DW_OP_plus_uconst 0x8]
    9285                      .dwattr DW$755, DW_AT_accessibility(DW_ACCESS_public)
    9286              DW$756  .dwtag  DW_TAG_member, DW_AT_type(*DW$T$13)
    9287                      .dwattr DW$756, DW_AT_name("filesize"), DW_AT_symbol_name("_filesize")
    9288                      .dwattr DW$756, DW_AT_data_member_location[DW_OP_plus_uconst 0xa]
    9289                      .dwattr DW$756, DW_AT_accessibility(DW_ACCESS_public)
    9290              DW$757  .dwtag  DW_TAG_member, DW_AT_type(*DW$T$57)
    9291                      .dwattr DW$757, DW_AT_name("data"), DW_AT_symbol_name("_data")
    9292                      .dwattr DW$757, DW_AT_data_member_location[DW_OP_plus_uconst 0xc]
    9293                      .dwattr DW$757, DW_AT_accessibility(DW_ACCESS_public)
    9294              DW$758  .dwtag  DW_TAG_member, DW_AT_type(*DW$T$70)
    9295                      .dwattr DW$758, DW_AT_name("WrDataCache"), DW_AT_symbol_name("_WrDataCache")
    9296                      .dwattr DW$758, DW_AT_data_member_location[DW_OP_plus_uconst 0x20c]
    9297                      .dwattr DW$758, DW_AT_accessibility(DW_ACCESS_public)
    9298              DW$759  .dwtag  DW_TAG_member, DW_AT_type(*DW$T$13)
    9299                      .dwattr DW$759, DW_AT_name("startcluster"), DW_AT_symbol_name("_startcluster")
    9300                      .dwattr DW$759, DW_AT_data_member_location[DW_OP_plus_uconst 0x392]
    9301                      .dwattr DW$759, DW_AT_accessibility(DW_ACCESS_public)
    9302              DW$760  .dwtag  DW_TAG_member, DW_AT_type(*DW$T$65)
    9303                      .dwattr DW$760, DW_AT_name("pos"), DW_AT_symbol_name("_pos")
    9304                      .dwattr DW$760, DW_AT_data_member_location[DW_OP_plus_uconst 0x394]
    9305                      .dwattr DW$760, DW_AT_accessibility(DW_ACCESS_public)
    9306              DW$761  .dwtag  DW_TAG_member, DW_AT_type(*DW$T$65)
    9307                      .dwattr DW$761, DW_AT_name("dirpos"), DW_AT_symbol_name("_dirpos")
    9308                      .dwattr DW$761, DW_AT_data_member_location[DW_OP_plus_uconst 0x3a0]
    9309                      .dwattr DW$761, DW_AT_accessibility(DW_ACCESS_public)
    9310              DW$762  .dwtag  DW_TAG_member, DW_AT_type(*DW$T$71)
    9311                      .dwattr DW$762, DW_AT_name("seekpos"), DW_AT_symbol_name("_seekpos")
    9312                      .dwattr DW$762, DW_AT_data_member_location[DW_OP_plus_uconst 0x3ac]
    9313                      .dwattr DW$762, DW_AT_accessibility(DW_ACCESS_public)
    9314              DW$763  .dwtag  DW_TAG_member, DW_AT_type(*DW$T$71)
    9315                      .dwattr DW$763, DW_AT_name("seekprev"), DW_AT_symbol_name("_seekprev")
    9316                      .dwattr DW$763, DW_AT_data_member_location[DW_OP_plus_uconst 0x3bc]
    9317                      .dwattr DW$763, DW_AT_accessibility(DW_ACCESS_public)
    9318              DW$764  .dwtag  DW_TAG_member, DW_AT_type(*DW$T$12)
    9319                      .dwattr DW$764, DW_AT_name("seekshift"), DW_AT_symbol_name("_seekshift")
    9320                      .dwattr DW$764, DW_AT_data_member_location[DW_OP_plus_uconst 0x3cc]
    9321                      .dwattr DW$764, DW_AT_accessibility(DW_ACCESS_public)
    9322                      .dwendtag DW$T$72
    9323              
    9324              
TMS320C2000 COFF Assembler PC v4.1.3 Thu Aug 18 12:16:14 2016

Tools Copyright (c) 1996-2006 Texas Instruments Incorporated
fat.asm                                                              PAGE  185

    9325              DW$T$81 .dwtag  DW_TAG_array_type, DW_AT_type(*DW$T$80)
    9326                      .dwattr DW$T$81, DW_AT_language(DW_LANG_C)
    9327                      .dwattr DW$T$81, DW_AT_byte_size(0x3ce)
    9328              DW$765  .dwtag  DW_TAG_subrange_type
    9329                      .dwattr DW$765, DW_AT_upper_bound(0x00)
    9330                      .dwendtag DW$T$81
    9331              
    9332              
    9333              DW$T$75 .dwtag  DW_TAG_structure_type
    9334                      .dwattr DW$T$75, DW_AT_byte_size(0x20)
    9335              DW$766  .dwtag  DW_TAG_member, DW_AT_type(*DW$T$10)
    9336                      .dwattr DW$766, DW_AT_name("drivenum"), DW_AT_symbol_name("_drivenum")
    9337                      .dwattr DW$766, DW_AT_data_member_location[DW_OP_plus_uconst 0x0]
    9338                      .dwattr DW$766, DW_AT_accessibility(DW_ACCESS_public)
    9339              DW$767  .dwtag  DW_TAG_member, DW_AT_type(*DW$T$20)
    9340                      .dwattr DW$767, DW_AT_name("path"), DW_AT_symbol_name("_path")
    9341                      .dwattr DW$767, DW_AT_data_member_location[DW_OP_plus_uconst 0x1]
    9342                      .dwattr DW$767, DW_AT_accessibility(DW_ACCESS_public)
    9343              DW$768  .dwtag  DW_TAG_member, DW_AT_type(*DW$T$73)
    9344                      .dwattr DW$768, DW_AT_name("filename"), DW_AT_symbol_name("_filename")
    9345                      .dwattr DW$768, DW_AT_data_member_location[DW_OP_plus_uconst 0x15]
    9346                      .dwattr DW$768, DW_AT_accessibility(DW_ACCESS_public)
    9347              DW$769  .dwtag  DW_TAG_member, DW_AT_type(*DW$T$74)
    9348                      .dwattr DW$769, DW_AT_name("fileext"), DW_AT_symbol_name("_fileext")
    9349                      .dwattr DW$769, DW_AT_data_member_location[DW_OP_plus_uconst 0x1d]
    9350                      .dwattr DW$769, DW_AT_accessibility(DW_ACCESS_public)
    9351                      .dwendtag DW$T$75
    9352              
    9353              
    9354              DW$T$77 .dwtag  DW_TAG_structure_type
    9355                      .dwattr DW$T$77, DW_AT_byte_size(0x52)
    9356              DW$770  .dwtag  DW_TAG_member, DW_AT_type(*DW$T$20)
    9357                      .dwattr DW$770, DW_AT_name("filename"), DW_AT_symbol_name("_filename")
    9358                      .dwattr DW$770, DW_AT_data_member_location[DW_OP_plus_uconst 0x0]
    9359                      .dwattr DW$770, DW_AT_accessibility(DW_ACCESS_public)
    9360              DW$771  .dwtag  DW_TAG_member, DW_AT_type(*DW$T$73)
    9361                      .dwattr DW$771, DW_AT_name("name"), DW_AT_symbol_name("_name")
    9362                      .dwattr DW$771, DW_AT_data_member_location[DW_OP_plus_uconst 0x14]
    9363                      .dwattr DW$771, DW_AT_accessibility(DW_ACCESS_public)
    9364              DW$772  .dwtag  DW_TAG_member, DW_AT_type(*DW$T$74)
    9365                      .dwattr DW$772, DW_AT_name("ext"), DW_AT_symbol_name("_ext")
    9366                      .dwattr DW$772, DW_AT_data_member_location[DW_OP_plus_uconst 0x1c]
    9367                      .dwattr DW$772, DW_AT_accessibility(DW_ACCESS_public)
    9368              DW$773  .dwtag  DW_TAG_member, DW_AT_type(*DW$T$19)
    9369                      .dwattr DW$773, DW_AT_name("attr"), DW_AT_symbol_name("_attr")
    9370                      .dwattr DW$773, DW_AT_data_member_location[DW_OP_plus_uconst 0x1f]
    9371                      .dwattr DW$773, DW_AT_accessibility(DW_ACCESS_public)
    9372              DW$774  .dwtag  DW_TAG_member, DW_AT_type(*DW$T$9)
    9373                      .dwattr DW$774, DW_AT_name("ctime"), DW_AT_symbol_name("_ctime")
    9374                      .dwattr DW$774, DW_AT_data_member_location[DW_OP_plus_uconst 0x20]
    9375                      .dwattr DW$774, DW_AT_accessibility(DW_ACCESS_public)
    9376              DW$775  .dwtag  DW_TAG_member, DW_AT_type(*DW$T$9)
    9377                      .dwattr DW$775, DW_AT_name("cdate"), DW_AT_symbol_name("_cdate")
    9378                      .dwattr DW$775, DW_AT_data_member_location[DW_OP_plus_uconst 0x21]
    9379                      .dwattr DW$775, DW_AT_accessibility(DW_ACCESS_public)
TMS320C2000 COFF Assembler PC v4.1.3 Thu Aug 18 12:16:14 2016

Tools Copyright (c) 1996-2006 Texas Instruments Incorporated
fat.asm                                                              PAGE  186

    9380              DW$776  .dwtag  DW_TAG_member, DW_AT_type(*DW$T$13)
    9381                      .dwattr DW$776, DW_AT_name("cluster"), DW_AT_symbol_name("_cluster")
    9382                      .dwattr DW$776, DW_AT_data_member_location[DW_OP_plus_uconst 0x22]
    9383                      .dwattr DW$776, DW_AT_accessibility(DW_ACCESS_public)
    9384              DW$777  .dwtag  DW_TAG_member, DW_AT_type(*DW$T$12)
    9385                      .dwattr DW$777, DW_AT_name("filesize"), DW_AT_symbol_name("_filesize")
    9386                      .dwattr DW$777, DW_AT_data_member_location[DW_OP_plus_uconst 0x24]
    9387                      .dwattr DW$777, DW_AT_accessibility(DW_ACCESS_public)
    9388              DW$778  .dwtag  DW_TAG_member, DW_AT_type(*DW$T$76)
    9389                      .dwattr DW$778, DW_AT_name("findfsname"), DW_AT_symbol_name("_findfsname")
    9390                      .dwattr DW$778, DW_AT_data_member_location[DW_OP_plus_uconst 0x26]
    9391                      .dwattr DW$778, DW_AT_accessibility(DW_ACCESS_public)
    9392              DW$779  .dwtag  DW_TAG_member, DW_AT_type(*DW$T$65)
    9393                      .dwattr DW$779, DW_AT_name("pos"), DW_AT_symbol_name("_pos")
    9394                      .dwattr DW$779, DW_AT_data_member_location[DW_OP_plus_uconst 0x46]
    9395                      .dwattr DW$779, DW_AT_accessibility(DW_ACCESS_public)
    9396                      .dwendtag DW$T$77
    9397              
    9398              
    9399              DW$T$26 .dwtag  DW_TAG_array_type, DW_AT_type(*DW$T$6)
    9400                      .dwattr DW$T$26, DW_AT_language(DW_LANG_C)
    9401                      .dwattr DW$T$26, DW_AT_byte_size(0x03)
    9402              DW$780  .dwtag  DW_TAG_subrange_type
    9403                      .dwattr DW$780, DW_AT_upper_bound(0x02)
    9404                      .dwendtag DW$T$26
    9405              
    9406              
    9407              DW$T$27 .dwtag  DW_TAG_array_type, DW_AT_type(*DW$T$6)
    9408                      .dwattr DW$T$27, DW_AT_language(DW_LANG_C)
    9409                      .dwattr DW$T$27, DW_AT_byte_size(0x08)
    9410              DW$781  .dwtag  DW_TAG_subrange_type
    9411                      .dwattr DW$781, DW_AT_upper_bound(0x07)
    9412                      .dwendtag DW$T$27
    9413              
    9414              
    9415              DW$T$30 .dwtag  DW_TAG_array_type, DW_AT_type(*DW$T$6)
    9416                      .dwattr DW$T$30, DW_AT_language(DW_LANG_C)
    9417                      .dwattr DW$T$30, DW_AT_byte_size(0x02)
    9418              DW$782  .dwtag  DW_TAG_subrange_type
    9419                      .dwattr DW$782, DW_AT_upper_bound(0x01)
    9420                      .dwendtag DW$T$30
    9421              
    9422              
    9423              DW$T$63 .dwtag  DW_TAG_array_type, DW_AT_type(*DW$T$6)
    9424                      .dwattr DW$T$63, DW_AT_language(DW_LANG_C)
    9425                      .dwattr DW$T$63, DW_AT_byte_size(0x04)
    9426              DW$783  .dwtag  DW_TAG_subrange_type
    9427                      .dwattr DW$783, DW_AT_upper_bound(0x03)
    9428                      .dwendtag DW$T$63
    9429              
    9430              
    9431              DW$T$71 .dwtag  DW_TAG_array_type, DW_AT_type(*DW$T$12)
    9432                      .dwattr DW$T$71, DW_AT_language(DW_LANG_C)
    9433                      .dwattr DW$T$71, DW_AT_byte_size(0x10)
    9434              DW$784  .dwtag  DW_TAG_subrange_type
TMS320C2000 COFF Assembler PC v4.1.3 Thu Aug 18 12:16:14 2016

Tools Copyright (c) 1996-2006 Texas Instruments Incorporated
fat.asm                                                              PAGE  187

    9435                      .dwattr DW$784, DW_AT_upper_bound(0x07)
    9436                      .dwendtag DW$T$71
    9437              
    9438              
    9439              DW$T$20 .dwtag  DW_TAG_array_type, DW_AT_type(*DW$T$19)
    9440                      .dwattr DW$T$20, DW_AT_language(DW_LANG_C)
    9441                      .dwattr DW$T$20, DW_AT_byte_size(0x14)
    9442              DW$785  .dwtag  DW_TAG_subrange_type
    9443                      .dwattr DW$785, DW_AT_upper_bound(0x13)
    9444                      .dwendtag DW$T$20
    9445              
    9446              
    9447              DW$T$73 .dwtag  DW_TAG_array_type, DW_AT_type(*DW$T$19)
    9448                      .dwattr DW$T$73, DW_AT_language(DW_LANG_C)
    9449                      .dwattr DW$T$73, DW_AT_byte_size(0x08)
    9450              DW$786  .dwtag  DW_TAG_subrange_type
    9451                      .dwattr DW$786, DW_AT_upper_bound(0x07)
    9452                      .dwendtag DW$T$73
    9453              
    9454              
    9455              DW$T$74 .dwtag  DW_TAG_array_type, DW_AT_type(*DW$T$19)
    9456                      .dwattr DW$T$74, DW_AT_language(DW_LANG_C)
    9457                      .dwattr DW$T$74, DW_AT_byte_size(0x03)
    9458              DW$787  .dwtag  DW_TAG_subrange_type
    9459                      .dwattr DW$787, DW_AT_upper_bound(0x02)
    9460                      .dwendtag DW$T$74
    9461              
    9462              
    9463              DW$T$22 .dwtag  DW_TAG_array_type, DW_AT_type(*DW$T$21)
    9464                      .dwattr DW$T$22, DW_AT_language(DW_LANG_C)
    9465                      .dwattr DW$T$22, DW_AT_byte_size(0x14)
    9466              DW$788  .dwtag  DW_TAG_subrange_type
    9467                      .dwattr DW$788, DW_AT_upper_bound(0x00)
    9468                      .dwendtag DW$T$22
    9469              
    9470              DW$T$55 .dwtag  DW_TAG_typedef, DW_AT_name("F_BOOTRECORD"), DW_AT_type(*DW$T$31)
    9471                      .dwattr DW$T$55, DW_AT_language(DW_LANG_C)
    9472              DW$T$56 .dwtag  DW_TAG_typedef, DW_AT_name("F_SECTOR"), DW_AT_type(*DW$T$32)
    9473                      .dwattr DW$T$56, DW_AT_language(DW_LANG_C)
    9474              DW$T$58 .dwtag  DW_TAG_typedef, DW_AT_name("F_FUNC"), DW_AT_type(*DW$T$53)
    9475                      .dwattr DW$T$58, DW_AT_language(DW_LANG_C)
    9476              DW$T$60 .dwtag  DW_TAG_typedef, DW_AT_name("F_CLSPACE"), DW_AT_type(*DW$T$54)
    9477                      .dwattr DW$T$60, DW_AT_language(DW_LANG_C)
    9478              DW$T$70 .dwtag  DW_TAG_typedef, DW_AT_name("t_WrDataCache"), DW_AT_type(*DW$T$68)
    9479                      .dwattr DW$T$70, DW_AT_language(DW_LANG_C)
    9480              
    9481              DW$T$21 .dwtag  DW_TAG_structure_type
    9482                      .dwattr DW$T$21, DW_AT_byte_size(0x14)
    9483              DW$789  .dwtag  DW_TAG_member, DW_AT_type(*DW$T$20)
    9484                      .dwattr DW$789, DW_AT_name("cwd"), DW_AT_symbol_name("_cwd")
    9485                      .dwattr DW$789, DW_AT_data_member_location[DW_OP_plus_uconst 0x0]
    9486                      .dwattr DW$789, DW_AT_accessibility(DW_ACCESS_public)
    9487                      .dwendtag DW$T$21
    9488              
    9489              
TMS320C2000 COFF Assembler PC v4.1.3 Thu Aug 18 12:16:14 2016

Tools Copyright (c) 1996-2006 Texas Instruments Incorporated
fat.asm                                                              PAGE  188

    9490              DW$T$31 .dwtag  DW_TAG_structure_type
    9491                      .dwattr DW$T$31, DW_AT_byte_size(0x48)
    9492              DW$790  .dwtag  DW_TAG_member, DW_AT_type(*DW$T$26)
    9493                      .dwattr DW$790, DW_AT_name("jump_code"), DW_AT_symbol_name("_jump_code")
    9494                      .dwattr DW$790, DW_AT_data_member_location[DW_OP_plus_uconst 0x0]
    9495                      .dwattr DW$790, DW_AT_accessibility(DW_ACCESS_public)
    9496              DW$791  .dwtag  DW_TAG_member, DW_AT_type(*DW$T$27)
    9497                      .dwattr DW$791, DW_AT_name("OEM_name"), DW_AT_symbol_name("_OEM_name")
    9498                      .dwattr DW$791, DW_AT_data_member_location[DW_OP_plus_uconst 0x3]
    9499                      .dwattr DW$791, DW_AT_accessibility(DW_ACCESS_public)
    9500              DW$792  .dwtag  DW_TAG_member, DW_AT_type(*DW$T$9)
    9501                      .dwattr DW$792, DW_AT_name("bytes_per_sector"), DW_AT_symbol_name("_bytes_per_sector")
    9502                      .dwattr DW$792, DW_AT_data_member_location[DW_OP_plus_uconst 0xb]
    9503                      .dwattr DW$792, DW_AT_accessibility(DW_ACCESS_public)
    9504              DW$793  .dwtag  DW_TAG_member, DW_AT_type(*DW$T$6)
    9505                      .dwattr DW$793, DW_AT_name("sector_per_cluster"), DW_AT_symbol_name("_sector_per_cluster")
    9506                      .dwattr DW$793, DW_AT_data_member_location[DW_OP_plus_uconst 0xc]
    9507                      .dwattr DW$793, DW_AT_accessibility(DW_ACCESS_public)
    9508              DW$794  .dwtag  DW_TAG_member, DW_AT_type(*DW$T$9)
    9509                      .dwattr DW$794, DW_AT_name("reserved_sectors"), DW_AT_symbol_name("_reserved_sectors")
    9510                      .dwattr DW$794, DW_AT_data_member_location[DW_OP_plus_uconst 0xd]
    9511                      .dwattr DW$794, DW_AT_accessibility(DW_ACCESS_public)
    9512              DW$795  .dwtag  DW_TAG_member, DW_AT_type(*DW$T$6)
    9513                      .dwattr DW$795, DW_AT_name("number_of_FATs"), DW_AT_symbol_name("_number_of_FATs")
    9514                      .dwattr DW$795, DW_AT_data_member_location[DW_OP_plus_uconst 0xe]
    9515                      .dwattr DW$795, DW_AT_accessibility(DW_ACCESS_public)
    9516              DW$796  .dwtag  DW_TAG_member, DW_AT_type(*DW$T$9)
    9517                      .dwattr DW$796, DW_AT_name("max_root_entry"), DW_AT_symbol_name("_max_root_entry")
    9518                      .dwattr DW$796, DW_AT_data_member_location[DW_OP_plus_uconst 0xf]
    9519                      .dwattr DW$796, DW_AT_accessibility(DW_ACCESS_public)
    9520              DW$797  .dwtag  DW_TAG_member, DW_AT_type(*DW$T$9)
    9521                      .dwattr DW$797, DW_AT_name("number_of_sectors_less32"), DW_AT_symbol_name("_number_of_sectors_less32"
    9522                      .dwattr DW$797, DW_AT_data_member_location[DW_OP_plus_uconst 0x10]
    9523                      .dwattr DW$797, DW_AT_accessibility(DW_ACCESS_public)
    9524              DW$798  .dwtag  DW_TAG_member, DW_AT_type(*DW$T$6)
    9525                      .dwattr DW$798, DW_AT_name("media_descriptor"), DW_AT_symbol_name("_media_descriptor")
    9526                      .dwattr DW$798, DW_AT_data_member_location[DW_OP_plus_uconst 0x11]
    9527                      .dwattr DW$798, DW_AT_accessibility(DW_ACCESS_public)
    9528              DW$799  .dwtag  DW_TAG_member, DW_AT_type(*DW$T$9)
    9529                      .dwattr DW$799, DW_AT_name("sector_per_FAT"), DW_AT_symbol_name("_sector_per_FAT")
    9530                      .dwattr DW$799, DW_AT_data_member_location[DW_OP_plus_uconst 0x12]
    9531                      .dwattr DW$799, DW_AT_accessibility(DW_ACCESS_public)
    9532              DW$800  .dwtag  DW_TAG_member, DW_AT_type(*DW$T$9)
    9533                      .dwattr DW$800, DW_AT_name("sector_per_Track"), DW_AT_symbol_name("_sector_per_Track")
    9534                      .dwattr DW$800, DW_AT_data_member_location[DW_OP_plus_uconst 0x13]
    9535                      .dwattr DW$800, DW_AT_accessibility(DW_ACCESS_public)
    9536              DW$801  .dwtag  DW_TAG_member, DW_AT_type(*DW$T$9)
    9537                      .dwattr DW$801, DW_AT_name("number_of_heads"), DW_AT_symbol_name("_number_of_heads")
    9538                      .dwattr DW$801, DW_AT_data_member_location[DW_OP_plus_uconst 0x14]
    9539                      .dwattr DW$801, DW_AT_accessibility(DW_ACCESS_public)
    9540              DW$802  .dwtag  DW_TAG_member, DW_AT_type(*DW$T$13)
    9541                      .dwattr DW$802, DW_AT_name("number_of_hidden_sectors"), DW_AT_symbol_name("_number_of_hidden_sectors"
    9542                      .dwattr DW$802, DW_AT_data_member_location[DW_OP_plus_uconst 0x16]
    9543                      .dwattr DW$802, DW_AT_accessibility(DW_ACCESS_public)
    9544              DW$803  .dwtag  DW_TAG_member, DW_AT_type(*DW$T$13)
TMS320C2000 COFF Assembler PC v4.1.3 Thu Aug 18 12:16:14 2016

Tools Copyright (c) 1996-2006 Texas Instruments Incorporated
fat.asm                                                              PAGE  189

    9545                      .dwattr DW$803, DW_AT_name("number_of_sectors"), DW_AT_symbol_name("_number_of_sectors")
    9546                      .dwattr DW$803, DW_AT_data_member_location[DW_OP_plus_uconst 0x18]
    9547                      .dwattr DW$803, DW_AT_accessibility(DW_ACCESS_public)
    9548              DW$804  .dwtag  DW_TAG_member, DW_AT_type(*DW$T$13)
    9549                      .dwattr DW$804, DW_AT_name("sector_per_FAT32"), DW_AT_symbol_name("_sector_per_FAT32")
    9550                      .dwattr DW$804, DW_AT_data_member_location[DW_OP_plus_uconst 0x1a]
    9551                      .dwattr DW$804, DW_AT_accessibility(DW_ACCESS_public)
    9552              DW$805  .dwtag  DW_TAG_member, DW_AT_type(*DW$T$9)
    9553                      .dwattr DW$805, DW_AT_name("extflags"), DW_AT_symbol_name("_extflags")
    9554                      .dwattr DW$805, DW_AT_data_member_location[DW_OP_plus_uconst 0x1c]
    9555                      .dwattr DW$805, DW_AT_accessibility(DW_ACCESS_public)
    9556              DW$806  .dwtag  DW_TAG_member, DW_AT_type(*DW$T$9)
    9557                      .dwattr DW$806, DW_AT_name("fsversion"), DW_AT_symbol_name("_fsversion")
    9558                      .dwattr DW$806, DW_AT_data_member_location[DW_OP_plus_uconst 0x1d]
    9559                      .dwattr DW$806, DW_AT_accessibility(DW_ACCESS_public)
    9560              DW$807  .dwtag  DW_TAG_member, DW_AT_type(*DW$T$13)
    9561                      .dwattr DW$807, DW_AT_name("rootcluster"), DW_AT_symbol_name("_rootcluster")
    9562                      .dwattr DW$807, DW_AT_data_member_location[DW_OP_plus_uconst 0x1e]
    9563                      .dwattr DW$807, DW_AT_accessibility(DW_ACCESS_public)
    9564              DW$808  .dwtag  DW_TAG_member, DW_AT_type(*DW$T$9)
    9565                      .dwattr DW$808, DW_AT_name("fsinfo"), DW_AT_symbol_name("_fsinfo")
    9566                      .dwattr DW$808, DW_AT_data_member_location[DW_OP_plus_uconst 0x20]
    9567                      .dwattr DW$808, DW_AT_accessibility(DW_ACCESS_public)
    9568              DW$809  .dwtag  DW_TAG_member, DW_AT_type(*DW$T$9)
    9569                      .dwattr DW$809, DW_AT_name("bkbootsec"), DW_AT_symbol_name("_bkbootsec")
    9570                      .dwattr DW$809, DW_AT_data_member_location[DW_OP_plus_uconst 0x21]
    9571                      .dwattr DW$809, DW_AT_accessibility(DW_ACCESS_public)
    9572              DW$810  .dwtag  DW_TAG_member, DW_AT_type(*DW$T$28)
    9573                      .dwattr DW$810, DW_AT_name("reserved"), DW_AT_symbol_name("_reserved")
    9574                      .dwattr DW$810, DW_AT_data_member_location[DW_OP_plus_uconst 0x22]
    9575                      .dwattr DW$810, DW_AT_accessibility(DW_ACCESS_public)
    9576              DW$811  .dwtag  DW_TAG_member, DW_AT_type(*DW$T$9)
    9577                      .dwattr DW$811, DW_AT_name("logical_drive_num"), DW_AT_symbol_name("_logical_drive_num")
    9578                      .dwattr DW$811, DW_AT_data_member_location[DW_OP_plus_uconst 0x2e]
    9579                      .dwattr DW$811, DW_AT_accessibility(DW_ACCESS_public)
    9580              DW$812  .dwtag  DW_TAG_member, DW_AT_type(*DW$T$6)
    9581                      .dwattr DW$812, DW_AT_name("extended_signature"), DW_AT_symbol_name("_extended_signature")
    9582                      .dwattr DW$812, DW_AT_data_member_location[DW_OP_plus_uconst 0x2f]
    9583                      .dwattr DW$812, DW_AT_accessibility(DW_ACCESS_public)
    9584              DW$813  .dwtag  DW_TAG_member, DW_AT_type(*DW$T$13)
    9585                      .dwattr DW$813, DW_AT_name("serial_number"), DW_AT_symbol_name("_serial_number")
    9586                      .dwattr DW$813, DW_AT_data_member_location[DW_OP_plus_uconst 0x30]
    9587                      .dwattr DW$813, DW_AT_accessibility(DW_ACCESS_public)
    9588              DW$814  .dwtag  DW_TAG_member, DW_AT_type(*DW$T$29)
    9589                      .dwattr DW$814, DW_AT_name("volume_name"), DW_AT_symbol_name("_volume_name")
    9590                      .dwattr DW$814, DW_AT_data_member_location[DW_OP_plus_uconst 0x32]
    9591                      .dwattr DW$814, DW_AT_accessibility(DW_ACCESS_public)
    9592              DW$815  .dwtag  DW_TAG_member, DW_AT_type(*DW$T$27)
    9593                      .dwattr DW$815, DW_AT_name("FAT_name"), DW_AT_symbol_name("_FAT_name")
    9594                      .dwattr DW$815, DW_AT_data_member_location[DW_OP_plus_uconst 0x3d]
    9595                      .dwattr DW$815, DW_AT_accessibility(DW_ACCESS_public)
    9596              DW$816  .dwtag  DW_TAG_member, DW_AT_type(*DW$T$30)
    9597                      .dwattr DW$816, DW_AT_name("executable_marker"), DW_AT_symbol_name("_executable_marker")
    9598                      .dwattr DW$816, DW_AT_data_member_location[DW_OP_plus_uconst 0x45]
    9599                      .dwattr DW$816, DW_AT_accessibility(DW_ACCESS_public)
TMS320C2000 COFF Assembler PC v4.1.3 Thu Aug 18 12:16:14 2016

Tools Copyright (c) 1996-2006 Texas Instruments Incorporated
fat.asm                                                              PAGE  190

    9600                      .dwendtag DW$T$31
    9601              
    9602              
    9603              DW$T$32 .dwtag  DW_TAG_structure_type
    9604                      .dwattr DW$T$32, DW_AT_byte_size(0x04)
    9605              DW$817  .dwtag  DW_TAG_member, DW_AT_type(*DW$T$13)
    9606                      .dwattr DW$817, DW_AT_name("sector"), DW_AT_symbol_name("_sector")
    9607                      .dwattr DW$817, DW_AT_data_member_location[DW_OP_plus_uconst 0x0]
    9608                      .dwattr DW$817, DW_AT_accessibility(DW_ACCESS_public)
    9609              DW$818  .dwtag  DW_TAG_member, DW_AT_type(*DW$T$13)
    9610                      .dwattr DW$818, DW_AT_name("num"), DW_AT_symbol_name("_num")
    9611                      .dwattr DW$818, DW_AT_data_member_location[DW_OP_plus_uconst 0x2]
    9612                      .dwattr DW$818, DW_AT_accessibility(DW_ACCESS_public)
    9613                      .dwendtag DW$T$32
    9614              
    9615              
    9616              DW$T$53 .dwtag  DW_TAG_structure_type
    9617                      .dwattr DW$T$53, DW_AT_byte_size(0x10)
    9618              DW$819  .dwtag  DW_TAG_member, DW_AT_type(*DW$T$36)
    9619                      .dwattr DW$819, DW_AT_name("writesector"), DW_AT_symbol_name("_writesector")
    9620                      .dwattr DW$819, DW_AT_data_member_location[DW_OP_plus_uconst 0x0]
    9621                      .dwattr DW$819, DW_AT_accessibility(DW_ACCESS_public)
    9622              DW$820  .dwtag  DW_TAG_member, DW_AT_type(*DW$T$39)
    9623                      .dwattr DW$820, DW_AT_name("writemultiplesector"), DW_AT_symbol_name("_writemultiplesector")
    9624                      .dwattr DW$820, DW_AT_data_member_location[DW_OP_plus_uconst 0x2]
    9625                      .dwattr DW$820, DW_AT_accessibility(DW_ACCESS_public)
    9626              DW$821  .dwtag  DW_TAG_member, DW_AT_type(*DW$T$40)
    9627                      .dwattr DW$821, DW_AT_name("readsector"), DW_AT_symbol_name("_readsector")
    9628                      .dwattr DW$821, DW_AT_data_member_location[DW_OP_plus_uconst 0x4]
    9629                      .dwattr DW$821, DW_AT_accessibility(DW_ACCESS_public)
    9630              DW$822  .dwtag  DW_TAG_member, DW_AT_type(*DW$T$41)
    9631                      .dwattr DW$822, DW_AT_name("readmultiplesector"), DW_AT_symbol_name("_readmultiplesector")
    9632                      .dwattr DW$822, DW_AT_data_member_location[DW_OP_plus_uconst 0x6]
    9633                      .dwattr DW$822, DW_AT_accessibility(DW_ACCESS_public)
    9634              DW$823  .dwtag  DW_TAG_member, DW_AT_type(*DW$T$46)
    9635                      .dwattr DW$823, DW_AT_name("getphy"), DW_AT_symbol_name("_getphy")
    9636                      .dwattr DW$823, DW_AT_data_member_location[DW_OP_plus_uconst 0x8]
    9637                      .dwattr DW$823, DW_AT_accessibility(DW_ACCESS_public)
    9638              DW$824  .dwtag  DW_TAG_member, DW_AT_type(*DW$T$49)
    9639                      .dwattr DW$824, DW_AT_name("getstatus"), DW_AT_symbol_name("_getstatus")
    9640                      .dwattr DW$824, DW_AT_data_member_location[DW_OP_plus_uconst 0xa]
    9641                      .dwattr DW$824, DW_AT_accessibility(DW_ACCESS_public)
    9642              DW$825  .dwtag  DW_TAG_member, DW_AT_type(*DW$T$52)
    9643                      .dwattr DW$825, DW_AT_name("delfunc"), DW_AT_symbol_name("_delfunc")
    9644                      .dwattr DW$825, DW_AT_data_member_location[DW_OP_plus_uconst 0xc]
    9645                      .dwattr DW$825, DW_AT_accessibility(DW_ACCESS_public)
    9646              DW$826  .dwtag  DW_TAG_member, DW_AT_type(*DW$T$3)
    9647                      .dwattr DW$826, DW_AT_name("user_ptr"), DW_AT_symbol_name("_user_ptr")
    9648                      .dwattr DW$826, DW_AT_data_member_location[DW_OP_plus_uconst 0xe]
    9649                      .dwattr DW$826, DW_AT_accessibility(DW_ACCESS_public)
    9650                      .dwendtag DW$T$53
    9651              
    9652              
    9653              DW$T$54 .dwtag  DW_TAG_structure_type
    9654                      .dwattr DW$T$54, DW_AT_byte_size(0x06)
TMS320C2000 COFF Assembler PC v4.1.3 Thu Aug 18 12:16:14 2016

Tools Copyright (c) 1996-2006 Texas Instruments Incorporated
fat.asm                                                              PAGE  191

    9655              DW$827  .dwtag  DW_TAG_member, DW_AT_type(*DW$T$13)
    9656                      .dwattr DW$827, DW_AT_name("clfree"), DW_AT_symbol_name("_clfree")
    9657                      .dwattr DW$827, DW_AT_data_member_location[DW_OP_plus_uconst 0x0]
    9658                      .dwattr DW$827, DW_AT_accessibility(DW_ACCESS_public)
    9659              DW$828  .dwtag  DW_TAG_member, DW_AT_type(*DW$T$13)
    9660                      .dwattr DW$828, DW_AT_name("clused"), DW_AT_symbol_name("_clused")
    9661                      .dwattr DW$828, DW_AT_data_member_location[DW_OP_plus_uconst 0x2]
    9662                      .dwattr DW$828, DW_AT_accessibility(DW_ACCESS_public)
    9663              DW$829  .dwtag  DW_TAG_member, DW_AT_type(*DW$T$13)
    9664                      .dwattr DW$829, DW_AT_name("clbad"), DW_AT_symbol_name("_clbad")
    9665                      .dwattr DW$829, DW_AT_data_member_location[DW_OP_plus_uconst 0x4]
    9666                      .dwattr DW$829, DW_AT_accessibility(DW_ACCESS_public)
    9667                      .dwendtag DW$T$54
    9668              
    9669              
    9670              DW$T$68 .dwtag  DW_TAG_structure_type
    9671                      .dwattr DW$T$68, DW_AT_byte_size(0x186)
    9672              DW$830  .dwtag  DW_TAG_member, DW_AT_type(*DW$T$10)
    9673                      .dwattr DW$830, DW_AT_name("N"), DW_AT_symbol_name("_N")
    9674                      .dwattr DW$830, DW_AT_data_member_location[DW_OP_plus_uconst 0x0]
    9675                      .dwattr DW$830, DW_AT_accessibility(DW_ACCESS_public)
    9676              DW$831  .dwtag  DW_TAG_member, DW_AT_type(*DW$T$59)
    9677                      .dwattr DW$831, DW_AT_name("ptr"), DW_AT_symbol_name("_ptr")
    9678                      .dwattr DW$831, DW_AT_data_member_location[DW_OP_plus_uconst 0x2]
    9679                      .dwattr DW$831, DW_AT_accessibility(DW_ACCESS_public)
    9680              DW$832  .dwtag  DW_TAG_member, DW_AT_type(*DW$T$66)
    9681                      .dwattr DW$832, DW_AT_name("pos"), DW_AT_symbol_name("_pos")
    9682                      .dwattr DW$832, DW_AT_data_member_location[DW_OP_plus_uconst 0x4]
    9683                      .dwattr DW$832, DW_AT_accessibility(DW_ACCESS_public)
    9684              DW$833  .dwtag  DW_TAG_member, DW_AT_type(*DW$T$67)
    9685                      .dwattr DW$833, DW_AT_name("posbuf"), DW_AT_symbol_name("_posbuf")
    9686                      .dwattr DW$833, DW_AT_data_member_location[DW_OP_plus_uconst 0x6]
    9687                      .dwattr DW$833, DW_AT_accessibility(DW_ACCESS_public)
    9688                      .dwendtag DW$T$68
    9689              
    9690              
    9691              DW$T$28 .dwtag  DW_TAG_array_type, DW_AT_type(*DW$T$6)
    9692                      .dwattr DW$T$28, DW_AT_language(DW_LANG_C)
    9693                      .dwattr DW$T$28, DW_AT_byte_size(0x0c)
    9694              DW$834  .dwtag  DW_TAG_subrange_type
    9695                      .dwattr DW$834, DW_AT_upper_bound(0x0b)
    9696                      .dwendtag DW$T$28
    9697              
    9698              
    9699              DW$T$29 .dwtag  DW_TAG_array_type, DW_AT_type(*DW$T$6)
    9700                      .dwattr DW$T$29, DW_AT_language(DW_LANG_C)
    9701                      .dwattr DW$T$29, DW_AT_byte_size(0x0b)
    9702              DW$835  .dwtag  DW_TAG_subrange_type
    9703                      .dwattr DW$835, DW_AT_upper_bound(0x0a)
    9704                      .dwendtag DW$T$29
    9705              
    9706              DW$T$36 .dwtag  DW_TAG_typedef, DW_AT_name("F_WRITESECTOR"), DW_AT_type(*DW$T$35)
    9707                      .dwattr DW$T$36, DW_AT_language(DW_LANG_C)
    9708              DW$T$40 .dwtag  DW_TAG_typedef, DW_AT_name("F_READSECTOR"), DW_AT_type(*DW$T$35)
    9709                      .dwattr DW$T$40, DW_AT_language(DW_LANG_C)
TMS320C2000 COFF Assembler PC v4.1.3 Thu Aug 18 12:16:14 2016

Tools Copyright (c) 1996-2006 Texas Instruments Incorporated
fat.asm                                                              PAGE  192

    9710              DW$T$39 .dwtag  DW_TAG_typedef, DW_AT_name("F_WRITEMULTIPLESECTOR"), DW_AT_type(*DW$T$38)
    9711                      .dwattr DW$T$39, DW_AT_language(DW_LANG_C)
    9712              DW$T$41 .dwtag  DW_TAG_typedef, DW_AT_name("F_READMULTIPLESECTOR"), DW_AT_type(*DW$T$38)
    9713                      .dwattr DW$T$41, DW_AT_language(DW_LANG_C)
    9714              DW$T$46 .dwtag  DW_TAG_typedef, DW_AT_name("F_GETPHY"), DW_AT_type(*DW$T$45)
    9715                      .dwattr DW$T$46, DW_AT_language(DW_LANG_C)
    9716              DW$T$52 .dwtag  DW_TAG_typedef, DW_AT_name("F_DELFUNC"), DW_AT_type(*DW$T$51)
    9717                      .dwattr DW$T$52, DW_AT_language(DW_LANG_C)
    9718              DW$T$49 .dwtag  DW_TAG_typedef, DW_AT_name("F_GETSTATUS"), DW_AT_type(*DW$T$48)
    9719                      .dwattr DW$T$49, DW_AT_language(DW_LANG_C)
    9720              
    9721              DW$T$67 .dwtag  DW_TAG_array_type, DW_AT_type(*DW$T$65)
    9722                      .dwattr DW$T$67, DW_AT_language(DW_LANG_C)
    9723                      .dwattr DW$T$67, DW_AT_byte_size(0x180)
    9724              DW$836  .dwtag  DW_TAG_subrange_type
    9725                      .dwattr DW$836, DW_AT_upper_bound(0x1f)
    9726                      .dwendtag DW$T$67
    9727              
    9728              DW$T$35 .dwtag  DW_TAG_pointer_type, DW_AT_type(*DW$T$34)
    9729                      .dwattr DW$T$35, DW_AT_address_class(0x16)
    9730              DW$T$38 .dwtag  DW_TAG_pointer_type, DW_AT_type(*DW$T$37)
    9731                      .dwattr DW$T$38, DW_AT_address_class(0x16)
    9732              DW$T$45 .dwtag  DW_TAG_pointer_type, DW_AT_type(*DW$T$44)
    9733                      .dwattr DW$T$45, DW_AT_address_class(0x16)
    9734              DW$T$51 .dwtag  DW_TAG_pointer_type, DW_AT_type(*DW$T$50)
    9735                      .dwattr DW$T$51, DW_AT_address_class(0x16)
    9736              DW$T$48 .dwtag  DW_TAG_pointer_type, DW_AT_type(*DW$T$47)
    9737                      .dwattr DW$T$48, DW_AT_address_class(0x16)
    9738              
    9739              DW$T$34 .dwtag  DW_TAG_subroutine_type, DW_AT_type(*DW$T$10)
    9740                      .dwattr DW$T$34, DW_AT_language(DW_LANG_C)
    9741              DW$837  .dwtag  DW_TAG_formal_parameter, DW_AT_type(*DW$T$3)
    9742              DW$838  .dwtag  DW_TAG_formal_parameter, DW_AT_type(*DW$T$13)
    9743              DW$839  .dwtag  DW_TAG_formal_parameter, DW_AT_type(*DW$T$3)
    9744                      .dwendtag DW$T$34
    9745              
    9746              
    9747              DW$T$37 .dwtag  DW_TAG_subroutine_type, DW_AT_type(*DW$T$10)
    9748                      .dwattr DW$T$37, DW_AT_language(DW_LANG_C)
    9749              DW$840  .dwtag  DW_TAG_formal_parameter, DW_AT_type(*DW$T$3)
    9750              DW$841  .dwtag  DW_TAG_formal_parameter, DW_AT_type(*DW$T$13)
    9751              DW$842  .dwtag  DW_TAG_formal_parameter, DW_AT_type(*DW$T$10)
    9752              DW$843  .dwtag  DW_TAG_formal_parameter, DW_AT_type(*DW$T$3)
    9753                      .dwendtag DW$T$37
    9754              
    9755              
    9756              DW$T$44 .dwtag  DW_TAG_subroutine_type, DW_AT_type(*DW$T$10)
    9757                      .dwattr DW$T$44, DW_AT_language(DW_LANG_C)
    9758              DW$844  .dwtag  DW_TAG_formal_parameter, DW_AT_type(*DW$T$43)
    9759              DW$845  .dwtag  DW_TAG_formal_parameter, DW_AT_type(*DW$T$3)
    9760                      .dwendtag DW$T$44
    9761              
    9762              
    9763              DW$T$50 .dwtag  DW_TAG_subroutine_type, DW_AT_type(*DW$T$10)
    9764                      .dwattr DW$T$50, DW_AT_language(DW_LANG_C)
TMS320C2000 COFF Assembler PC v4.1.3 Thu Aug 18 12:16:14 2016

Tools Copyright (c) 1996-2006 Texas Instruments Incorporated
fat.asm                                                              PAGE  193

    9765              DW$846  .dwtag  DW_TAG_formal_parameter, DW_AT_type(*DW$T$3)
    9766                      .dwendtag DW$T$50
    9767              
    9768              
    9769              DW$T$47 .dwtag  DW_TAG_subroutine_type, DW_AT_type(*DW$T$12)
    9770                      .dwattr DW$T$47, DW_AT_language(DW_LANG_C)
    9771              DW$847  .dwtag  DW_TAG_formal_parameter, DW_AT_type(*DW$T$3)
    9772                      .dwendtag DW$T$47
    9773              
    9774              DW$T$43 .dwtag  DW_TAG_pointer_type, DW_AT_type(*DW$T$42)
    9775                      .dwattr DW$T$43, DW_AT_address_class(0x16)
    9776              DW$T$42 .dwtag  DW_TAG_typedef, DW_AT_name("F_PHY"), DW_AT_type(*DW$T$33)
    9777                      .dwattr DW$T$42, DW_AT_language(DW_LANG_C)
    9778              
    9779              DW$T$33 .dwtag  DW_TAG_structure_type
    9780                      .dwattr DW$T$33, DW_AT_byte_size(0x08)
    9781              DW$848  .dwtag  DW_TAG_member, DW_AT_type(*DW$T$9)
    9782                      .dwattr DW$848, DW_AT_name("number_of_cylinders"), DW_AT_symbol_name("_number_of_cylinders")
    9783                      .dwattr DW$848, DW_AT_data_member_location[DW_OP_plus_uconst 0x0]
    9784                      .dwattr DW$848, DW_AT_accessibility(DW_ACCESS_public)
    9785              DW$849  .dwtag  DW_TAG_member, DW_AT_type(*DW$T$9)
    9786                      .dwattr DW$849, DW_AT_name("sector_per_track"), DW_AT_symbol_name("_sector_per_track")
    9787                      .dwattr DW$849, DW_AT_data_member_location[DW_OP_plus_uconst 0x1]
    9788                      .dwattr DW$849, DW_AT_accessibility(DW_ACCESS_public)
    9789              DW$850  .dwtag  DW_TAG_member, DW_AT_type(*DW$T$9)
    9790                      .dwattr DW$850, DW_AT_name("number_of_heads"), DW_AT_symbol_name("_number_of_heads")
    9791                      .dwattr DW$850, DW_AT_data_member_location[DW_OP_plus_uconst 0x2]
    9792                      .dwattr DW$850, DW_AT_accessibility(DW_ACCESS_public)
    9793              DW$851  .dwtag  DW_TAG_member, DW_AT_type(*DW$T$13)
    9794                      .dwattr DW$851, DW_AT_name("number_of_sectors"), DW_AT_symbol_name("_number_of_sectors")
    9795                      .dwattr DW$851, DW_AT_data_member_location[DW_OP_plus_uconst 0x4]
    9796                      .dwattr DW$851, DW_AT_accessibility(DW_ACCESS_public)
    9797              DW$852  .dwtag  DW_TAG_member, DW_AT_type(*DW$T$6)
    9798                      .dwattr DW$852, DW_AT_name("media_descriptor"), DW_AT_symbol_name("_media_descriptor")
    9799                      .dwattr DW$852, DW_AT_data_member_location[DW_OP_plus_uconst 0x6]
    9800                      .dwattr DW$852, DW_AT_accessibility(DW_ACCESS_public)
    9801                      .dwendtag DW$T$33
    9802              
    9803              
    9804                      .dwattr DW$407, DW_AT_external(0x01)
    9805                      .dwattr DW$407, DW_AT_type(*DW$T$10)
    9806                      .dwattr DW$108, DW_AT_type(*DW$T$12)
    9807                      .dwattr DW$144, DW_AT_type(*DW$T$12)
    9808                      .dwattr DW$254, DW_AT_external(0x01)
    9809                      .dwattr DW$254, DW_AT_type(*DW$T$10)
    9810                      .dwattr DW$220, DW_AT_type(*DW$T$10)
    9811                      .dwattr DW$289, DW_AT_type(*DW$T$10)
    9812                      .dwattr DW$328, DW_AT_type(*DW$T$10)
    9813                      .dwattr DW$103, DW_AT_external(0x01)
    9814                      .dwattr DW$103, DW_AT_type(*DW$T$10)
    9815                      .dwattr DW$403, DW_AT_type(*DW$T$100)
    9816                      .dwattr DW$185, DW_AT_type(*DW$T$10)
    9817                      .dwattr DW$155, DW_AT_type(*DW$T$10)
    9818                      .dwattr DW$106, DW_AT_external(0x01)
    9819                      .dwattr DW$106, DW_AT_type(*DW$T$10)
TMS320C2000 COFF Assembler PC v4.1.3 Thu Aug 18 12:16:14 2016

Tools Copyright (c) 1996-2006 Texas Instruments Incorporated
fat.asm                                                              PAGE  194

    9820                      .dwattr DW$388, DW_AT_external(0x01)
    9821                      .dwattr DW$388, DW_AT_type(*DW$T$10)
    9822                      .dwattr DW$477, DW_AT_external(0x01)
    9823                      .dwattr DW$477, DW_AT_type(*DW$T$10)
    9824                      .dwattr DW$460, DW_AT_external(0x01)
    9825                      .dwattr DW$460, DW_AT_type(*DW$T$12)
    9826                      .dwattr DW$377, DW_AT_external(0x01)
    9827                      .dwattr DW$377, DW_AT_type(*DW$T$10)
    9828                      .dwattr DW$381, DW_AT_external(0x01)
    9829                      .dwattr DW$381, DW_AT_type(*DW$T$10)
    9830                      .dwattr DW$480, DW_AT_external(0x01)
    9831                      .dwattr DW$480, DW_AT_type(*DW$T$10)
    9832                      .dwattr DW$370, DW_AT_external(0x01)
    9833                      .dwattr DW$370, DW_AT_type(*DW$T$10)
    9834                      .dwattr DW$362, DW_AT_external(0x01)
    9835                      .dwattr DW$362, DW_AT_type(*DW$T$10)
    9836                      .dwattr DW$501, DW_AT_external(0x01)
    9837                      .dwattr DW$501, DW_AT_type(*DW$T$10)
    9838                      .dwattr DW$472, DW_AT_external(0x01)
    9839                      .dwattr DW$472, DW_AT_type(*DW$T$10)
    9840                      .dwattr DW$446, DW_AT_external(0x01)
    9841                      .dwattr DW$446, DW_AT_type(*DW$T$10)
    9842                      .dwattr DW$463, DW_AT_external(0x01)
    9843                      .dwattr DW$463, DW_AT_type(*DW$T$210)
    9844                      .dwattr DW$395, DW_AT_external(0x01)
    9845                      .dwattr DW$395, DW_AT_type(*DW$T$10)
    9846                      .dwattr DW$488, DW_AT_external(0x01)
    9847                      .dwattr DW$488, DW_AT_type(*DW$T$10)
    9848                      .dwattr DW$484, DW_AT_external(0x01)
    9849                      .dwattr DW$484, DW_AT_type(*DW$T$10)
    9850                      .dwattr DW$530, DW_AT_external(0x01)
    9851                      .dwattr DW$530, DW_AT_type(*DW$T$10)
    9852                      .dwattr DW$467, DW_AT_external(0x01)
    9853                      .dwattr DW$467, DW_AT_type(*DW$T$10)
    9854                      .dwattr DW$559, DW_AT_external(0x01)
    9855                      .dwattr DW$559, DW_AT_type(*DW$T$210)
    9856                      .dwattr DW$CU, DW_AT_language(DW_LANG_C)
    9857              
    9858              ;***************************************************************
    9859              ;* DWARF REGISTER MAP                                          *
    9860              ;***************************************************************
    9861              
    9862              DW$853  .dwtag  DW_TAG_assign_register, DW_AT_name("AL")
    9863                      .dwattr DW$853, DW_AT_location[DW_OP_reg0]
    9864              DW$854  .dwtag  DW_TAG_assign_register, DW_AT_name("AH")
    9865                      .dwattr DW$854, DW_AT_location[DW_OP_reg1]
    9866              DW$855  .dwtag  DW_TAG_assign_register, DW_AT_name("PL")
    9867                      .dwattr DW$855, DW_AT_location[DW_OP_reg2]
    9868              DW$856  .dwtag  DW_TAG_assign_register, DW_AT_name("PH")
    9869                      .dwattr DW$856, DW_AT_location[DW_OP_reg3]
    9870              DW$857  .dwtag  DW_TAG_assign_register, DW_AT_name("AR0")
    9871                      .dwattr DW$857, DW_AT_location[DW_OP_reg4]
    9872              DW$858  .dwtag  DW_TAG_assign_register, DW_AT_name("XAR0")
    9873                      .dwattr DW$858, DW_AT_location[DW_OP_reg5]
    9874              DW$859  .dwtag  DW_TAG_assign_register, DW_AT_name("AR1")
TMS320C2000 COFF Assembler PC v4.1.3 Thu Aug 18 12:16:14 2016

Tools Copyright (c) 1996-2006 Texas Instruments Incorporated
fat.asm                                                              PAGE  195

    9875                      .dwattr DW$859, DW_AT_location[DW_OP_reg6]
    9876              DW$860  .dwtag  DW_TAG_assign_register, DW_AT_name("XAR1")
    9877                      .dwattr DW$860, DW_AT_location[DW_OP_reg7]
    9878              DW$861  .dwtag  DW_TAG_assign_register, DW_AT_name("AR2")
    9879                      .dwattr DW$861, DW_AT_location[DW_OP_reg8]
    9880              DW$862  .dwtag  DW_TAG_assign_register, DW_AT_name("XAR2")
    9881                      .dwattr DW$862, DW_AT_location[DW_OP_reg9]
    9882              DW$863  .dwtag  DW_TAG_assign_register, DW_AT_name("AR3")
    9883                      .dwattr DW$863, DW_AT_location[DW_OP_reg10]
    9884              DW$864  .dwtag  DW_TAG_assign_register, DW_AT_name("XAR3")
    9885                      .dwattr DW$864, DW_AT_location[DW_OP_reg11]
    9886              DW$865  .dwtag  DW_TAG_assign_register, DW_AT_name("AR4")
    9887                      .dwattr DW$865, DW_AT_location[DW_OP_reg12]
    9888              DW$866  .dwtag  DW_TAG_assign_register, DW_AT_name("XAR4")
    9889                      .dwattr DW$866, DW_AT_location[DW_OP_reg13]
    9890              DW$867  .dwtag  DW_TAG_assign_register, DW_AT_name("AR5")
    9891                      .dwattr DW$867, DW_AT_location[DW_OP_reg14]
    9892              DW$868  .dwtag  DW_TAG_assign_register, DW_AT_name("XAR5")
    9893                      .dwattr DW$868, DW_AT_location[DW_OP_reg15]
    9894              DW$869  .dwtag  DW_TAG_assign_register, DW_AT_name("AR6")
    9895                      .dwattr DW$869, DW_AT_location[DW_OP_reg16]
    9896              DW$870  .dwtag  DW_TAG_assign_register, DW_AT_name("XAR6")
    9897                      .dwattr DW$870, DW_AT_location[DW_OP_reg17]
    9898              DW$871  .dwtag  DW_TAG_assign_register, DW_AT_name("AR7")
    9899                      .dwattr DW$871, DW_AT_location[DW_OP_reg18]
    9900              DW$872  .dwtag  DW_TAG_assign_register, DW_AT_name("XAR7")
    9901                      .dwattr DW$872, DW_AT_location[DW_OP_reg19]
    9902              DW$873  .dwtag  DW_TAG_assign_register, DW_AT_name("SP")
    9903                      .dwattr DW$873, DW_AT_location[DW_OP_reg20]
    9904              DW$874  .dwtag  DW_TAG_assign_register, DW_AT_name("XT")
    9905                      .dwattr DW$874, DW_AT_location[DW_OP_reg21]
    9906              DW$875  .dwtag  DW_TAG_assign_register, DW_AT_name("T")
    9907                      .dwattr DW$875, DW_AT_location[DW_OP_reg22]
    9908              DW$876  .dwtag  DW_TAG_assign_register, DW_AT_name("ST0")
    9909                      .dwattr DW$876, DW_AT_location[DW_OP_reg23]
    9910              DW$877  .dwtag  DW_TAG_assign_register, DW_AT_name("ST1")
    9911                      .dwattr DW$877, DW_AT_location[DW_OP_reg24]
    9912              DW$878  .dwtag  DW_TAG_assign_register, DW_AT_name("PC")
    9913                      .dwattr DW$878, DW_AT_location[DW_OP_reg25]
    9914              DW$879  .dwtag  DW_TAG_assign_register, DW_AT_name("RPC")
    9915                      .dwattr DW$879, DW_AT_location[DW_OP_reg26]
    9916              DW$880  .dwtag  DW_TAG_assign_register, DW_AT_name("FP")
    9917                      .dwattr DW$880, DW_AT_location[DW_OP_reg27]
    9918              DW$881  .dwtag  DW_TAG_assign_register, DW_AT_name("DP")
    9919                      .dwattr DW$881, DW_AT_location[DW_OP_reg28]
    9920              DW$882  .dwtag  DW_TAG_assign_register, DW_AT_name("SXM")
    9921                      .dwattr DW$882, DW_AT_location[DW_OP_reg29]
    9922              DW$883  .dwtag  DW_TAG_assign_register, DW_AT_name("PM")
    9923                      .dwattr DW$883, DW_AT_location[DW_OP_reg30]
    9924              DW$884  .dwtag  DW_TAG_assign_register, DW_AT_name("OVM")
    9925                      .dwattr DW$884, DW_AT_location[DW_OP_reg31]
    9926              DW$885  .dwtag  DW_TAG_assign_register, DW_AT_name("PAGE0")
    9927                      .dwattr DW$885, DW_AT_location[DW_OP_regx 0x20]
    9928              DW$886  .dwtag  DW_TAG_assign_register, DW_AT_name("AMODE")
    9929                      .dwattr DW$886, DW_AT_location[DW_OP_regx 0x21]
TMS320C2000 COFF Assembler PC v4.1.3 Thu Aug 18 12:16:14 2016

Tools Copyright (c) 1996-2006 Texas Instruments Incorporated
fat.asm                                                              PAGE  196

    9930              DW$887  .dwtag  DW_TAG_assign_register, DW_AT_name("IFR")
    9931                      .dwattr DW$887, DW_AT_location[DW_OP_regx 0x22]
    9932              DW$888  .dwtag  DW_TAG_assign_register, DW_AT_name("IER")
    9933                      .dwattr DW$888, DW_AT_location[DW_OP_regx 0x23]
    9934              DW$889  .dwtag  DW_TAG_assign_register, DW_AT_name("IER")
    9935                      .dwattr DW$889, DW_AT_location[DW_OP_regx 0x24]
    9936              DW$890  .dwtag  DW_TAG_assign_register, DW_AT_name("PSEUDO")
    9937                      .dwattr DW$890, DW_AT_location[DW_OP_regx 0x25]
    9938              DW$891  .dwtag  DW_TAG_assign_register, DW_AT_name("PSEUDOH")
    9939                      .dwattr DW$891, DW_AT_location[DW_OP_regx 0x26]
    9940              DW$892  .dwtag  DW_TAG_assign_register, DW_AT_name("VOL")
    9941                      .dwattr DW$892, DW_AT_location[DW_OP_regx 0x27]
    9942              DW$893  .dwtag  DW_TAG_assign_register, DW_AT_name("CIE_RETA")
    9943                      .dwattr DW$893, DW_AT_location[DW_OP_regx 0x28]
    9944                      .dwendtag DW$CU
    9945              

No Assembly Errors, No Assembly Warnings
