TMS320C2000 COFF Assembler PC v4.1.3 Thu Aug 18 12:16:20 2016

Tools Copyright (c) 1996-2006 Texas Instruments Incorporated
mancal.asm                                                           PAGE    1

       1              ;***************************************************************
       2              ;* TMS320C2000 C/C++ Codegen                         PC v4.1.3 *
       3              ;* Date/Time created: Thu Aug 18 12:16:20 2016                 *
       4              ;***************************************************************
       5                      .compiler_opts --mem_model:code=flat --mem_model:data=large --quiet --silicon_version=28 
       6        0002  FP      .set    XAR2
       7              
       8              DW$CU   .dwtag  DW_TAG_compile_unit
       9                      .dwattr DW$CU, DW_AT_name("mancal.c")
      10                      .dwattr DW$CU, DW_AT_producer("TMS320C2000 C/C++ Codegen PC v4.1.3 Copyright (c) 1996-2006 Texas Inst
      11                      .dwattr DW$CU, DW_AT_stmt_list(0x00)
      12                      .dwattr DW$CU, DW_AT_TI_VERSION(0x01)
      13              ;**************************************************************
      14              ;* CINIT RECORDS                                              *
      15              ;**************************************************************
      16 00000000               .sect   ".cinit"
      17                      .align  1
      18 00000000 FFFF          .field          -1,16
      19 00000001 003E-         .field          _bReadyToSampling+0,32
         00000002 0000 
      20 00000003 0000          .field          0,16                    ; _bReadyToSampling @ 0
      21              
      22 00000004               .sect   ".cinit"
      23                      .align  1
      24 00000004 FFFF          .field          -1,16
      25 00000005 003F-         .field          _bSamplingFinished+0,32
         00000006 0000 
      26 00000007 0000          .field          0,16                    ; _bSamplingFinished @ 0
      27              
      28              
      29              DW$1    .dwtag  DW_TAG_subprogram, DW_AT_name("sprintf"), DW_AT_symbol_name("_sprintf")
      30                      .dwattr DW$1, DW_AT_type(*DW$T$10)
      31                      .dwattr DW$1, DW_AT_declaration(0x01)
      32                      .dwattr DW$1, DW_AT_external(0x01)
      33              DW$2    .dwtag  DW_TAG_formal_parameter, DW_AT_type(*DW$T$59)
      34              DW$3    .dwtag  DW_TAG_formal_parameter, DW_AT_type(*DW$T$83)
      35              DW$4    .dwtag  DW_TAG_unspecified_parameters
      36                      .dwendtag DW$1
      37              
      38              
      39              DW$5    .dwtag  DW_TAG_subprogram, DW_AT_name("memset"), DW_AT_symbol_name("_memset")
      40                      .dwattr DW$5, DW_AT_type(*DW$T$3)
      41                      .dwattr DW$5, DW_AT_declaration(0x01)
      42                      .dwattr DW$5, DW_AT_external(0x01)
      43              DW$6    .dwtag  DW_TAG_formal_parameter, DW_AT_type(*DW$T$3)
      44              DW$7    .dwtag  DW_TAG_formal_parameter, DW_AT_type(*DW$T$10)
      45              DW$8    .dwtag  DW_TAG_formal_parameter, DW_AT_type(*DW$T$56)
      46                      .dwendtag DW$5
      47              
      48              
      49              DW$9    .dwtag  DW_TAG_subprogram, DW_AT_name("DebugStringOut"), DW_AT_symbol_name("_DebugStringOut")
      50                      .dwattr DW$9, DW_AT_declaration(0x01)
      51                      .dwattr DW$9, DW_AT_external(0x01)
      52              DW$10   .dwtag  DW_TAG_formal_parameter, DW_AT_type(*DW$T$59)
      53                      .dwendtag DW$9
TMS320C2000 COFF Assembler PC v4.1.3 Thu Aug 18 12:16:20 2016

Tools Copyright (c) 1996-2006 Texas Instruments Incorporated
mancal.asm                                                           PAGE    2

      54              
      55              
      56              DW$11   .dwtag  DW_TAG_subprogram, DW_AT_name("WriteNVMemory"), DW_AT_symbol_name("_WriteNVMemory")
      57                      .dwattr DW$11, DW_AT_declaration(0x01)
      58                      .dwattr DW$11, DW_AT_external(0x01)
      59              DW$12   .dwtag  DW_TAG_formal_parameter, DW_AT_type(*DW$T$11)
      60              DW$13   .dwtag  DW_TAG_formal_parameter, DW_AT_type(*DW$T$11)
      61              DW$14   .dwtag  DW_TAG_formal_parameter, DW_AT_type(*DW$T$62)
      62              DW$15   .dwtag  DW_TAG_formal_parameter, DW_AT_type(*DW$T$11)
      63                      .dwendtag DW$11
      64              
      65              
      66              DW$16   .dwtag  DW_TAG_subprogram, DW_AT_name("ReadNVMemory"), DW_AT_symbol_name("_ReadNVMemory")
      67                      .dwattr DW$16, DW_AT_declaration(0x01)
      68                      .dwattr DW$16, DW_AT_external(0x01)
      69              DW$17   .dwtag  DW_TAG_formal_parameter, DW_AT_type(*DW$T$11)
      70              DW$18   .dwtag  DW_TAG_formal_parameter, DW_AT_type(*DW$T$11)
      71              DW$19   .dwtag  DW_TAG_formal_parameter, DW_AT_type(*DW$T$62)
      72              DW$20   .dwtag  DW_TAG_formal_parameter, DW_AT_type(*DW$T$11)
      73                      .dwendtag DW$16
      74              
      75              
      76              DW$21   .dwtag  DW_TAG_subprogram, DW_AT_name("SetupNormalModeAlarmLevels"), DW_AT_symbol_name("_SetupNormalM
      77                      .dwattr DW$21, DW_AT_declaration(0x01)
      78                      .dwattr DW$21, DW_AT_external(0x01)
      79              
      80              DW$22   .dwtag  DW_TAG_subprogram, DW_AT_name("PreWarningInit"), DW_AT_symbol_name("_PreWarningInit")
      81                      .dwattr DW$22, DW_AT_declaration(0x01)
      82                      .dwattr DW$22, DW_AT_external(0x01)
      83              
      84              DW$23   .dwtag  DW_TAG_subprogram, DW_AT_name("SetCalMode"), DW_AT_symbol_name("_SetCalMode")
      85                      .dwattr DW$23, DW_AT_declaration(0x01)
      86                      .dwattr DW$23, DW_AT_external(0x01)
      87              DW$24   .dwtag  DW_TAG_formal_parameter, DW_AT_type(*DW$T$11)
      88              DW$25   .dwtag  DW_TAG_formal_parameter, DW_AT_type(*DW$T$10)
      89                      .dwendtag DW$23
      90              
      91              
      92              DW$26   .dwtag  DW_TAG_subprogram, DW_AT_name("GetModalRPM"), DW_AT_symbol_name("_GetModalRPM")
      93                      .dwattr DW$26, DW_AT_type(*DW$T$11)
      94                      .dwattr DW$26, DW_AT_declaration(0x01)
      95                      .dwattr DW$26, DW_AT_external(0x01)
      96              DW$27   .dwtag  DW_TAG_formal_parameter, DW_AT_type(*DW$T$10)
      97                      .dwendtag DW$26
      98              
      99              
     100              DW$28   .dwtag  DW_TAG_subprogram, DW_AT_name("GetPreCompValue"), DW_AT_symbol_name("_GetPreCompValue")
     101                      .dwattr DW$28, DW_AT_type(*DW$T$10)
     102                      .dwattr DW$28, DW_AT_declaration(0x01)
     103                      .dwattr DW$28, DW_AT_external(0x01)
     104              DW$29   .dwtag  DW_TAG_formal_parameter, DW_AT_type(*DW$T$11)
     105                      .dwendtag DW$28
     106              
     107              
     108              DW$30   .dwtag  DW_TAG_subprogram, DW_AT_name("Status1Flags"), DW_AT_symbol_name("_Status1Flags")
TMS320C2000 COFF Assembler PC v4.1.3 Thu Aug 18 12:16:20 2016

Tools Copyright (c) 1996-2006 Texas Instruments Incorporated
mancal.asm                                                           PAGE    3

     109                      .dwattr DW$30, DW_AT_type(*DW$T$127)
     110                      .dwattr DW$30, DW_AT_declaration(0x01)
     111                      .dwattr DW$30, DW_AT_external(0x01)
     112              DW$31   .dwtag  DW_TAG_formal_parameter, DW_AT_type(*DW$T$11)
     113                      .dwendtag DW$30
     114              
     115              
     116              DW$32   .dwtag  DW_TAG_subprogram, DW_AT_name("GetStatus2Flags"), DW_AT_symbol_name("_GetStatus2Flags")
     117                      .dwattr DW$32, DW_AT_type(*DW$T$132)
     118                      .dwattr DW$32, DW_AT_declaration(0x01)
     119                      .dwattr DW$32, DW_AT_external(0x01)
     120              DW$33   .dwtag  DW_TAG_formal_parameter, DW_AT_type(*DW$T$11)
     121                      .dwendtag DW$32
     122              
     123              
     124              DW$34   .dwtag  DW_TAG_subprogram, DW_AT_name("ClearSelectiveMANTable"), DW_AT_symbol_name("_ClearSelectiveMA
     125                      .dwattr DW$34, DW_AT_declaration(0x01)
     126                      .dwattr DW$34, DW_AT_external(0x01)
     127              
     128              DW$35   .dwtag  DW_TAG_subprogram, DW_AT_name("WriteSensorStatustoNVMEM"), DW_AT_symbol_name("_WriteSensorSta
     129                      .dwattr DW$35, DW_AT_declaration(0x01)
     130                      .dwattr DW$35, DW_AT_external(0x01)
     131              DW$36   .dwtag  DW_TAG_formal_parameter, DW_AT_type(*DW$T$11)
     132                      .dwendtag DW$35
     133              
     134              
     135              DW$37   .dwtag  DW_TAG_subprogram, DW_AT_name("WriteMANCompTabletoNVMEM"), DW_AT_symbol_name("_WriteMANCompTa
     136                      .dwattr DW$37, DW_AT_declaration(0x01)
     137                      .dwattr DW$37, DW_AT_external(0x01)
     138              
     139              DW$38   .dwtag  DW_TAG_subprogram, DW_AT_name("ClearManCompSequence"), DW_AT_symbol_name("_ClearManCompSequen
     140                      .dwattr DW$38, DW_AT_declaration(0x01)
     141                      .dwattr DW$38, DW_AT_external(0x01)
     142              
     143              DW$39   .dwtag  DW_TAG_subprogram, DW_AT_name("MANCompTabletoSDCardFile"), DW_AT_symbol_name("_MANCompTableto
     144                      .dwattr DW$39, DW_AT_type(*DW$T$10)
     145                      .dwattr DW$39, DW_AT_declaration(0x01)
     146                      .dwattr DW$39, DW_AT_external(0x01)
     147              DW$40   .dwtag  DW_TAG_formal_parameter, DW_AT_type(*DW$T$83)
     148              DW$41   .dwtag  DW_TAG_formal_parameter, DW_AT_type(*DW$T$11)
     149                      .dwendtag DW$39
     150              
     151              
     152              DW$42   .dwtag  DW_TAG_subprogram, DW_AT_name("SensorStatustoSDCardFile"), DW_AT_symbol_name("_SensorStatusto
     153                      .dwattr DW$42, DW_AT_type(*DW$T$10)
     154                      .dwattr DW$42, DW_AT_declaration(0x01)
     155                      .dwattr DW$42, DW_AT_external(0x01)
     156              
     157              DW$43   .dwtag  DW_TAG_subprogram, DW_AT_name("ClearEventCodeListArea"), DW_AT_symbol_name("_ClearEventCodeLi
     158                      .dwattr DW$43, DW_AT_declaration(0x01)
     159                      .dwattr DW$43, DW_AT_external(0x01)
     160              
     161              DW$44   .dwtag  DW_TAG_subprogram, DW_AT_name("SetAlarmEvent"), DW_AT_symbol_name("_SetAlarmEvent")
     162                      .dwattr DW$44, DW_AT_declaration(0x01)
     163                      .dwattr DW$44, DW_AT_external(0x01)
TMS320C2000 COFF Assembler PC v4.1.3 Thu Aug 18 12:16:20 2016

Tools Copyright (c) 1996-2006 Texas Instruments Incorporated
mancal.asm                                                           PAGE    4

     164              DW$45   .dwtag  DW_TAG_formal_parameter, DW_AT_type(*DW$T$11)
     165                      .dwendtag DW$44
     166              
     167              
     168              DW$46   .dwtag  DW_TAG_subprogram, DW_AT_name("ClearAlarmEvent"), DW_AT_symbol_name("_ClearAlarmEvent")
     169                      .dwattr DW$46, DW_AT_declaration(0x01)
     170                      .dwattr DW$46, DW_AT_external(0x01)
     171              DW$47   .dwtag  DW_TAG_formal_parameter, DW_AT_type(*DW$T$11)
     172                      .dwendtag DW$46
     173              
     174              
     175              DW$48   .dwtag  DW_TAG_subprogram, DW_AT_name("SetBitEvent"), DW_AT_symbol_name("_SetBitEvent")
     176                      .dwattr DW$48, DW_AT_declaration(0x01)
     177                      .dwattr DW$48, DW_AT_external(0x01)
     178              DW$49   .dwtag  DW_TAG_formal_parameter, DW_AT_type(*DW$T$11)
     179                      .dwendtag DW$48
     180              
     181              
     182              DW$50   .dwtag  DW_TAG_subprogram, DW_AT_name("ReadMANCompTablefromSDCardFile"), DW_AT_symbol_name("_ReadMANC
     183                      .dwattr DW$50, DW_AT_type(*DW$T$10)
     184                      .dwattr DW$50, DW_AT_declaration(0x01)
     185                      .dwattr DW$50, DW_AT_external(0x01)
     186              
     187              DW$51   .dwtag  DW_TAG_subprogram, DW_AT_name("PrewarnReset"), DW_AT_symbol_name("_PrewarnReset")
     188                      .dwattr DW$51, DW_AT_type(*DW$T$10)
     189                      .dwattr DW$51, DW_AT_declaration(0x01)
     190                      .dwattr DW$51, DW_AT_external(0x01)
     191              
     192              DW$52   .dwtag  DW_TAG_subprogram, DW_AT_name("CalibrationtdUpdate"), DW_AT_symbol_name("_CalibrationtdUpdate
     193                      .dwattr DW$52, DW_AT_type(*DW$T$10)
     194                      .dwattr DW$52, DW_AT_declaration(0x01)
     195                      .dwattr DW$52, DW_AT_external(0x01)
     196              
     197              DW$53   .dwtag  DW_TAG_subprogram, DW_AT_name("FloattoIntRound"), DW_AT_symbol_name("_FloattoIntRound")
     198                      .dwattr DW$53, DW_AT_type(*DW$T$10)
     199                      .dwattr DW$53, DW_AT_declaration(0x01)
     200                      .dwattr DW$53, DW_AT_external(0x01)
     201              DW$54   .dwtag  DW_TAG_variable, DW_AT_name("settings"), DW_AT_symbol_name("_settings")
     202                      .dwattr DW$54, DW_AT_type(*DW$T$137)
     203                      .dwattr DW$54, DW_AT_declaration(0x01)
     204                      .dwattr DW$54, DW_AT_external(0x01)
     205              DW$55   .dwtag  DW_TAG_variable, DW_AT_name("motion"), DW_AT_symbol_name("_motion")
     206                      .dwattr DW$55, DW_AT_type(*DW$T$138)
     207                      .dwattr DW$55, DW_AT_declaration(0x01)
     208                      .dwattr DW$55, DW_AT_external(0x01)
     209              DW$56   .dwtag  DW_TAG_variable, DW_AT_name("timers"), DW_AT_symbol_name("_timers")
     210                      .dwattr DW$56, DW_AT_type(*DW$T$140)
     211                      .dwattr DW$56, DW_AT_declaration(0x01)
     212                      .dwattr DW$56, DW_AT_external(0x01)
     213              DW$57   .dwtag  DW_TAG_variable, DW_AT_name("allsensors"), DW_AT_symbol_name("_allsensors")
     214                      .dwattr DW$57, DW_AT_type(*DW$T$142)
     215                      .dwattr DW$57, DW_AT_declaration(0x01)
     216                      .dwattr DW$57, DW_AT_external(0x01)
     217              DW$58   .dwtag  DW_TAG_variable, DW_AT_name("stringbuffer"), DW_AT_symbol_name("_stringbuffer")
     218                      .dwattr DW$58, DW_AT_type(*DW$T$158)
TMS320C2000 COFF Assembler PC v4.1.3 Thu Aug 18 12:16:20 2016

Tools Copyright (c) 1996-2006 Texas Instruments Incorporated
mancal.asm                                                           PAGE    5

     219                      .dwattr DW$58, DW_AT_declaration(0x01)
     220                      .dwattr DW$58, DW_AT_external(0x01)
     221              DW$59   .dwtag  DW_TAG_variable, DW_AT_name("sensor"), DW_AT_symbol_name("_sensor")
     222                      .dwattr DW$59, DW_AT_type(*DW$T$145)
     223                      .dwattr DW$59, DW_AT_declaration(0x01)
     224                      .dwattr DW$59, DW_AT_external(0x01)
     225              DW$60   .dwtag  DW_TAG_variable, DW_AT_name("iSensorInResetMode"), DW_AT_symbol_name("_iSensorInResetMode")
     226                      .dwattr DW$60, DW_AT_type(*DW$T$10)
     227                      .dwattr DW$60, DW_AT_declaration(0x01)
     228                      .dwattr DW$60, DW_AT_external(0x01)
     229              DW$61   .dwtag  DW_TAG_variable, DW_AT_name("iSensorInRepalceTimer"), DW_AT_symbol_name("_iSensorInRepalceTim
     230                      .dwattr DW$61, DW_AT_type(*DW$T$10)
     231                      .dwattr DW$61, DW_AT_declaration(0x01)
     232                      .dwattr DW$61, DW_AT_external(0x01)
     233              DW$62   .dwtag  DW_TAG_variable, DW_AT_name("iBarred"), DW_AT_symbol_name("_iBarred")
     234                      .dwattr DW$62, DW_AT_type(*DW$T$11)
     235                      .dwattr DW$62, DW_AT_declaration(0x01)
     236                      .dwattr DW$62, DW_AT_external(0x01)
     237              DW$63   .dwtag  DW_TAG_variable, DW_AT_name("iDeltaRPM15"), DW_AT_symbol_name("_iDeltaRPM15")
     238                      .dwattr DW$63, DW_AT_type(*DW$T$11)
     239                      .dwattr DW$63, DW_AT_declaration(0x01)
     240                      .dwattr DW$63, DW_AT_external(0x01)
     241 00000000       _fRapidWearAverage:     .usect  ".ebss",56,1,1
     242              DW$64   .dwtag  DW_TAG_variable, DW_AT_name("fRapidWearAverage"), DW_AT_symbol_name("_fRapidWearAverage")
     243                      .dwattr DW$64, DW_AT_type(*DW$T$122)
     244                      .dwattr DW$64, DW_AT_location[DW_OP_addr _fRapidWearAverage]
     245              DW$65   .dwtag  DW_TAG_variable, DW_AT_name("function"), DW_AT_symbol_name("_function")
     246                      .dwattr DW$65, DW_AT_type(*DW$T$148)
     247                      .dwattr DW$65, DW_AT_declaration(0x01)
     248                      .dwattr DW$65, DW_AT_external(0x01)
     249              DW$66   .dwtag  DW_TAG_variable, DW_AT_name("man_comptable"), DW_AT_symbol_name("_man_comptable")
     250                      .dwattr DW$66, DW_AT_type(*DW$T$80)
     251                      .dwattr DW$66, DW_AT_declaration(0x01)
     252                      .dwattr DW$66, DW_AT_external(0x01)
     253              DW$67   .dwtag  DW_TAG_variable, DW_AT_name("manref"), DW_AT_symbol_name("_manref")
     254                      .dwattr DW$67, DW_AT_type(*DW$T$150)
     255                      .dwattr DW$67, DW_AT_declaration(0x01)
     256                      .dwattr DW$67, DW_AT_external(0x01)
     257              DW$68   .dwtag  DW_TAG_variable, DW_AT_name("manrefsum"), DW_AT_symbol_name("_manrefsum")
     258                      .dwattr DW$68, DW_AT_type(*DW$T$154)
     259                      .dwattr DW$68, DW_AT_declaration(0x01)
     260                      .dwattr DW$68, DW_AT_external(0x01)
     261              DW$69   .dwtag  DW_TAG_variable, DW_AT_name("dynalarmlevels"), DW_AT_symbol_name("_dynalarmlevels")
     262                      .dwattr DW$69, DW_AT_type(*DW$T$157)
     263                      .dwattr DW$69, DW_AT_declaration(0x01)
     264                      .dwattr DW$69, DW_AT_external(0x01)
     265              DW$70   .dwtag  DW_TAG_variable, DW_AT_name("sdcarddir"), DW_AT_symbol_name("_sdcarddir")
     266                      .dwattr DW$70, DW_AT_type(*DW$T$161)
     267                      .dwattr DW$70, DW_AT_declaration(0x01)
     268                      .dwattr DW$70, DW_AT_external(0x01)
     269              DW$71   .dwtag  DW_TAG_variable, DW_AT_name("sdsettings"), DW_AT_symbol_name("_sdsettings")
     270                      .dwattr DW$71, DW_AT_type(*DW$T$164)
     271                      .dwattr DW$71, DW_AT_declaration(0x01)
     272                      .dwattr DW$71, DW_AT_external(0x01)
     273              DW$72   .dwtag  DW_TAG_variable, DW_AT_name("damagemonignore"), DW_AT_symbol_name("_damagemonignore")
TMS320C2000 COFF Assembler PC v4.1.3 Thu Aug 18 12:16:20 2016

Tools Copyright (c) 1996-2006 Texas Instruments Incorporated
mancal.asm                                                           PAGE    6

     274                      .dwattr DW$72, DW_AT_type(*DW$T$51)
     275                      .dwattr DW$72, DW_AT_declaration(0x01)
     276                      .dwattr DW$72, DW_AT_external(0x01)
     277              DW$73   .dwtag  DW_TAG_variable, DW_AT_name("sensorMoving"), DW_AT_symbol_name("_sensorMoving")
     278                      .dwattr DW$73, DW_AT_type(*DW$T$165)
     279                      .dwattr DW$73, DW_AT_declaration(0x01)
     280                      .dwattr DW$73, DW_AT_external(0x01)
     281                      .global _calibration
     282 00000040       _calibration:   .usect  ".ebss",794,1,1
     283              DW$74   .dwtag  DW_TAG_variable, DW_AT_name("calibration"), DW_AT_symbol_name("_calibration")
     284                      .dwattr DW$74, DW_AT_location[DW_OP_addr _calibration]
     285                      .dwattr DW$74, DW_AT_type(*DW$T$166)
     286                      .dwattr DW$74, DW_AT_external(0x01)
     287                      .global _speedcompcoeffs
     288 0000035a       _speedcompcoeffs:       .usect  ".ebss",25,1,0
     289              DW$75   .dwtag  DW_TAG_variable, DW_AT_name("speedcompcoeffs"), DW_AT_symbol_name("_speedcompcoeffs")
     290                      .dwattr DW$75, DW_AT_location[DW_OP_addr _speedcompcoeffs]
     291                      .dwattr DW$75, DW_AT_type(*DW$T$168)
     292                      .dwattr DW$75, DW_AT_external(0x01)
     293                      .global _mancal
     294 00000038       _mancal:        .usect  ".ebss",4,1,0
     295              DW$76   .dwtag  DW_TAG_variable, DW_AT_name("mancal"), DW_AT_symbol_name("_mancal")
     296                      .dwattr DW$76, DW_AT_location[DW_OP_addr _mancal]
     297                      .dwattr DW$76, DW_AT_type(*DW$T$170)
     298                      .dwattr DW$76, DW_AT_external(0x01)
     299                      .global _rpmpointtest
     300 0000003c       _rpmpointtest:  .usect  ".ebss",1,1,0
     301              DW$77   .dwtag  DW_TAG_variable, DW_AT_name("rpmpointtest"), DW_AT_symbol_name("_rpmpointtest")
     302                      .dwattr DW$77, DW_AT_location[DW_OP_addr _rpmpointtest]
     303                      .dwattr DW$77, DW_AT_type(*DW$T$11)
     304                      .dwattr DW$77, DW_AT_external(0x01)
     305                      .global _chanUT
     306 0000003d       _chanUT:        .usect  ".ebss",1,1,0
     307              DW$78   .dwtag  DW_TAG_variable, DW_AT_name("chanUT"), DW_AT_symbol_name("_chanUT")
     308                      .dwattr DW$78, DW_AT_location[DW_OP_addr _chanUT]
     309                      .dwattr DW$78, DW_AT_type(*DW$T$11)
     310                      .dwattr DW$78, DW_AT_external(0x01)
     311                      .global _bReadyToSampling
     312 0000003e       _bReadyToSampling:      .usect  ".ebss",1,1,0
     313              DW$79   .dwtag  DW_TAG_variable, DW_AT_name("bReadyToSampling"), DW_AT_symbol_name("_bReadyToSampling")
     314                      .dwattr DW$79, DW_AT_location[DW_OP_addr _bReadyToSampling]
     315                      .dwattr DW$79, DW_AT_type(*DW$T$11)
     316                      .dwattr DW$79, DW_AT_external(0x01)
     317                      .global _bSamplingFinished
     318 0000003f       _bSamplingFinished:     .usect  ".ebss",1,1,0
     319              DW$80   .dwtag  DW_TAG_variable, DW_AT_name("bSamplingFinished"), DW_AT_symbol_name("_bSamplingFinished")
     320                      .dwattr DW$80, DW_AT_location[DW_OP_addr _bSamplingFinished]
     321                      .dwattr DW$80, DW_AT_type(*DW$T$11)
     322                      .dwattr DW$80, DW_AT_external(0x01)
     323                      .global _wThirtySecondInMs
     324 00000000               .sect   ".econst"
     325                      .align  2
     326 00000000       _wThirtySecondInMs:
     327 00000000 1770          .field          6000,32                 ; _wThirtySecondInMs @ 0
         00000001 0000 
TMS320C2000 COFF Assembler PC v4.1.3 Thu Aug 18 12:16:20 2016

Tools Copyright (c) 1996-2006 Texas Instruments Incorporated
mancal.asm                                                           PAGE    7

     328              
     329              DW$81   .dwtag  DW_TAG_variable, DW_AT_name("wThirtySecondInMs"), DW_AT_symbol_name("_wThirtySecondInMs")
     330                      .dwattr DW$81, DW_AT_location[DW_OP_addr _wThirtySecondInMs]
     331                      .dwattr DW$81, DW_AT_type(*DW$T$120)
     332                      .dwattr DW$81, DW_AT_external(0x01)
     333                      .global _wFiveResulotionInMs
     334 00000374       _wFiveResulotionInMs:   .usect  ".ebss",2,1,1
     335              DW$82   .dwtag  DW_TAG_variable, DW_AT_name("wFiveResulotionInMs"), DW_AT_symbol_name("_wFiveResulotionInMs")
     336                      .dwattr DW$82, DW_AT_location[DW_OP_addr _wFiveResulotionInMs]
     337                      .dwattr DW$82, DW_AT_type(*DW$T$13)
     338                      .dwattr DW$82, DW_AT_external(0x01)
     339                      .global _CalRpm
     340 00000376       _CalRpm:        .usect  ".ebss",1,1,0
     341              DW$83   .dwtag  DW_TAG_variable, DW_AT_name("CalRpm"), DW_AT_symbol_name("_CalRpm")
     342                      .dwattr DW$83, DW_AT_location[DW_OP_addr _CalRpm]
     343                      .dwattr DW$83, DW_AT_type(*DW$T$11)
     344                      .dwattr DW$83, DW_AT_external(0x01)
     345                      .global _iRepaidWearReset
     346 00000377       _iRepaidWearReset:      .usect  ".ebss",1,1,0
     347              DW$84   .dwtag  DW_TAG_variable, DW_AT_name("iRepaidWearReset"), DW_AT_symbol_name("_iRepaidWearReset")
     348                      .dwattr DW$84, DW_AT_location[DW_OP_addr _iRepaidWearReset]
     349                      .dwattr DW$84, DW_AT_type(*DW$T$113)
     350                      .dwattr DW$84, DW_AT_external(0x01)
     351                      .global _iStartRapidWear
     352 00000378       _iStartRapidWear:       .usect  ".ebss",1,1,0
     353              DW$85   .dwtag  DW_TAG_variable, DW_AT_name("iStartRapidWear"), DW_AT_symbol_name("_iStartRapidWear")
     354                      .dwattr DW$85, DW_AT_location[DW_OP_addr _iStartRapidWear]
     355                      .dwattr DW$85, DW_AT_type(*DW$T$113)
     356                      .dwattr DW$85, DW_AT_external(0x01)
     357                      .global _iFiveResDone
     358 00000379       _iFiveResDone:  .usect  ".ebss",1,1,0
     359              DW$86   .dwtag  DW_TAG_variable, DW_AT_name("iFiveResDone"), DW_AT_symbol_name("_iFiveResDone")
     360                      .dwattr DW$86, DW_AT_location[DW_OP_addr _iFiveResDone]
     361                      .dwattr DW$86, DW_AT_type(*DW$T$113)
     362                      .dwattr DW$86, DW_AT_external(0x01)
     363              ;       C:\CCStudio_v3.3\C2000\cgtools\bin\opt2000.exe C:\Users\Andrew\AppData\Local\Temp\TI1762 C:\Users\And
     364              ;       C:\CCStudio_v3.3\C2000\cgtools\bin\ac2000.exe -q -D_INLINE -DLARGE_MODEL -IC:/CCStudio_v3.3/C2000/xda
     365 00000000               .sect   ".text"
     366                      .global _CalAbort
     367              
     368              DW$87   .dwtag  DW_TAG_subprogram, DW_AT_name("CalAbort"), DW_AT_symbol_name("_CalAbort")
     369                      .dwattr DW$87, DW_AT_low_pc(_CalAbort)
     370                      .dwattr DW$87, DW_AT_high_pc(0x00)
     371                      .dwattr DW$87, DW_AT_begin_file("mancal.c")
     372                      .dwattr DW$87, DW_AT_begin_line(0x4b)
     373                      .dwattr DW$87, DW_AT_begin_column(0x06)
     374                      .dwattr DW$87, DW_AT_frame_base[DW_OP_breg20 -4]
     375                      .dwattr DW$87, DW_AT_skeletal(0x01)
     376                      .dwpsn  "mancal.c",76,1
     377              
     378              ;***************************************************************
     379              ;* FNAME: _CalAbort                     FR SIZE:   2           *
     380              ;*                                                             *
     381              ;* FUNCTION ENVIRONMENT                                        *
     382              ;*                                                             *
TMS320C2000 COFF Assembler PC v4.1.3 Thu Aug 18 12:16:20 2016

Tools Copyright (c) 1996-2006 Texas Instruments Incorporated
mancal.asm                                                           PAGE    8

     383              ;* FUNCTION PROPERTIES                                         *
     384              ;*                            0 Parameter,  0 Auto,  2 SOE     *
     385              ;***************************************************************
     386              
     387 00000000       _CalAbort:
     388 00000000 B2BD          MOVL      *SP++,XAR1
     389                      .dwpsn  "mancal.c",83,0
     390 00000001 D100          MOVB      XAR1,#0
     391              L1:    
     392              DW$L$_CalAbort$2$B:
     393                      .dwpsn  "mancal.c",84,0
     394 00000002 92A1          MOV       AL,AR1                ; |85| 
     395 00000003 9B00          MOVB      AH,#0
     396 00000004 7640!         LCR       #_SetCalMode          ; |85| 
         00000005 0000 
     397                      ; call occurs [#_SetCalMode] ; |85| 
     398 00000006 92A1          MOV       AL,AR1                ; |86| 
     399 00000007 7640!         LCR       #_WriteSensorStatustoNVMEM ; |86| 
         00000008 0000 
     400                      ; call occurs [#_WriteSensorStatustoNVMEM] ; |86| 
     401 00000009 D901          ADDB      XAR1,#1               ; |83| 
     402 0000000a 92A1          MOV       AL,AR1                ; |83| 
     403 0000000b 521C          CMPB      AL,#28                ; |83| 
     404                      .dwpsn  "mancal.c",87,0
     405 0000000c 56C8          BF        L1,LO                 ; |83| 
         0000000d FFF6 
     406                      ; branchcc occurs ; |83| 
     407 0000000e       DW$L$_CalAbort$2$E:
     408 0000000e 7640!         LCR       #_SensorStatustoSDCardFile ; |88| 
         0000000f 0000 
     409                      ; call occurs [#_SensorStatustoSDCardFile] ; |88| 
     410 00000010 761F!         MOVW      DP,#_allsensors+16
         00000011 0000 
     411 00000012 1810!         AND       @_allsensors+16,#0xfffd ; |90| 
         00000013 FFFD 
     412 00000014 761F-         MOVW      DP,#_speedcompcoeffs
         00000015 000D 
     413 00000016 281A-         MOV       @_speedcompcoeffs,#11 ; |91| 
         00000017 000B 
     414 00000018 7640'         LCR       #_WriteSpeedCompStructtoNVMEM ; |92| 
         00000019 005E 
     415                      ; call occurs [#_WriteSpeedCompStructtoNVMEM] ; |92| 
     416 0000001a 9A04          MOVB      AL,#4                 ; |94| 
     417 0000001b 7640!         LCR       #_SetBitEvent         ; |94| 
         0000001c 0000 
     418                      ; call occurs [#_SetBitEvent] ; |94| 
     419 0000001d 7640!         LCR       #_ReadMANCompTablefromSDCardFile ; |97| 
         0000001e 0000 
     420                      ; call occurs [#_ReadMANCompTablefromSDCardFile] ; |97| 
     421 0000001f 7640!         LCR       #_SetupNormalModeAlarmLevels ; |99| 
         00000020 0000 
     422                      ; call occurs [#_SetupNormalModeAlarmLevels] ; |99| 
     423 00000021 8BBE          MOVL      XAR1,*--SP
     424                      .dwpsn  "mancal.c",100,1
     425 00000022 0006          LRETR
TMS320C2000 COFF Assembler PC v4.1.3 Thu Aug 18 12:16:20 2016

Tools Copyright (c) 1996-2006 Texas Instruments Incorporated
mancal.asm                                                           PAGE    9

     426                      ; return occurs
     427              
     428              DW$88   .dwtag  DW_TAG_loop
     429                      .dwattr DW$88, DW_AT_name("D:\DEV\Amot\BearingWear\XTSW_V6_20\mancal.asm:L1:1:1471518980")
     430                      .dwattr DW$88, DW_AT_begin_file("mancal.c")
     431                      .dwattr DW$88, DW_AT_begin_line(0x53)
     432                      .dwattr DW$88, DW_AT_end_line(0x57)
     433              DW$89   .dwtag  DW_TAG_loop_range
     434                      .dwattr DW$89, DW_AT_low_pc(DW$L$_CalAbort$2$B)
     435                      .dwattr DW$89, DW_AT_high_pc(DW$L$_CalAbort$2$E)
     436                      .dwendtag DW$88
     437              
     438                      .dwattr DW$87, DW_AT_end_file("mancal.c")
     439                      .dwattr DW$87, DW_AT_end_line(0x64)
     440                      .dwattr DW$87, DW_AT_end_column(0x01)
     441                      .dwendtag DW$87
     442              
     443 00000023               .sect   ".text"
     444                      .global _PowerUpCalInit
     445              
     446              DW$90   .dwtag  DW_TAG_subprogram, DW_AT_name("PowerUpCalInit"), DW_AT_symbol_name("_PowerUpCalInit")
     447                      .dwattr DW$90, DW_AT_low_pc(_PowerUpCalInit)
     448                      .dwattr DW$90, DW_AT_high_pc(0x00)
     449                      .dwattr DW$90, DW_AT_begin_file("mancal.c")
     450                      .dwattr DW$90, DW_AT_begin_line(0x67)
     451                      .dwattr DW$90, DW_AT_begin_column(0x06)
     452                      .dwattr DW$90, DW_AT_frame_base[DW_OP_breg20 -2]
     453                      .dwattr DW$90, DW_AT_skeletal(0x01)
     454                      .dwpsn  "mancal.c",104,1
     455              
     456              ;***************************************************************
     457              ;* FNAME: _PowerUpCalInit               FR SIZE:   0           *
     458              ;*                                                             *
     459              ;* FUNCTION ENVIRONMENT                                        *
     460              ;*                                                             *
     461              ;* FUNCTION PROPERTIES                                         *
     462              ;*                            0 Parameter,  0 Auto,  0 SOE     *
     463              ;***************************************************************
     464              
     465 00000023       _PowerUpCalInit:
     466 00000023 7640!         LCR       #_SetupNormalModeAlarmLevels ; |105| 
         00000024 0000 
     467                      ; call occurs [#_SetupNormalModeAlarmLevels] ; |105| 
     468 00000025 7640'         LCR       #_ReadCalibrationStructfromNVMEM ; |106| 
         00000026 00B8 
     469                      ; call occurs [#_ReadCalibrationStructfromNVMEM] ; |106| 
     470 00000027 7640'         LCR       #_ReadMANCalfromNVMEM ; |107| 
         00000028 00CB 
     471                      ; call occurs [#_ReadMANCalfromNVMEM] ; |107| 
     472 00000029 7640'         LCR       #_PowerOutCalRecovery ; |108| 
         0000002a 014B 
     473                      ; call occurs [#_PowerOutCalRecovery] ; |108| 
     474                      .dwpsn  "mancal.c",109,1
     475 0000002b 0006          LRETR
     476                      ; return occurs
TMS320C2000 COFF Assembler PC v4.1.3 Thu Aug 18 12:16:20 2016

Tools Copyright (c) 1996-2006 Texas Instruments Incorporated
mancal.asm                                                           PAGE   10

     477                      .dwattr DW$90, DW_AT_end_file("mancal.c")
     478                      .dwattr DW$90, DW_AT_end_line(0x6d)
     479                      .dwattr DW$90, DW_AT_end_column(0x01)
     480                      .dwendtag DW$90
     481              
     482 0000002c               .sect   ".text"
     483                      .global _ReadAccAverageVal
     484              
     485              DW$91   .dwtag  DW_TAG_subprogram, DW_AT_name("ReadAccAverageVal"), DW_AT_symbol_name("_ReadAccAverageVal")
     486                      .dwattr DW$91, DW_AT_low_pc(_ReadAccAverageVal)
     487                      .dwattr DW$91, DW_AT_high_pc(0x00)
     488                      .dwattr DW$91, DW_AT_begin_file("mancal.c")
     489                      .dwattr DW$91, DW_AT_begin_line(0x73)
     490                      .dwattr DW$91, DW_AT_begin_column(0x08)
     491                      .dwattr DW$91, DW_AT_frame_base[DW_OP_breg20 -2]
     492                      .dwattr DW$91, DW_AT_skeletal(0x01)
     493                      .dwpsn  "mancal.c",116,1
     494              
     495              ;***************************************************************
     496              ;* FNAME: _ReadAccAverageVal            FR SIZE:   0           *
     497              ;*                                                             *
     498              ;* FUNCTION ENVIRONMENT                                        *
     499              ;*                                                             *
     500              ;* FUNCTION PROPERTIES                                         *
     501              ;*                            0 Parameter,  0 Auto,  0 SOE     *
     502              ;***************************************************************
     503              
     504              _ReadAccAverageVal:
     505              ;* AL    assigned to _chan
     506              DW$92   .dwtag  DW_TAG_formal_parameter, DW_AT_name("chan"), DW_AT_symbol_name("_chan")
     507                      .dwattr DW$92, DW_AT_type(*DW$T$11)
     508                      .dwattr DW$92, DW_AT_location[DW_OP_reg0]
     509              ;* AH    assigned to _position
     510              DW$93   .dwtag  DW_TAG_formal_parameter, DW_AT_name("position"), DW_AT_symbol_name("_position")
     511                      .dwattr DW$93, DW_AT_type(*DW$T$11)
     512                      .dwattr DW$93, DW_AT_location[DW_OP_reg1]
     513 0000002c 521C          CMPB      AL,#28                ; |117| 
     514 0000002d 88A9          MOVZ      AR6,AL                ; |116| 
     515 0000002e 56C7          BF        L2,HIS                ; |117| 
         0000002f 0005 
     516                      ; branchcc occurs ; |117| 
     517 00000030 5303          CMPB      AH,#3                 ; |117| 
     518 00000031 56C8          BF        L3,LO                 ; |117| 
         00000032 0006 
     519                      ; branchcc occurs ; |117| 
     520 00000033       L2:    
     521 00000033 8F00-         MOVL      XAR4,#_calibration+482 ; |117| 
         00000034 0222 
     522 00000035 56CF          BF        L4,UNC                ; |117| 
         00000036 000B 
     523                      ; branch occurs ; |117| 
     524 00000037       L3:    
     525 00000037 28AC          MOV       T,#28                 ; |117| 
         00000038 001C 
     526 00000039 30A8          MPYXU     ACC,T,AH              ; |117| 
TMS320C2000 COFF Assembler PC v4.1.3 Thu Aug 18 12:16:20 2016

Tools Copyright (c) 1996-2006 Texas Instruments Incorporated
mancal.asm                                                           PAGE   11

     527 0000003a 0DA6          ADDU      ACC,AR6               ; |117| 
     528 0000003b FF30          LSL       ACC,1                 ; |117| 
     529 0000003c 8F00-         MOVL      XAR4,#_calibration+482 ; |117| 
         0000003d 0222 
     530 0000003e 5601          ADDL      XAR4,ACC
         0000003f 00A4 
     531              L4:    
     532                      .dwpsn  "mancal.c",119,1
     533 00000040 0006          LRETR
     534                      ; return occurs
     535                      .dwattr DW$91, DW_AT_end_file("mancal.c")
     536                      .dwattr DW$91, DW_AT_end_line(0x77)
     537                      .dwattr DW$91, DW_AT_end_column(0x01)
     538                      .dwendtag DW$91
     539              
     540 00000041               .sect   ".text"
     541                      .global _ReadAverageSpeedAcc
     542              
     543              DW$94   .dwtag  DW_TAG_subprogram, DW_AT_name("ReadAverageSpeedAcc"), DW_AT_symbol_name("_ReadAverageSpeedAcc
     544                      .dwattr DW$94, DW_AT_low_pc(_ReadAverageSpeedAcc)
     545                      .dwattr DW$94, DW_AT_high_pc(0x00)
     546                      .dwattr DW$94, DW_AT_begin_file("mancal.c")
     547                      .dwattr DW$94, DW_AT_begin_line(0x79)
     548                      .dwattr DW$94, DW_AT_begin_column(0x08)
     549                      .dwattr DW$94, DW_AT_frame_base[DW_OP_breg20 -2]
     550                      .dwattr DW$94, DW_AT_skeletal(0x01)
     551                      .dwpsn  "mancal.c",122,1
     552              
     553              ;***************************************************************
     554              ;* FNAME: _ReadAverageSpeedAcc          FR SIZE:   0           *
     555              ;*                                                             *
     556              ;* FUNCTION ENVIRONMENT                                        *
     557              ;*                                                             *
     558              ;* FUNCTION PROPERTIES                                         *
     559              ;*                            0 Parameter,  0 Auto,  0 SOE     *
     560              ;***************************************************************
     561              
     562              _ReadAverageSpeedAcc:
     563              ;* AL    assigned to _chan
     564              DW$95   .dwtag  DW_TAG_formal_parameter, DW_AT_name("chan"), DW_AT_symbol_name("_chan")
     565                      .dwattr DW$95, DW_AT_type(*DW$T$11)
     566                      .dwattr DW$95, DW_AT_location[DW_OP_reg0]
     567              ;* AH    assigned to _position
     568              DW$96   .dwtag  DW_TAG_formal_parameter, DW_AT_name("position"), DW_AT_symbol_name("_position")
     569                      .dwattr DW$96, DW_AT_type(*DW$T$11)
     570                      .dwattr DW$96, DW_AT_location[DW_OP_reg1]
     571 00000041 5303          CMPB      AH,#3                 ; |123| 
     572 00000042 56C7          BF        L5,HIS                ; |123| 
         00000043 000B 
     573                      ; branchcc occurs ; |123| 
     574 00000044 28AC          MOV       T,#56                 ; |123| 
         00000045 0038 
     575 00000046 30A8          MPYXU     ACC,T,AH              ; |123| 
     576 00000047 8F00-         MOVL      XAR4,#_calibration+314 ; |123| 
         00000048 017A 
TMS320C2000 COFF Assembler PC v4.1.3 Thu Aug 18 12:16:20 2016

Tools Copyright (c) 1996-2006 Texas Instruments Incorporated
mancal.asm                                                           PAGE   12

     577 00000049 5601          ADDL      XAR4,ACC
         0000004a 00A4 
     578 0000004b 56CF          BF        L6,UNC                ; |123| 
         0000004c 0004 
     579                      ; branch occurs ; |123| 
     580 0000004d       L5:    
     581 0000004d 8F00-         MOVL      XAR4,#_calibration+314 ; |123| 
         0000004e 017A 
     582              L6:    
     583                      .dwpsn  "mancal.c",125,1
     584 0000004f 0006          LRETR
     585                      ; return occurs
     586                      .dwattr DW$94, DW_AT_end_file("mancal.c")
     587                      .dwattr DW$94, DW_AT_end_line(0x7d)
     588                      .dwattr DW$94, DW_AT_end_column(0x01)
     589                      .dwendtag DW$94
     590              
     591 00000050               .sect   ".text"
     592                      .global _ReadNumPoints
     593              
     594              DW$97   .dwtag  DW_TAG_subprogram, DW_AT_name("ReadNumPoints"), DW_AT_symbol_name("_ReadNumPoints")
     595                      .dwattr DW$97, DW_AT_low_pc(_ReadNumPoints)
     596                      .dwattr DW$97, DW_AT_high_pc(0x00)
     597                      .dwattr DW$97, DW_AT_begin_file("mancal.c")
     598                      .dwattr DW$97, DW_AT_begin_line(0x80)
     599                      .dwattr DW$97, DW_AT_begin_column(0x11)
     600                      .dwattr DW$97, DW_AT_frame_base[DW_OP_breg20 -2]
     601                      .dwattr DW$97, DW_AT_skeletal(0x01)
     602                      .dwpsn  "mancal.c",129,1
     603              
     604              ;***************************************************************
     605              ;* FNAME: _ReadNumPoints                FR SIZE:   0           *
     606              ;*                                                             *
     607              ;* FUNCTION ENVIRONMENT                                        *
     608              ;*                                                             *
     609              ;* FUNCTION PROPERTIES                                         *
     610              ;*                            0 Parameter,  0 Auto,  0 SOE     *
     611              ;***************************************************************
     612              
     613              _ReadNumPoints:
     614              ;* AL    assigned to _position
     615              DW$98   .dwtag  DW_TAG_formal_parameter, DW_AT_name("position"), DW_AT_symbol_name("_position")
     616                      .dwattr DW$98, DW_AT_type(*DW$T$11)
     617                      .dwattr DW$98, DW_AT_location[DW_OP_reg0]
     618 00000050 5296          CMPB      AL,#150               ; |130| 
     619 00000051 56C7          BF        L7,HIS                ; |130| 
         00000052 000A 
     620                      ; branchcc occurs ; |130| 
     621 00000053 0EA9          MOVU      ACC,AL
     622 00000054 FF30          LSL       ACC,1                 ; |130| 
     623 00000055 8F00-         MOVL      XAR4,#_calibration+14 ; |130| 
         00000056 004E 
     624 00000057 5601          ADDL      XAR4,ACC
         00000058 00A4 
     625 00000059 56CF          BF        L8,UNC                ; |130| 
TMS320C2000 COFF Assembler PC v4.1.3 Thu Aug 18 12:16:20 2016

Tools Copyright (c) 1996-2006 Texas Instruments Incorporated
mancal.asm                                                           PAGE   13

         0000005a 0004 
     626                      ; branch occurs ; |130| 
     627 0000005b       L7:    
     628 0000005b 8F00-         MOVL      XAR4,#_calibration+14 ; |130| 
         0000005c 004E 
     629              L8:    
     630                      .dwpsn  "mancal.c",132,1
     631 0000005d 0006          LRETR
     632                      ; return occurs
     633                      .dwattr DW$97, DW_AT_end_file("mancal.c")
     634                      .dwattr DW$97, DW_AT_end_line(0x84)
     635                      .dwattr DW$97, DW_AT_end_column(0x01)
     636                      .dwendtag DW$97
     637              
     638 0000005e               .sect   ".text"
     639                      .global _WriteSpeedCompStructtoNVMEM
     640              
     641              DW$99   .dwtag  DW_TAG_subprogram, DW_AT_name("WriteSpeedCompStructtoNVMEM"), DW_AT_symbol_name("_WriteSpeedC
     642                      .dwattr DW$99, DW_AT_low_pc(_WriteSpeedCompStructtoNVMEM)
     643                      .dwattr DW$99, DW_AT_high_pc(0x00)
     644                      .dwattr DW$99, DW_AT_begin_file("mancal.c")
     645                      .dwattr DW$99, DW_AT_begin_line(0x88)
     646                      .dwattr DW$99, DW_AT_begin_column(0x06)
     647                      .dwattr DW$99, DW_AT_frame_base[DW_OP_breg20 -2]
     648                      .dwattr DW$99, DW_AT_skeletal(0x01)
     649                      .dwpsn  "mancal.c",137,1
     650              
     651              ;***************************************************************
     652              ;* FNAME: _WriteSpeedCompStructtoNVMEM  FR SIZE:   0           *
     653              ;*                                                             *
     654              ;* FUNCTION ENVIRONMENT                                        *
     655              ;*                                                             *
     656              ;* FUNCTION PROPERTIES                                         *
     657              ;*                            0 Parameter,  0 Auto,  0 SOE     *
     658              ;***************************************************************
     659              
     660 0000005e       _WriteSpeedCompStructtoNVMEM:
     661 0000005e 9A00          MOVB      AL,#0
     662 0000005f D519          MOVB      XAR5,#25              ; |149| 
     663 00000060 8F00-         MOVL      XAR4,#_speedcompcoeffs ; |149| 
         00000061 035A 
     664 00000062 28A8          MOV       AH,#27504             ; |149| 
         00000063 6B70 
     665 00000064 7640!         LCR       #_WriteNVMemory       ; |149| 
         00000065 0000 
     666                      ; call occurs [#_WriteNVMemory] ; |149| 
     667 00000066 761F!         MOVW      DP,#_settings+10
         00000067 0000 
     668 00000068 280A!         MOV       @_settings+10,#1      ; |151| 
         00000069 0001 
     669                      .dwpsn  "mancal.c",152,1
     670 0000006a 0006          LRETR
     671                      ; return occurs
     672                      .dwattr DW$99, DW_AT_end_file("mancal.c")
     673                      .dwattr DW$99, DW_AT_end_line(0x98)
TMS320C2000 COFF Assembler PC v4.1.3 Thu Aug 18 12:16:20 2016

Tools Copyright (c) 1996-2006 Texas Instruments Incorporated
mancal.asm                                                           PAGE   14

     674                      .dwattr DW$99, DW_AT_end_column(0x01)
     675                      .dwendtag DW$99
     676              
     677 0000006b               .sect   ".text"
     678                      .global _ReadSpeedCompStructfromNVMEM
     679              
     680              DW$100  .dwtag  DW_TAG_subprogram, DW_AT_name("ReadSpeedCompStructfromNVMEM"), DW_AT_symbol_name("_ReadSpeedC
     681                      .dwattr DW$100, DW_AT_low_pc(_ReadSpeedCompStructfromNVMEM)
     682                      .dwattr DW$100, DW_AT_high_pc(0x00)
     683                      .dwattr DW$100, DW_AT_begin_file("mancal.c")
     684                      .dwattr DW$100, DW_AT_begin_line(0x9d)
     685                      .dwattr DW$100, DW_AT_begin_column(0x06)
     686                      .dwattr DW$100, DW_AT_frame_base[DW_OP_breg20 -2]
     687                      .dwattr DW$100, DW_AT_skeletal(0x01)
     688                      .dwpsn  "mancal.c",158,1
     689              
     690              ;***************************************************************
     691              ;* FNAME: _ReadSpeedCompStructfromNVMEM FR SIZE:   0           *
     692              ;*                                                             *
     693              ;* FUNCTION ENVIRONMENT                                        *
     694              ;*                                                             *
     695              ;* FUNCTION PROPERTIES                                         *
     696              ;*                            0 Parameter,  0 Auto,  0 SOE     *
     697              ;***************************************************************
     698              
     699 0000006b       _ReadSpeedCompStructfromNVMEM:
     700 0000006b 9A00          MOVB      AL,#0
     701 0000006c D519          MOVB      XAR5,#25              ; |167| 
     702 0000006d 8F00-         MOVL      XAR4,#_speedcompcoeffs ; |167| 
         0000006e 035A 
     703 0000006f 28A8          MOV       AH,#27504             ; |167| 
         00000070 6B70 
     704 00000071 7640!         LCR       #_ReadNVMemory        ; |167| 
         00000072 0000 
     705                      ; call occurs [#_ReadNVMemory] ; |167| 
     706                      .dwpsn  "mancal.c",169,1
     707 00000073 0006          LRETR
     708                      ; return occurs
     709                      .dwattr DW$100, DW_AT_end_file("mancal.c")
     710                      .dwattr DW$100, DW_AT_end_line(0xa9)
     711                      .dwattr DW$100, DW_AT_end_column(0x01)
     712                      .dwendtag DW$100
     713              
     714 00000074               .sect   ".text"
     715                      .global _WriteAccCalNVMEM
     716              
     717              DW$101  .dwtag  DW_TAG_subprogram, DW_AT_name("WriteAccCalNVMEM"), DW_AT_symbol_name("_WriteAccCalNVMEM")
     718                      .dwattr DW$101, DW_AT_low_pc(_WriteAccCalNVMEM)
     719                      .dwattr DW$101, DW_AT_high_pc(0x00)
     720                      .dwattr DW$101, DW_AT_begin_file("mancal.c")
     721                      .dwattr DW$101, DW_AT_begin_line(0xaf)
     722                      .dwattr DW$101, DW_AT_begin_column(0x06)
     723                      .dwattr DW$101, DW_AT_frame_base[DW_OP_breg20 -2]
     724                      .dwattr DW$101, DW_AT_skeletal(0x01)
     725                      .dwpsn  "mancal.c",176,1
TMS320C2000 COFF Assembler PC v4.1.3 Thu Aug 18 12:16:20 2016

Tools Copyright (c) 1996-2006 Texas Instruments Incorporated
mancal.asm                                                           PAGE   15

     726              
     727              ;***************************************************************
     728              ;* FNAME: _WriteAccCalNVMEM             FR SIZE:   0           *
     729              ;*                                                             *
     730              ;* FUNCTION ENVIRONMENT                                        *
     731              ;*                                                             *
     732              ;* FUNCTION PROPERTIES                                         *
     733              ;*                            0 Parameter,  0 Auto,  0 SOE     *
     734              ;***************************************************************
     735              
     736              _WriteAccCalNVMEM:
     737              ;* AL    assigned to _rpmval
     738              DW$102  .dwtag  DW_TAG_formal_parameter, DW_AT_name("rpmval"), DW_AT_symbol_name("_rpmval")
     739                      .dwattr DW$102, DW_AT_type(*DW$T$11)
     740                      .dwattr DW$102, DW_AT_location[DW_OP_reg0]
     741 00000074 2DA9          MOV       T,AL                  ; |189| 
     742 00000075 D538          MOVB      XAR5,#56              ; |189| 
     743 00000076 3570          MPYB      ACC,T,#112            ; |189| 
     744 00000077 8F00-         MOVL      XAR4,#_calibration+482 ; |189| 
         00000078 0222 
     745 00000079 08A9          ADD       AL,#8400              ; |189| 
         0000007a 20D0 
     746 0000007b 93A9          MOV       AH,AL                 ; |189| 
     747 0000007c 9A00          MOVB      AL,#0
     748 0000007d 7640!         LCR       #_WriteNVMemory       ; |189| 
         0000007e 0000 
     749                      ; call occurs [#_WriteNVMemory] ; |189| 
     750                      .dwpsn  "mancal.c",190,1
     751 0000007f 0006          LRETR
     752                      ; return occurs
     753                      .dwattr DW$101, DW_AT_end_file("mancal.c")
     754                      .dwattr DW$101, DW_AT_end_line(0xbe)
     755                      .dwattr DW$101, DW_AT_end_column(0x01)
     756                      .dwendtag DW$101
     757              
     758 00000080               .sect   ".text"
     759                      .global _ReadAccCalNVMEM
     760              
     761              DW$103  .dwtag  DW_TAG_subprogram, DW_AT_name("ReadAccCalNVMEM"), DW_AT_symbol_name("_ReadAccCalNVMEM")
     762                      .dwattr DW$103, DW_AT_low_pc(_ReadAccCalNVMEM)
     763                      .dwattr DW$103, DW_AT_high_pc(0x00)
     764                      .dwattr DW$103, DW_AT_begin_file("mancal.c")
     765                      .dwattr DW$103, DW_AT_begin_line(0xc2)
     766                      .dwattr DW$103, DW_AT_begin_column(0x06)
     767                      .dwattr DW$103, DW_AT_frame_base[DW_OP_breg20 -2]
     768                      .dwattr DW$103, DW_AT_skeletal(0x01)
     769                      .dwpsn  "mancal.c",195,1
     770              
     771              ;***************************************************************
     772              ;* FNAME: _ReadAccCalNVMEM              FR SIZE:   0           *
     773              ;*                                                             *
     774              ;* FUNCTION ENVIRONMENT                                        *
     775              ;*                                                             *
     776              ;* FUNCTION PROPERTIES                                         *
     777              ;*                            0 Parameter,  0 Auto,  0 SOE     *
TMS320C2000 COFF Assembler PC v4.1.3 Thu Aug 18 12:16:20 2016

Tools Copyright (c) 1996-2006 Texas Instruments Incorporated
mancal.asm                                                           PAGE   16

     778              ;***************************************************************
     779              
     780              _ReadAccCalNVMEM:
     781              ;* AL    assigned to _rpmval
     782              DW$104  .dwtag  DW_TAG_formal_parameter, DW_AT_name("rpmval"), DW_AT_symbol_name("_rpmval")
     783                      .dwattr DW$104, DW_AT_type(*DW$T$11)
     784                      .dwattr DW$104, DW_AT_location[DW_OP_reg0]
     785 00000080 2DA9          MOV       T,AL                  ; |207| 
     786 00000081 D538          MOVB      XAR5,#56              ; |207| 
     787 00000082 3570          MPYB      ACC,T,#112            ; |207| 
     788 00000083 8F00-         MOVL      XAR4,#_calibration+482 ; |207| 
         00000084 0222 
     789 00000085 08A9          ADD       AL,#8400              ; |207| 
         00000086 20D0 
     790 00000087 93A9          MOV       AH,AL                 ; |207| 
     791 00000088 9A00          MOVB      AL,#0
     792 00000089 7640!         LCR       #_ReadNVMemory        ; |207| 
         0000008a 0000 
     793                      ; call occurs [#_ReadNVMemory] ; |207| 
     794                      .dwpsn  "mancal.c",208,1
     795 0000008b 0006          LRETR
     796                      ; return occurs
     797                      .dwattr DW$103, DW_AT_end_file("mancal.c")
     798                      .dwattr DW$103, DW_AT_end_line(0xd0)
     799                      .dwattr DW$103, DW_AT_end_column(0x01)
     800                      .dwendtag DW$103
     801              
     802 0000008c               .sect   ".text"
     803                      .global _WriteMAN1000NVMEM
     804              
     805              DW$105  .dwtag  DW_TAG_subprogram, DW_AT_name("WriteMAN1000NVMEM"), DW_AT_symbol_name("_WriteMAN1000NVMEM")
     806                      .dwattr DW$105, DW_AT_low_pc(_WriteMAN1000NVMEM)
     807                      .dwattr DW$105, DW_AT_high_pc(0x00)
     808                      .dwattr DW$105, DW_AT_begin_file("mancal.c")
     809                      .dwattr DW$105, DW_AT_begin_line(0xd9)
     810                      .dwattr DW$105, DW_AT_begin_column(0x06)
     811                      .dwattr DW$105, DW_AT_frame_base[DW_OP_breg20 -4]
     812                      .dwattr DW$105, DW_AT_skeletal(0x01)
     813                      .dwpsn  "mancal.c",218,1
     814              
     815              ;***************************************************************
     816              ;* FNAME: _WriteMAN1000NVMEM            FR SIZE:   2           *
     817              ;*                                                             *
     818              ;* FUNCTION ENVIRONMENT                                        *
     819              ;*                                                             *
     820              ;* FUNCTION PROPERTIES                                         *
     821              ;*                            0 Parameter,  1 Auto,  0 SOE     *
     822              ;***************************************************************
     823              
     824              _WriteMAN1000NVMEM:
     825              ;* AL    assigned to _rpmval
     826              DW$106  .dwtag  DW_TAG_formal_parameter, DW_AT_name("rpmval"), DW_AT_symbol_name("_rpmval")
     827                      .dwattr DW$106, DW_AT_type(*DW$T$11)
     828                      .dwattr DW$106, DW_AT_location[DW_OP_reg0]
     829              ;* AH    assigned to _chan
TMS320C2000 COFF Assembler PC v4.1.3 Thu Aug 18 12:16:20 2016

Tools Copyright (c) 1996-2006 Texas Instruments Incorporated
mancal.asm                                                           PAGE   17

     830              DW$107  .dwtag  DW_TAG_formal_parameter, DW_AT_name("chan"), DW_AT_symbol_name("_chan")
     831                      .dwattr DW$107, DW_AT_type(*DW$T$11)
     832                      .dwattr DW$107, DW_AT_location[DW_OP_reg1]
     833              ;* AR4   assigned to _val
     834              DW$108  .dwtag  DW_TAG_formal_parameter, DW_AT_name("val"), DW_AT_symbol_name("_val")
     835                      .dwattr DW$108, DW_AT_type(*DW$T$10)
     836                      .dwattr DW$108, DW_AT_location[DW_OP_reg12]
     837 0000008c FE02          ADDB      SP,#2
     838 0000008d 88A8          MOVZ      AR6,AH                ; |218| 
     839 0000008e 2DA9          MOV       T,AL                  ; |232| 
     840 0000008f D501          MOVB      XAR5,#1               ; |232| 
     841 00000090 7C41          MOV       *-SP[1],AR4           ; |218| 
     842 00000091 351C          MPYB      ACC,T,#28             ; |232| 
     843 00000092 5CAD          MOVZ      AR4,SP                ; |232| 
     844 00000093 94A6          ADD       AL,AR6                ; |232| 
     845 00000094 5603          MOV       ACC,AL << #1          ; |232| 
         00000095 01A9 
     846 00000096 93A9          MOV       AH,AL                 ; |232| 
     847 00000097 DC81          SUBB      XAR4,#1               ; |232| 
     848 00000098 9A01          MOVB      AL,#1                 ; |232| 
     849 00000099 7640!         LCR       #_WriteNVMemory       ; |232| 
         0000009a 0000 
     850                      ; call occurs [#_WriteNVMemory] ; |232| 
     851 0000009b FE82          SUBB      SP,#2
     852                      .dwpsn  "mancal.c",233,1
     853 0000009c 0006          LRETR
     854                      ; return occurs
     855                      .dwattr DW$105, DW_AT_end_file("mancal.c")
     856                      .dwattr DW$105, DW_AT_end_line(0xe9)
     857                      .dwattr DW$105, DW_AT_end_column(0x01)
     858                      .dwendtag DW$105
     859              
     860 0000009d               .sect   ".text"
     861                      .global _ReadMAN1000NVMEM
     862              
     863              DW$109  .dwtag  DW_TAG_subprogram, DW_AT_name("ReadMAN1000NVMEM"), DW_AT_symbol_name("_ReadMAN1000NVMEM")
     864                      .dwattr DW$109, DW_AT_low_pc(_ReadMAN1000NVMEM)
     865                      .dwattr DW$109, DW_AT_high_pc(0x00)
     866                      .dwattr DW$109, DW_AT_begin_file("mancal.c")
     867                      .dwattr DW$109, DW_AT_begin_line(0xf0)
     868                      .dwattr DW$109, DW_AT_begin_column(0x05)
     869                      .dwattr DW$109, DW_AT_frame_base[DW_OP_breg20 -4]
     870                      .dwattr DW$109, DW_AT_skeletal(0x01)
     871                      .dwpsn  "mancal.c",241,1
     872              
     873              ;***************************************************************
     874              ;* FNAME: _ReadMAN1000NVMEM             FR SIZE:   2           *
     875              ;*                                                             *
     876              ;* FUNCTION ENVIRONMENT                                        *
     877              ;*                                                             *
     878              ;* FUNCTION PROPERTIES                                         *
     879              ;*                            0 Parameter,  1 Auto,  0 SOE     *
     880              ;***************************************************************
     881              
     882              _ReadMAN1000NVMEM:
TMS320C2000 COFF Assembler PC v4.1.3 Thu Aug 18 12:16:20 2016

Tools Copyright (c) 1996-2006 Texas Instruments Incorporated
mancal.asm                                                           PAGE   18

     883              ;* AL    assigned to _rpmval
     884              DW$110  .dwtag  DW_TAG_formal_parameter, DW_AT_name("rpmval"), DW_AT_symbol_name("_rpmval")
     885                      .dwattr DW$110, DW_AT_type(*DW$T$11)
     886                      .dwattr DW$110, DW_AT_location[DW_OP_reg0]
     887              ;* AH    assigned to _chan
     888              DW$111  .dwtag  DW_TAG_formal_parameter, DW_AT_name("chan"), DW_AT_symbol_name("_chan")
     889                      .dwattr DW$111, DW_AT_type(*DW$T$11)
     890                      .dwattr DW$111, DW_AT_location[DW_OP_reg1]
     891 0000009d 88A8          MOVZ      AR6,AH                ; |241| 
     892 0000009e 2DA9          MOV       T,AL                  ; |254| 
     893 0000009f FE02          ADDB      SP,#2
     894 000000a0 351C          MPYB      ACC,T,#28             ; |254| 
     895 000000a1 5CAD          MOVZ      AR4,SP                ; |254| 
     896 000000a2 D501          MOVB      XAR5,#1               ; |254| 
     897 000000a3 94A6          ADD       AL,AR6                ; |254| 
     898 000000a4 5603          MOV       ACC,AL << #1          ; |254| 
         000000a5 01A9 
     899 000000a6 DC81          SUBB      XAR4,#1               ; |254| 
     900 000000a7 93A9          MOV       AH,AL                 ; |254| 
     901 000000a8 9A01          MOVB      AL,#1                 ; |254| 
     902 000000a9 7640!         LCR       #_ReadNVMemory        ; |254| 
         000000aa 0000 
     903                      ; call occurs [#_ReadNVMemory] ; |254| 
     904 000000ab 9241          MOV       AL,*-SP[1]            ; |256| 
     905 000000ac FE82          SUBB      SP,#2                 ; |256| 
     906                      .dwpsn  "mancal.c",257,1
     907 000000ad 0006          LRETR
     908                      ; return occurs
     909                      .dwattr DW$109, DW_AT_end_file("mancal.c")
     910                      .dwattr DW$109, DW_AT_end_line(0x101)
     911                      .dwattr DW$109, DW_AT_end_column(0x01)
     912                      .dwendtag DW$109
     913              
     914 000000ae               .sect   ".text"
     915                      .global _WriteCalibrationStructtoNVMEM
     916              
     917              DW$112  .dwtag  DW_TAG_subprogram, DW_AT_name("WriteCalibrationStructtoNVMEM"), DW_AT_symbol_name("_WriteCali
     918                      .dwattr DW$112, DW_AT_low_pc(_WriteCalibrationStructtoNVMEM)
     919                      .dwattr DW$112, DW_AT_high_pc(0x00)
     920                      .dwattr DW$112, DW_AT_begin_file("mancal.c")
     921                      .dwattr DW$112, DW_AT_begin_line(0x104)
     922                      .dwattr DW$112, DW_AT_begin_column(0x06)
     923                      .dwattr DW$112, DW_AT_frame_base[DW_OP_breg20 -2]
     924                      .dwattr DW$112, DW_AT_skeletal(0x01)
     925                      .dwpsn  "mancal.c",261,1
     926              
     927              ;***************************************************************
     928              ;* FNAME: _WriteCalibrationStructtoNVMEM FR SIZE:   0           *
     929              ;*                                                             *
     930              ;* FUNCTION ENVIRONMENT                                        *
     931              ;*                                                             *
     932              ;* FUNCTION PROPERTIES                                         *
     933              ;*                            0 Parameter,  0 Auto,  0 SOE     *
     934              ;***************************************************************
     935              
TMS320C2000 COFF Assembler PC v4.1.3 Thu Aug 18 12:16:20 2016

Tools Copyright (c) 1996-2006 Texas Instruments Incorporated
mancal.asm                                                           PAGE   19

     936 000000ae       _WriteCalibrationStructtoNVMEM:
     937 000000ae 9A00          MOVB      AL,#0
     938 000000af 8F40          MOVL      XAR5,#794             ; |274| 
         000000b0 031A 
     939 000000b1 8F00-         MOVL      XAR4,#_calibration    ; |274| 
         000000b2 0040 
     940 000000b3 28A8          MOV       AH,#25200             ; |274| 
         000000b4 6270 
     941 000000b5 7640!         LCR       #_WriteNVMemory       ; |274| 
         000000b6 0000 
     942                      ; call occurs [#_WriteNVMemory] ; |274| 
     943                      .dwpsn  "mancal.c",275,1
     944 000000b7 0006          LRETR
     945                      ; return occurs
     946                      .dwattr DW$112, DW_AT_end_file("mancal.c")
     947                      .dwattr DW$112, DW_AT_end_line(0x113)
     948                      .dwattr DW$112, DW_AT_end_column(0x01)
     949                      .dwendtag DW$112
     950              
     951 000000b8               .sect   ".text"
     952                      .global _ReadCalibrationStructfromNVMEM
     953              
     954              DW$113  .dwtag  DW_TAG_subprogram, DW_AT_name("ReadCalibrationStructfromNVMEM"), DW_AT_symbol_name("_ReadCali
     955                      .dwattr DW$113, DW_AT_low_pc(_ReadCalibrationStructfromNVMEM)
     956                      .dwattr DW$113, DW_AT_high_pc(0x00)
     957                      .dwattr DW$113, DW_AT_begin_file("mancal.c")
     958                      .dwattr DW$113, DW_AT_begin_line(0x118)
     959                      .dwattr DW$113, DW_AT_begin_column(0x06)
     960                      .dwattr DW$113, DW_AT_frame_base[DW_OP_breg20 -2]
     961                      .dwattr DW$113, DW_AT_skeletal(0x01)
     962                      .dwpsn  "mancal.c",281,1
     963              
     964              ;***************************************************************
     965              ;* FNAME: _ReadCalibrationStructfromNVMEM FR SIZE:   0           *
     966              ;*                                                             *
     967              ;* FUNCTION ENVIRONMENT                                        *
     968              ;*                                                             *
     969              ;* FUNCTION PROPERTIES                                         *
     970              ;*                            0 Parameter,  0 Auto,  0 SOE     *
     971              ;***************************************************************
     972              
     973 000000b8       _ReadCalibrationStructfromNVMEM:
     974 000000b8 9A00          MOVB      AL,#0
     975 000000b9 8F40          MOVL      XAR5,#794             ; |294| 
         000000ba 031A 
     976 000000bb 8F00-         MOVL      XAR4,#_calibration    ; |294| 
         000000bc 0040 
     977 000000bd 28A8          MOV       AH,#25200             ; |294| 
         000000be 6270 
     978 000000bf 7640!         LCR       #_ReadNVMemory        ; |294| 
         000000c0 0000 
     979                      ; call occurs [#_ReadNVMemory] ; |294| 
     980                      .dwpsn  "mancal.c",295,1
     981 000000c1 0006          LRETR
     982                      ; return occurs
TMS320C2000 COFF Assembler PC v4.1.3 Thu Aug 18 12:16:20 2016

Tools Copyright (c) 1996-2006 Texas Instruments Incorporated
mancal.asm                                                           PAGE   20

     983                      .dwattr DW$113, DW_AT_end_file("mancal.c")
     984                      .dwattr DW$113, DW_AT_end_line(0x127)
     985                      .dwattr DW$113, DW_AT_end_column(0x01)
     986                      .dwendtag DW$113
     987              
     988 000000c2               .sect   ".text"
     989                      .global _WriteMANCaltoNVMEM
     990              
     991              DW$114  .dwtag  DW_TAG_subprogram, DW_AT_name("WriteMANCaltoNVMEM"), DW_AT_symbol_name("_WriteMANCaltoNVMEM")
     992                      .dwattr DW$114, DW_AT_low_pc(_WriteMANCaltoNVMEM)
     993                      .dwattr DW$114, DW_AT_high_pc(0x00)
     994                      .dwattr DW$114, DW_AT_begin_file("mancal.c")
     995                      .dwattr DW$114, DW_AT_begin_line(0x12a)
     996                      .dwattr DW$114, DW_AT_begin_column(0x06)
     997                      .dwattr DW$114, DW_AT_frame_base[DW_OP_breg20 -2]
     998                      .dwattr DW$114, DW_AT_skeletal(0x01)
     999                      .dwpsn  "mancal.c",299,1
    1000              
    1001              ;***************************************************************
    1002              ;* FNAME: _WriteMANCaltoNVMEM           FR SIZE:   0           *
    1003              ;*                                                             *
    1004              ;* FUNCTION ENVIRONMENT                                        *
    1005              ;*                                                             *
    1006              ;* FUNCTION PROPERTIES                                         *
    1007              ;*                            0 Parameter,  0 Auto,  0 SOE     *
    1008              ;***************************************************************
    1009              
    1010 000000c2       _WriteMANCaltoNVMEM:
    1011 000000c2 9A00          MOVB      AL,#0
    1012 000000c3 D504          MOVB      XAR5,#4               ; |312| 
    1013 000000c4 8F00-         MOVL      XAR4,#_mancal         ; |312| 
         000000c5 0038 
    1014 000000c6 28A8          MOV       AH,#27632             ; |312| 
         000000c7 6BF0 
    1015 000000c8 7640!         LCR       #_WriteNVMemory       ; |312| 
         000000c9 0000 
    1016                      ; call occurs [#_WriteNVMemory] ; |312| 
    1017                      .dwpsn  "mancal.c",313,1
    1018 000000ca 0006          LRETR
    1019                      ; return occurs
    1020                      .dwattr DW$114, DW_AT_end_file("mancal.c")
    1021                      .dwattr DW$114, DW_AT_end_line(0x139)
    1022                      .dwattr DW$114, DW_AT_end_column(0x01)
    1023                      .dwendtag DW$114
    1024              
    1025 000000cb               .sect   ".text"
    1026                      .global _ReadMANCalfromNVMEM
    1027              
    1028              DW$115  .dwtag  DW_TAG_subprogram, DW_AT_name("ReadMANCalfromNVMEM"), DW_AT_symbol_name("_ReadMANCalfromNVMEM
    1029                      .dwattr DW$115, DW_AT_low_pc(_ReadMANCalfromNVMEM)
    1030                      .dwattr DW$115, DW_AT_high_pc(0x00)
    1031                      .dwattr DW$115, DW_AT_begin_file("mancal.c")
    1032                      .dwattr DW$115, DW_AT_begin_line(0x13d)
    1033                      .dwattr DW$115, DW_AT_begin_column(0x06)
    1034                      .dwattr DW$115, DW_AT_frame_base[DW_OP_breg20 -2]
TMS320C2000 COFF Assembler PC v4.1.3 Thu Aug 18 12:16:20 2016

Tools Copyright (c) 1996-2006 Texas Instruments Incorporated
mancal.asm                                                           PAGE   21

    1035                      .dwattr DW$115, DW_AT_skeletal(0x01)
    1036                      .dwpsn  "mancal.c",318,1
    1037              
    1038              ;***************************************************************
    1039              ;* FNAME: _ReadMANCalfromNVMEM          FR SIZE:   0           *
    1040              ;*                                                             *
    1041              ;* FUNCTION ENVIRONMENT                                        *
    1042              ;*                                                             *
    1043              ;* FUNCTION PROPERTIES                                         *
    1044              ;*                            0 Parameter,  0 Auto,  0 SOE     *
    1045              ;***************************************************************
    1046              
    1047 000000cb       _ReadMANCalfromNVMEM:
    1048 000000cb 9A00          MOVB      AL,#0
    1049 000000cc D504          MOVB      XAR5,#4               ; |331| 
    1050 000000cd 8F00-         MOVL      XAR4,#_mancal         ; |331| 
         000000ce 0038 
    1051 000000cf 28A8          MOV       AH,#27632             ; |331| 
         000000d0 6BF0 
    1052 000000d1 7640!         LCR       #_ReadNVMemory        ; |331| 
         000000d2 0000 
    1053                      ; call occurs [#_ReadNVMemory] ; |331| 
    1054                      .dwpsn  "mancal.c",332,1
    1055 000000d3 0006          LRETR
    1056                      ; return occurs
    1057                      .dwattr DW$115, DW_AT_end_file("mancal.c")
    1058                      .dwattr DW$115, DW_AT_end_line(0x14c)
    1059                      .dwattr DW$115, DW_AT_end_column(0x01)
    1060                      .dwendtag DW$115
    1061              
    1062 000000d4               .sect   ".text"
    1063                      .global _GetPercentageLeft
    1064              
    1065              DW$116  .dwtag  DW_TAG_subprogram, DW_AT_name("GetPercentageLeft"), DW_AT_symbol_name("_GetPercentageLeft")
    1066                      .dwattr DW$116, DW_AT_low_pc(_GetPercentageLeft)
    1067                      .dwattr DW$116, DW_AT_high_pc(0x00)
    1068                      .dwattr DW$116, DW_AT_begin_file("mancal.c")
    1069                      .dwattr DW$116, DW_AT_begin_line(0x14f)
    1070                      .dwattr DW$116, DW_AT_begin_column(0x0e)
    1071                      .dwattr DW$116, DW_AT_frame_base[DW_OP_breg20 -6]
    1072                      .dwattr DW$116, DW_AT_skeletal(0x01)
    1073                      .dwpsn  "mancal.c",336,1
    1074              
    1075              ;***************************************************************
    1076              ;* FNAME: _GetPercentageLeft            FR SIZE:   4           *
    1077              ;*                                                             *
    1078              ;* FUNCTION ENVIRONMENT                                        *
    1079              ;*                                                             *
    1080              ;* FUNCTION PROPERTIES                                         *
    1081              ;*                            2 Parameter,  0 Auto,  2 SOE     *
    1082              ;***************************************************************
    1083              
    1084 000000d4       _GetPercentageLeft:
    1085 000000d4 761F-         MOVW      DP,#_speedcompcoeffs
         000000d5 000D 
TMS320C2000 COFF Assembler PC v4.1.3 Thu Aug 18 12:16:20 2016

Tools Copyright (c) 1996-2006 Texas Instruments Incorporated
mancal.asm                                                           PAGE   22

    1086 000000d6 B2BD          MOVL      *SP++,XAR1
    1087 000000d7 921A-         MOV       AL,@_speedcompcoeffs  ; |337| 
    1088 000000d8 FE02          ADDB      SP,#2
    1089 000000d9 5207          CMPB      AL,#7                 ; |337| 
    1090 000000da 56C7          BF        L9,HIS                ; |337| 
         000000db 0016 
    1091                      ; branchcc occurs ; |337| 
    1092 000000dc 761F!         MOVW      DP,#_timers+46
         000000dd 0000 
    1093 000000de 062E!         MOVL      ACC,@_timers+46       ; |337| 
    1094 000000df 7640!         LCR       #UL$$TOFS             ; |337| 
         000000e0 0000 
    1095                      ; call occurs [#UL$$TOFS] ; |337| 
    1096 000000e1 1EA6          MOVL      XAR6,ACC              ; |337| 
    1097 000000e2 28A9          MOV       AL,#32768
         000000e3 8000 
    1098 000000e4 28A8          MOV       AH,#17979
         000000e5 463B 
    1099 000000e6 1E42          MOVL      *-SP[2],ACC           ; |337| 
    1100 000000e7 06A6          MOVL      ACC,XAR6              ; |337| 
    1101 000000e8 7640!         LCR       #FS$$DIV              ; |337| 
         000000e9 0000 
    1102                      ; call occurs [#FS$$DIV] ; |337| 
    1103 000000ea 8BA9          MOVL      XAR1,ACC              ; |337| 
    1104 000000eb 761F-         MOVW      DP,#_speedcompcoeffs+9
         000000ec 000D 
    1105 000000ed 9223-         MOV       AL,@_speedcompcoeffs+9 ; |337| 
    1106 000000ee 56CF          BF        L10,UNC               ; |337| 
         000000ef 0014 
    1107                      ; branch occurs ; |337| 
    1108 000000f0       L9:    
    1109 000000f0 761F!         MOVW      DP,#_timers+46
         000000f1 0000 
    1110 000000f2 062E!         MOVL      ACC,@_timers+46       ; |337| 
    1111 000000f3 7640!         LCR       #UL$$TOFS             ; |337| 
         000000f4 0000 
    1112                      ; call occurs [#UL$$TOFS] ; |337| 
    1113 000000f5 1EA6          MOVL      XAR6,ACC              ; |337| 
    1114 000000f6 28A9          MOV       AL,#32768
         000000f7 8000 
    1115 000000f8 28A8          MOV       AH,#17979
         000000f9 463B 
    1116 000000fa 1E42          MOVL      *-SP[2],ACC           ; |337| 
    1117 000000fb 06A6          MOVL      ACC,XAR6              ; |337| 
    1118 000000fc 7640!         LCR       #FS$$DIV              ; |337| 
         000000fd 0000 
    1119                      ; call occurs [#FS$$DIV] ; |337| 
    1120 000000fe 8BA9          MOVL      XAR1,ACC              ; |337| 
    1121 000000ff 761F-         MOVW      DP,#_speedcompcoeffs+10
         00000100 000D 
    1122 00000101 9224-         MOV       AL,@_speedcompcoeffs+10 ; |337| 
    1123 00000102       L10:    
    1124 00000102 7640!         LCR       #U$$TOFS              ; |337| 
         00000103 0000 
    1125                      ; call occurs [#U$$TOFS] ; |337| 
TMS320C2000 COFF Assembler PC v4.1.3 Thu Aug 18 12:16:20 2016

Tools Copyright (c) 1996-2006 Texas Instruments Incorporated
mancal.asm                                                           PAGE   23

    1126 00000104 1E42          MOVL      *-SP[2],ACC           ; |337| 
    1127 00000105 B2A9          MOVL      ACC,XAR1              ; |337| 
    1128 00000106 7640!         LCR       #FS$$DIV              ; |337| 
         00000107 0000 
    1129                      ; call occurs [#FS$$DIV] ; |337| 
    1130 00000108 1EA6          MOVL      XAR6,ACC              ; |337| 
    1131 00000109 9A00          MOV       AL,#0
    1132 0000010a 28A8          MOV       AH,#17096
         0000010b 42C8 
    1133 0000010c 1E42          MOVL      *-SP[2],ACC           ; |337| 
    1134 0000010d 06A6          MOVL      ACC,XAR6              ; |337| 
    1135 0000010e 7640!         LCR       #FS$$MPY              ; |337| 
         0000010f 0000 
    1136                      ; call occurs [#FS$$MPY] ; |337| 
    1137 00000110 7640!         LCR       #FS$$TOU              ; |337| 
         00000111 0000 
    1138                      ; call occurs [#FS$$TOU] ; |337| 
    1139 00000112 761F-         MOVW      DP,#_mancal+2
         00000113 0000 
    1140 00000114 963A-         MOV       @_mancal+2,AL         ; |337| 
    1141 00000115 FE82          SUBB      SP,#2                 ; |341| 
    1142 00000116 8BBE          MOVL      XAR1,*--SP            ; |341| 
    1143                      .dwpsn  "mancal.c",347,1
    1144 00000117 0006          LRETR
    1145                      ; return occurs
    1146                      .dwattr DW$116, DW_AT_end_file("mancal.c")
    1147                      .dwattr DW$116, DW_AT_end_line(0x15b)
    1148                      .dwattr DW$116, DW_AT_end_column(0x01)
    1149                      .dwendtag DW$116
    1150              
    1151 00000118               .sect   ".text"
    1152                      .global _GetLearningTimeLeft
    1153              
    1154              DW$117  .dwtag  DW_TAG_subprogram, DW_AT_name("GetLearningTimeLeft"), DW_AT_symbol_name("_GetLearningTimeLeft
    1155                      .dwattr DW$117, DW_AT_low_pc(_GetLearningTimeLeft)
    1156                      .dwattr DW$117, DW_AT_high_pc(0x00)
    1157                      .dwattr DW$117, DW_AT_begin_file("mancal.c")
    1158                      .dwattr DW$117, DW_AT_begin_line(0x15e)
    1159                      .dwattr DW$117, DW_AT_begin_column(0x0e)
    1160                      .dwattr DW$117, DW_AT_frame_base[DW_OP_breg20 -2]
    1161                      .dwattr DW$117, DW_AT_skeletal(0x01)
    1162                      .dwpsn  "mancal.c",351,1
    1163              
    1164              ;***************************************************************
    1165              ;* FNAME: _GetLearningTimeLeft          FR SIZE:   0           *
    1166              ;*                                                             *
    1167              ;* FUNCTION ENVIRONMENT                                        *
    1168              ;*                                                             *
    1169              ;* FUNCTION PROPERTIES                                         *
    1170              ;*                            0 Parameter,  0 Auto,  0 SOE     *
    1171              ;***************************************************************
    1172              
    1173 00000118       _GetLearningTimeLeft:
    1174 00000118 761F!         MOVW      DP,#_timers+46
         00000119 0000 
TMS320C2000 COFF Assembler PC v4.1.3 Thu Aug 18 12:16:20 2016

Tools Copyright (c) 1996-2006 Texas Instruments Incorporated
mancal.asm                                                           PAGE   24

    1175 0000011a 0200          MOVB      ACC,#0
    1176 0000011b 8F00          MOVL      XAR4,#12000           ; |352| 
         0000011c 2EE0 
    1177 0000011d A32E!         MOVL      P,@_timers+46         ; |352| 
    1178 0000011e 761F-         MOVW      DP,#_mancal
         0000011f 0000 
    1179 00000120 F61F          RPT       #31
    1180 00000121 5617  ||     SUBCUL    ACC,XAR4              ; |352| 
         00000122 00A4 
    1181 00000123 3F38-         MOV       @_mancal,P            ; |352| 
    1182 00000124 761F-         MOVW      DP,#_mancal
         00000125 0000 
    1183 00000126 0A38-         INC       @_mancal              ; |353| 
    1184 00000127 761F!         MOVW      DP,#_timers+46
         00000128 0000 
    1185 00000129 062E!         MOVL      ACC,@_timers+46       ; |354| 
    1186 0000012a ED04          BF        L11,NEQ               ; |354| 
    1187                      ; branchcc occurs ; |354| 
    1188 0000012b 761F-         MOVW      DP,#_mancal
         0000012c 0000 
    1189 0000012d 2B38-         MOV       @_mancal,#0           ; |354| 
    1190 0000012e       L11:    
    1191 0000012e 761F-         MOVW      DP,#_mancal
         0000012f 0000 
    1192 00000130 9238-         MOV       AL,@_mancal           ; |355| 
    1193                      .dwpsn  "mancal.c",356,1
    1194 00000131 0006          LRETR
    1195                      ; return occurs
    1196                      .dwattr DW$117, DW_AT_end_file("mancal.c")
    1197                      .dwattr DW$117, DW_AT_end_line(0x164)
    1198                      .dwattr DW$117, DW_AT_end_column(0x01)
    1199                      .dwendtag DW$117
    1200              
    1201 00000132               .sect   ".text"
    1202                      .global _GetIntervalTimeLeft
    1203              
    1204              DW$118  .dwtag  DW_TAG_subprogram, DW_AT_name("GetIntervalTimeLeft"), DW_AT_symbol_name("_GetIntervalTimeLeft
    1205                      .dwattr DW$118, DW_AT_low_pc(_GetIntervalTimeLeft)
    1206                      .dwattr DW$118, DW_AT_high_pc(0x00)
    1207                      .dwattr DW$118, DW_AT_begin_file("mancal.c")
    1208                      .dwattr DW$118, DW_AT_begin_line(0x167)
    1209                      .dwattr DW$118, DW_AT_begin_column(0x0e)
    1210                      .dwattr DW$118, DW_AT_frame_base[DW_OP_breg20 -2]
    1211                      .dwattr DW$118, DW_AT_skeletal(0x01)
    1212                      .dwpsn  "mancal.c",360,1
    1213              
    1214              ;***************************************************************
    1215              ;* FNAME: _GetIntervalTimeLeft          FR SIZE:   0           *
    1216              ;*                                                             *
    1217              ;* FUNCTION ENVIRONMENT                                        *
    1218              ;*                                                             *
    1219              ;* FUNCTION PROPERTIES                                         *
    1220              ;*                            0 Parameter,  0 Auto,  0 SOE     *
    1221              ;***************************************************************
    1222              
TMS320C2000 COFF Assembler PC v4.1.3 Thu Aug 18 12:16:20 2016

Tools Copyright (c) 1996-2006 Texas Instruments Incorporated
mancal.asm                                                           PAGE   25

    1223 00000132       _GetIntervalTimeLeft:
    1224 00000132 761F!         MOVW      DP,#_timers+48
         00000133 0000 
    1225 00000134 0200          MOVB      ACC,#0
    1226 00000135 8F00          MOVL      XAR4,#12000           ; |363| 
         00000136 2EE0 
    1227 00000137 A330!         MOVL      P,@_timers+48         ; |363| 
    1228 00000138 761F-         MOVW      DP,#_mancal+1
         00000139 0000 
    1229 0000013a F61F          RPT       #31
    1230 0000013b 5617  ||     SUBCUL    ACC,XAR4              ; |363| 
         0000013c 00A4 
    1231 0000013d 3F39-         MOV       @_mancal+1,P          ; |363| 
    1232 0000013e 761F-         MOVW      DP,#_mancal+1
         0000013f 0000 
    1233 00000140 9239-         MOV       AL,@_mancal+1         ; |364| 
    1234 00000141 EC06          BF        L12,EQ                ; |364| 
    1235                      ; branchcc occurs ; |364| 
    1236 00000142 9B01          MOVB      AH,#1                 ; |364| 
    1237 00000143 95A9          ADD       AH,AL                 ; |364| 
    1238 00000144 761F-         MOVW      DP,#_mancal+1
         00000145 0000 
    1239 00000146 9739-         MOV       @_mancal+1,AH         ; |364| 
    1240 00000147       L12:    
    1241 00000147 761F-         MOVW      DP,#_mancal+1
         00000148 0000 
    1242 00000149 9239-         MOV       AL,@_mancal+1         ; |365| 
    1243                      .dwpsn  "mancal.c",366,1
    1244 0000014a 0006          LRETR
    1245                      ; return occurs
    1246                      .dwattr DW$118, DW_AT_end_file("mancal.c")
    1247                      .dwattr DW$118, DW_AT_end_line(0x16e)
    1248                      .dwattr DW$118, DW_AT_end_column(0x01)
    1249                      .dwendtag DW$118
    1250              
    1251 0000014b               .sect   ".text"
    1252                      .global _PowerOutCalRecovery
    1253              
    1254              DW$119  .dwtag  DW_TAG_subprogram, DW_AT_name("PowerOutCalRecovery"), DW_AT_symbol_name("_PowerOutCalRecovery
    1255                      .dwattr DW$119, DW_AT_low_pc(_PowerOutCalRecovery)
    1256                      .dwattr DW$119, DW_AT_high_pc(0x00)
    1257                      .dwattr DW$119, DW_AT_begin_file("mancal.c")
    1258                      .dwattr DW$119, DW_AT_begin_line(0x174)
    1259                      .dwattr DW$119, DW_AT_begin_column(0x06)
    1260                      .dwattr DW$119, DW_AT_frame_base[DW_OP_breg20 -4]
    1261                      .dwattr DW$119, DW_AT_skeletal(0x01)
    1262                      .dwpsn  "mancal.c",373,1
    1263              
    1264              ;***************************************************************
    1265              ;* FNAME: _PowerOutCalRecovery          FR SIZE:   2           *
    1266              ;*                                                             *
    1267              ;* FUNCTION ENVIRONMENT                                        *
    1268              ;*                                                             *
    1269              ;* FUNCTION PROPERTIES                                         *
    1270              ;*                            0 Parameter,  0 Auto,  2 SOE     *
TMS320C2000 COFF Assembler PC v4.1.3 Thu Aug 18 12:16:20 2016

Tools Copyright (c) 1996-2006 Texas Instruments Incorporated
mancal.asm                                                           PAGE   26

    1271              ;***************************************************************
    1272              
    1273 0000014b       _PowerOutCalRecovery:
    1274 0000014b 761F-         MOVW      DP,#_speedcompcoeffs
         0000014c 000D 
    1275 0000014d B2BD          MOVL      *SP++,XAR1
    1276 0000014e 921A-         MOV       AL,@_speedcompcoeffs  ; |377| 
    1277 0000014f 5207          CMPB      AL,#7                 ; |377| 
    1278 00000150 56C8          BF        L13,LO                ; |377| 
         00000151 000A 
    1279                      ; branchcc occurs ; |377| 
    1280 00000152 520B          CMPB      AL,#11                ; |382| 
    1281 00000153 ED09          BF        L14,NEQ               ; |382| 
    1282                      ; branchcc occurs ; |382| 
    1283 00000154 761F!         MOVW      DP,#_allsensors+16
         00000155 0000 
    1284 00000156 1810!         AND       @_allsensors+16,#0xfffb ; |384| 
         00000157 FFFB 
    1285 00000158 56CF          BF        L18,UNC               ; |386| 
         00000159 0040 
    1286                      ; branch occurs ; |386| 
    1287 0000015a       L13:    
    1288 0000015a 5200          CMPB      AL,#0                 ; |377| 
    1289 0000015b ED37          BF        L17,NEQ               ; |377| 
    1290                      ; branchcc occurs ; |377| 
    1291 0000015c       L14:    
    1292 0000015c 5209          CMPB      AL,#9                 ; |387| 
    1293 0000015d 56C8          BF        L16,LO                ; |387| 
         0000015e 0023 
    1294                      ; branchcc occurs ; |387| 
    1295 0000015f 761F-         MOVW      DP,#_speedcompcoeffs
         00000160 000D 
    1296 00000161 281A-         MOV       @_speedcompcoeffs,#10 ; |398| 
         00000162 000A 
    1297 00000163 761F!         MOVW      DP,#_allsensors+16
         00000164 0000 
    1298 00000165 1810!         AND       @_allsensors+16,#0xfffd ; |399| 
         00000166 FFFD 
    1299 00000167 7640'         LCR       #_WriteSpeedCompStructtoNVMEM ; |400| 
         00000168 005E 
    1300                      ; call occurs [#_WriteSpeedCompStructtoNVMEM] ; |400| 
    1301                      .dwpsn  "mancal.c",402,0
    1302 00000169 D100          MOVB      XAR1,#0
    1303              L15:    
    1304              DW$L$_PowerOutCalRecovery$7$B:
    1305                      .dwpsn  "mancal.c",403,0
    1306 0000016a 92A1          MOV       AL,AR1
    1307 0000016b 7640!         LCR       #_Status1Flags        ; |404| 
         0000016c 0000 
    1308                      ; call occurs [#_Status1Flags] ; |404| 
    1309 0000016d 18C4          AND       *+XAR4[0],#0xfffd     ; |405| 
         0000016e FFFD 
    1310 0000016f 92A1          MOV       AL,AR1                ; |405| 
    1311 00000170 7640!         LCR       #_WriteSensorStatustoNVMEM ; |406| 
         00000171 0000 
TMS320C2000 COFF Assembler PC v4.1.3 Thu Aug 18 12:16:20 2016

Tools Copyright (c) 1996-2006 Texas Instruments Incorporated
mancal.asm                                                           PAGE   27

    1312                      ; call occurs [#_WriteSensorStatustoNVMEM] ; |406| 
    1313 00000172 92A1          MOV       AL,AR1                ; |406| 
    1314 00000173 9C01          ADDB      AL,#1                 ; |402| 
    1315 00000174 59A9          MOVZ      AR1,AL                ; |402| 
    1316 00000175 521C          CMPB      AL,#28                ; |402| 
    1317                      .dwpsn  "mancal.c",407,0
    1318 00000176 56C4          BF        L15,LT                ; |402| 
         00000177 FFF4 
    1319                      ; branchcc occurs ; |402| 
    1320 00000178       DW$L$_PowerOutCalRecovery$7$E:
    1321 00000178 7640!         LCR       #_SensorStatustoSDCardFile ; |408| 
         00000179 0000 
    1322                      ; call occurs [#_SensorStatustoSDCardFile] ; |408| 
    1323 0000017a 7640'         LCR       #_ClearCalAveragingAlarm ; |409| 
         0000017b 0B5C 
    1324                      ; call occurs [#_ClearCalAveragingAlarm] ; |409| 
    1325 0000017c 7640!         LCR       #_SetupNormalModeAlarmLevels ; |410| 
         0000017d 0000 
    1326                      ; call occurs [#_SetupNormalModeAlarmLevels] ; |410| 
    1327 0000017e 56CF          BF        L18,UNC               ; |410| 
         0000017f 001A 
    1328                      ; branch occurs ; |410| 
    1329 00000180       L16:    
    1330 00000180 761F-         MOVW      DP,#_mancal
         00000181 0000 
    1331 00000182 28AC          MOV       T,#12000              ; |390| 
         00000183 2EE0 
    1332 00000184 3038-         MPYXU     ACC,T,@_mancal        ; |390| 
    1333 00000185 761F!         MOVW      DP,#_timers+46
         00000186 0000 
    1334 00000187 1E2E!         MOVL      @_timers+46,ACC       ; |390| 
    1335 00000188 761F-         MOVW      DP,#_mancal+1
         00000189 0000 
    1336 0000018a 3039-         MPYXU     ACC,T,@_mancal+1      ; |391| 
    1337 0000018b 761F!         MOVW      DP,#_timers+48
         0000018c 0000 
    1338 0000018d 1E30!         MOVL      @_timers+48,ACC       ; |391| 
    1339 0000018e 7640'         LCR       #_SetupLearningModeAlarmLevels ; |392| 
         0000018f 019A 
    1340                      ; call occurs [#_SetupLearningModeAlarmLevels] ; |392| 
    1341 00000190 56CF          BF        L18,UNC               ; |395| 
         00000191 0008 
    1342                      ; branch occurs ; |395| 
    1343 00000192       L17:    
    1344 00000192 761F!         MOVW      DP,#_allsensors+16
         00000193 0000 
    1345 00000194 1A10!         OR        @_allsensors+16,#0x0004 ; |379| 
         00000195 0004 
    1346 00000196 7640'         LCR       #_InitCal             ; |380| 
         00000197 01B9 
    1347                      ; call occurs [#_InitCal] ; |380| 
    1348 00000198       L18:    
    1349 00000198 8BBE          MOVL      XAR1,*--SP
    1350                      .dwpsn  "mancal.c",413,1
    1351 00000199 0006          LRETR
TMS320C2000 COFF Assembler PC v4.1.3 Thu Aug 18 12:16:20 2016

Tools Copyright (c) 1996-2006 Texas Instruments Incorporated
mancal.asm                                                           PAGE   28

    1352                      ; return occurs
    1353              
    1354              DW$120  .dwtag  DW_TAG_loop
    1355                      .dwattr DW$120, DW_AT_name("D:\DEV\Amot\BearingWear\XTSW_V6_20\mancal.asm:L15:1:1471518980")
    1356                      .dwattr DW$120, DW_AT_begin_file("mancal.c")
    1357                      .dwattr DW$120, DW_AT_begin_line(0x192)
    1358                      .dwattr DW$120, DW_AT_end_line(0x197)
    1359              DW$121  .dwtag  DW_TAG_loop_range
    1360                      .dwattr DW$121, DW_AT_low_pc(DW$L$_PowerOutCalRecovery$7$B)
    1361                      .dwattr DW$121, DW_AT_high_pc(DW$L$_PowerOutCalRecovery$7$E)
    1362                      .dwendtag DW$120
    1363              
    1364                      .dwattr DW$119, DW_AT_end_file("mancal.c")
    1365                      .dwattr DW$119, DW_AT_end_line(0x19d)
    1366                      .dwattr DW$119, DW_AT_end_column(0x01)
    1367                      .dwendtag DW$119
    1368              
    1369 0000019a               .sect   ".text"
    1370                      .global _SetupLearningModeAlarmLevels
    1371              
    1372              DW$122  .dwtag  DW_TAG_subprogram, DW_AT_name("SetupLearningModeAlarmLevels"), DW_AT_symbol_name("_SetupLearn
    1373                      .dwattr DW$122, DW_AT_low_pc(_SetupLearningModeAlarmLevels)
    1374                      .dwattr DW$122, DW_AT_high_pc(0x00)
    1375                      .dwattr DW$122, DW_AT_begin_file("mancal.c")
    1376                      .dwattr DW$122, DW_AT_begin_line(0x1a1)
    1377                      .dwattr DW$122, DW_AT_begin_column(0x06)
    1378                      .dwattr DW$122, DW_AT_frame_base[DW_OP_breg20 -2]
    1379                      .dwattr DW$122, DW_AT_skeletal(0x01)
    1380                      .dwpsn  "mancal.c",418,1
    1381              
    1382              ;***************************************************************
    1383              ;* FNAME: _SetupLearningModeAlarmLevels FR SIZE:   0           *
    1384              ;*                                                             *
    1385              ;* FUNCTION ENVIRONMENT                                        *
    1386              ;*                                                             *
    1387              ;* FUNCTION PROPERTIES                                         *
    1388              ;*                            0 Parameter,  0 Auto,  0 SOE     *
    1389              ;***************************************************************
    1390              
    1391 0000019a       _SetupLearningModeAlarmLevels:
    1392 0000019a 761F!         MOVW      DP,#_allsensors+39
         0000019b 0000 
    1393 0000019c 9227!         MOV       AL,@_allsensors+39    ; |419| 
    1394 0000019d 761F!         MOVW      DP,#_settings+24
         0000019e 0000 
    1395 0000019f 9618!         MOV       @_settings+24,AL      ; |419| 
    1396 000001a0 761F!         MOVW      DP,#_allsensors+40
         000001a1 0000 
    1397 000001a2 9228!         MOV       AL,@_allsensors+40    ; |420| 
    1398 000001a3 761F!         MOVW      DP,#_settings+25
         000001a4 0000 
    1399 000001a5 9619!         MOV       @_settings+25,AL      ; |420| 
    1400 000001a6 761F!         MOVW      DP,#_allsensors+11
         000001a7 0000 
    1401 000001a8 920B!         MOV       AL,@_allsensors+11    ; |421| 
TMS320C2000 COFF Assembler PC v4.1.3 Thu Aug 18 12:16:20 2016

Tools Copyright (c) 1996-2006 Texas Instruments Incorporated
mancal.asm                                                           PAGE   29

    1402 000001a9 761F!         MOVW      DP,#_settings+26
         000001aa 0000 
    1403 000001ab 961A!         MOV       @_settings+26,AL      ; |421| 
    1404 000001ac 761F!         MOVW      DP,#_allsensors+12
         000001ad 0000 
    1405 000001ae 920C!         MOV       AL,@_allsensors+12    ; |422| 
    1406 000001af 761F!         MOVW      DP,#_settings+27
         000001b0 0000 
    1407 000001b1 961B!         MOV       @_settings+27,AL      ; |422| 
    1408 000001b2 761F!         MOVW      DP,#_allsensors+41
         000001b3 0000 
    1409 000001b4 9229!         MOV       AL,@_allsensors+41    ; |423| 
    1410 000001b5 761F!         MOVW      DP,#_settings+28
         000001b6 0000 
    1411 000001b7 961C!         MOV       @_settings+28,AL      ; |423| 
    1412                      .dwpsn  "mancal.c",424,1
    1413 000001b8 0006          LRETR
    1414                      ; return occurs
    1415                      .dwattr DW$122, DW_AT_end_file("mancal.c")
    1416                      .dwattr DW$122, DW_AT_end_line(0x1a8)
    1417                      .dwattr DW$122, DW_AT_end_column(0x01)
    1418                      .dwendtag DW$122
    1419              
    1420 000001b9               .sect   ".text"
    1421                      .global _InitCal
    1422              
    1423              DW$123  .dwtag  DW_TAG_subprogram, DW_AT_name("InitCal"), DW_AT_symbol_name("_InitCal")
    1424                      .dwattr DW$123, DW_AT_low_pc(_InitCal)
    1425                      .dwattr DW$123, DW_AT_high_pc(0x00)
    1426                      .dwattr DW$123, DW_AT_begin_file("mancal.c")
    1427                      .dwattr DW$123, DW_AT_begin_line(0x1b1)
    1428                      .dwattr DW$123, DW_AT_begin_column(0x06)
    1429                      .dwattr DW$123, DW_AT_frame_base[DW_OP_breg20 -42]
    1430                      .dwattr DW$123, DW_AT_skeletal(0x01)
    1431                      .dwpsn  "mancal.c",434,1
    1432              
    1433              ;***************************************************************
    1434              ;* FNAME: _InitCal                      FR SIZE:  40           *
    1435              ;*                                                             *
    1436              ;* FUNCTION ENVIRONMENT                                        *
    1437              ;*                                                             *
    1438              ;* FUNCTION PROPERTIES                                         *
    1439              ;*                            2 Parameter, 32 Auto,  6 SOE     *
    1440              ;***************************************************************
    1441              
    1442 000001b9       _InitCal:
    1443 000001b9 B2BD          MOVL      *SP++,XAR1
    1444 000001ba AABD          MOVL      *SP++,XAR2
    1445 000001bb A2BD          MOVL      *SP++,XAR3
    1446 000001bc FE22          ADDB      SP,#34
    1447 000001bd 5CAD          MOVZ      AR4,SP                ; |440| 
    1448 000001be 021E          MOVB      ACC,#30
    1449 000001bf D500          MOVB      XAR5,#0
    1450 000001c0 DCA0          SUBB      XAR4,#32              ; |440| 
    1451 000001c1 7640!         LCR       #_memset              ; |440| 
TMS320C2000 COFF Assembler PC v4.1.3 Thu Aug 18 12:16:20 2016

Tools Copyright (c) 1996-2006 Texas Instruments Incorporated
mancal.asm                                                           PAGE   30

         000001c2 0000 
    1452                      ; call occurs [#_memset] ; |440| 
    1453 000001c3 761F!         MOVW      DP,#_allsensors+16
         000001c4 0000 
    1454 000001c5 4210!         TBIT      @_allsensors+16,#2    ; |442| 
    1455 000001c6 56CC          BF        L26,NTC               ; |442| 
         000001c7 00F8 
    1456                      ; branchcc occurs ; |442| 
    1457 000001c8 761F-         MOVW      DP,#_bReadyToSampling
         000001c9 0000 
    1458 000001ca 2B3E-         MOV       @_bReadyToSampling,#0 ; |444| 
    1459 000001cb 761F-         MOVW      DP,#_bSamplingFinished
         000001cc 0000 
    1460 000001cd 2B3F-         MOV       @_bSamplingFinished,#0 ; |445| 
    1461 000001ce 0200          MOVB      ACC,#0
    1462 000001cf 761F-         MOVW      DP,#_iRepaidWearReset
         000001d0 000D 
    1463 000001d1 D300          MOVB      XAR3,#0
    1464 000001d2 2B37-         MOV       @_iRepaidWearReset,#0 ; |447| 
    1465 000001d3 761F-         MOVW      DP,#_iStartRapidWear
         000001d4 000D 
    1466 000001d5 2B38-         MOV       @_iStartRapidWear,#0  ; |448| 
    1467 000001d6 761F-         MOVW      DP,#_iFiveResDone
         000001d7 000D 
    1468 000001d8 2B39-         MOV       @_iFiveResDone,#0     ; |449| 
    1469 000001d9 761F!         MOVW      DP,#_timers+46
         000001da 0000 
    1470 000001db 1E2E!         MOVL      @_timers+46,ACC       ; |452| 
    1471 000001dc 761F!         MOVW      DP,#_settings+34
         000001dd 0000 
    1472 000001de 2B22!         MOV       @_settings+34,#0      ; |454| 
    1473 000001df 761F-         MOVW      DP,#_speedcompcoeffs
         000001e0 000D 
    1474                      .dwpsn  "mancal.c",457,0
    1475 000001e1 281A-         MOV       @_speedcompcoeffs,#1  ; |455| 
         000001e2 0001 
    1476              L19:    
    1477              DW$L$_InitCal$3$B:
    1478                      .dwpsn  "mancal.c",458,0
    1479                      .dwpsn  "mancal.c",459,0
    1480 000001e3 D100          MOVB      XAR1,#0
    1481              DW$L$_InitCal$3$E:
    1482              L20:    
    1483              DW$L$_InitCal$4$B:
    1484                      .dwpsn  "mancal.c",460,0
    1485 000001e4 0EA3          MOVU      ACC,AR3
    1486 000001e5 8F00-         MOVL      XAR4,#_speedcompcoeffs+2 ; |461| 
         000001e6 035C 
    1487 000001e7 FF30          LSL       ACC,1                 ; |461| 
    1488 000001e8 0DA1          ADDU      ACC,AR1               ; |461| 
    1489 000001e9 5601          ADDL      XAR4,ACC
         000001ea 00A4 
    1490 000001eb 1E62          MOVL      *-SP[34],ACC          ; |461| 
    1491 000001ec 92C4          MOV       AL,*+XAR4[0]          ; |461| 
    1492 000001ed 7640!         LCR       #U$$TOFS              ; |461| 
TMS320C2000 COFF Assembler PC v4.1.3 Thu Aug 18 12:16:20 2016

Tools Copyright (c) 1996-2006 Texas Instruments Incorporated
mancal.asm                                                           PAGE   31

         000001ee 0000 
    1493                      ; call occurs [#U$$TOFS] ; |461| 
    1494 000001ef 761F!         MOVW      DP,#_allsensors+3
         000001f0 0000 
    1495 000001f1 86A9          MOVL      XAR2,ACC              ; |461| 
    1496 000001f2 9203!         MOV       AL,@_allsensors+3     ; |462| 
    1497 000001f3 7640!         LCR       #U$$TOFS              ; |462| 
         000001f4 0000 
    1498                      ; call occurs [#U$$TOFS] ; |462| 
    1499 000001f5 1E42          MOVL      *-SP[2],ACC           ; |462| 
    1500 000001f6 AAA9          MOVL      ACC,XAR2              ; |462| 
    1501 000001f7 7640!         LCR       #FS$$MPY              ; |462| 
         000001f8 0000 
    1502                      ; call occurs [#FS$$MPY] ; |462| 
    1503 000001f9 86A9          MOVL      XAR2,ACC              ; |462| 
    1504 000001fa 9A00          MOV       AL,#0
    1505 000001fb 28A8          MOV       AH,#17096
         000001fc 42C8 
    1506 000001fd 1E42          MOVL      *-SP[2],ACC           ; |464| 
    1507 000001fe AAA9          MOVL      ACC,XAR2              ; |464| 
    1508 000001ff 7640!         LCR       #FS$$DIV              ; |464| 
         00000200 0000 
    1509                      ; call occurs [#FS$$DIV] ; |464| 
    1510 00000201 7640!         LCR       #FS$$TOU              ; |464| 
         00000202 0000 
    1511                      ; call occurs [#FS$$TOU] ; |464| 
    1512 00000203 88A9          MOVZ      AR6,AL                ; |464| 
    1513 00000204 8F00-         MOVL      XAR4,#_calibration+1  ; |464| 
         00000205 0041 
    1514 00000206 0662          MOVL      ACC,*-SP[34]          ; |464| 
    1515 00000207 5601          ADDL      XAR4,ACC
         00000208 00A4 
    1516 00000209 D901          ADDB      XAR1,#1               ; |459| 
    1517 0000020a 92A1          MOV       AL,AR1                ; |459| 
    1518 0000020b 5202          CMPB      AL,#2                 ; |459| 
    1519 0000020c 7EC4          MOV       *+XAR4[0],AR6         ; |464| 
    1520                      .dwpsn  "mancal.c",465,0
    1521 0000020d 56C8          BF        L20,LO                ; |459| 
         0000020e FFD7 
    1522                      ; branchcc occurs ; |459| 
    1523 0000020f       DW$L$_InitCal$4$E:
    1524 0000020f       DW$L$_InitCal$5$B:
    1525 0000020f DB01          ADDB      XAR3,#1               ; |457| 
    1526 00000210 92A3          MOV       AL,AR3                ; |457| 
    1527 00000211 5203          CMPB      AL,#3                 ; |457| 
    1528                      .dwpsn  "mancal.c",466,0
    1529 00000212 56C8          BF        L19,LO                ; |457| 
         00000213 FFD1 
    1530                      ; branchcc occurs ; |457| 
    1531 00000214       DW$L$_InitCal$5$E:
    1532 00000214 761F!         MOVW      DP,#_allsensors+5
         00000215 0000 
    1533 00000216 9205!         MOV       AL,@_allsensors+5     ; |467| 
    1534 00000217 D300          MOVB      XAR3,#0
    1535 00000218 BE00          MOVB      XAR6,#0
TMS320C2000 COFF Assembler PC v4.1.3 Thu Aug 18 12:16:20 2016

Tools Copyright (c) 1996-2006 Texas Instruments Incorporated
mancal.asm                                                           PAGE   32

    1536 00000219 761F!         MOVW      DP,#_allsensors+4
         0000021a 0000 
    1537 0000021b 9E04!         SUB       AL,@_allsensors+4     ; |467| 
    1538 0000021c 761F-         MOVW      DP,#_calibration
         0000021d 0001 
    1539 0000021e 9C01          ADDB      AL,#1                 ; |467| 
    1540 0000021f 9600-         MOV       @_calibration,AL      ; |467| 
    1541                      .dwpsn  "mancal.c",468,0
    1542 00000220 28AC          MOV       T,#28                 ; |473| 
         00000221 001C 
    1543              L21:    
    1544              DW$L$_InitCal$7$B:
    1545                      .dwpsn  "mancal.c",469,0
    1546                      .dwpsn  "mancal.c",470,0
    1547 00000222 D100          MOVB      XAR1,#0
    1548              DW$L$_InitCal$7$E:
    1549              L22:    
    1550              DW$L$_InitCal$8$B:
    1551                      .dwpsn  "mancal.c",471,0
    1552 00000223 30A1          MPYXU     ACC,T,AR1             ; |473| 
    1553 00000224 8F00-         MOVL      XAR4,#_calibration+314 ; |473| 
         00000225 017A 
    1554 00000226 0DA3          ADDU      ACC,AR3               ; |473| 
    1555 00000227 FF30          LSL       ACC,1                 ; |473| 
    1556 00000228 5601          ADDL      XAR4,ACC
         00000229 00A4 
    1557 0000022a C2C4          MOVL      *+XAR4[0],XAR6        ; |473| 
    1558 0000022b 8F00-         MOVL      XAR4,#_calibration+482 ; |474| 
         0000022c 0222 
    1559 0000022d 5601          ADDL      XAR4,ACC
         0000022e 00A4 
    1560 0000022f D901          ADDB      XAR1,#1               ; |470| 
    1561 00000230 0200          MOVB      ACC,#0
    1562 00000231 1EC4          MOVL      *+XAR4[0],ACC         ; |474| 
    1563 00000232 92A1          MOV       AL,AR1                ; |470| 
    1564 00000233 5203          CMPB      AL,#3                 ; |470| 
    1565                      .dwpsn  "mancal.c",475,0
    1566 00000234 56C8          BF        L22,LO                ; |470| 
         00000235 FFEF 
    1567                      ; branchcc occurs ; |470| 
    1568 00000236       DW$L$_InitCal$8$E:
    1569 00000236       DW$L$_InitCal$9$B:
    1570 00000236 DB01          ADDB      XAR3,#1               ; |468| 
    1571 00000237 92A3          MOV       AL,AR3                ; |468| 
    1572 00000238 521C          CMPB      AL,#28                ; |468| 
    1573                      .dwpsn  "mancal.c",476,0
    1574 00000239 56C8          BF        L21,LO                ; |468| 
         0000023a FFE9 
    1575                      ; branchcc occurs ; |468| 
    1576              DW$L$_InitCal$9$E:
    1577                      .dwpsn  "mancal.c",478,0
    1578 0000023b D100          MOVB      XAR1,#0
    1579 0000023c       L23:    
    1580 0000023c       DW$L$_InitCal$11$B:
    1581 0000023c 0EA1          MOVU      ACC,AR1
TMS320C2000 COFF Assembler PC v4.1.3 Thu Aug 18 12:16:20 2016

Tools Copyright (c) 1996-2006 Texas Instruments Incorporated
mancal.asm                                                           PAGE   33

    1582 0000023d 8F00-         MOVL      XAR4,#_calibration+14 ; |478| 
         0000023e 004E 
    1583 0000023f FF30          LSL       ACC,1                 ; |478| 
    1584 00000240 5601          ADDL      XAR4,ACC
         00000241 00A4 
    1585 00000242 D901          ADDB      XAR1,#1               ; |478| 
    1586 00000243 0200          MOVB      ACC,#0
    1587 00000244 1EC4          MOVL      *+XAR4[0],ACC         ; |478| 
    1588 00000245 92A1          MOV       AL,AR1                ; |478| 
    1589 00000246 5296          CMPB      AL,#150               ; |478| 
    1590 00000247 56C8          BF        L23,LO                ; |478| 
         00000248 FFF5 
    1591                      ; branchcc occurs ; |478| 
    1592 00000249       DW$L$_InitCal$11$E:
    1593 00000249 0200          MOVB      ACC,#0
    1594 0000024a 8F00-         MOVL      XAR4,#_calibration+8  ; |480| 
         0000024b 0048 
    1595 0000024c 1EC4          MOVL      *+XAR4[0],ACC         ; |480| 
    1596 0000024d 1ED4          MOVL      *+XAR4[2],ACC         ; |481| 
    1597 0000024e 1EE4          MOVL      *+XAR4[4],ACC         ; |482| 
    1598                      .dwpsn  "mancal.c",485,0
    1599 0000024f D100          MOVB      XAR1,#0
    1600              L24:    
    1601              DW$L$_InitCal$13$B:
    1602                      .dwpsn  "mancal.c",486,0
    1603 00000250 92A1          MOV       AL,AR1                ; |487| 
    1604 00000251 9B01          MOVB      AH,#1                 ; |487| 
    1605 00000252 7640!         LCR       #_SetCalMode          ; |487| 
         00000253 0000 
    1606                      ; call occurs [#_SetCalMode] ; |487| 
    1607 00000254 92A1          MOV       AL,AR1                ; |488| 
    1608 00000255 7640!         LCR       #_WriteSensorStatustoNVMEM ; |488| 
         00000256 0000 
    1609                      ; call occurs [#_WriteSensorStatustoNVMEM] ; |488| 
    1610 00000257 0EA1          MOVU      ACC,AR1
    1611 00000258 8F00-         MOVL      XAR4,#_fRapidWearAverage ; |489| 
         00000259 0000 
    1612 0000025a FF30          LSL       ACC,1                 ; |489| 
    1613 0000025b 5601          ADDL      XAR4,ACC
         0000025c 00A4 
    1614 0000025d 9B00          MOV       AH,#0
    1615 0000025e 9A00          MOV       AL,#0
    1616 0000025f D901          ADDB      XAR1,#1               ; |485| 
    1617 00000260 1EC4          MOVL      *+XAR4[0],ACC         ; |489| 
    1618 00000261 92A1          MOV       AL,AR1                ; |485| 
    1619 00000262 521C          CMPB      AL,#28                ; |485| 
    1620                      .dwpsn  "mancal.c",490,0
    1621 00000263 56C8          BF        L24,LO                ; |485| 
         00000264 FFED 
    1622                      ; branchcc occurs ; |485| 
    1623 00000265       DW$L$_InitCal$13$E:
    1624 00000265 7640!         LCR       #_SensorStatustoSDCardFile ; |491| 
         00000266 0000 
    1625                      ; call occurs [#_SensorStatustoSDCardFile] ; |491| 
    1626 00000267 761F!         MOVW      DP,#_allsensors+16
TMS320C2000 COFF Assembler PC v4.1.3 Thu Aug 18 12:16:20 2016

Tools Copyright (c) 1996-2006 Texas Instruments Incorporated
mancal.asm                                                           PAGE   34

         00000268 0000 
    1627 00000269 1A10!         OR        @_allsensors+16,#0x0002 ; |494| 
         0000026a 0002 
    1628 0000026b 7640'         LCR       #_SetupLearningModeAlarmLevels ; |496| 
         0000026c 019A 
    1629                      ; call occurs [#_SetupLearningModeAlarmLevels] ; |496| 
    1630 0000026d 7640'         LCR       #_ClearCalibrationAlarms ; |498| 
         0000026e 0B6A 
    1631                      ; call occurs [#_ClearCalibrationAlarms] ; |498| 
    1632 0000026f 7640'         LCR       #_WriteSpeedCompStructtoNVMEM ; |500| 
         00000270 005E 
    1633                      ; call occurs [#_WriteSpeedCompStructtoNVMEM] ; |500| 
    1634 00000271 7640'         LCR       #_WriteCalibrationStructtoNVMEM ; |501| 
         00000272 00AE 
    1635                      ; call occurs [#_WriteCalibrationStructtoNVMEM] ; |501| 
    1636 00000273 7640!         LCR       #_PrewarnReset        ; |503| 
         00000274 0000 
    1637                      ; call occurs [#_PrewarnReset] ; |503| 
    1638 00000275 9A05          MOVB      AL,#5                 ; |505| 
    1639 00000276 7640!         LCR       #_SetBitEvent         ; |505| 
         00000277 0000 
    1640                      ; call occurs [#_SetBitEvent] ; |505| 
    1641 00000278 761F!         MOVW      DP,#_allsensors+16
         00000279 0000 
    1642 0000027a 1810!         AND       @_allsensors+16,#0xfffb ; |507| 
         0000027b FFFB 
    1643 0000027c 761F-         MOVW      DP,#_mancal+3
         0000027d 0000 
    1644 0000027e 2B3B-         MOV       @_mancal+3,#0         ; |508| 
    1645 0000027f 7640!         LCR       #_ClearManCompSequence ; |510| 
         00000280 0000 
    1646                      ; call occurs [#_ClearManCompSequence] ; |510| 
    1647 00000281 7640!         LCR       #_ClearSelectiveMANTable ; |511| 
         00000282 0000 
    1648                      ; call occurs [#_ClearSelectiveMANTable] ; |511| 
    1649 00000283 7640!         LCR       #_ClearEventCodeListArea ; |512| 
         00000284 0000 
    1650                      ; call occurs [#_ClearEventCodeListArea] ; |512| 
    1651 00000285 9A03          MOVB      AL,#3                 ; |514| 
    1652 00000286 7640!         LCR       #_CalibrationtdUpdate ; |514| 
         00000287 0000 
    1653                      ; call occurs [#_CalibrationtdUpdate] ; |514| 
    1654 00000288 D008          MOVB      XAR0,#8               ; |524| 
    1655 00000289 28AC          MOV       T,#10                 ; |519| 
         0000028a 000A 
    1656                      .dwpsn  "mancal.c",517,0
    1657 0000028b D100          MOVB      XAR1,#0
    1658              L25:    
    1659              DW$L$_InitCal$16$B:
    1660                      .dwpsn  "mancal.c",518,0
    1661 0000028c 30A1          MPYXU     ACC,T,AR1             ; |519| 
    1662 0000028d 8F00!         MOVL      XAR4,#_manref         ; |519| 
         0000028e 0000 
    1663 0000028f 5601          ADDL      XAR4,ACC
         00000290 00A4 
TMS320C2000 COFF Assembler PC v4.1.3 Thu Aug 18 12:16:20 2016

Tools Copyright (c) 1996-2006 Texas Instruments Incorporated
mancal.asm                                                           PAGE   35

    1664 00000291 9B00          MOV       AH,#0
    1665 00000292 9A00          MOV       AL,#0
    1666 00000293 1EC4          MOVL      *+XAR4[0],ACC         ; |519| 
    1667 00000294 2BF4          MOV       *+XAR4[6],#0          ; |520| 
    1668 00000295 1ED4          MOVL      *+XAR4[2],ACC         ; |521| 
    1669 00000296 2BFC          MOV       *+XAR4[7],#0          ; |522| 
    1670 00000297 1EE4          MOVL      *+XAR4[4],ACC         ; |523| 
    1671 00000298 0EA1          MOVU      ACC,AR1
    1672 00000299 2B94          MOV       *+XAR4[AR0],#0        ; |524| 
    1673 0000029a FF30          LSL       ACC,1                 ; |526| 
    1674 0000029b 8F00!         MOVL      XAR4,#_manrefsum      ; |526| 
         0000029c 0000 
    1675 0000029d 5601          ADDL      XAR4,ACC
         0000029e 00A4 
    1676 0000029f D901          ADDB      XAR1,#1               ; |517| 
    1677 000002a0 92A1          MOV       AL,AR1                ; |517| 
    1678 000002a1 2BC4          MOV       *+XAR4[0],#0          ; |526| 
    1679 000002a2 521C          CMPB      AL,#28                ; |517| 
    1680 000002a3 2BCC          MOV       *+XAR4[1],#0          ; |527| 
    1681                      .dwpsn  "mancal.c",528,0
    1682 000002a4 56C8          BF        L25,LO                ; |517| 
         000002a5 FFE8 
    1683                      ; branchcc occurs ; |517| 
    1684 000002a6       DW$L$_InitCal$16$E:
    1685 000002a6 9B00          MOV       AH,#0
    1686 000002a7 9A00          MOV       AL,#0
    1687 000002a8 761F!         MOVW      DP,#_dynalarmlevels+16
         000002a9 0000 
    1688 000002aa 1E10!         MOVL      @_dynalarmlevels+16,ACC ; |530| 
    1689 000002ab 761F!         MOVW      DP,#_dynalarmlevels+18
         000002ac 0000 
    1690 000002ad 2B12!         MOV       @_dynalarmlevels+18,#0 ; |531| 
    1691 000002ae 9B00          MOV       AH,#0
    1692 000002af 9A00          MOV       AL,#0
    1693 000002b0 761F!         MOVW      DP,#_dynalarmlevels
         000002b1 0000 
    1694 000002b2 1E00!         MOVL      @_dynalarmlevels,ACC  ; |532| 
    1695 000002b3 761F!         MOVW      DP,#_dynalarmlevels+19
         000002b4 0000 
    1696 000002b5 2B13!         MOV       @_dynalarmlevels+19,#0 ; |533| 
    1697 000002b6 9A00          MOV       AL,#0
    1698 000002b7 761F!         MOVW      DP,#_dynalarmlevels+14
         000002b8 0000 
    1699 000002b9 9B00          MOV       AH,#0
    1700 000002ba 1E0E!         MOVL      @_dynalarmlevels+14,ACC ; |534| 
    1701 000002bb 761F!         MOVW      DP,#_dynalarmlevels+20
         000002bc 0000 
    1702 000002bd 2B14!         MOV       @_dynalarmlevels+20,#0 ; |535| 
    1703 000002be       L26:    
    1704 000002be FEA2          SUBB      SP,#34
    1705 000002bf 82BE          MOVL      XAR3,*--SP
    1706 000002c0 86BE          MOVL      XAR2,*--SP
    1707 000002c1 8BBE          MOVL      XAR1,*--SP
    1708                      .dwpsn  "mancal.c",537,1
    1709 000002c2 0006          LRETR
TMS320C2000 COFF Assembler PC v4.1.3 Thu Aug 18 12:16:20 2016

Tools Copyright (c) 1996-2006 Texas Instruments Incorporated
mancal.asm                                                           PAGE   36

    1710                      ; return occurs
    1711              
    1712              DW$124  .dwtag  DW_TAG_loop
    1713                      .dwattr DW$124, DW_AT_name("D:\DEV\Amot\BearingWear\XTSW_V6_20\mancal.asm:L25:1:1471518980")
    1714                      .dwattr DW$124, DW_AT_begin_file("mancal.c")
    1715                      .dwattr DW$124, DW_AT_begin_line(0x205)
    1716                      .dwattr DW$124, DW_AT_end_line(0x210)
    1717              DW$125  .dwtag  DW_TAG_loop_range
    1718                      .dwattr DW$125, DW_AT_low_pc(DW$L$_InitCal$16$B)
    1719                      .dwattr DW$125, DW_AT_high_pc(DW$L$_InitCal$16$E)
    1720                      .dwendtag DW$124
    1721              
    1722              
    1723              DW$126  .dwtag  DW_TAG_loop
    1724                      .dwattr DW$126, DW_AT_name("D:\DEV\Amot\BearingWear\XTSW_V6_20\mancal.asm:L24:1:1471518980")
    1725                      .dwattr DW$126, DW_AT_begin_file("mancal.c")
    1726                      .dwattr DW$126, DW_AT_begin_line(0x1e5)
    1727                      .dwattr DW$126, DW_AT_end_line(0x1ea)
    1728              DW$127  .dwtag  DW_TAG_loop_range
    1729                      .dwattr DW$127, DW_AT_low_pc(DW$L$_InitCal$13$B)
    1730                      .dwattr DW$127, DW_AT_high_pc(DW$L$_InitCal$13$E)
    1731                      .dwendtag DW$126
    1732              
    1733              
    1734              DW$128  .dwtag  DW_TAG_loop
    1735                      .dwattr DW$128, DW_AT_name("D:\DEV\Amot\BearingWear\XTSW_V6_20\mancal.asm:L23:1:1471518980")
    1736                      .dwattr DW$128, DW_AT_begin_file("mancal.c")
    1737                      .dwattr DW$128, DW_AT_begin_line(0x1de)
    1738                      .dwattr DW$128, DW_AT_end_line(0x1de)
    1739              DW$129  .dwtag  DW_TAG_loop_range
    1740                      .dwattr DW$129, DW_AT_low_pc(DW$L$_InitCal$11$B)
    1741                      .dwattr DW$129, DW_AT_high_pc(DW$L$_InitCal$11$E)
    1742                      .dwendtag DW$128
    1743              
    1744              
    1745              DW$130  .dwtag  DW_TAG_loop
    1746                      .dwattr DW$130, DW_AT_name("D:\DEV\Amot\BearingWear\XTSW_V6_20\mancal.asm:L21:1:1471518980")
    1747                      .dwattr DW$130, DW_AT_begin_file("mancal.c")
    1748                      .dwattr DW$130, DW_AT_begin_line(0x1d4)
    1749                      .dwattr DW$130, DW_AT_end_line(0x1dc)
    1750              DW$131  .dwtag  DW_TAG_loop_range
    1751                      .dwattr DW$131, DW_AT_low_pc(DW$L$_InitCal$7$B)
    1752                      .dwattr DW$131, DW_AT_high_pc(DW$L$_InitCal$7$E)
    1753              DW$132  .dwtag  DW_TAG_loop_range
    1754                      .dwattr DW$132, DW_AT_low_pc(DW$L$_InitCal$9$B)
    1755                      .dwattr DW$132, DW_AT_high_pc(DW$L$_InitCal$9$E)
    1756              
    1757              DW$133  .dwtag  DW_TAG_loop
    1758                      .dwattr DW$133, DW_AT_name("D:\DEV\Amot\BearingWear\XTSW_V6_20\mancal.asm:L22:2:1471518980")
    1759                      .dwattr DW$133, DW_AT_begin_file("mancal.c")
    1760                      .dwattr DW$133, DW_AT_begin_line(0x1d6)
    1761                      .dwattr DW$133, DW_AT_end_line(0x1db)
    1762              DW$134  .dwtag  DW_TAG_loop_range
    1763                      .dwattr DW$134, DW_AT_low_pc(DW$L$_InitCal$8$B)
    1764                      .dwattr DW$134, DW_AT_high_pc(DW$L$_InitCal$8$E)
TMS320C2000 COFF Assembler PC v4.1.3 Thu Aug 18 12:16:20 2016

Tools Copyright (c) 1996-2006 Texas Instruments Incorporated
mancal.asm                                                           PAGE   37

    1765                      .dwendtag DW$133
    1766              
    1767                      .dwendtag DW$130
    1768              
    1769              
    1770              DW$135  .dwtag  DW_TAG_loop
    1771                      .dwattr DW$135, DW_AT_name("D:\DEV\Amot\BearingWear\XTSW_V6_20\mancal.asm:L19:1:1471518980")
    1772                      .dwattr DW$135, DW_AT_begin_file("mancal.c")
    1773                      .dwattr DW$135, DW_AT_begin_line(0x1c9)
    1774                      .dwattr DW$135, DW_AT_end_line(0x1d2)
    1775              DW$136  .dwtag  DW_TAG_loop_range
    1776                      .dwattr DW$136, DW_AT_low_pc(DW$L$_InitCal$3$B)
    1777                      .dwattr DW$136, DW_AT_high_pc(DW$L$_InitCal$3$E)
    1778              DW$137  .dwtag  DW_TAG_loop_range
    1779                      .dwattr DW$137, DW_AT_low_pc(DW$L$_InitCal$5$B)
    1780                      .dwattr DW$137, DW_AT_high_pc(DW$L$_InitCal$5$E)
    1781              
    1782              DW$138  .dwtag  DW_TAG_loop
    1783                      .dwattr DW$138, DW_AT_name("D:\DEV\Amot\BearingWear\XTSW_V6_20\mancal.asm:L20:2:1471518980")
    1784                      .dwattr DW$138, DW_AT_begin_file("mancal.c")
    1785                      .dwattr DW$138, DW_AT_begin_line(0x1cb)
    1786                      .dwattr DW$138, DW_AT_end_line(0x1d1)
    1787              DW$139  .dwtag  DW_TAG_loop_range
    1788                      .dwattr DW$139, DW_AT_low_pc(DW$L$_InitCal$4$B)
    1789                      .dwattr DW$139, DW_AT_high_pc(DW$L$_InitCal$4$E)
    1790                      .dwendtag DW$138
    1791              
    1792                      .dwendtag DW$135
    1793              
    1794                      .dwattr DW$123, DW_AT_end_file("mancal.c")
    1795                      .dwattr DW$123, DW_AT_end_line(0x219)
    1796                      .dwattr DW$123, DW_AT_end_column(0x01)
    1797                      .dwendtag DW$123
    1798              
    1799 000002c3               .sect   ".text"
    1800                      .global _MANCalibrationStages
    1801              
    1802              DW$140  .dwtag  DW_TAG_subprogram, DW_AT_name("MANCalibrationStages"), DW_AT_symbol_name("_MANCalibrationStag
    1803                      .dwattr DW$140, DW_AT_low_pc(_MANCalibrationStages)
    1804                      .dwattr DW$140, DW_AT_high_pc(0x00)
    1805                      .dwattr DW$140, DW_AT_begin_file("mancal.c")
    1806                      .dwattr DW$140, DW_AT_begin_line(0x21d)
    1807                      .dwattr DW$140, DW_AT_begin_column(0x06)
    1808                      .dwattr DW$140, DW_AT_frame_base[DW_OP_breg20 -2]
    1809                      .dwattr DW$140, DW_AT_skeletal(0x01)
    1810                      .dwpsn  "mancal.c",542,1
    1811              
    1812              ;***************************************************************
    1813              ;* FNAME: _MANCalibrationStages         FR SIZE:   0           *
    1814              ;*                                                             *
    1815              ;* FUNCTION ENVIRONMENT                                        *
    1816              ;*                                                             *
    1817              ;* FUNCTION PROPERTIES                                         *
    1818              ;*                            0 Parameter,  0 Auto,  0 SOE     *
    1819              ;***************************************************************
TMS320C2000 COFF Assembler PC v4.1.3 Thu Aug 18 12:16:20 2016

Tools Copyright (c) 1996-2006 Texas Instruments Incorporated
mancal.asm                                                           PAGE   38

    1820              
    1821 000002c3       _MANCalibrationStages:
    1822 000002c3 761F!         MOVW      DP,#_allsensors+16
         000002c4 0000 
    1823 000002c5 4110!         TBIT      @_allsensors+16,#1    ; |543| 
    1824 000002c6 EF1F          BF        L29,NTC               ; |543| 
    1825                      ; branchcc occurs ; |543| 
    1826 000002c7 7640'         LCR       #_CalProgression      ; |545| 
         000002c8 0428 
    1827                      ; call occurs [#_CalProgression] ; |545| 
    1828 000002c9 761F-         MOVW      DP,#_speedcompcoeffs
         000002ca 000D 
    1829 000002cb 921A-         MOV       AL,@_speedcompcoeffs  ; |546| 
    1830 000002cc 5202          CMPB      AL,#2                 ; |546| 
    1831 000002cd EC16          BF        L28,EQ                ; |546| 
    1832                      ; branchcc occurs ; |546| 
    1833 000002ce 5204          CMPB      AL,#4                 ; |546| 
    1834 000002cf EC14          BF        L28,EQ                ; |546| 
    1835                      ; branchcc occurs ; |546| 
    1836 000002d0 5206          CMPB      AL,#6                 ; |546| 
    1837 000002d1 EC12          BF        L28,EQ                ; |546| 
    1838                      ; branchcc occurs ; |546| 
    1839 000002d2 9CF9          ADDB      AL,#-7
    1840 000002d3 5201          CMPB      AL,#1                 ; |546| 
    1841 000002d4 56C6          BF        L29,HI                ; |546| 
         000002d5 0011 
    1842                      ; branchcc occurs ; |546| 
    1843 000002d6 761F!         MOVW      DP,#_motion+4
         000002d7 0000 
    1844 000002d8 9204!         MOV       AL,@_motion+4         ; |558| 
    1845 000002d9 ED05          BF        L27,NEQ               ; |558| 
    1846                      ; branchcc occurs ; |558| 
    1847 000002da 7640'         LCR       #_FineCurveCal        ; |558| 
         000002db 0A06 
    1848                      ; call occurs [#_FineCurveCal] ; |558| 
    1849 000002dc 56CF          BF        L29,UNC               ; |558| 
         000002dd 0009 
    1850                      ; branch occurs ; |558| 
    1851 000002de       L27:    
    1852 000002de 761F!         MOVW      DP,#_settings+34
         000002df 0000 
    1853 000002e0 2B22!         MOV       @_settings+34,#0      ; |559| 
    1854 000002e1 56CF          BF        L29,UNC               ; |559| 
         000002e2 0004 
    1855                      ; branch occurs ; |559| 
    1856 000002e3       L28:    
    1857 000002e3 7640'         LCR       #_RoughCal            ; |549| 
         000002e4 03F0 
    1858                      ; call occurs [#_RoughCal] ; |549| 
    1859              L29:    
    1860                      .dwpsn  "mancal.c",567,1
    1861 000002e5 0006          LRETR
    1862                      ; return occurs
    1863                      .dwattr DW$140, DW_AT_end_file("mancal.c")
    1864                      .dwattr DW$140, DW_AT_end_line(0x237)
TMS320C2000 COFF Assembler PC v4.1.3 Thu Aug 18 12:16:20 2016

Tools Copyright (c) 1996-2006 Texas Instruments Incorporated
mancal.asm                                                           PAGE   39

    1865                      .dwattr DW$140, DW_AT_end_column(0x01)
    1866                      .dwendtag DW$140
    1867              
    1868 000002e6               .sect   ".text"
    1869                      .global _AccumulateRoughCal
    1870              
    1871              DW$141  .dwtag  DW_TAG_subprogram, DW_AT_name("AccumulateRoughCal"), DW_AT_symbol_name("_AccumulateRoughCal")
    1872                      .dwattr DW$141, DW_AT_low_pc(_AccumulateRoughCal)
    1873                      .dwattr DW$141, DW_AT_high_pc(0x00)
    1874                      .dwattr DW$141, DW_AT_begin_file("mancal.c")
    1875                      .dwattr DW$141, DW_AT_begin_line(0x23b)
    1876                      .dwattr DW$141, DW_AT_begin_column(0x06)
    1877                      .dwattr DW$141, DW_AT_frame_base[DW_OP_breg20 -14]
    1878                      .dwattr DW$141, DW_AT_skeletal(0x01)
    1879                      .dwpsn  "mancal.c",572,1
    1880              
    1881              ;***************************************************************
    1882              ;* FNAME: _AccumulateRoughCal           FR SIZE:  12           *
    1883              ;*                                                             *
    1884              ;* FUNCTION ENVIRONMENT                                        *
    1885              ;*                                                             *
    1886              ;* FUNCTION PROPERTIES                                         *
    1887              ;*                            2 Parameter,  4 Auto,  6 SOE     *
    1888              ;***************************************************************
    1889              
    1890              _AccumulateRoughCal:
    1891              ;* AL    assigned to _index
    1892              DW$142  .dwtag  DW_TAG_formal_parameter, DW_AT_name("index"), DW_AT_symbol_name("_index")
    1893                      .dwattr DW$142, DW_AT_type(*DW$T$10)
    1894                      .dwattr DW$142, DW_AT_location[DW_OP_reg0]
    1895              ;* AH    assigned to _rpm
    1896              DW$143  .dwtag  DW_TAG_formal_parameter, DW_AT_name("rpm"), DW_AT_symbol_name("_rpm")
    1897                      .dwattr DW$143, DW_AT_type(*DW$T$11)
    1898                      .dwattr DW$143, DW_AT_location[DW_OP_reg1]
    1899 000002e6 B2BD          MOVL      *SP++,XAR1
    1900 000002e7 AABD          MOVL      *SP++,XAR2
    1901 000002e8 761F!         MOVW      DP,#_allsensors+4
         000002e9 0000 
    1902 000002ea A2BD          MOVL      *SP++,XAR3
    1903 000002eb 5BA9          MOVZ      AR3,AL                ; |572| 
    1904 000002ec FE06          ADDB      SP,#6
    1905 000002ed 92A8          MOV       AL,AH                 ; |572| 
    1906 000002ee 9E04!         SUB       AL,@_allsensors+4     ; |580| 
    1907 000002ef 5296          CMPB      AL,#150               ; |580| 
    1908 000002f0 9743          MOV       *-SP[3],AH            ; |572| 
    1909 000002f1 56C7          BF        L33,HIS               ; |580| 
         000002f2 0077 
    1910                      ; branchcc occurs ; |580| 
    1911 000002f3 761F!         MOVW      DP,#_iBarred
         000002f4 0000 
    1912 000002f5 9300!         MOV       AH,@_iBarred          ; |580| 
    1913 000002f6 ED72          BF        L33,NEQ               ; |580| 
    1914                      ; branchcc occurs ; |580| 
    1915 000002f7 761F!         MOVW      DP,#_iDeltaRPM15
         000002f8 0000 
TMS320C2000 COFF Assembler PC v4.1.3 Thu Aug 18 12:16:20 2016

Tools Copyright (c) 1996-2006 Texas Instruments Incorporated
mancal.asm                                                           PAGE   40

    1916 000002f9 9300!         MOV       AH,@_iDeltaRPM15      ; |580| 
    1917 000002fa ED6E          BF        L33,NEQ               ; |580| 
    1918                      ; branchcc occurs ; |580| 
    1919 000002fb 0EA9          MOVU      ACC,AL
    1920 000002fc 8F00-         MOVL      XAR4,#_calibration+14 ; |584| 
         000002fd 004E 
    1921 000002fe FF30          LSL       ACC,1                 ; |584| 
    1922 000002ff 5601          ADDL      XAR4,ACC
         00000300 00A4 
    1923 00000301 0201          MOVB      ACC,#1
    1924 00000302 5601          ADDL      *+XAR4[0],ACC         ; |584| 
         00000303 00C4 
    1925                      .dwpsn  "mancal.c",586,0
    1926 00000304 2B44          MOV       *-SP[4],#0            ; |586| 
    1927              L30:    
    1928              DW$L$_AccumulateRoughCal$5$B:
    1929                      .dwpsn  "mancal.c",587,0
    1930 00000305 2D44          MOV       T,*-SP[4]
    1931 00000306 8F00!         MOVL      XAR4,#_sensor         ; |588| 
         00000307 0000 
    1932 00000308 3512          MPYB      ACC,T,#18             ; |588| 
    1933 00000309 5601          ADDL      XAR4,ACC
         0000030a 00A4 
    1934 0000030b 92C4          MOV       AL,*+XAR4[0]          ; |588| 
    1935 0000030c CDA9          AND       AH,AL,#0x0001         ; |588| 
         0000030d 0001 
    1936 0000030e EC41          BF        L32,EQ                ; |588| 
    1937                      ; branchcc occurs ; |588| 
    1938 0000030f       DW$L$_AccumulateRoughCal$5$E:
    1939 0000030f       DW$L$_AccumulateRoughCal$6$B:
    1940 0000030f 9002          ANDB      AL,#2                 ; |588| 
    1941 00000310 EC3F          BF        L32,EQ                ; |588| 
    1942                      ; branchcc occurs ; |588| 
    1943 00000311       DW$L$_AccumulateRoughCal$6$E:
    1944 00000311       DW$L$_AccumulateRoughCal$7$B:
    1945 00000311 9244          MOV       AL,*-SP[4]
    1946 00000312 7640!         LCR       #_GetPreCompValue     ; |591| 
         00000313 0000 
    1947                      ; call occurs [#_GetPreCompValue] ; |591| 
    1948 00000314 88A9          MOVZ      AR6,AL                ; |591| 
    1949 00000315 1BA6          CMP       AR6,#-32000           ; |591| 
         00000316 8300 
    1950 00000317 56C2          BF        L31,GT                ; |591| 
         00000318 002A 
    1951                      ; branchcc occurs ; |591| 
    1952 00000319       DW$L$_AccumulateRoughCal$7$E:
    1953 00000319       DW$L$_AccumulateRoughCal$8$B:
    1954 00000319 3B01          SETC      SXM
    1955 0000031a 8F00-         MOVL      XAR4,#_calibration+8  ; |603| 
         0000031b 0048 
    1956 0000031c 5603          MOV       ACC,AR3 << 1          ; |603| 
         0000031d 01A3 
    1957 0000031e 5601          ADDL      XAR4,ACC
         0000031f 00A4 
    1958 00000320 8BA4          MOVL      XAR1,XAR4             ; |603| 
TMS320C2000 COFF Assembler PC v4.1.3 Thu Aug 18 12:16:20 2016

Tools Copyright (c) 1996-2006 Texas Instruments Incorporated
mancal.asm                                                           PAGE   41

    1959 00000321 06C1          MOVL      ACC,*+XAR1[0]         ; |603| 
    1960 00000322 EC2D          BF        L32,EQ                ; |603| 
    1961                      ; branchcc occurs ; |603| 
    1962 00000323       DW$L$_AccumulateRoughCal$8$E:
    1963 00000323       DW$L$_AccumulateRoughCal$9$B:
    1964 00000323 2DA3          MOV       T,AR3                 ; |606| 
    1965 00000324 9244          MOV       AL,*-SP[4]            ; |606| 
    1966 00000325 8F00-         MOVL      XAR4,#_calibration+482 ; |606| 
         00000326 0222 
    1967 00000327 3138          MPYB      P,T,#56               ; |606| 
    1968 00000328 5603          MOV       ACC,AL << 1           ; |606| 
         00000329 01A9 
    1969 0000032a 07AB          ADDL      ACC,P
    1970 0000032b 5601          ADDL      XAR4,ACC
         0000032c 00A4 
    1971 0000032d 86A4          MOVL      XAR2,XAR4             ; |606| 
    1972 0000032e 06C2          MOVL      ACC,*+XAR2[0]         ; |606| 
    1973 0000032f 7640!         LCR       #L$$TOFS              ; |606| 
         00000330 0000 
    1974                      ; call occurs [#L$$TOFS] ; |606| 
    1975 00000331 1E46          MOVL      *-SP[6],ACC           ; |606| 
    1976 00000332 06C1          MOVL      ACC,*+XAR1[0]         ; |606| 
    1977 00000333 7640!         LCR       #UL$$TOFS             ; |606| 
         00000334 0000 
    1978                      ; call occurs [#UL$$TOFS] ; |606| 
    1979 00000335 1E42          MOVL      *-SP[2],ACC           ; |606| 
    1980 00000336 0646          MOVL      ACC,*-SP[6]           ; |606| 
    1981 00000337 7640!         LCR       #FS$$DIV              ; |606| 
         00000338 0000 
    1982                      ; call occurs [#FS$$DIV] ; |606| 
    1983 00000339 7640!         LCR       #_FloattoIntRound     ; |606| 
         0000033a 0000 
    1984                      ; call occurs [#_FloattoIntRound] ; |606| 
    1985 0000033b 3B01          SETC      SXM
    1986 0000033c 85A9          MOV       ACC,AL                ; |606| 
    1987 0000033d 5601          ADDL      *+XAR2[0],ACC         ; |606| 
         0000033e 00C2 
    1988 0000033f 56CF          BF        L32,UNC               ; |606| 
         00000340 0010 
    1989                      ; branch occurs ; |606| 
    1990 00000341       DW$L$_AccumulateRoughCal$9$E:
    1991 00000341       L31:    
    1992 00000341       DW$L$_AccumulateRoughCal$10$B:
    1993 00000341 2DA3          MOV       T,AR3                 ; |595| 
    1994 00000342 3B01          SETC      SXM
    1995 00000343 9244          MOV       AL,*-SP[4]            ; |595| 
    1996 00000344 8F00-         MOVL      XAR4,#_calibration+482 ; |595| 
         00000345 0222 
    1997 00000346 3138          MPYB      P,T,#56               ; |595| 
    1998 00000347 5603          MOV       ACC,AL << 1           ; |595| 
         00000348 01A9 
    1999 00000349 07AB          ADDL      ACC,P
    2000 0000034a 5601          ADDL      XAR4,ACC
         0000034b 00A4 
    2001 0000034c 85A6          MOV       ACC,AR6               ; |595| 
TMS320C2000 COFF Assembler PC v4.1.3 Thu Aug 18 12:16:20 2016

Tools Copyright (c) 1996-2006 Texas Instruments Incorporated
mancal.asm                                                           PAGE   42

    2002 0000034d 5601          ADDL      *+XAR4[0],ACC         ; |595| 
         0000034e 00C4 
    2003 0000034f       DW$L$_AccumulateRoughCal$10$E:
    2004 0000034f       L32:    
    2005 0000034f       DW$L$_AccumulateRoughCal$11$B:
    2006 0000034f 0A44          INC       *-SP[4]               ; |586| 
    2007 00000350 9244          MOV       AL,*-SP[4]
    2008 00000351 521C          CMPB      AL,#28                ; |586| 
    2009                      .dwpsn  "mancal.c",612,0
    2010 00000352 56C4          BF        L30,LT                ; |586| 
         00000353 FFB3 
    2011                      ; branchcc occurs ; |586| 
    2012 00000354       DW$L$_AccumulateRoughCal$11$E:
    2013 00000354 2DA3          MOV       T,AR3                 ; |613| 
    2014 00000355 8F00-         MOVL      XAR4,#_calibration+314 ; |613| 
         00000356 017A 
    2015 00000357 3538          MPYB      ACC,T,#56             ; |613| 
    2016 00000358 5601          ADDL      XAR4,ACC
         00000359 00A4 
    2017 0000035a 3B01          SETC      SXM
    2018 0000035b 9243          MOV       AL,*-SP[3]            ; |613| 
    2019 0000035c 0EA9          MOVU      ACC,AL
    2020 0000035d 5601          ADDL      *+XAR4[0],ACC         ; |613| 
         0000035e 00C4 
    2021 0000035f 5603          MOV       ACC,AR3 << 1          ; |614| 
         00000360 01A3 
    2022 00000361 8F00-         MOVL      XAR4,#_calibration+8  ; |614| 
         00000362 0048 
    2023 00000363 5601          ADDL      XAR4,ACC
         00000364 00A4 
    2024 00000365 0201          MOVB      ACC,#1
    2025 00000366 5601          ADDL      *+XAR4[0],ACC         ; |614| 
         00000367 00C4 
    2026 00000368       L33:    
    2027 00000368 FE86          SUBB      SP,#6
    2028 00000369 82BE          MOVL      XAR3,*--SP
    2029 0000036a 86BE          MOVL      XAR2,*--SP
    2030 0000036b 8BBE          MOVL      XAR1,*--SP
    2031                      .dwpsn  "mancal.c",617,1
    2032 0000036c 0006          LRETR
    2033                      ; return occurs
    2034              
    2035              DW$144  .dwtag  DW_TAG_loop
    2036                      .dwattr DW$144, DW_AT_name("D:\DEV\Amot\BearingWear\XTSW_V6_20\mancal.asm:L30:1:1471518980")
    2037                      .dwattr DW$144, DW_AT_begin_file("mancal.c")
    2038                      .dwattr DW$144, DW_AT_begin_line(0x24a)
    2039                      .dwattr DW$144, DW_AT_end_line(0x264)
    2040              DW$145  .dwtag  DW_TAG_loop_range
    2041                      .dwattr DW$145, DW_AT_low_pc(DW$L$_AccumulateRoughCal$5$B)
    2042                      .dwattr DW$145, DW_AT_high_pc(DW$L$_AccumulateRoughCal$5$E)
    2043              DW$146  .dwtag  DW_TAG_loop_range
    2044                      .dwattr DW$146, DW_AT_low_pc(DW$L$_AccumulateRoughCal$7$B)
    2045                      .dwattr DW$146, DW_AT_high_pc(DW$L$_AccumulateRoughCal$7$E)
    2046              DW$147  .dwtag  DW_TAG_loop_range
    2047                      .dwattr DW$147, DW_AT_low_pc(DW$L$_AccumulateRoughCal$6$B)
TMS320C2000 COFF Assembler PC v4.1.3 Thu Aug 18 12:16:20 2016

Tools Copyright (c) 1996-2006 Texas Instruments Incorporated
mancal.asm                                                           PAGE   43

    2048                      .dwattr DW$147, DW_AT_high_pc(DW$L$_AccumulateRoughCal$6$E)
    2049              DW$148  .dwtag  DW_TAG_loop_range
    2050                      .dwattr DW$148, DW_AT_low_pc(DW$L$_AccumulateRoughCal$8$B)
    2051                      .dwattr DW$148, DW_AT_high_pc(DW$L$_AccumulateRoughCal$8$E)
    2052              DW$149  .dwtag  DW_TAG_loop_range
    2053                      .dwattr DW$149, DW_AT_low_pc(DW$L$_AccumulateRoughCal$9$B)
    2054                      .dwattr DW$149, DW_AT_high_pc(DW$L$_AccumulateRoughCal$9$E)
    2055              DW$150  .dwtag  DW_TAG_loop_range
    2056                      .dwattr DW$150, DW_AT_low_pc(DW$L$_AccumulateRoughCal$10$B)
    2057                      .dwattr DW$150, DW_AT_high_pc(DW$L$_AccumulateRoughCal$10$E)
    2058              DW$151  .dwtag  DW_TAG_loop_range
    2059                      .dwattr DW$151, DW_AT_low_pc(DW$L$_AccumulateRoughCal$11$B)
    2060                      .dwattr DW$151, DW_AT_high_pc(DW$L$_AccumulateRoughCal$11$E)
    2061                      .dwendtag DW$144
    2062              
    2063                      .dwattr DW$141, DW_AT_end_file("mancal.c")
    2064                      .dwattr DW$141, DW_AT_end_line(0x269)
    2065                      .dwattr DW$141, DW_AT_end_column(0x01)
    2066                      .dwendtag DW$141
    2067              
    2068 0000036d               .sect   ".text"
    2069                      .global _RealRoughCal
    2070              
    2071              DW$152  .dwtag  DW_TAG_subprogram, DW_AT_name("RealRoughCal"), DW_AT_symbol_name("_RealRoughCal")
    2072                      .dwattr DW$152, DW_AT_low_pc(_RealRoughCal)
    2073                      .dwattr DW$152, DW_AT_high_pc(0x00)
    2074                      .dwattr DW$152, DW_AT_begin_file("mancal.c")
    2075                      .dwattr DW$152, DW_AT_begin_line(0x26b)
    2076                      .dwattr DW$152, DW_AT_begin_column(0x06)
    2077                      .dwattr DW$152, DW_AT_frame_base[DW_OP_breg20 -8]
    2078                      .dwattr DW$152, DW_AT_skeletal(0x01)
    2079                      .dwpsn  "mancal.c",620,1
    2080              
    2081              ;***************************************************************
    2082              ;* FNAME: _RealRoughCal                 FR SIZE:   6           *
    2083              ;*                                                             *
    2084              ;* FUNCTION ENVIRONMENT                                        *
    2085              ;*                                                             *
    2086              ;* FUNCTION PROPERTIES                                         *
    2087              ;*                            2 Parameter,  0 Auto,  4 SOE     *
    2088              ;***************************************************************
    2089              
    2090              _RealRoughCal:
    2091              ;* AL    assigned to _index
    2092              DW$153  .dwtag  DW_TAG_formal_parameter, DW_AT_name("index"), DW_AT_symbol_name("_index")
    2093                      .dwattr DW$153, DW_AT_type(*DW$T$10)
    2094                      .dwattr DW$153, DW_AT_location[DW_OP_reg0]
    2095              ;* AH    assigned to _rpm
    2096              DW$154  .dwtag  DW_TAG_formal_parameter, DW_AT_name("rpm"), DW_AT_symbol_name("_rpm")
    2097                      .dwattr DW$154, DW_AT_type(*DW$T$11)
    2098                      .dwattr DW$154, DW_AT_location[DW_OP_reg1]
    2099 0000036d B2BD          MOVL      *SP++,XAR1
    2100 0000036e 761F!         MOVW      DP,#_settings+34
         0000036f 0000 
    2101 00000370 28AC          MOV       T,#12000              ; |622| 
TMS320C2000 COFF Assembler PC v4.1.3 Thu Aug 18 12:16:20 2016

Tools Copyright (c) 1996-2006 Texas Instruments Incorporated
mancal.asm                                                           PAGE   44

         00000371 2EE0 
    2102 00000372 AABD          MOVL      *SP++,XAR2
    2103 00000373 59A9          MOVZ      AR1,AL                ; |620| 
    2104 00000374 2822!         MOV       @_settings+34,#1      ; |621| 
         00000375 0001 
    2105 00000376 5AA8          MOVZ      AR2,AH                ; |620| 
    2106 00000377 761F-         MOVW      DP,#_speedcompcoeffs+9
         00000378 000D 
    2107 00000379 3023-         MPYXU     ACC,T,@_speedcompcoeffs+9 ; |622| 
    2108 0000037a FE02          ADDB      SP,#2
    2109 0000037b 761F!         MOVW      DP,#_timers+46
         0000037c 0000 
    2110 0000037d 0F2E!         CMPL      ACC,@_timers+46       ; |622| 
    2111 0000037e 56C9          BF        L40,LOS               ; |622| 
         0000037f 0068 
    2112                      ; branchcc occurs ; |622| 
    2113 00000380 761F!         MOVW      DP,#_allsensors+16
         00000381 0000 
    2114 00000382 4010!         TBIT      @_allsensors+16,#0    ; |629| 
    2115 00000383 EF05          BF        L34,NTC               ; |629| 
    2116                      ; branchcc occurs ; |629| 
    2117 00000384 92A1          MOV       AL,AR1
    2118 00000385 93A2          MOV       AH,AR2                ; |631| 
    2119 00000386 7640'         LCR       #_AccumulateRoughCal  ; |631| 
         00000387 02E6 
    2120                      ; call occurs [#_AccumulateRoughCal] ; |631| 
    2121 00000388       L34:    
    2122 00000388 FF20          MOV       ACC,#6000             ; |634| 
         00000389 1770 
    2123 0000038a 761F!         MOVW      DP,#_timers+46
         0000038b 0000 
    2124 0000038c 0F2E!         CMPL      ACC,@_timers+46       ; |634| 
    2125 0000038d 56C8          BF        L39,LO                ; |634| 
         0000038e 0054 
    2126                      ; branchcc occurs ; |634| 
    2127 0000038f 761F-         MOVW      DP,#_bSamplingFinished
         00000390 0000 
    2128 00000391 923F-         MOV       AL,@_bSamplingFinished ; |636| 
    2129 00000392 ED1D          BF        L38,NEQ               ; |636| 
    2130                      ; branchcc occurs ; |636| 
    2131 00000393 761F-         MOVW      DP,#_CalRpm
         00000394 000D 
    2132 00000395 7A36-         MOV       @_CalRpm,AR2          ; |638| 
    2133 00000396 92A1          MOV       AL,AR1                ; |640| 
    2134 00000397 761F-         MOVW      DP,#_bSamplingFinished
         00000398 0000 
    2135 00000399 283F-         MOV       @_bSamplingFinished,#1 ; |640| 
         0000039a 0001 
    2136 0000039b EC0B          BF        L36,EQ                ; |641| 
    2137                      ; branchcc occurs ; |641| 
    2138 0000039c 5201          CMPB      AL,#1                 ; |642| 
    2139 0000039d EC05          BF        L35,EQ                ; |642| 
    2140                      ; branchcc occurs ; |642| 
    2141 0000039e 7640'         LCR       #_Stage3CalCurve      ; |643| 
         0000039f 06F4 
TMS320C2000 COFF Assembler PC v4.1.3 Thu Aug 18 12:16:20 2016

Tools Copyright (c) 1996-2006 Texas Instruments Incorporated
mancal.asm                                                           PAGE   45

    2142                      ; call occurs [#_Stage3CalCurve] ; |643| 
    2143 000003a0 56CF          BF        L37,UNC               ; |643| 
         000003a1 0008 
    2144                      ; branch occurs ; |643| 
    2145 000003a2       L35:    
    2146 000003a2 7640'         LCR       #_SecondStageCalCurve ; |642| 
         000003a3 062F 
    2147                      ; call occurs [#_SecondStageCalCurve] ; |642| 
    2148 000003a4 56CF          BF        L37,UNC               ; |642| 
         000003a5 0004 
    2149                      ; branch occurs ; |642| 
    2150 000003a6       L36:    
    2151 000003a6 7640'         LCR       #_FirstStageCalCurve  ; |641| 
         000003a7 058A 
    2152                      ; call occurs [#_FirstStageCalCurve] ; |641| 
    2153 000003a8       L37:    
    2154 000003a8 761F-         MOVW      DP,#_mancal+3
         000003a9 0000 
    2155 000003aa 283B-         MOV       @_mancal+3,#1         ; |644| 
         000003ab 0001 
    2156 000003ac 761F-         MOVW      DP,#_bReadyToSampling
         000003ad 0000 
    2157 000003ae 2B3E-         MOV       @_bReadyToSampling,#0 ; |646| 
    2158 000003af       L38:    
    2159 000003af 761F-         MOVW      DP,#_CalRpm
         000003b0 000D 
    2160 000003b1 9236-         MOV       AL,@_CalRpm           ; |649| 
    2161 000003b2 7640!         LCR       #U$$TOFS              ; |649| 
         000003b3 0000 
    2162                      ; call occurs [#U$$TOFS] ; |649| 
    2163 000003b4 1E42          MOVL      *-SP[2],ACC           ; |649| 
    2164 000003b5 9A00          MOV       AL,#0
    2165 000003b6 28A8          MOV       AH,#17302
         000003b7 4396 
    2166 000003b8 7640!         LCR       #FS$$DIV              ; |649| 
         000003b9 0000 
    2167                      ; call occurs [#FS$$DIV] ; |649| 
    2168 000003ba 1EA6          MOVL      XAR6,ACC              ; |649| 
    2169 000003bb 9A00          MOV       AL,#0
    2170 000003bc 28A8          MOV       AH,#17224
         000003bd 4348 
    2171 000003be 1E42          MOVL      *-SP[2],ACC           ; |649| 
    2172 000003bf 06A6          MOVL      ACC,XAR6              ; |649| 
    2173 000003c0 7640!         LCR       #FS$$MPY              ; |649| 
         000003c1 0000 
    2174                      ; call occurs [#FS$$MPY] ; |649| 
    2175 000003c2 7640!         LCR       #FS$$TOUL             ; |649| 
         000003c3 0000 
    2176                      ; call occurs [#FS$$TOUL] ; |649| 
    2177 000003c4 8F00          MOVL      XAR4,#6000            ; |649| 
         000003c5 1770 
    2178 000003c6 A8AB          MOVL      P,XAR4                ; |649| 
    2179 000003c7 5641          SUBL      P,ACC
         000003c8 00AB 
    2180 000003c9 761F!         MOVW      DP,#_timers+46
TMS320C2000 COFF Assembler PC v4.1.3 Thu Aug 18 12:16:20 2016

Tools Copyright (c) 1996-2006 Texas Instruments Incorporated
mancal.asm                                                           PAGE   46

         000003ca 0000 
    2181 000003cb A9A9          MOVL      ACC,P                 ; |649| 
    2182 000003cc 0F2E!         CMPL      ACC,@_timers+46       ; |649| 
    2183 000003cd 56C6          BF        L39,HI                ; |649| 
         000003ce 0014 
    2184                      ; branchcc occurs ; |649| 
    2185 000003cf 92A1          MOV       AL,AR1
    2186 000003d0 ED18          BF        L41,NEQ               ; |651| 
    2187                      ; branchcc occurs ; |651| 
    2188 000003d1 FF20          MOV       ACC,#5500             ; |651| 
         000003d2 157C 
    2189 000003d3 761F!         MOVW      DP,#_timers+46
         000003d4 0000 
    2190 000003d5 0F2E!         CMPL      ACC,@_timers+46       ; |651| 
    2191 000003d6 56C9          BF        L41,LOS               ; |651| 
         000003d7 0012 
    2192                      ; branchcc occurs ; |651| 
    2193 000003d8 9A01          MOVB      AL,#1                 ; |651| 
    2194 000003d9 761F-         MOVW      DP,#_iStartRapidWear
         000003da 000D 
    2195 000003db 9638-         MOV       @_iStartRapidWear,AL  ; |651| 
    2196 000003dc 761F-         MOVW      DP,#_iRepaidWearReset
         000003dd 000D 
    2197 000003de 9637-         MOV       @_iRepaidWearReset,AL ; |651| 
    2198 000003df 56CF          BF        L42,UNC               ; |651| 
         000003e0 000D 
    2199                      ; branch occurs ; |651| 
    2200 000003e1       L39:    
    2201 000003e1 761F-         MOVW      DP,#_iRepaidWearReset
         000003e2 000D 
    2202 000003e3 2B37-         MOV       @_iRepaidWearReset,#0 ; |667| 
    2203 000003e4 56CF          BF        L42,UNC               ; |667| 
         000003e5 0008 
    2204                      ; branch occurs ; |667| 
    2205 000003e6       L40:    
    2206 000003e6 92A1          MOV       AL,AR1
    2207 000003e7 EC05          BF        L42,EQ                ; |624| 
    2208                      ; branchcc occurs ; |624| 
    2209 000003e8       L41:    
    2210 000003e8 761F-         MOVW      DP,#_iRepaidWearReset
         000003e9 000D 
    2211 000003ea 2837-         MOV       @_iRepaidWearReset,#1 ; |624| 
         000003eb 0001 
    2212 000003ec       L42:    
    2213 000003ec FE82          SUBB      SP,#2
    2214 000003ed 86BE          MOVL      XAR2,*--SP
    2215 000003ee 8BBE          MOVL      XAR1,*--SP
    2216                      .dwpsn  "mancal.c",677,1
    2217 000003ef 0006          LRETR
    2218                      ; return occurs
    2219                      .dwattr DW$152, DW_AT_end_file("mancal.c")
    2220                      .dwattr DW$152, DW_AT_end_line(0x2a5)
    2221                      .dwattr DW$152, DW_AT_end_column(0x01)
    2222                      .dwendtag DW$152
    2223              
TMS320C2000 COFF Assembler PC v4.1.3 Thu Aug 18 12:16:20 2016

Tools Copyright (c) 1996-2006 Texas Instruments Incorporated
mancal.asm                                                           PAGE   47

    2224 000003f0               .sect   ".text"
    2225                      .global _RoughCal
    2226              
    2227              DW$155  .dwtag  DW_TAG_subprogram, DW_AT_name("RoughCal"), DW_AT_symbol_name("_RoughCal")
    2228                      .dwattr DW$155, DW_AT_low_pc(_RoughCal)
    2229                      .dwattr DW$155, DW_AT_high_pc(0x00)
    2230                      .dwattr DW$155, DW_AT_begin_file("mancal.c")
    2231                      .dwattr DW$155, DW_AT_begin_line(0x2aa)
    2232                      .dwattr DW$155, DW_AT_begin_column(0x06)
    2233                      .dwattr DW$155, DW_AT_frame_base[DW_OP_breg20 -2]
    2234                      .dwattr DW$155, DW_AT_skeletal(0x01)
    2235                      .dwpsn  "mancal.c",683,1
    2236              
    2237              ;***************************************************************
    2238              ;* FNAME: _RoughCal                     FR SIZE:   0           *
    2239              ;*                                                             *
    2240              ;* FUNCTION ENVIRONMENT                                        *
    2241              ;*                                                             *
    2242              ;* FUNCTION PROPERTIES                                         *
    2243              ;*                            0 Parameter,  0 Auto,  0 SOE     *
    2244              ;***************************************************************
    2245              
    2246 000003f0       _RoughCal:
    2247 000003f0 9A00          MOVB      AL,#0
    2248 000003f1 7640!         LCR       #_GetModalRPM         ; |687| 
         000003f2 0000 
    2249                      ; call occurs [#_GetModalRPM] ; |687| 
    2250 000003f3 761F!         MOVW      DP,#_motion+4
         000003f4 0000 
    2251 000003f5 93A9          MOV       AH,AL                 ; |687| 
    2252 000003f6 9204!         MOV       AL,@_motion+4         ; |690| 
    2253 000003f7 ED2D          BF        L46,NEQ               ; |690| 
    2254                      ; branchcc occurs ; |690| 
    2255 000003f8 761F-         MOVW      DP,#_speedcompcoeffs
         000003f9 000D 
    2256 000003fa 921A-         MOV       AL,@_speedcompcoeffs  ; |690| 
    2257 000003fb 5202          CMPB      AL,#2                 ; |690| 
    2258 000003fc EC1D          BF        L45,EQ                ; |690| 
    2259                      ; branchcc occurs ; |690| 
    2260 000003fd 5204          CMPB      AL,#4                 ; |690| 
    2261 000003fe EC10          BF        L44,EQ                ; |690| 
    2262                      ; branchcc occurs ; |690| 
    2263 000003ff 5206          CMPB      AL,#6                 ; |690| 
    2264 00000400 ED27          BF        L47,NEQ               ; |690| 
    2265                      ; branchcc occurs ; |690| 
    2266 00000401 8F00-         MOVL      XAR4,#_calibration+1  ; |716| 
         00000402 0041 
    2267 00000403 55E4          CMP       AH,*+XAR4[4]          ; |716| 
    2268 00000404 56C8          BF        L46,LO                ; |716| 
         00000405 0020 
    2269                      ; branchcc occurs ; |716| 
    2270 00000406 55EC          CMP       AH,*+XAR4[5]          ; |716| 
    2271 00000407 56C6          BF        L46,HI                ; |716| 
         00000408 001D 
    2272                      ; branchcc occurs ; |716| 
TMS320C2000 COFF Assembler PC v4.1.3 Thu Aug 18 12:16:20 2016

Tools Copyright (c) 1996-2006 Texas Instruments Incorporated
mancal.asm                                                           PAGE   48

    2273 00000409 9A02          MOVB      AL,#2                 ; |718| 
    2274 0000040a       L43:    
    2275 0000040a 7640'         LCR       #_RealRoughCal        ; |718| 
         0000040b 036D 
    2276                      ; call occurs [#_RealRoughCal] ; |718| 
    2277 0000040c 56CF          BF        L47,UNC               ; |719| 
         0000040d 001B 
    2278                      ; branch occurs ; |719| 
    2279 0000040e       L44:    
    2280 0000040e 8F00-         MOVL      XAR4,#_calibration+1  ; |706| 
         0000040f 0041 
    2281 00000410 55D4          CMP       AH,*+XAR4[2]          ; |706| 
    2282 00000411 56C8          BF        L46,LO                ; |706| 
         00000412 0013 
    2283                      ; branchcc occurs ; |706| 
    2284 00000413 55DC          CMP       AH,*+XAR4[3]          ; |706| 
    2285 00000414 56C6          BF        L46,HI                ; |706| 
         00000415 0010 
    2286                      ; branchcc occurs ; |706| 
    2287 00000416 9A01          MOVB      AL,#1                 ; |708| 
    2288 00000417 56CF          BF        L43,UNC               ; |709| 
         00000418 FFF3 
    2289                      ; branch occurs ; |709| 
    2290 00000419       L45:    
    2291 00000419 8F00-         MOVL      XAR4,#_calibration+1  ; |693| 
         0000041a 0041 
    2292 0000041b 55C4          CMP       AH,*+XAR4[0]          ; |693| 
    2293 0000041c 56C8          BF        L46,LO                ; |693| 
         0000041d 0008 
    2294                      ; branchcc occurs ; |693| 
    2295 0000041e 55CC          CMP       AH,*+XAR4[1]          ; |693| 
    2296 0000041f 56C6          BF        L46,HI                ; |693| 
         00000420 0005 
    2297                      ; branchcc occurs ; |693| 
    2298 00000421 9A00          MOVB      AL,#0
    2299 00000422 56CF          BF        L43,UNC               ; |696| 
         00000423 FFE8 
    2300                      ; branch occurs ; |696| 
    2301 00000424       L46:    
    2302 00000424 761F!         MOVW      DP,#_settings+34
         00000425 0000 
    2303 00000426 2B22!         MOV       @_settings+34,#0      ; |728| 
    2304              L47:    
    2305                      .dwpsn  "mancal.c",729,1
    2306 00000427 0006          LRETR
    2307                      ; return occurs
    2308                      .dwattr DW$155, DW_AT_end_file("mancal.c")
    2309                      .dwattr DW$155, DW_AT_end_line(0x2d9)
    2310                      .dwattr DW$155, DW_AT_end_column(0x01)
    2311                      .dwendtag DW$155
    2312              
    2313 00000428               .sect   ".text"
    2314                      .global _CalProgression
    2315              
    2316              DW$156  .dwtag  DW_TAG_subprogram, DW_AT_name("CalProgression"), DW_AT_symbol_name("_CalProgression")
TMS320C2000 COFF Assembler PC v4.1.3 Thu Aug 18 12:16:20 2016

Tools Copyright (c) 1996-2006 Texas Instruments Incorporated
mancal.asm                                                           PAGE   49

    2317                      .dwattr DW$156, DW_AT_low_pc(_CalProgression)
    2318                      .dwattr DW$156, DW_AT_high_pc(0x00)
    2319                      .dwattr DW$156, DW_AT_begin_file("mancal.c")
    2320                      .dwattr DW$156, DW_AT_begin_line(0x2e0)
    2321                      .dwattr DW$156, DW_AT_begin_column(0x06)
    2322                      .dwattr DW$156, DW_AT_frame_base[DW_OP_breg20 -8]
    2323                      .dwattr DW$156, DW_AT_skeletal(0x01)
    2324                      .dwpsn  "mancal.c",737,1
    2325              
    2326              ;***************************************************************
    2327              ;* FNAME: _CalProgression               FR SIZE:   6           *
    2328              ;*                                                             *
    2329              ;* FUNCTION ENVIRONMENT                                        *
    2330              ;*                                                             *
    2331              ;* FUNCTION PROPERTIES                                         *
    2332              ;*                            2 Parameter,  0 Auto,  4 SOE     *
    2333              ;***************************************************************
    2334              
    2335 00000428       _CalProgression:
    2336 00000428 B2BD          MOVL      *SP++,XAR1
    2337 00000429 761F!         MOVW      DP,#_timers+46
         0000042a 0000 
    2338 0000042b AABD          MOVL      *SP++,XAR2
    2339 0000042c 062E!         MOVL      ACC,@_timers+46       ; |744| 
    2340 0000042d FE02          ADDB      SP,#2
    2341 0000042e 56C0          BF        L63,NEQ               ; |744| 
         0000042f 0158 
    2342                      ; branchcc occurs ; |744| 
    2343 00000430 9A00          MOVB      AL,#0
    2344 00000431 7640!         LCR       #_GetModalRPM         ; |748| 
         00000432 0000 
    2345                      ; call occurs [#_GetModalRPM] ; |748| 
    2346 00000433 5AA9          MOVZ      AR2,AL                ; |748| 
    2347 00000434 761F-         MOVW      DP,#_speedcompcoeffs
         00000435 000D 
    2348 00000436 921A-         MOV       AL,@_speedcompcoeffs  ; |749| 
    2349 00000437 5205          CMPB      AL,#5                 ; |749| 
    2350 00000438 56C2          BF        L48,GT                ; |749| 
         00000439 0011 
    2351                      ; branchcc occurs ; |749| 
    2352 0000043a 5205          CMPB      AL,#5                 ; |749| 
    2353 0000043b EC1B          BF        L49,EQ                ; |749| 
    2354                      ; branchcc occurs ; |749| 
    2355 0000043c 5201          CMPB      AL,#1                 ; |749| 
    2356 0000043d 56C1          BF        L59,EQ                ; |749| 
         0000043e 00FE 
    2357                      ; branchcc occurs ; |749| 
    2358 0000043f 5202          CMPB      AL,#2                 ; |749| 
    2359 00000440 56C1          BF        L57,EQ                ; |749| 
         00000441 00F2 
    2360                      ; branchcc occurs ; |749| 
    2361 00000442 5203          CMPB      AL,#3                 ; |749| 
    2362 00000443 EC4E          BF        L50,EQ                ; |749| 
    2363                      ; branchcc occurs ; |749| 
    2364 00000444 5204          CMPB      AL,#4                 ; |749| 
TMS320C2000 COFF Assembler PC v4.1.3 Thu Aug 18 12:16:20 2016

Tools Copyright (c) 1996-2006 Texas Instruments Incorporated
mancal.asm                                                           PAGE   50

    2365 00000445 56C1          BF        L56,EQ                ; |749| 
         00000446 00E7 
    2366                      ; branchcc occurs ; |749| 
    2367 00000447 56CF          BF        L63,UNC               ; |749| 
         00000448 013F 
    2368                      ; branch occurs ; |749| 
    2369 00000449       L48:    
    2370 00000449 5206          CMPB      AL,#6                 ; |749| 
    2371 0000044a 56C1          BF        L55,EQ                ; |749| 
         0000044b 00D8 
    2372                      ; branchcc occurs ; |749| 
    2373 0000044c 5207          CMPB      AL,#7                 ; |749| 
    2374 0000044d 56C1          BF        L54,EQ                ; |749| 
         0000044e 00CF 
    2375                      ; branchcc occurs ; |749| 
    2376 0000044f 5208          CMPB      AL,#8                 ; |749| 
    2377 00000450 56C1          BF        L53,EQ                ; |749| 
         00000451 009F 
    2378                      ; branchcc occurs ; |749| 
    2379 00000452 5209          CMPB      AL,#9                 ; |749| 
    2380 00000453 EC79          BF        L51,EQ                ; |749| 
    2381                      ; branchcc occurs ; |749| 
    2382 00000454 56CF          BF        L63,UNC               ; |749| 
         00000455 0132 
    2383                      ; branch occurs ; |749| 
    2384 00000456       L49:    
    2385 00000456 761F!         MOVW      DP,#_settings+34
         00000457 0000 
    2386 00000458 2B22!         MOV       @_settings+34,#0      ; |807| 
    2387 00000459 92A2          MOV       AL,AR2                ; |810| 
    2388 0000045a 8F00-         MOVL      XAR4,#_calibration+1  ; |810| 
         0000045b 0041 
    2389 0000045c 761F-         MOVW      DP,#_bSamplingFinished
         0000045d 0000 
    2390 0000045e 2B3F-         MOV       @_bSamplingFinished,#0 ; |808| 
    2391 0000045f 761F-         MOVW      DP,#_bReadyToSampling
         00000460 0000 
    2392 00000461 2B3E-         MOV       @_bReadyToSampling,#0 ; |809| 
    2393 00000462 54E4          CMP       AL,*+XAR4[4]          ; |810| 
    2394 00000463 56C8          BF        L63,LO                ; |810| 
         00000464 0123 
    2395                      ; branchcc occurs ; |810| 
    2396 00000465 54EC          CMP       AL,*+XAR4[5]          ; |810| 
    2397 00000466 56C6          BF        L63,HI                ; |810| 
         00000467 0120 
    2398                      ; branchcc occurs ; |810| 
    2399 00000468 761F-         MOVW      DP,#_CalRpm
         00000469 000D 
    2400 0000046a 7A36-         MOV       @_CalRpm,AR2          ; |817| 
    2401 0000046b 7640!         LCR       #U$$TOFS              ; |818| 
         0000046c 0000 
    2402                      ; call occurs [#U$$TOFS] ; |818| 
    2403 0000046d 1E42          MOVL      *-SP[2],ACC           ; |818| 
    2404 0000046e 9A00          MOV       AL,#0
    2405 0000046f 28A8          MOV       AH,#17302
TMS320C2000 COFF Assembler PC v4.1.3 Thu Aug 18 12:16:20 2016

Tools Copyright (c) 1996-2006 Texas Instruments Incorporated
mancal.asm                                                           PAGE   51

         00000470 4396 
    2406 00000471 7640!         LCR       #FS$$DIV              ; |818| 
         00000472 0000 
    2407                      ; call occurs [#FS$$DIV] ; |818| 
    2408 00000473 1EA6          MOVL      XAR6,ACC              ; |818| 
    2409 00000474 9A00          MOV       AL,#0
    2410 00000475 28A8          MOV       AH,#17224
         00000476 4348 
    2411 00000477 1E42          MOVL      *-SP[2],ACC           ; |818| 
    2412 00000478 06A6          MOVL      ACC,XAR6              ; |818| 
    2413 00000479 7640!         LCR       #FS$$MPY              ; |818| 
         0000047a 0000 
    2414                      ; call occurs [#FS$$MPY] ; |818| 
    2415 0000047b 7640!         LCR       #FS$$TOUL             ; |818| 
         0000047c 0000 
    2416                      ; call occurs [#FS$$TOUL] ; |818| 
    2417 0000047d 761F-         MOVW      DP,#_wFiveResulotionInMs
         0000047e 000D 
    2418 0000047f 1E34-         MOVL      @_wFiveResulotionInMs,ACC ; |818| 
    2419 00000480 28AC          MOV       T,#12000              ; |819| 
         00000481 2EE0 
    2420 00000482 1EA6          MOVL      XAR6,ACC              ; |818| 
    2421 00000483 761F-         MOVW      DP,#_speedcompcoeffs+9
         00000484 000D 
    2422 00000485 3023-         MPYXU     ACC,T,@_speedcompcoeffs+9 ; |819| 
    2423 00000486 761F!         MOVW      DP,#_timers+46
         00000487 0000 
    2424 00000488 07A6          ADDL      ACC,XAR6
    2425 00000489 1E2E!         MOVL      @_timers+46,ACC       ; |819| 
    2426 0000048a 761F-         MOVW      DP,#_speedcompcoeffs
         0000048b 000D 
    2427 0000048c 9A08          MOVB      AL,#8                 ; |822| 
    2428 0000048d 281A-         MOV       @_speedcompcoeffs,#6  ; |821| 
         0000048e 0006 
    2429 0000048f 56CF          BF        L62,UNC               ; |822| 
         00000490 00F5 
    2430                      ; branch occurs ; |822| 
    2431 00000491       L50:    
    2432 00000491 761F!         MOVW      DP,#_settings+34
         00000492 0000 
    2433 00000493 2B22!         MOV       @_settings+34,#0      ; |781| 
    2434 00000494 92A2          MOV       AL,AR2                ; |784| 
    2435 00000495 8F00-         MOVL      XAR4,#_calibration+1  ; |784| 
         00000496 0041 
    2436 00000497 761F-         MOVW      DP,#_bSamplingFinished
         00000498 0000 
    2437 00000499 2B3F-         MOV       @_bSamplingFinished,#0 ; |782| 
    2438 0000049a 761F-         MOVW      DP,#_bReadyToSampling
         0000049b 0000 
    2439 0000049c 2B3E-         MOV       @_bReadyToSampling,#0 ; |783| 
    2440 0000049d 54D4          CMP       AL,*+XAR4[2]          ; |784| 
    2441 0000049e 56C8          BF        L63,LO                ; |784| 
         0000049f 00E8 
    2442                      ; branchcc occurs ; |784| 
    2443 000004a0 54DC          CMP       AL,*+XAR4[3]          ; |784| 
TMS320C2000 COFF Assembler PC v4.1.3 Thu Aug 18 12:16:20 2016

Tools Copyright (c) 1996-2006 Texas Instruments Incorporated
mancal.asm                                                           PAGE   52

    2444 000004a1 56C6          BF        L63,HI                ; |784| 
         000004a2 00E5 
    2445                      ; branchcc occurs ; |784| 
    2446 000004a3 761F-         MOVW      DP,#_CalRpm
         000004a4 000D 
    2447 000004a5 7A36-         MOV       @_CalRpm,AR2          ; |791| 
    2448 000004a6 7640!         LCR       #U$$TOFS              ; |792| 
         000004a7 0000 
    2449                      ; call occurs [#U$$TOFS] ; |792| 
    2450 000004a8 1E42          MOVL      *-SP[2],ACC           ; |792| 
    2451 000004a9 9A00          MOV       AL,#0
    2452 000004aa 28A8          MOV       AH,#17302
         000004ab 4396 
    2453 000004ac 7640!         LCR       #FS$$DIV              ; |792| 
         000004ad 0000 
    2454                      ; call occurs [#FS$$DIV] ; |792| 
    2455 000004ae 1EA6          MOVL      XAR6,ACC              ; |792| 
    2456 000004af 9A00          MOV       AL,#0
    2457 000004b0 28A8          MOV       AH,#17224
         000004b1 4348 
    2458 000004b2 1E42          MOVL      *-SP[2],ACC           ; |792| 
    2459 000004b3 06A6          MOVL      ACC,XAR6              ; |792| 
    2460 000004b4 7640!         LCR       #FS$$MPY              ; |792| 
         000004b5 0000 
    2461                      ; call occurs [#FS$$MPY] ; |792| 
    2462 000004b6 7640!         LCR       #FS$$TOUL             ; |792| 
         000004b7 0000 
    2463                      ; call occurs [#FS$$TOUL] ; |792| 
    2464 000004b8 761F-         MOVW      DP,#_wFiveResulotionInMs
         000004b9 000D 
    2465 000004ba 1E34-         MOVL      @_wFiveResulotionInMs,ACC ; |792| 
    2466 000004bb 28AC          MOV       T,#12000              ; |793| 
         000004bc 2EE0 
    2467 000004bd 1EA6          MOVL      XAR6,ACC              ; |792| 
    2468 000004be 761F-         MOVW      DP,#_speedcompcoeffs+9
         000004bf 000D 
    2469 000004c0 3023-         MPYXU     ACC,T,@_speedcompcoeffs+9 ; |793| 
    2470 000004c1 761F!         MOVW      DP,#_timers+46
         000004c2 0000 
    2471 000004c3 07A6          ADDL      ACC,XAR6
    2472 000004c4 1E2E!         MOVL      @_timers+46,ACC       ; |793| 
    2473 000004c5 761F-         MOVW      DP,#_speedcompcoeffs
         000004c6 000D 
    2474 000004c7 9A07          MOVB      AL,#7                 ; |796| 
    2475 000004c8 281A-         MOV       @_speedcompcoeffs,#4  ; |795| 
         000004c9 0004 
    2476 000004ca 56CF          BF        L62,UNC               ; |796| 
         000004cb 00BA 
    2477                      ; branch occurs ; |796| 
    2478 000004cc       L51:    
    2479 000004cc 761F-         MOVW      DP,#_speedcompcoeffs
         000004cd 000D 
    2480 000004ce 281A-         MOV       @_speedcompcoeffs,#10 ; |865| 
         000004cf 000A 
    2481 000004d0 761F!         MOVW      DP,#_allsensors+16
TMS320C2000 COFF Assembler PC v4.1.3 Thu Aug 18 12:16:20 2016

Tools Copyright (c) 1996-2006 Texas Instruments Incorporated
mancal.asm                                                           PAGE   53

         000004d1 0000 
    2482 000004d2 1810!         AND       @_allsensors+16,#0xfffd ; |866| 
         000004d3 FFFD 
    2483 000004d4 7640'         LCR       #_WriteSpeedCompStructtoNVMEM ; |867| 
         000004d5 005E 
    2484                      ; call occurs [#_WriteSpeedCompStructtoNVMEM] ; |867| 
    2485                      .dwpsn  "mancal.c",869,0
    2486 000004d6 D100          MOVB      XAR1,#0
    2487              L52:    
    2488              DW$L$_CalProgression$21$B:
    2489                      .dwpsn  "mancal.c",870,0
    2490 000004d7 92A1          MOV       AL,AR1                ; |871| 
    2491 000004d8 7640!         LCR       #_Status1Flags        ; |871| 
         000004d9 0000 
    2492                      ; call occurs [#_Status1Flags] ; |871| 
    2493 000004da 18C4          AND       *+XAR4[0],#0xfffd     ; |872| 
         000004db FFFD 
    2494 000004dc 92A1          MOV       AL,AR1                ; |873| 
    2495 000004dd 7640!         LCR       #_WriteSensorStatustoNVMEM ; |873| 
         000004de 0000 
    2496                      ; call occurs [#_WriteSensorStatustoNVMEM] ; |873| 
    2497 000004df D901          ADDB      XAR1,#1               ; |869| 
    2498 000004e0 92A1          MOV       AL,AR1                ; |869| 
    2499 000004e1 521C          CMPB      AL,#28                ; |869| 
    2500                      .dwpsn  "mancal.c",874,0
    2501 000004e2 56C8          BF        L52,LO                ; |869| 
         000004e3 FFF5 
    2502                      ; branchcc occurs ; |869| 
    2503 000004e4       DW$L$_CalProgression$21$E:
    2504 000004e4 7640!         LCR       #_SensorStatustoSDCardFile ; |875| 
         000004e5 0000 
    2505                      ; call occurs [#_SensorStatustoSDCardFile] ; |875| 
    2506 000004e6 7640!         LCR       #_SetupNormalModeAlarmLevels ; |876| 
         000004e7 0000 
    2507                      ; call occurs [#_SetupNormalModeAlarmLevels] ; |876| 
    2508 000004e8 7640!         LCR       #_PreWarningInit      ; |877| 
         000004e9 0000 
    2509                      ; call occurs [#_PreWarningInit] ; |877| 
    2510 000004ea 9A01          MOVB      AL,#1                 ; |878| 
    2511 000004eb 7640!         LCR       #_CalibrationtdUpdate ; |878| 
         000004ec 0000 
    2512                      ; call occurs [#_CalibrationtdUpdate] ; |878| 
    2513 000004ed 56CF          BF        L63,UNC               ; |880| 
         000004ee 0099 
    2514                      ; branch occurs ; |880| 
    2515 000004ef       L53:    
    2516 000004ef 761F-         MOVW      DP,#_speedcompcoeffs+15
         000004f0 000D 
    2517 000004f1 9229-         MOV       AL,@_speedcompcoeffs+15 ; |842| 
    2518 000004f2 7640'         LCR       #_FineCurveCalInterpolation ; |842| 
         000004f3 0B8C 
    2519                      ; call occurs [#_FineCurveCalInterpolation] ; |842| 
    2520 000004f4 761F!         MOVW      DP,#_sdsettings+1
         000004f5 0000 
    2521 000004f6 0A01!         INC       @_sdsettings+1        ; |846| 
TMS320C2000 COFF Assembler PC v4.1.3 Thu Aug 18 12:16:20 2016

Tools Copyright (c) 1996-2006 Texas Instruments Incorporated
mancal.asm                                                           PAGE   54

    2522 000004f7 761F!         MOVW      DP,#_sdsettings+1
         000004f8 0000 
    2523 000004f9 9201!         MOV       AL,@_sdsettings+1     ; |846| 
    2524 000004fa 8F00!         MOVL      XAR4,#_sdcarddir+18   ; |846| 
         000004fb 0012 
    2525 000004fc 9CFF          ADDB      AL,#-1
    2526 000004fd 7640!         LCR       #_MANCompTabletoSDCardFile ; |846| 
         000004fe 0000 
    2527                      ; call occurs [#_MANCompTabletoSDCardFile] ; |846| 
    2528 000004ff 9A00          MOVB      AL,#0
    2529 00000500 8F00!         MOVL      XAR4,#_sdcarddir+27   ; |847| 
         00000501 001B 
    2530 00000502 7640!         LCR       #_MANCompTabletoSDCardFile ; |847| 
         00000503 0000 
    2531                      ; call occurs [#_MANCompTabletoSDCardFile] ; |847| 
    2532 00000504 7640!         LCR       #_WriteMANCompTabletoNVMEM ; |850| 
         00000505 0000 
    2533                      ; call occurs [#_WriteMANCompTabletoNVMEM] ; |850| 
    2534 00000506 761F-         MOVW      DP,#_speedcompcoeffs
         00000507 000D 
    2535 00000508 281A-         MOV       @_speedcompcoeffs,#9  ; |852| 
         00000509 0009 
    2536 0000050a 7640'         LCR       #_WriteSpeedCompStructtoNVMEM ; |853| 
         0000050b 005E 
    2537                      ; call occurs [#_WriteSpeedCompStructtoNVMEM] ; |853| 
    2538 0000050c 761F!         MOVW      DP,#_timers+46
         0000050d 0000 
    2539 0000050e 8F00          MOVL      XAR4,#6000            ; |854| 
         0000050f 1770 
    2540 00000510 A82E!         MOVL      @_timers+46,XAR4      ; |854| 
    2541 00000511 7640!         LCR       #_SetupNormalModeAlarmLevels ; |855| 
         00000512 0000 
    2542                      ; call occurs [#_SetupNormalModeAlarmLevels] ; |855| 
    2543 00000513 761F-         MOVW      DP,#_mancal+3
         00000514 0000 
    2544 00000515 283B-         MOV       @_mancal+3,#1         ; |857| 
         00000516 0001 
    2545 00000517 7640'         LCR       #_ClearCalAveragingAlarm ; |858| 
         00000518 0B5C 
    2546                      ; call occurs [#_ClearCalAveragingAlarm] ; |858| 
    2547 00000519 9A09          MOVB      AL,#9                 ; |861| 
    2548 0000051a 56CF          BF        L62,UNC               ; |862| 
         0000051b 006A 
    2549                      ; branch occurs ; |862| 
    2550 0000051c       L54:    
    2551 0000051c 761F-         MOVW      DP,#_speedcompcoeffs
         0000051d 000D 
    2552 0000051e 281A-         MOV       @_speedcompcoeffs,#8  ; |838| 
         0000051f 0008 
    2553 00000520 56CF          BF        L63,UNC               ; |839| 
         00000521 0066 
    2554                      ; branch occurs ; |839| 
    2555 00000522       L55:    
    2556 00000522 761F-         MOVW      DP,#_speedcompcoeffs
         00000523 000D 
TMS320C2000 COFF Assembler PC v4.1.3 Thu Aug 18 12:16:20 2016

Tools Copyright (c) 1996-2006 Texas Instruments Incorporated
mancal.asm                                                           PAGE   55

    2557 00000524 281A-         MOV       @_speedcompcoeffs,#7  ; |827| 
         00000525 0007 
    2558 00000526 7640'         LCR       #_WriteSpeedCompStructtoNVMEM ; |828| 
         00000527 005E 
    2559                      ; call occurs [#_WriteSpeedCompStructtoNVMEM] ; |828| 
    2560 00000528 7640'         LCR       #_FineCalModeInit     ; |829| 
         00000529 0869 
    2561                      ; call occurs [#_FineCalModeInit] ; |829| 
    2562 0000052a 56CF          BF        L63,UNC               ; |833| 
         0000052b 005C 
    2563                      ; branch occurs ; |833| 
    2564 0000052c       L56:    
    2565 0000052c 761F-         MOVW      DP,#_speedcompcoeffs
         0000052d 000D 
    2566 0000052e 281A-         MOV       @_speedcompcoeffs,#5  ; |802| 
         0000052f 0005 
    2567 00000530 56CF          BF        L58,UNC               ; |805| 
         00000531 0006 
    2568                      ; branch occurs ; |805| 
    2569 00000532       L57:    
    2570 00000532 761F-         MOVW      DP,#_speedcompcoeffs
         00000533 000D 
    2571 00000534 281A-         MOV       @_speedcompcoeffs,#3  ; |776| 
         00000535 0003 
    2572 00000536       L58:    
    2573 00000536 761F!         MOVW      DP,#_settings+34
         00000537 0000 
    2574 00000538 2B22!         MOV       @_settings+34,#0      ; |773| 
    2575 00000539 56CF          BF        L63,UNC               ; |779| 
         0000053a 004D 
    2576                      ; branch occurs ; |779| 
    2577 0000053b       L59:    
    2578 0000053b 761F!         MOVW      DP,#_settings+34
         0000053c 0000 
    2579 0000053d 2B22!         MOV       @_settings+34,#0      ; |752| 
    2580 0000053e 8F00!         MOVL      XAR4,#_damagemonignore ; |755| 
         0000053f 0000 
    2581 00000540 761F-         MOVW      DP,#_bSamplingFinished
         00000541 0000 
    2582 00000542 2B3F-         MOV       @_bSamplingFinished,#0 ; |753| 
    2583 00000543 761F-         MOVW      DP,#_bReadyToSampling
         00000544 0000 
    2584 00000545 2B3E-         MOV       @_bReadyToSampling,#0 ; |754| 
    2585                      .dwpsn  "mancal.c",755,0
    2586 00000546 D100          MOVB      XAR1,#0
    2587 00000547       L60:    
    2588 00000547       DW$L$_CalProgression$30$B:
    2589 00000547 289C          MOV       *+XAR4[AR1],#3        ; |755| 
         00000548 0003 
    2590 00000549 D901          ADDB      XAR1,#1               ; |755| 
    2591 0000054a 92A1          MOV       AL,AR1                ; |755| 
    2592 0000054b 521C          CMPB      AL,#28                ; |755| 
    2593 0000054c 56C8          BF        L60,LO                ; |755| 
         0000054d FFFB 
    2594                      ; branchcc occurs ; |755| 
TMS320C2000 COFF Assembler PC v4.1.3 Thu Aug 18 12:16:20 2016

Tools Copyright (c) 1996-2006 Texas Instruments Incorporated
mancal.asm                                                           PAGE   56

    2595 0000054e       DW$L$_CalProgression$30$E:
    2596 0000054e 761F!         MOVW      DP,#_damagemonignore
         0000054f 0000 
    2597 00000550 9200!         MOV       AL,@_damagemonignore  ; |756| 
    2598 00000551 ED03          BF        L61,NEQ               ; |756| 
    2599                      ; branchcc occurs ; |756| 
    2600 00000552 7640!         LCR       #_ClearEventCodeListArea ; |756| 
         00000553 0000 
    2601                      ; call occurs [#_ClearEventCodeListArea] ; |756| 
    2602 00000554       L61:    
    2603 00000554 92A2          MOV       AL,AR2                ; |757| 
    2604 00000555 8F00-         MOVL      XAR4,#_calibration+1  ; |757| 
         00000556 0041 
    2605 00000557 54C4          CMP       AL,*+XAR4[0]          ; |757| 
    2606 00000558 56C8          BF        L63,LO                ; |757| 
         00000559 002E 
    2607                      ; branchcc occurs ; |757| 
    2608 0000055a 54CC          CMP       AL,*+XAR4[1]          ; |757| 
    2609 0000055b 56C6          BF        L63,HI                ; |757| 
         0000055c 002B 
    2610                      ; branchcc occurs ; |757| 
    2611 0000055d 761F-         MOVW      DP,#_CalRpm
         0000055e 000D 
    2612 0000055f 7A36-         MOV       @_CalRpm,AR2          ; |764| 
    2613 00000560 7640!         LCR       #U$$TOFS              ; |765| 
         00000561 0000 
    2614                      ; call occurs [#U$$TOFS] ; |765| 
    2615 00000562 1E42          MOVL      *-SP[2],ACC           ; |765| 
    2616 00000563 9A00          MOV       AL,#0
    2617 00000564 28A8          MOV       AH,#17302
         00000565 4396 
    2618 00000566 7640!         LCR       #FS$$DIV              ; |765| 
         00000567 0000 
    2619                      ; call occurs [#FS$$DIV] ; |765| 
    2620 00000568 1EA6          MOVL      XAR6,ACC              ; |765| 
    2621 00000569 9A00          MOV       AL,#0
    2622 0000056a 28A8          MOV       AH,#17224
         0000056b 4348 
    2623 0000056c 1E42          MOVL      *-SP[2],ACC           ; |765| 
    2624 0000056d 06A6          MOVL      ACC,XAR6              ; |765| 
    2625 0000056e 7640!         LCR       #FS$$MPY              ; |765| 
         0000056f 0000 
    2626                      ; call occurs [#FS$$MPY] ; |765| 
    2627 00000570 7640!         LCR       #FS$$TOUL             ; |765| 
         00000571 0000 
    2628                      ; call occurs [#FS$$TOUL] ; |765| 
    2629 00000572 761F-         MOVW      DP,#_wFiveResulotionInMs
         00000573 000D 
    2630 00000574 1E34-         MOVL      @_wFiveResulotionInMs,ACC ; |765| 
    2631 00000575 28AC          MOV       T,#12000              ; |766| 
         00000576 2EE0 
    2632 00000577 1EA6          MOVL      XAR6,ACC              ; |765| 
    2633 00000578 761F-         MOVW      DP,#_speedcompcoeffs+9
         00000579 000D 
    2634 0000057a 3023-         MPYXU     ACC,T,@_speedcompcoeffs+9 ; |766| 
TMS320C2000 COFF Assembler PC v4.1.3 Thu Aug 18 12:16:20 2016

Tools Copyright (c) 1996-2006 Texas Instruments Incorporated
mancal.asm                                                           PAGE   57

    2635 0000057b 761F!         MOVW      DP,#_timers+46
         0000057c 0000 
    2636 0000057d 07A6          ADDL      ACC,XAR6
    2637 0000057e 1E2E!         MOVL      @_timers+46,ACC       ; |766| 
    2638 0000057f 761F-         MOVW      DP,#_speedcompcoeffs
         00000580 000D 
    2639 00000581 9A06          MOVB      AL,#6                 ; |769| 
    2640 00000582 281A-         MOV       @_speedcompcoeffs,#2  ; |768| 
         00000583 0002 
    2641 00000584       L62:    
    2642 00000584 7640!         LCR       #_SetBitEvent         ; |769| 
         00000585 0000 
    2643                      ; call occurs [#_SetBitEvent] ; |769| 
    2644 00000586       L63:    
    2645 00000586 FE82          SUBB      SP,#2
    2646 00000587 86BE          MOVL      XAR2,*--SP
    2647 00000588 8BBE          MOVL      XAR1,*--SP
    2648                      .dwpsn  "mancal.c",886,1
    2649 00000589 0006          LRETR
    2650                      ; return occurs
    2651              
    2652              DW$157  .dwtag  DW_TAG_loop
    2653                      .dwattr DW$157, DW_AT_name("D:\DEV\Amot\BearingWear\XTSW_V6_20\mancal.asm:L60:1:1471518980")
    2654                      .dwattr DW$157, DW_AT_begin_file("mancal.c")
    2655                      .dwattr DW$157, DW_AT_begin_line(0x2f3)
    2656                      .dwattr DW$157, DW_AT_end_line(0x2f3)
    2657              DW$158  .dwtag  DW_TAG_loop_range
    2658                      .dwattr DW$158, DW_AT_low_pc(DW$L$_CalProgression$30$B)
    2659                      .dwattr DW$158, DW_AT_high_pc(DW$L$_CalProgression$30$E)
    2660                      .dwendtag DW$157
    2661              
    2662              
    2663              DW$159  .dwtag  DW_TAG_loop
    2664                      .dwattr DW$159, DW_AT_name("D:\DEV\Amot\BearingWear\XTSW_V6_20\mancal.asm:L52:1:1471518980")
    2665                      .dwattr DW$159, DW_AT_begin_file("mancal.c")
    2666                      .dwattr DW$159, DW_AT_begin_line(0x365)
    2667                      .dwattr DW$159, DW_AT_end_line(0x36a)
    2668              DW$160  .dwtag  DW_TAG_loop_range
    2669                      .dwattr DW$160, DW_AT_low_pc(DW$L$_CalProgression$21$B)
    2670                      .dwattr DW$160, DW_AT_high_pc(DW$L$_CalProgression$21$E)
    2671                      .dwendtag DW$159
    2672              
    2673                      .dwattr DW$156, DW_AT_end_file("mancal.c")
    2674                      .dwattr DW$156, DW_AT_end_line(0x376)
    2675                      .dwattr DW$156, DW_AT_end_column(0x01)
    2676                      .dwendtag DW$156
    2677              
    2678 0000058a               .sect   ".text"
    2679                      .global _FirstStageCalCurve
    2680              
    2681              DW$161  .dwtag  DW_TAG_subprogram, DW_AT_name("FirstStageCalCurve"), DW_AT_symbol_name("_FirstStageCalCurve")
    2682                      .dwattr DW$161, DW_AT_low_pc(_FirstStageCalCurve)
    2683                      .dwattr DW$161, DW_AT_high_pc(0x00)
    2684                      .dwattr DW$161, DW_AT_begin_file("mancal.c")
    2685                      .dwattr DW$161, DW_AT_begin_line(0x382)
TMS320C2000 COFF Assembler PC v4.1.3 Thu Aug 18 12:16:20 2016

Tools Copyright (c) 1996-2006 Texas Instruments Incorporated
mancal.asm                                                           PAGE   58

    2686                      .dwattr DW$161, DW_AT_begin_column(0x06)
    2687                      .dwattr DW$161, DW_AT_frame_base[DW_OP_breg20 -16]
    2688                      .dwattr DW$161, DW_AT_skeletal(0x01)
    2689                      .dwpsn  "mancal.c",899,1
    2690              
    2691              ;***************************************************************
    2692              ;* FNAME: _FirstStageCalCurve           FR SIZE:  14           *
    2693              ;*                                                             *
    2694              ;* FUNCTION ENVIRONMENT                                        *
    2695              ;*                                                             *
    2696              ;* FUNCTION PROPERTIES                                         *
    2697              ;*                            4 Parameter,  4 Auto,  6 SOE     *
    2698              ;***************************************************************
    2699              
    2700 0000058a       _FirstStageCalCurve:
    2701 0000058a B2BD          MOVL      *SP++,XAR1
    2702 0000058b 761F!         MOVW      DP,#_allsensors+3
         0000058c 0000 
    2703 0000058d AABD          MOVL      *SP++,XAR2
    2704 0000058e A2BD          MOVL      *SP++,XAR3
    2705 0000058f FE08          ADDB      SP,#8
    2706 00000590 9203!         MOV       AL,@_allsensors+3     ; |910| 
    2707 00000591 7640!         LCR       #U$$TOFS              ; |910| 
         00000592 0000 
    2708                      ; call occurs [#U$$TOFS] ; |910| 
    2709 00000593 86A9          MOVL      XAR2,ACC              ; |910| 
    2710 00000594 28A9          MOV       AL,#52429
         00000595 CCCD 
    2711 00000596 28A8          MOV       AH,#16268
         00000597 3F8C 
    2712 00000598 1E42          MOVL      *-SP[2],ACC           ; |910| 
    2713 00000599 AAA9          MOVL      ACC,XAR2              ; |910| 
    2714 0000059a 7640!         LCR       #FS$$MPY              ; |910| 
         0000059b 0000 
    2715                      ; call occurs [#FS$$MPY] ; |910| 
    2716 0000059c 7640!         LCR       #FS$$TOU              ; |910| 
         0000059d 0000 
    2717                      ; call occurs [#FS$$TOU] ; |910| 
    2718 0000059e 59A9          MOVZ      AR1,AL                ; |910| 
    2719 0000059f 9645          MOV       *-SP[5],AL            ; |910| 
    2720 000005a0 28A9          MOV       AL,#52429
         000005a1 CCCD 
    2721 000005a2 28A8          MOV       AH,#15948
         000005a3 3E4C 
    2722 000005a4 1E42          MOVL      *-SP[2],ACC           ; |911| 
    2723 000005a5 AAA9          MOVL      ACC,XAR2              ; |911| 
    2724 000005a6 7640!         LCR       #FS$$MPY              ; |911| 
         000005a7 0000 
    2725                      ; call occurs [#FS$$MPY] ; |911| 
    2726 000005a8 7640!         LCR       #FS$$TOU              ; |911| 
         000005a9 0000 
    2727                      ; call occurs [#FS$$TOU] ; |911| 
    2728 000005aa 5BA9          MOVZ      AR3,AL                ; |911| 
    2729 000005ab 9646          MOV       *-SP[6],AL            ; |911| 
    2730 000005ac 761F-         MOVW      DP,#_speedcompcoeffs+8
TMS320C2000 COFF Assembler PC v4.1.3 Thu Aug 18 12:16:20 2016

Tools Copyright (c) 1996-2006 Texas Instruments Incorporated
mancal.asm                                                           PAGE   59

         000005ad 000D 
    2731 000005ae 9222-         MOV       AL,@_speedcompcoeffs+8 ; |912| 
    2732 000005af 7640!         LCR       #U$$TOFS              ; |912| 
         000005b0 0000 
    2733                      ; call occurs [#U$$TOFS] ; |912| 
    2734 000005b1 86A9          MOVL      XAR2,ACC              ; |912| 
    2735 000005b2 92A1          MOV       AL,AR1                ; |912| 
    2736 000005b3 9EA3          SUB       AL,AR3                ; |912| 
    2737 000005b4 7640!         LCR       #U$$TOFS              ; |912| 
         000005b5 0000 
    2738                      ; call occurs [#U$$TOFS] ; |912| 
    2739 000005b6 1E42          MOVL      *-SP[2],ACC           ; |912| 
    2740 000005b7 AAA9          MOVL      ACC,XAR2              ; |912| 
    2741 000005b8 7640!         LCR       #FS$$DIV              ; |912| 
         000005b9 0000 
    2742                      ; call occurs [#FS$$DIV] ; |912| 
    2743 000005ba 761F-         MOVW      DP,#_calibration+314
         000005bb 0005 
    2744 000005bc 86A9          MOVL      XAR2,ACC              ; |912| 
    2745 000005bd 063A-         MOVL      ACC,@_calibration+314 ; |916| 
    2746 000005be 7640!         LCR       #L$$TOFS              ; |916| 
         000005bf 0000 
    2747                      ; call occurs [#L$$TOFS] ; |916| 
    2748 000005c0 761F-         MOVW      DP,#_calibration+8
         000005c1 0001 
    2749 000005c2 8BA9          MOVL      XAR1,ACC              ; |916| 
    2750 000005c3 0608-         MOVL      ACC,@_calibration+8   ; |916| 
    2751 000005c4 7640!         LCR       #UL$$TOFS             ; |916| 
         000005c5 0000 
    2752                      ; call occurs [#UL$$TOFS] ; |916| 
    2753 000005c6 1E42          MOVL      *-SP[2],ACC           ; |916| 
    2754 000005c7 B2A9          MOVL      ACC,XAR1              ; |916| 
    2755 000005c8 7640!         LCR       #FS$$DIV              ; |916| 
         000005c9 0000 
    2756                      ; call occurs [#FS$$DIV] ; |916| 
    2757 000005ca 8BA9          MOVL      XAR1,ACC              ; |916| 
    2758 000005cb 9246          MOV       AL,*-SP[6]            ; |916| 
    2759 000005cc 7640!         LCR       #U$$TOFS              ; |916| 
         000005cd 0000 
    2760                      ; call occurs [#U$$TOFS] ; |916| 
    2761 000005ce 1E42          MOVL      *-SP[2],ACC           ; |916| 
    2762 000005cf B2A9          MOVL      ACC,XAR1              ; |916| 
    2763 000005d0 7640!         LCR       #FS$$SUB              ; |916| 
         000005d1 0000 
    2764                      ; call occurs [#FS$$SUB] ; |916| 
    2765 000005d2 1E48          MOVL      *-SP[8],ACC           ; |916| 
    2766                      .dwpsn  "mancal.c",918,0
    2767 000005d3 D100          MOVB      XAR1,#0
    2768              L64:    
    2769              DW$L$_FirstStageCalCurve$3$B:
    2770                      .dwpsn  "mancal.c",919,0
    2771 000005d4 92A1          MOV       AL,AR1                ; |920| 
    2772 000005d5 7640!         LCR       #_GetStatus2Flags     ; |920| 
         000005d6 0000 
    2773                      ; call occurs [#_GetStatus2Flags] ; |920| 
TMS320C2000 COFF Assembler PC v4.1.3 Thu Aug 18 12:16:20 2016

Tools Copyright (c) 1996-2006 Texas Instruments Incorporated
mancal.asm                                                           PAGE   60

    2774 000005d7 28AC          MOV       T,#18                 ; |921| 
         000005d8 0012 
    2775 000005d9 88C4          MOVZ      AR6,*+XAR4[0]         ; |920| 
    2776 000005da 30A1          MPYXU     ACC,T,AR1             ; |921| 
    2777 000005db 8F00!         MOVL      XAR4,#_sensor         ; |921| 
         000005dc 0000 
    2778 000005dd 5601          ADDL      XAR4,ACC
         000005de 00A4 
    2779 000005df 93C4          MOV       AH,*+XAR4[0]          ; |921| 
    2780 000005e0 CCA8          AND       AL,AH,#0x0001         ; |921| 
         000005e1 0001 
    2781 000005e2 EC2D          BF        L65,EQ                ; |921| 
    2782                      ; branchcc occurs ; |921| 
    2783 000005e3       DW$L$_FirstStageCalCurve$3$E:
    2784 000005e3       DW$L$_FirstStageCalCurve$4$B:
    2785 000005e3 9102          ANDB      AH,#2                 ; |921| 
    2786 000005e4 EC2B          BF        L65,EQ                ; |921| 
    2787                      ; branchcc occurs ; |921| 
    2788 000005e5       DW$L$_FirstStageCalCurve$4$E:
    2789 000005e5       DW$L$_FirstStageCalCurve$5$B:
    2790 000005e5 CCA6          AND       AL,AR6,#0x0001        ; |921| 
         000005e6 0001 
    2791 000005e7 ED28          BF        L65,NEQ               ; |921| 
    2792                      ; branchcc occurs ; |921| 
    2793 000005e8       DW$L$_FirstStageCalCurve$5$E:
    2794 000005e8       DW$L$_FirstStageCalCurve$6$B:
    2795 000005e8 0EA1          MOVU      ACC,AR1
    2796 000005e9 8F00-         MOVL      XAR4,#_calibration+482 ; |932| 
         000005ea 0222 
    2797 000005eb FF30          LSL       ACC,1                 ; |932| 
    2798 000005ec 5601          ADDL      XAR4,ACC
         000005ed 00A4 
    2799 000005ee 06C4          MOVL      ACC,*+XAR4[0]         ; |932| 
    2800 000005ef 7640!         LCR       #L$$TOFS              ; |932| 
         000005f0 0000 
    2801                      ; call occurs [#L$$TOFS] ; |932| 
    2802 000005f1 761F-         MOVW      DP,#_calibration+8
         000005f2 0001 
    2803 000005f3 82A9          MOVL      XAR3,ACC              ; |932| 
    2804 000005f4 0608-         MOVL      ACC,@_calibration+8   ; |932| 
    2805 000005f5 7640!         LCR       #UL$$TOFS             ; |932| 
         000005f6 0000 
    2806                      ; call occurs [#UL$$TOFS] ; |932| 
    2807 000005f7 1E42          MOVL      *-SP[2],ACC           ; |932| 
    2808 000005f8 A2A9          MOVL      ACC,XAR3              ; |932| 
    2809 000005f9 7640!         LCR       #FS$$DIV              ; |932| 
         000005fa 0000 
    2810                      ; call occurs [#FS$$DIV] ; |932| 
    2811 000005fb 82A9          MOVL      XAR3,ACC              ; |932| 
    2812 000005fc 0648          MOVL      ACC,*-SP[8]           ; |932| 
    2813 000005fd 1E42          MOVL      *-SP[2],ACC           ; |932| 
    2814 000005fe AAA9          MOVL      ACC,XAR2              ; |932| 
    2815 000005ff 7640!         LCR       #FS$$MPY              ; |932| 
         00000600 0000 
    2816                      ; call occurs [#FS$$MPY] ; |932| 
TMS320C2000 COFF Assembler PC v4.1.3 Thu Aug 18 12:16:20 2016

Tools Copyright (c) 1996-2006 Texas Instruments Incorporated
mancal.asm                                                           PAGE   61

    2817 00000601 1E42          MOVL      *-SP[2],ACC           ; |932| 
    2818 00000602 A2A9          MOVL      ACC,XAR3              ; |932| 
    2819 00000603 7640!         LCR       #FS$$SUB              ; |932| 
         00000604 0000 
    2820                      ; call occurs [#FS$$SUB] ; |932| 
    2821 00000605 1EA7          MOVL      XAR7,ACC              ; |932| 
    2822 00000606 9245          MOV       AL,*-SP[5]            ; |932| 
    2823 00000607 9E46          SUB       AL,*-SP[6]            ; |932| 
    2824 00000608 9641          MOV       *-SP[1],AL            ; |932| 
    2825 00000609 AA44          MOVL      *-SP[4],XAR2          ; |932| 
    2826 0000060a 5CA1          MOVZ      AR4,AR1               ; |932| 
    2827 0000060b D500          MOVB      XAR5,#0
    2828 0000060c 06A7          MOVL      ACC,XAR7              ; |932| 
    2829 0000060d 7640'         LCR       #_Interpolate         ; |932| 
         0000060e 0839 
    2830                      ; call occurs [#_Interpolate] ; |932| 
    2831 0000060f       DW$L$_FirstStageCalCurve$6$E:
    2832 0000060f       L65:    
    2833 0000060f       DW$L$_FirstStageCalCurve$7$B:
    2834 0000060f D901          ADDB      XAR1,#1               ; |918| 
    2835 00000610 761F!         MOVW      DP,#_settings
         00000611 0000 
    2836 00000612 92A1          MOV       AL,AR1                ; |918| 
    2837 00000613 2800!         MOV       @_settings,#1         ; |935| 
         00000614 0001 
    2838 00000615 521C          CMPB      AL,#28                ; |918| 
    2839                      .dwpsn  "mancal.c",936,0
    2840 00000616 56C8          BF        L64,LO                ; |918| 
         00000617 FFBE 
    2841                      ; branchcc occurs ; |918| 
    2842 00000618       DW$L$_FirstStageCalCurve$7$E:
    2843 00000618 761F!         MOVW      DP,#_sdsettings+1
         00000619 0000 
    2844 0000061a 0A01!         INC       @_sdsettings+1        ; |937| 
    2845 0000061b 8F00!         MOVL      XAR4,#_sdcarddir      ; |937| 
         0000061c 0000 
    2846 0000061d 761F!         MOVW      DP,#_sdsettings+1
         0000061e 0000 
    2847 0000061f 9201!         MOV       AL,@_sdsettings+1     ; |937| 
    2848 00000620 9CFF          ADDB      AL,#-1
    2849 00000621 7640!         LCR       #_MANCompTabletoSDCardFile ; |937| 
         00000622 0000 
    2850                      ; call occurs [#_MANCompTabletoSDCardFile] ; |937| 
    2851 00000623 9A00          MOVB      AL,#0
    2852 00000624 8F00!         MOVL      XAR4,#_sdcarddir+27   ; |938| 
         00000625 001B 
    2853 00000626 7640!         LCR       #_MANCompTabletoSDCardFile ; |938| 
         00000627 0000 
    2854                      ; call occurs [#_MANCompTabletoSDCardFile] ; |938| 
    2855 00000628 7640!         LCR       #_WriteMANCompTabletoNVMEM ; |939| 
         00000629 0000 
    2856                      ; call occurs [#_WriteMANCompTabletoNVMEM] ; |939| 
    2857 0000062a FE88          SUBB      SP,#8
    2858 0000062b 82BE          MOVL      XAR3,*--SP
    2859 0000062c 86BE          MOVL      XAR2,*--SP
TMS320C2000 COFF Assembler PC v4.1.3 Thu Aug 18 12:16:20 2016

Tools Copyright (c) 1996-2006 Texas Instruments Incorporated
mancal.asm                                                           PAGE   62

    2860 0000062d 8BBE          MOVL      XAR1,*--SP
    2861                      .dwpsn  "mancal.c",940,1
    2862 0000062e 0006          LRETR
    2863                      ; return occurs
    2864              
    2865              DW$162  .dwtag  DW_TAG_loop
    2866                      .dwattr DW$162, DW_AT_name("D:\DEV\Amot\BearingWear\XTSW_V6_20\mancal.asm:L64:1:1471518980")
    2867                      .dwattr DW$162, DW_AT_begin_file("mancal.c")
    2868                      .dwattr DW$162, DW_AT_begin_line(0x396)
    2869                      .dwattr DW$162, DW_AT_end_line(0x3a8)
    2870              DW$163  .dwtag  DW_TAG_loop_range
    2871                      .dwattr DW$163, DW_AT_low_pc(DW$L$_FirstStageCalCurve$3$B)
    2872                      .dwattr DW$163, DW_AT_high_pc(DW$L$_FirstStageCalCurve$3$E)
    2873              DW$164  .dwtag  DW_TAG_loop_range
    2874                      .dwattr DW$164, DW_AT_low_pc(DW$L$_FirstStageCalCurve$4$B)
    2875                      .dwattr DW$164, DW_AT_high_pc(DW$L$_FirstStageCalCurve$4$E)
    2876              DW$165  .dwtag  DW_TAG_loop_range
    2877                      .dwattr DW$165, DW_AT_low_pc(DW$L$_FirstStageCalCurve$5$B)
    2878                      .dwattr DW$165, DW_AT_high_pc(DW$L$_FirstStageCalCurve$5$E)
    2879              DW$166  .dwtag  DW_TAG_loop_range
    2880                      .dwattr DW$166, DW_AT_low_pc(DW$L$_FirstStageCalCurve$6$B)
    2881                      .dwattr DW$166, DW_AT_high_pc(DW$L$_FirstStageCalCurve$6$E)
    2882              DW$167  .dwtag  DW_TAG_loop_range
    2883                      .dwattr DW$167, DW_AT_low_pc(DW$L$_FirstStageCalCurve$7$B)
    2884                      .dwattr DW$167, DW_AT_high_pc(DW$L$_FirstStageCalCurve$7$E)
    2885                      .dwendtag DW$162
    2886              
    2887                      .dwattr DW$161, DW_AT_end_file("mancal.c")
    2888                      .dwattr DW$161, DW_AT_end_line(0x3ac)
    2889                      .dwattr DW$161, DW_AT_end_column(0x01)
    2890                      .dwendtag DW$161
    2891              
    2892 0000062f               .sect   ".text"
    2893                      .global _SecondStageCalCurve
    2894              
    2895              DW$168  .dwtag  DW_TAG_subprogram, DW_AT_name("SecondStageCalCurve"), DW_AT_symbol_name("_SecondStageCalCurve
    2896                      .dwattr DW$168, DW_AT_low_pc(_SecondStageCalCurve)
    2897                      .dwattr DW$168, DW_AT_high_pc(0x00)
    2898                      .dwattr DW$168, DW_AT_begin_file("mancal.c")
    2899                      .dwattr DW$168, DW_AT_begin_line(0x3b0)
    2900                      .dwattr DW$168, DW_AT_begin_column(0x06)
    2901                      .dwattr DW$168, DW_AT_frame_base[DW_OP_breg20 -26]
    2902                      .dwattr DW$168, DW_AT_skeletal(0x01)
    2903                      .dwpsn  "mancal.c",945,1
    2904              
    2905              ;***************************************************************
    2906              ;* FNAME: _SecondStageCalCurve          FR SIZE:  24           *
    2907              ;*                                                             *
    2908              ;* FUNCTION ENVIRONMENT                                        *
    2909              ;*                                                             *
    2910              ;* FUNCTION PROPERTIES                                         *
    2911              ;*                            4 Parameter, 14 Auto,  6 SOE     *
    2912              ;***************************************************************
    2913              
    2914 0000062f       _SecondStageCalCurve:
TMS320C2000 COFF Assembler PC v4.1.3 Thu Aug 18 12:16:20 2016

Tools Copyright (c) 1996-2006 Texas Instruments Incorporated
mancal.asm                                                           PAGE   63

    2915 0000062f B2BD          MOVL      *SP++,XAR1
    2916 00000630 761F!         MOVW      DP,#_allsensors+3
         00000631 0000 
    2917 00000632 AABD          MOVL      *SP++,XAR2
    2918 00000633 A2BD          MOVL      *SP++,XAR3
    2919 00000634 FE12          ADDB      SP,#18
    2920 00000635 9203!         MOV       AL,@_allsensors+3     ; |956| 
    2921 00000636 7640!         LCR       #U$$TOFS              ; |956| 
         00000637 0000 
    2922                      ; call occurs [#U$$TOFS] ; |956| 
    2923 00000638 8BA9          MOVL      XAR1,ACC              ; |956| 
    2924 00000639 28A9          MOV       AL,#52429
         0000063a CCCD 
    2925 0000063b 28A8          MOV       AH,#16268
         0000063c 3F8C 
    2926 0000063d 1E42          MOVL      *-SP[2],ACC           ; |956| 
    2927 0000063e B2A9          MOVL      ACC,XAR1              ; |956| 
    2928 0000063f 7640!         LCR       #FS$$MPY              ; |956| 
         00000640 0000 
    2929                      ; call occurs [#FS$$MPY] ; |956| 
    2930 00000641 7640!         LCR       #FS$$TOU              ; |956| 
         00000642 0000 
    2931                      ; call occurs [#FS$$TOU] ; |956| 
    2932 00000643 964D          MOV       *-SP[13],AL           ; |956| 
    2933 00000644 28A9          MOV       AL,#52429
         00000645 CCCD 
    2934 00000646 28A8          MOV       AH,#15948
         00000647 3E4C 
    2935 00000648 1E42          MOVL      *-SP[2],ACC           ; |957| 
    2936 00000649 B2A9          MOVL      ACC,XAR1              ; |957| 
    2937 0000064a 7640!         LCR       #FS$$MPY              ; |957| 
         0000064b 0000 
    2938                      ; call occurs [#FS$$MPY] ; |957| 
    2939 0000064c 7640!         LCR       #FS$$TOU              ; |957| 
         0000064d 0000 
    2940                      ; call occurs [#FS$$TOU] ; |957| 
    2941 0000064e 8DC0-         MOVL      XAR3,#_calibration+314 ; |960| 
         0000064f 017A 
    2942 00000650 8F00-         MOVL      XAR4,#_calibration+8  ; |960| 
         00000651 0048 
    2943 00000652 5AA9          MOVZ      AR2,AL                ; |957| 
    2944 00000653 964E          MOV       *-SP[14],AL           ; |957| 
    2945 00000654 A850          MOVL      *-SP[16],XAR4         ; |960| 
    2946 00000655 06C3          MOVL      ACC,*+XAR3[0]         ; |960| 
    2947 00000656 7640!         LCR       #L$$TOFS              ; |960| 
         00000657 0000 
    2948                      ; call occurs [#L$$TOFS] ; |960| 
    2949 00000658 8A50          MOVL      XAR4,*-SP[16]         ; |960| 
    2950 00000659 8BA9          MOVL      XAR1,ACC              ; |960| 
    2951 0000065a 06C4          MOVL      ACC,*+XAR4[0]         ; |960| 
    2952 0000065b 7640!         LCR       #UL$$TOFS             ; |960| 
         0000065c 0000 
    2953                      ; call occurs [#UL$$TOFS] ; |960| 
    2954 0000065d 1E42          MOVL      *-SP[2],ACC           ; |960| 
    2955 0000065e B2A9          MOVL      ACC,XAR1              ; |960| 
TMS320C2000 COFF Assembler PC v4.1.3 Thu Aug 18 12:16:20 2016

Tools Copyright (c) 1996-2006 Texas Instruments Incorporated
mancal.asm                                                           PAGE   64

    2956 0000065f 7640!         LCR       #FS$$DIV              ; |960| 
         00000660 0000 
    2957                      ; call occurs [#FS$$DIV] ; |960| 
    2958 00000661 8BA9          MOVL      XAR1,ACC              ; |960| 
    2959 00000662 1E4C          MOVL      *-SP[12],ACC          ; |960| 
    2960 00000663 92A2          MOV       AL,AR2                ; |960| 
    2961 00000664 7640!         LCR       #U$$TOFS              ; |961| 
         00000665 0000 
    2962                      ; call occurs [#U$$TOFS] ; |961| 
    2963 00000666 1E42          MOVL      *-SP[2],ACC           ; |961| 
    2964 00000667 064C          MOVL      ACC,*-SP[12]          ; |961| 
    2965 00000668 7640!         LCR       #FS$$SUB              ; |961| 
         00000669 0000 
    2966                      ; call occurs [#FS$$SUB] ; |961| 
    2967 0000066a 1E52          MOVL      *-SP[18],ACC          ; |961| 
    2968 0000066b B24C          MOVL      *-SP[12],XAR1         ; |963| 
    2969 0000066c D038          MOVB      XAR0,#56              ; |964| 
    2970 0000066d 0693          MOVL      ACC,*+XAR3[AR0]       ; |964| 
    2971 0000066e 7640!         LCR       #L$$TOFS              ; |964| 
         0000066f 0000 
    2972                      ; call occurs [#L$$TOFS] ; |964| 
    2973 00000670 8A50          MOVL      XAR4,*-SP[16]         ; |964| 
    2974 00000671 8BA9          MOVL      XAR1,ACC              ; |964| 
    2975 00000672 06D4          MOVL      ACC,*+XAR4[2]         ; |964| 
    2976 00000673 7640!         LCR       #UL$$TOFS             ; |964| 
         00000674 0000 
    2977                      ; call occurs [#UL$$TOFS] ; |964| 
    2978 00000675 1E42          MOVL      *-SP[2],ACC           ; |964| 
    2979 00000676 B2A9          MOVL      ACC,XAR1              ; |964| 
    2980 00000677 7640!         LCR       #FS$$DIV              ; |964| 
         00000678 0000 
    2981                      ; call occurs [#FS$$DIV] ; |964| 
    2982 00000679 8DC0-         MOVL      XAR3,#_calibration+8  ; |973| 
         0000067a 0048 
    2983 0000067b 1E4A          MOVL      *-SP[10],ACC          ; |964| 
    2984                      .dwpsn  "mancal.c",966,0
    2985 0000067c D100          MOVB      XAR1,#0
    2986              L66:    
    2987              DW$L$_SecondStageCalCurve$3$B:
    2988                      .dwpsn  "mancal.c",967,0
    2989 0000067d 92A1          MOV       AL,AR1                ; |968| 
    2990 0000067e 7640!         LCR       #_GetStatus2Flags     ; |968| 
         0000067f 0000 
    2991                      ; call occurs [#_GetStatus2Flags] ; |968| 
    2992 00000680 28AC          MOV       T,#18                 ; |969| 
         00000681 0012 
    2993 00000682 88C4          MOVZ      AR6,*+XAR4[0]         ; |968| 
    2994 00000683 30A1          MPYXU     ACC,T,AR1             ; |969| 
    2995 00000684 8F00!         MOVL      XAR4,#_sensor         ; |969| 
         00000685 0000 
    2996 00000686 5601          ADDL      XAR4,ACC
         00000687 00A4 
    2997 00000688 93C4          MOV       AH,*+XAR4[0]          ; |969| 
    2998 00000689 CCA8          AND       AL,AH,#0x0001         ; |969| 
         0000068a 0001 
TMS320C2000 COFF Assembler PC v4.1.3 Thu Aug 18 12:16:20 2016

Tools Copyright (c) 1996-2006 Texas Instruments Incorporated
mancal.asm                                                           PAGE   65

    2999 0000068b EC4D          BF        L68,EQ                ; |969| 
    3000                      ; branchcc occurs ; |969| 
    3001 0000068c       DW$L$_SecondStageCalCurve$3$E:
    3002 0000068c       DW$L$_SecondStageCalCurve$4$B:
    3003 0000068c 9102          ANDB      AH,#2                 ; |971| 
    3004 0000068d EC47          BF        L67,EQ                ; |971| 
    3005                      ; branchcc occurs ; |971| 
    3006 0000068e       DW$L$_SecondStageCalCurve$4$E:
    3007 0000068e       DW$L$_SecondStageCalCurve$5$B:
    3008 0000068e CCA6          AND       AL,AR6,#0x0001        ; |971| 
         0000068f 0001 
    3009 00000690 ED44          BF        L67,NEQ               ; |971| 
    3010                      ; branchcc occurs ; |971| 
    3011 00000691       DW$L$_SecondStageCalCurve$5$E:
    3012 00000691       DW$L$_SecondStageCalCurve$6$B:
    3013 00000691 0EA1          MOVU      ACC,AR1
    3014 00000692 8F00-         MOVL      XAR4,#_calibration+482 ; |973| 
         00000693 0222 
    3015 00000694 FF30          LSL       ACC,1                 ; |973| 
    3016 00000695 5601          ADDL      XAR4,ACC
         00000696 00A4 
    3017 00000697 86A4          MOVL      XAR2,XAR4             ; |973| 
    3018 00000698 06C2          MOVL      ACC,*+XAR2[0]         ; |973| 
    3019 00000699 7640!         LCR       #L$$TOFS              ; |973| 
         0000069a 0000 
    3020                      ; call occurs [#L$$TOFS] ; |973| 
    3021 0000069b 1E50          MOVL      *-SP[16],ACC          ; |973| 
    3022 0000069c 06C3          MOVL      ACC,*+XAR3[0]         ; |973| 
    3023 0000069d 7640!         LCR       #UL$$TOFS             ; |973| 
         0000069e 0000 
    3024                      ; call occurs [#UL$$TOFS] ; |973| 
    3025 0000069f 1E42          MOVL      *-SP[2],ACC           ; |973| 
    3026 000006a0 0650          MOVL      ACC,*-SP[16]          ; |973| 
    3027 000006a1 7640!         LCR       #FS$$DIV              ; |973| 
         000006a2 0000 
    3028                      ; call occurs [#FS$$DIV] ; |973| 
    3029 000006a3 D038          MOVB      XAR0,#56              ; |974| 
    3030 000006a4 1E48          MOVL      *-SP[8],ACC           ; |973| 
    3031 000006a5 0692          MOVL      ACC,*+XAR2[AR0]       ; |974| 
    3032 000006a6 7640!         LCR       #L$$TOFS              ; |974| 
         000006a7 0000 
    3033                      ; call occurs [#L$$TOFS] ; |974| 
    3034 000006a8 86A9          MOVL      XAR2,ACC              ; |974| 
    3035 000006a9 06D3          MOVL      ACC,*+XAR3[2]         ; |974| 
    3036 000006aa 7640!         LCR       #UL$$TOFS             ; |974| 
         000006ab 0000 
    3037                      ; call occurs [#UL$$TOFS] ; |974| 
    3038 000006ac 1E42          MOVL      *-SP[2],ACC           ; |974| 
    3039 000006ad AAA9          MOVL      ACC,XAR2              ; |974| 
    3040 000006ae 7640!         LCR       #FS$$DIV              ; |974| 
         000006af 0000 
    3041                      ; call occurs [#FS$$DIV] ; |974| 
    3042 000006b0 1E46          MOVL      *-SP[6],ACC           ; |974| 
    3043 000006b1 0648          MOVL      ACC,*-SP[8]           ; |984| 
    3044 000006b2 1E42          MOVL      *-SP[2],ACC           ; |984| 
TMS320C2000 COFF Assembler PC v4.1.3 Thu Aug 18 12:16:20 2016

Tools Copyright (c) 1996-2006 Texas Instruments Incorporated
mancal.asm                                                           PAGE   66

    3045 000006b3 0646          MOVL      ACC,*-SP[6]           ; |984| 
    3046 000006b4 7640!         LCR       #FS$$SUB              ; |984| 
         000006b5 0000 
    3047                      ; call occurs [#FS$$SUB] ; |984| 
    3048 000006b6 86A9          MOVL      XAR2,ACC              ; |984| 
    3049 000006b7 064C          MOVL      ACC,*-SP[12]          ; |984| 
    3050 000006b8 1E42          MOVL      *-SP[2],ACC           ; |984| 
    3051 000006b9 064A          MOVL      ACC,*-SP[10]          ; |984| 
    3052 000006ba 7640!         LCR       #FS$$SUB              ; |984| 
         000006bb 0000 
    3053                      ; call occurs [#FS$$SUB] ; |984| 
    3054 000006bc 1E42          MOVL      *-SP[2],ACC           ; |984| 
    3055 000006bd AAA9          MOVL      ACC,XAR2              ; |984| 
    3056 000006be 7640!         LCR       #FS$$DIV              ; |984| 
         000006bf 0000 
    3057                      ; call occurs [#FS$$DIV] ; |984| 
    3058 000006c0 86A9          MOVL      XAR2,ACC              ; |984| 
    3059 000006c1 0652          MOVL      ACC,*-SP[18]          ; |984| 
    3060 000006c2 1E42          MOVL      *-SP[2],ACC           ; |984| 
    3061 000006c3 AAA9          MOVL      ACC,XAR2              ; |984| 
    3062 000006c4 7640!         LCR       #FS$$MPY              ; |984| 
         000006c5 0000 
    3063                      ; call occurs [#FS$$MPY] ; |984| 
    3064 000006c6 1E42          MOVL      *-SP[2],ACC           ; |984| 
    3065 000006c7 0648          MOVL      ACC,*-SP[8]           ; |984| 
    3066 000006c8 7640!         LCR       #FS$$SUB              ; |984| 
         000006c9 0000 
    3067                      ; call occurs [#FS$$SUB] ; |984| 
    3068 000006ca       DW$L$_SecondStageCalCurve$6$E:
    3069 000006ca       DW$L$_SecondStageCalCurve$7$B:
    3070 000006ca 1EA7          MOVL      XAR7,ACC              ; |984| 
    3071 000006cb 924D          MOV       AL,*-SP[13]           ; |984| 
    3072 000006cc D500          MOVB      XAR5,#0
    3073 000006cd 5CA1          MOVZ      AR4,AR1               ; |984| 
    3074 000006ce 9E4E          SUB       AL,*-SP[14]           ; |984| 
    3075 000006cf 9641          MOV       *-SP[1],AL            ; |984| 
    3076 000006d0 AA44          MOVL      *-SP[4],XAR2          ; |984| 
    3077 000006d1 06A7          MOVL      ACC,XAR7              ; |984| 
    3078 000006d2 7640'         LCR       #_Interpolate         ; |984| 
         000006d3 0839 
    3079                      ; call occurs [#_Interpolate] ; |984| 
    3080 000006d4       DW$L$_SecondStageCalCurve$7$E:
    3081 000006d4       L67:    
    3082 000006d4       DW$L$_SecondStageCalCurve$8$B:
    3083 000006d4 761F!         MOVW      DP,#_settings
         000006d5 0000 
    3084 000006d6 2800!         MOV       @_settings,#1         ; |986| 
         000006d7 0001 
    3085 000006d8       DW$L$_SecondStageCalCurve$8$E:
    3086 000006d8       L68:    
    3087 000006d8       DW$L$_SecondStageCalCurve$9$B:
    3088 000006d8 D901          ADDB      XAR1,#1               ; |966| 
    3089 000006d9 92A1          MOV       AL,AR1                ; |966| 
    3090 000006da 521C          CMPB      AL,#28                ; |966| 
    3091                      .dwpsn  "mancal.c",988,0
TMS320C2000 COFF Assembler PC v4.1.3 Thu Aug 18 12:16:20 2016

Tools Copyright (c) 1996-2006 Texas Instruments Incorporated
mancal.asm                                                           PAGE   67

    3092 000006db 56C8          BF        L66,LO                ; |966| 
         000006dc FFA2 
    3093                      ; branchcc occurs ; |966| 
    3094 000006dd       DW$L$_SecondStageCalCurve$9$E:
    3095 000006dd 761F!         MOVW      DP,#_sdsettings+1
         000006de 0000 
    3096 000006df 0A01!         INC       @_sdsettings+1        ; |989| 
    3097 000006e0 8F00!         MOVL      XAR4,#_sdcarddir      ; |989| 
         000006e1 0000 
    3098 000006e2 761F!         MOVW      DP,#_sdsettings+1
         000006e3 0000 
    3099 000006e4 9201!         MOV       AL,@_sdsettings+1     ; |989| 
    3100 000006e5 9CFF          ADDB      AL,#-1
    3101 000006e6 7640!         LCR       #_MANCompTabletoSDCardFile ; |989| 
         000006e7 0000 
    3102                      ; call occurs [#_MANCompTabletoSDCardFile] ; |989| 
    3103 000006e8 9A00          MOVB      AL,#0
    3104 000006e9 8F00!         MOVL      XAR4,#_sdcarddir+27   ; |990| 
         000006ea 001B 
    3105 000006eb 7640!         LCR       #_MANCompTabletoSDCardFile ; |990| 
         000006ec 0000 
    3106                      ; call occurs [#_MANCompTabletoSDCardFile] ; |990| 
    3107 000006ed 7640!         LCR       #_WriteMANCompTabletoNVMEM ; |991| 
         000006ee 0000 
    3108                      ; call occurs [#_WriteMANCompTabletoNVMEM] ; |991| 
    3109 000006ef FE92          SUBB      SP,#18
    3110 000006f0 82BE          MOVL      XAR3,*--SP
    3111 000006f1 86BE          MOVL      XAR2,*--SP
    3112 000006f2 8BBE          MOVL      XAR1,*--SP
    3113                      .dwpsn  "mancal.c",992,1
    3114 000006f3 0006          LRETR
    3115                      ; return occurs
    3116              
    3117              DW$169  .dwtag  DW_TAG_loop
    3118                      .dwattr DW$169, DW_AT_name("D:\DEV\Amot\BearingWear\XTSW_V6_20\mancal.asm:L66:1:1471518980")
    3119                      .dwattr DW$169, DW_AT_begin_file("mancal.c")
    3120                      .dwattr DW$169, DW_AT_begin_line(0x3c6)
    3121                      .dwattr DW$169, DW_AT_end_line(0x3dc)
    3122              DW$170  .dwtag  DW_TAG_loop_range
    3123                      .dwattr DW$170, DW_AT_low_pc(DW$L$_SecondStageCalCurve$3$B)
    3124                      .dwattr DW$170, DW_AT_high_pc(DW$L$_SecondStageCalCurve$3$E)
    3125              DW$171  .dwtag  DW_TAG_loop_range
    3126                      .dwattr DW$171, DW_AT_low_pc(DW$L$_SecondStageCalCurve$6$B)
    3127                      .dwattr DW$171, DW_AT_high_pc(DW$L$_SecondStageCalCurve$6$E)
    3128              DW$172  .dwtag  DW_TAG_loop_range
    3129                      .dwattr DW$172, DW_AT_low_pc(DW$L$_SecondStageCalCurve$4$B)
    3130                      .dwattr DW$172, DW_AT_high_pc(DW$L$_SecondStageCalCurve$4$E)
    3131              DW$173  .dwtag  DW_TAG_loop_range
    3132                      .dwattr DW$173, DW_AT_low_pc(DW$L$_SecondStageCalCurve$5$B)
    3133                      .dwattr DW$173, DW_AT_high_pc(DW$L$_SecondStageCalCurve$5$E)
    3134              DW$174  .dwtag  DW_TAG_loop_range
    3135                      .dwattr DW$174, DW_AT_low_pc(DW$L$_SecondStageCalCurve$7$B)
    3136                      .dwattr DW$174, DW_AT_high_pc(DW$L$_SecondStageCalCurve$7$E)
    3137              DW$175  .dwtag  DW_TAG_loop_range
    3138                      .dwattr DW$175, DW_AT_low_pc(DW$L$_SecondStageCalCurve$8$B)
TMS320C2000 COFF Assembler PC v4.1.3 Thu Aug 18 12:16:20 2016

Tools Copyright (c) 1996-2006 Texas Instruments Incorporated
mancal.asm                                                           PAGE   68

    3139                      .dwattr DW$175, DW_AT_high_pc(DW$L$_SecondStageCalCurve$8$E)
    3140              DW$176  .dwtag  DW_TAG_loop_range
    3141                      .dwattr DW$176, DW_AT_low_pc(DW$L$_SecondStageCalCurve$9$B)
    3142                      .dwattr DW$176, DW_AT_high_pc(DW$L$_SecondStageCalCurve$9$E)
    3143                      .dwendtag DW$169
    3144              
    3145                      .dwattr DW$168, DW_AT_end_file("mancal.c")
    3146                      .dwattr DW$168, DW_AT_end_line(0x3e0)
    3147                      .dwattr DW$168, DW_AT_end_column(0x01)
    3148                      .dwendtag DW$168
    3149              
    3150 000006f4               .sect   ".text"
    3151                      .global _Stage3CalCurve
    3152              
    3153              DW$177  .dwtag  DW_TAG_subprogram, DW_AT_name("Stage3CalCurve"), DW_AT_symbol_name("_Stage3CalCurve")
    3154                      .dwattr DW$177, DW_AT_low_pc(_Stage3CalCurve)
    3155                      .dwattr DW$177, DW_AT_high_pc(0x00)
    3156                      .dwattr DW$177, DW_AT_begin_file("mancal.c")
    3157                      .dwattr DW$177, DW_AT_begin_line(0x3e4)
    3158                      .dwattr DW$177, DW_AT_begin_column(0x06)
    3159                      .dwattr DW$177, DW_AT_frame_base[DW_OP_breg20 -34]
    3160                      .dwattr DW$177, DW_AT_skeletal(0x01)
    3161                      .dwpsn  "mancal.c",997,1
    3162              
    3163              ;***************************************************************
    3164              ;* FNAME: _Stage3CalCurve               FR SIZE:  32           *
    3165              ;*                                                             *
    3166              ;* FUNCTION ENVIRONMENT                                        *
    3167              ;*                                                             *
    3168              ;* FUNCTION PROPERTIES                                         *
    3169              ;*                            4 Parameter, 22 Auto,  6 SOE     *
    3170              ;***************************************************************
    3171              
    3172 000006f4       _Stage3CalCurve:
    3173 000006f4 B2BD          MOVL      *SP++,XAR1
    3174 000006f5 761F!         MOVW      DP,#_allsensors+3
         000006f6 0000 
    3175 000006f7 AABD          MOVL      *SP++,XAR2
    3176 000006f8 A2BD          MOVL      *SP++,XAR3
    3177 000006f9 FE1A          ADDB      SP,#26
    3178 000006fa 9203!         MOV       AL,@_allsensors+3     ; |1010| 
    3179 000006fb 7640!         LCR       #U$$TOFS              ; |1010| 
         000006fc 0000 
    3180                      ; call occurs [#U$$TOFS] ; |1010| 
    3181 000006fd 8BA9          MOVL      XAR1,ACC              ; |1010| 
    3182 000006fe 28A9          MOV       AL,#52429
         000006ff CCCD 
    3183 00000700 28A8          MOV       AH,#16268
         00000701 3F8C 
    3184 00000702 1E42          MOVL      *-SP[2],ACC           ; |1010| 
    3185 00000703 B2A9          MOVL      ACC,XAR1              ; |1010| 
    3186 00000704 7640!         LCR       #FS$$MPY              ; |1010| 
         00000705 0000 
    3187                      ; call occurs [#FS$$MPY] ; |1010| 
    3188 00000706 7640!         LCR       #FS$$TOU              ; |1010| 
TMS320C2000 COFF Assembler PC v4.1.3 Thu Aug 18 12:16:20 2016

Tools Copyright (c) 1996-2006 Texas Instruments Incorporated
mancal.asm                                                           PAGE   69

         00000707 0000 
    3189                      ; call occurs [#FS$$TOU] ; |1010| 
    3190 00000708 9655          MOV       *-SP[21],AL           ; |1010| 
    3191 00000709 28A9          MOV       AL,#52429
         0000070a CCCD 
    3192 0000070b 28A8          MOV       AH,#15948
         0000070c 3E4C 
    3193 0000070d 1E42          MOVL      *-SP[2],ACC           ; |1011| 
    3194 0000070e B2A9          MOVL      ACC,XAR1              ; |1011| 
    3195 0000070f 7640!         LCR       #FS$$MPY              ; |1011| 
         00000710 0000 
    3196                      ; call occurs [#FS$$MPY] ; |1011| 
    3197 00000711 7640!         LCR       #FS$$TOU              ; |1011| 
         00000712 0000 
    3198                      ; call occurs [#FS$$TOU] ; |1011| 
    3199 00000713 8F00-         MOVL      XAR4,#_calibration+314 ; |1014| 
         00000714 017A 
    3200 00000715 5AA9          MOVZ      AR2,AL                ; |1011| 
    3201 00000716 9656          MOV       *-SP[22],AL           ; |1011| 
    3202 00000717 A858          MOVL      *-SP[24],XAR4         ; |1014| 
    3203 00000718 06C4          MOVL      ACC,*+XAR4[0]         ; |1014| 
    3204 00000719 7640!         LCR       #L$$TOFS              ; |1014| 
         0000071a 0000 
    3205                      ; call occurs [#L$$TOFS] ; |1014| 
    3206 0000071b 8DC0-         MOVL      XAR3,#_calibration+8  ; |1014| 
         0000071c 0048 
    3207 0000071d 8BA9          MOVL      XAR1,ACC              ; |1014| 
    3208 0000071e 06C3          MOVL      ACC,*+XAR3[0]         ; |1014| 
    3209 0000071f 7640!         LCR       #UL$$TOFS             ; |1014| 
         00000720 0000 
    3210                      ; call occurs [#UL$$TOFS] ; |1014| 
    3211 00000721 1E42          MOVL      *-SP[2],ACC           ; |1014| 
    3212 00000722 B2A9          MOVL      ACC,XAR1              ; |1014| 
    3213 00000723 7640!         LCR       #FS$$DIV              ; |1014| 
         00000724 0000 
    3214                      ; call occurs [#FS$$DIV] ; |1014| 
    3215 00000725 8BA9          MOVL      XAR1,ACC              ; |1014| 
    3216 00000726 1E54          MOVL      *-SP[20],ACC          ; |1014| 
    3217 00000727 92A2          MOV       AL,AR2                ; |1014| 
    3218 00000728 7640!         LCR       #U$$TOFS              ; |1015| 
         00000729 0000 
    3219                      ; call occurs [#U$$TOFS] ; |1015| 
    3220 0000072a 1E42          MOVL      *-SP[2],ACC           ; |1015| 
    3221 0000072b 0654          MOVL      ACC,*-SP[20]          ; |1015| 
    3222 0000072c 7640!         LCR       #FS$$SUB              ; |1015| 
         0000072d 0000 
    3223                      ; call occurs [#FS$$SUB] ; |1015| 
    3224 0000072e 8A58          MOVL      XAR4,*-SP[24]         ; |1018| 
    3225 0000072f 1E5A          MOVL      *-SP[26],ACC          ; |1015| 
    3226 00000730 B254          MOVL      *-SP[20],XAR1         ; |1017| 
    3227 00000731 D038          MOVB      XAR0,#56              ; |1018| 
    3228 00000732 0694          MOVL      ACC,*+XAR4[AR0]       ; |1018| 
    3229 00000733 7640!         LCR       #L$$TOFS              ; |1018| 
         00000734 0000 
    3230                      ; call occurs [#L$$TOFS] ; |1018| 
TMS320C2000 COFF Assembler PC v4.1.3 Thu Aug 18 12:16:20 2016

Tools Copyright (c) 1996-2006 Texas Instruments Incorporated
mancal.asm                                                           PAGE   70

    3231 00000735 8BA9          MOVL      XAR1,ACC              ; |1018| 
    3232 00000736 06D3          MOVL      ACC,*+XAR3[2]         ; |1018| 
    3233 00000737 7640!         LCR       #UL$$TOFS             ; |1018| 
         00000738 0000 
    3234                      ; call occurs [#UL$$TOFS] ; |1018| 
    3235 00000739 1E42          MOVL      *-SP[2],ACC           ; |1018| 
    3236 0000073a B2A9          MOVL      ACC,XAR1              ; |1018| 
    3237 0000073b 7640!         LCR       #FS$$DIV              ; |1018| 
         0000073c 0000 
    3238                      ; call occurs [#FS$$DIV] ; |1018| 
    3239 0000073d 8A58          MOVL      XAR4,*-SP[24]         ; |1019| 
    3240 0000073e D070          MOVB      XAR0,#112             ; |1019| 
    3241 0000073f 1E52          MOVL      *-SP[18],ACC          ; |1018| 
    3242 00000740 0694          MOVL      ACC,*+XAR4[AR0]       ; |1019| 
    3243 00000741 7640!         LCR       #L$$TOFS              ; |1019| 
         00000742 0000 
    3244                      ; call occurs [#L$$TOFS] ; |1019| 
    3245 00000743 8BA9          MOVL      XAR1,ACC              ; |1019| 
    3246 00000744 06E3          MOVL      ACC,*+XAR3[4]         ; |1019| 
    3247 00000745 7640!         LCR       #UL$$TOFS             ; |1019| 
         00000746 0000 
    3248                      ; call occurs [#UL$$TOFS] ; |1019| 
    3249 00000747 1E42          MOVL      *-SP[2],ACC           ; |1019| 
    3250 00000748 B2A9          MOVL      ACC,XAR1              ; |1019| 
    3251 00000749 7640!         LCR       #FS$$DIV              ; |1019| 
         0000074a 0000 
    3252                      ; call occurs [#FS$$DIV] ; |1019| 
    3253 0000074b 1E50          MOVL      *-SP[16],ACC          ; |1019| 
    3254 0000074c 0654          MOVL      ACC,*-SP[20]          ; |1021| 
    3255 0000074d 7640!         LCR       #_FloattoIntRound     ; |1021| 
         0000074e 0000 
    3256                      ; call occurs [#_FloattoIntRound] ; |1021| 
    3257 0000074f 964D          MOV       *-SP[13],AL           ; |1021| 
    3258 00000750 0652          MOVL      ACC,*-SP[18]          ; |1022| 
    3259 00000751 7640!         LCR       #_FloattoIntRound     ; |1022| 
         00000752 0000 
    3260                      ; call occurs [#_FloattoIntRound] ; |1022| 
    3261 00000753 964C          MOV       *-SP[12],AL           ; |1022| 
    3262 00000754 0650          MOVL      ACC,*-SP[16]          ; |1023| 
    3263 00000755 7640!         LCR       #_FloattoIntRound     ; |1023| 
         00000756 0000 
    3264                      ; call occurs [#_FloattoIntRound] ; |1023| 
    3265 00000757 964B          MOV       *-SP[11],AL           ; |1023| 
    3266                      .dwpsn  "mancal.c",1025,0
    3267 00000758 D100          MOVB      XAR1,#0
    3268              L69:    
    3269              DW$L$_Stage3CalCurve$3$B:
    3270                      .dwpsn  "mancal.c",1026,0
    3271 00000759 92A1          MOV       AL,AR1                ; |1027| 
    3272 0000075a 7640!         LCR       #_GetStatus2Flags     ; |1027| 
         0000075b 0000 
    3273                      ; call occurs [#_GetStatus2Flags] ; |1027| 
    3274 0000075c 28AC          MOV       T,#18                 ; |1028| 
         0000075d 0012 
    3275 0000075e 88C4          MOVZ      AR6,*+XAR4[0]         ; |1027| 
TMS320C2000 COFF Assembler PC v4.1.3 Thu Aug 18 12:16:20 2016

Tools Copyright (c) 1996-2006 Texas Instruments Incorporated
mancal.asm                                                           PAGE   71

    3276 0000075f 30A1          MPYXU     ACC,T,AR1             ; |1028| 
    3277 00000760 8F00!         MOVL      XAR4,#_sensor         ; |1028| 
         00000761 0000 
    3278 00000762 5601          ADDL      XAR4,ACC
         00000763 00A4 
    3279 00000764 93C4          MOV       AH,*+XAR4[0]          ; |1028| 
    3280 00000765 CCA8          AND       AL,AH,#0x0001         ; |1028| 
         00000766 0001 
    3281 00000767 56C1          BF        L70,EQ                ; |1028| 
         00000768 00B6 
    3282                      ; branchcc occurs ; |1028| 
    3283 00000769       DW$L$_Stage3CalCurve$3$E:
    3284 00000769       DW$L$_Stage3CalCurve$4$B:
    3285 00000769 9102          ANDB      AH,#2                 ; |1028| 
    3286 0000076a 56C1          BF        L70,EQ                ; |1028| 
         0000076b 00B3 
    3287                      ; branchcc occurs ; |1028| 
    3288 0000076c       DW$L$_Stage3CalCurve$4$E:
    3289 0000076c       DW$L$_Stage3CalCurve$5$B:
    3290 0000076c CCA6          AND       AL,AR6,#0x0001        ; |1028| 
         0000076d 0001 
    3291 0000076e 56C0          BF        L70,NEQ               ; |1028| 
         0000076f 00AF 
    3292                      ; branchcc occurs ; |1028| 
    3293 00000770       DW$L$_Stage3CalCurve$5$E:
    3294 00000770       DW$L$_Stage3CalCurve$6$B:
    3295 00000770 0EA1          MOVU      ACC,AR1
    3296 00000771 8F00-         MOVL      XAR4,#_calibration+482 ; |1032| 
         00000772 0222 
    3297 00000773 FF30          LSL       ACC,1                 ; |1032| 
    3298 00000774 5601          ADDL      XAR4,ACC
         00000775 00A4 
    3299 00000776 86A4          MOVL      XAR2,XAR4             ; |1032| 
    3300 00000777 06C2          MOVL      ACC,*+XAR2[0]         ; |1032| 
    3301 00000778 7640!         LCR       #L$$TOFS              ; |1032| 
         00000779 0000 
    3302                      ; call occurs [#L$$TOFS] ; |1032| 
    3303 0000077a 8DC0-         MOVL      XAR3,#_calibration+8  ; |1032| 
         0000077b 0048 
    3304 0000077c 1E58          MOVL      *-SP[24],ACC          ; |1032| 
    3305 0000077d 06C3          MOVL      ACC,*+XAR3[0]         ; |1032| 
    3306 0000077e 7640!         LCR       #UL$$TOFS             ; |1032| 
         0000077f 0000 
    3307                      ; call occurs [#UL$$TOFS] ; |1032| 
    3308 00000780 1E42          MOVL      *-SP[2],ACC           ; |1032| 
    3309 00000781 0658          MOVL      ACC,*-SP[24]          ; |1032| 
    3310 00000782 7640!         LCR       #FS$$DIV              ; |1032| 
         00000783 0000 
    3311                      ; call occurs [#FS$$DIV] ; |1032| 
    3312 00000784 D038          MOVB      XAR0,#56              ; |1033| 
    3313 00000785 1E4A          MOVL      *-SP[10],ACC          ; |1032| 
    3314 00000786 0692          MOVL      ACC,*+XAR2[AR0]       ; |1033| 
    3315 00000787 7640!         LCR       #L$$TOFS              ; |1033| 
         00000788 0000 
    3316                      ; call occurs [#L$$TOFS] ; |1033| 
TMS320C2000 COFF Assembler PC v4.1.3 Thu Aug 18 12:16:20 2016

Tools Copyright (c) 1996-2006 Texas Instruments Incorporated
mancal.asm                                                           PAGE   72

    3317 00000789 1E58          MOVL      *-SP[24],ACC          ; |1033| 
    3318 0000078a 06D3          MOVL      ACC,*+XAR3[2]         ; |1033| 
    3319 0000078b 7640!         LCR       #UL$$TOFS             ; |1033| 
         0000078c 0000 
    3320                      ; call occurs [#UL$$TOFS] ; |1033| 
    3321 0000078d 1E42          MOVL      *-SP[2],ACC           ; |1033| 
    3322 0000078e 0658          MOVL      ACC,*-SP[24]          ; |1033| 
    3323 0000078f 7640!         LCR       #FS$$DIV              ; |1033| 
         00000790 0000 
    3324                      ; call occurs [#FS$$DIV] ; |1033| 
    3325 00000791 D070          MOVB      XAR0,#112             ; |1034| 
    3326 00000792 1E48          MOVL      *-SP[8],ACC           ; |1033| 
    3327 00000793 0692          MOVL      ACC,*+XAR2[AR0]       ; |1034| 
    3328 00000794 7640!         LCR       #L$$TOFS              ; |1034| 
         00000795 0000 
    3329                      ; call occurs [#L$$TOFS] ; |1034| 
    3330 00000796 86A9          MOVL      XAR2,ACC              ; |1034| 
    3331 00000797 06E3          MOVL      ACC,*+XAR3[4]         ; |1034| 
    3332 00000798 7640!         LCR       #UL$$TOFS             ; |1034| 
         00000799 0000 
    3333                      ; call occurs [#UL$$TOFS] ; |1034| 
    3334 0000079a 1E42          MOVL      *-SP[2],ACC           ; |1034| 
    3335 0000079b AAA9          MOVL      ACC,XAR2              ; |1034| 
    3336 0000079c 7640!         LCR       #FS$$DIV              ; |1034| 
         0000079d 0000 
    3337                      ; call occurs [#FS$$DIV] ; |1034| 
    3338 0000079e 1E46          MOVL      *-SP[6],ACC           ; |1034| 
    3339 0000079f 064A          MOVL      ACC,*-SP[10]          ; |1044| 
    3340 000007a0 1E42          MOVL      *-SP[2],ACC           ; |1044| 
    3341 000007a1 0648          MOVL      ACC,*-SP[8]           ; |1044| 
    3342 000007a2 7640!         LCR       #FS$$SUB              ; |1044| 
         000007a3 0000 
    3343                      ; call occurs [#FS$$SUB] ; |1044| 
    3344 000007a4 86A9          MOVL      XAR2,ACC              ; |1044| 
    3345 000007a5 0654          MOVL      ACC,*-SP[20]          ; |1044| 
    3346 000007a6 1E42          MOVL      *-SP[2],ACC           ; |1044| 
    3347 000007a7 0652          MOVL      ACC,*-SP[18]          ; |1044| 
    3348 000007a8 7640!         LCR       #FS$$SUB              ; |1044| 
         000007a9 0000 
    3349                      ; call occurs [#FS$$SUB] ; |1044| 
    3350 000007aa       DW$L$_Stage3CalCurve$6$E:
    3351 000007aa       DW$L$_Stage3CalCurve$7$B:
    3352 000007aa 1E42          MOVL      *-SP[2],ACC           ; |1044| 
    3353 000007ab AAA9          MOVL      ACC,XAR2              ; |1044| 
    3354 000007ac 7640!         LCR       #FS$$DIV              ; |1044| 
         000007ad 0000 
    3355                      ; call occurs [#FS$$DIV] ; |1044| 
    3356 000007ae 86A9          MOVL      XAR2,ACC              ; |1044| 
    3357 000007af 065A          MOVL      ACC,*-SP[26]          ; |1044| 
    3358 000007b0 1E42          MOVL      *-SP[2],ACC           ; |1044| 
    3359 000007b1 AAA9          MOVL      ACC,XAR2              ; |1044| 
    3360 000007b2 7640!         LCR       #FS$$MPY              ; |1044| 
         000007b3 0000 
    3361                      ; call occurs [#FS$$MPY] ; |1044| 
    3362 000007b4 1E42          MOVL      *-SP[2],ACC           ; |1044| 
TMS320C2000 COFF Assembler PC v4.1.3 Thu Aug 18 12:16:20 2016

Tools Copyright (c) 1996-2006 Texas Instruments Incorporated
mancal.asm                                                           PAGE   73

    3363 000007b5 064A          MOVL      ACC,*-SP[10]          ; |1044| 
    3364 000007b6 7640!         LCR       #FS$$SUB              ; |1044| 
         000007b7 0000 
    3365                      ; call occurs [#FS$$SUB] ; |1044| 
    3366 000007b8 5B56          MOVZ      AR3,*-SP[22]          ; |1044| 
    3367 000007b9 1EA6          MOVL      XAR6,ACC              ; |1044| 
    3368 000007ba 924C          MOV       AL,*-SP[12]           ; |1044| 
    3369 000007bb 9EA3          SUB       AL,AR3                ; |1044| 
    3370 000007bc 9641          MOV       *-SP[1],AL            ; |1044| 
    3371 000007bd 5CA1          MOVZ      AR4,AR1               ; |1044| 
    3372 000007be AA44          MOVL      *-SP[4],XAR2          ; |1044| 
    3373 000007bf D500          MOVB      XAR5,#0
    3374 000007c0 06A6          MOVL      ACC,XAR6              ; |1044| 
    3375 000007c1 7640'         LCR       #_Interpolate         ; |1044| 
         000007c2 0839 
    3376                      ; call occurs [#_Interpolate] ; |1044| 
    3377 000007c3 924C          MOV       AL,*-SP[12]           ; |1053| 
    3378 000007c4 7640!         LCR       #I$$TOFS              ; |1053| 
         000007c5 0000 
    3379                      ; call occurs [#I$$TOFS] ; |1053| 
    3380 000007c6 86A9          MOVL      XAR2,ACC              ; |1053| 
    3381 000007c7 92A3          MOV       AL,AR3                ; |1053| 
    3382 000007c8 7640!         LCR       #U$$TOFS              ; |1053| 
         000007c9 0000 
    3383                      ; call occurs [#U$$TOFS] ; |1053| 
    3384 000007ca 1E42          MOVL      *-SP[2],ACC           ; |1053| 
    3385 000007cb AAA9          MOVL      ACC,XAR2              ; |1053| 
    3386 000007cc 7640!         LCR       #FS$$SUB              ; |1053| 
         000007cd 0000 
    3387                      ; call occurs [#FS$$SUB] ; |1053| 
    3388 000007ce 7640!         LCR       #FS$$TOU              ; |1053| 
         000007cf 0000 
    3389                      ; call occurs [#FS$$TOU] ; |1053| 
    3390 000007d0 5BA9          MOVZ      AR3,AL                ; |1053| 
    3391 000007d1 0648          MOVL      ACC,*-SP[8]           ; |1053| 
    3392 000007d2 1E42          MOVL      *-SP[2],ACC           ; |1053| 
    3393 000007d3 0646          MOVL      ACC,*-SP[6]           ; |1053| 
    3394 000007d4 7640!         LCR       #FS$$SUB              ; |1053| 
         000007d5 0000 
    3395                      ; call occurs [#FS$$SUB] ; |1053| 
    3396 000007d6 86A9          MOVL      XAR2,ACC              ; |1053| 
    3397 000007d7 0652          MOVL      ACC,*-SP[18]          ; |1053| 
    3398 000007d8 1E42          MOVL      *-SP[2],ACC           ; |1053| 
    3399 000007d9 0650          MOVL      ACC,*-SP[16]          ; |1053| 
    3400 000007da 7640!         LCR       #FS$$SUB              ; |1053| 
         000007db 0000 
    3401                      ; call occurs [#FS$$SUB] ; |1053| 
    3402 000007dc 1E42          MOVL      *-SP[2],ACC           ; |1053| 
    3403 000007dd AAA9          MOVL      ACC,XAR2              ; |1053| 
    3404 000007de 7640!         LCR       #FS$$DIV              ; |1053| 
         000007df 0000 
    3405                      ; call occurs [#FS$$DIV] ; |1053| 
    3406 000007e0       DW$L$_Stage3CalCurve$7$E:
    3407 000007e0       DW$L$_Stage3CalCurve$8$B:
    3408 000007e0 1EA6          MOVL      XAR6,ACC              ; |1053| 
TMS320C2000 COFF Assembler PC v4.1.3 Thu Aug 18 12:16:20 2016

Tools Copyright (c) 1996-2006 Texas Instruments Incorporated
mancal.asm                                                           PAGE   74

    3409 000007e1 9255          MOV       AL,*-SP[21]           ; |1053| 
    3410 000007e2 5DA3          MOVZ      AR5,AR3               ; |1053| 
    3411 000007e3 5CA1          MOVZ      AR4,AR1               ; |1053| 
    3412 000007e4 9E4C          SUB       AL,*-SP[12]           ; |1053| 
    3413 000007e5 9641          MOV       *-SP[1],AL            ; |1053| 
    3414 000007e6 C244          MOVL      *-SP[4],XAR6          ; |1053| 
    3415 000007e7 0648          MOVL      ACC,*-SP[8]           ; |1053| 
    3416 000007e8 7640'         LCR       #_Interpolate         ; |1053| 
         000007e9 0839 
    3417                      ; call occurs [#_Interpolate] ; |1053| 
    3418 000007ea 8F00-         MOVL      XAR4,#_calibration+651 ; |1057| 
         000007eb 02CB 
    3419 000007ec 924D          MOV       AL,*-SP[13]           ; |1057| 
    3420 000007ed 96C4          MOV       *+XAR4[0],AL          ; |1057| 
    3421 000007ee 924C          MOV       AL,*-SP[12]           ; |1058| 
    3422 000007ef 96CC          MOV       *+XAR4[1],AL          ; |1058| 
    3423 000007f0 924B          MOV       AL,*-SP[11]           ; |1059| 
    3424 000007f1 96D4          MOV       *+XAR4[2],AL          ; |1059| 
    3425 000007f2 8F00!         MOVL      XAR4,#_man_comptable  ; |1063| 
         000007f3 0000 
    3426 000007f4 8F40-         MOVL      XAR5,#_calibration+738 ; |1063| 
         000007f5 0322 
    3427 000007f6 929C          MOV       AL,*+XAR4[AR1]        ; |1063| 
    3428 000007f7 761F-         MOVW      DP,#_calibration
         000007f8 0001 
    3429 000007f9 969D          MOV       *+XAR5[AR1],AL        ; |1063| 
    3430 000007fa 28AC          MOV       T,#28                 ; |1064| 
         000007fb 001C 
    3431 000007fc 9200-         MOV       AL,@_calibration      ; |1064| 
    3432 000007fd 9CFF          ADDB      AL,#-1
    3433 000007fe 30A9          MPYXU     ACC,T,AL              ; |1064| 
    3434 000007ff 0DA1          ADDU      ACC,AR1               ; |1064| 
    3435 00000800 5601          ADDL      XAR4,ACC
         00000801 00A4 
    3436 00000802 92C4          MOV       AL,*+XAR4[0]          ; |1064| 
    3437 00000803 8F00-         MOVL      XAR4,#_calibration+766 ; |1064| 
         00000804 033E 
    3438 00000805 969C          MOV       *+XAR4[AR1],AL        ; |1064| 
    3439 00000806 8F00-         MOVL      XAR4,#_calibration+654 ; |1066| 
         00000807 02CE 
    3440 00000808 A8A9          MOVL      ACC,XAR4              ; |1066| 
    3441 00000809 0DA1          ADDU      ACC,AR1               ; |1066| 
    3442 0000080a 86A9          MOVL      XAR2,ACC              ; |1066| 
    3443 0000080b 064A          MOVL      ACC,*-SP[10]          ; |1066| 
    3444 0000080c 7640!         LCR       #_FloattoIntRound     ; |1066| 
         0000080d 0000 
    3445                      ; call occurs [#_FloattoIntRound] ; |1066| 
    3446 0000080e 96C2          MOV       *+XAR2[0],AL          ; |1066| 
    3447 0000080f 0648          MOVL      ACC,*-SP[8]           ; |1067| 
    3448 00000810 7640!         LCR       #_FloattoIntRound     ; |1067| 
         00000811 0000 
    3449                      ; call occurs [#_FloattoIntRound] ; |1067| 
    3450 00000812 D01C          MOVB      XAR0,#28              ; |1067| 
    3451 00000813 9692          MOV       *+XAR2[AR0],AL        ; |1067| 
    3452 00000814 0646          MOVL      ACC,*-SP[6]           ; |1068| 
TMS320C2000 COFF Assembler PC v4.1.3 Thu Aug 18 12:16:20 2016

Tools Copyright (c) 1996-2006 Texas Instruments Incorporated
mancal.asm                                                           PAGE   75

    3453 00000815 7640!         LCR       #_FloattoIntRound     ; |1068| 
         00000816 0000 
    3454                      ; call occurs [#_FloattoIntRound] ; |1068| 
    3455 00000817 D038          MOVB      XAR0,#56              ; |1068| 
    3456 00000818 761F!         MOVW      DP,#_settings
         00000819 0000 
    3457 0000081a 9692          MOV       *+XAR2[AR0],AL        ; |1068| 
    3458 0000081b 2800!         MOV       @_settings,#1         ; |1069| 
         0000081c 0001 
    3459 0000081d       DW$L$_Stage3CalCurve$8$E:
    3460 0000081d       L70:    
    3461 0000081d       DW$L$_Stage3CalCurve$9$B:
    3462 0000081d D901          ADDB      XAR1,#1               ; |1025| 
    3463 0000081e 92A1          MOV       AL,AR1                ; |1025| 
    3464 0000081f 521C          CMPB      AL,#28                ; |1025| 
    3465                      .dwpsn  "mancal.c",1072,0
    3466 00000820 56C8          BF        L69,LO                ; |1025| 
         00000821 FF39 
    3467                      ; branchcc occurs ; |1025| 
    3468 00000822       DW$L$_Stage3CalCurve$9$E:
    3469 00000822 761F!         MOVW      DP,#_sdsettings+1
         00000823 0000 
    3470 00000824 0A01!         INC       @_sdsettings+1        ; |1073| 
    3471 00000825 8F00!         MOVL      XAR4,#_sdcarddir+9    ; |1073| 
         00000826 0009 
    3472 00000827 761F!         MOVW      DP,#_sdsettings+1
         00000828 0000 
    3473 00000829 9201!         MOV       AL,@_sdsettings+1     ; |1073| 
    3474 0000082a 9CFF          ADDB      AL,#-1
    3475 0000082b 7640!         LCR       #_MANCompTabletoSDCardFile ; |1073| 
         0000082c 0000 
    3476                      ; call occurs [#_MANCompTabletoSDCardFile] ; |1073| 
    3477 0000082d 9A00          MOVB      AL,#0
    3478 0000082e 8F00!         MOVL      XAR4,#_sdcarddir+27   ; |1075| 
         0000082f 001B 
    3479 00000830 7640!         LCR       #_MANCompTabletoSDCardFile ; |1075| 
         00000831 0000 
    3480                      ; call occurs [#_MANCompTabletoSDCardFile] ; |1075| 
    3481 00000832 7640!         LCR       #_WriteMANCompTabletoNVMEM ; |1076| 
         00000833 0000 
    3482                      ; call occurs [#_WriteMANCompTabletoNVMEM] ; |1076| 
    3483 00000834 FE9A          SUBB      SP,#26
    3484 00000835 82BE          MOVL      XAR3,*--SP
    3485 00000836 86BE          MOVL      XAR2,*--SP
    3486 00000837 8BBE          MOVL      XAR1,*--SP
    3487                      .dwpsn  "mancal.c",1077,1
    3488 00000838 0006          LRETR
    3489                      ; return occurs
    3490              
    3491              DW$178  .dwtag  DW_TAG_loop
    3492                      .dwattr DW$178, DW_AT_name("D:\DEV\Amot\BearingWear\XTSW_V6_20\mancal.asm:L69:1:1471518980")
    3493                      .dwattr DW$178, DW_AT_begin_file("mancal.c")
    3494                      .dwattr DW$178, DW_AT_begin_line(0x401)
    3495                      .dwattr DW$178, DW_AT_end_line(0x430)
    3496              DW$179  .dwtag  DW_TAG_loop_range
TMS320C2000 COFF Assembler PC v4.1.3 Thu Aug 18 12:16:20 2016

Tools Copyright (c) 1996-2006 Texas Instruments Incorporated
mancal.asm                                                           PAGE   76

    3497                      .dwattr DW$179, DW_AT_low_pc(DW$L$_Stage3CalCurve$3$B)
    3498                      .dwattr DW$179, DW_AT_high_pc(DW$L$_Stage3CalCurve$3$E)
    3499              DW$180  .dwtag  DW_TAG_loop_range
    3500                      .dwattr DW$180, DW_AT_low_pc(DW$L$_Stage3CalCurve$6$B)
    3501                      .dwattr DW$180, DW_AT_high_pc(DW$L$_Stage3CalCurve$6$E)
    3502              DW$181  .dwtag  DW_TAG_loop_range
    3503                      .dwattr DW$181, DW_AT_low_pc(DW$L$_Stage3CalCurve$7$B)
    3504                      .dwattr DW$181, DW_AT_high_pc(DW$L$_Stage3CalCurve$7$E)
    3505              DW$182  .dwtag  DW_TAG_loop_range
    3506                      .dwattr DW$182, DW_AT_low_pc(DW$L$_Stage3CalCurve$4$B)
    3507                      .dwattr DW$182, DW_AT_high_pc(DW$L$_Stage3CalCurve$4$E)
    3508              DW$183  .dwtag  DW_TAG_loop_range
    3509                      .dwattr DW$183, DW_AT_low_pc(DW$L$_Stage3CalCurve$5$B)
    3510                      .dwattr DW$183, DW_AT_high_pc(DW$L$_Stage3CalCurve$5$E)
    3511              DW$184  .dwtag  DW_TAG_loop_range
    3512                      .dwattr DW$184, DW_AT_low_pc(DW$L$_Stage3CalCurve$8$B)
    3513                      .dwattr DW$184, DW_AT_high_pc(DW$L$_Stage3CalCurve$8$E)
    3514              DW$185  .dwtag  DW_TAG_loop_range
    3515                      .dwattr DW$185, DW_AT_low_pc(DW$L$_Stage3CalCurve$9$B)
    3516                      .dwattr DW$185, DW_AT_high_pc(DW$L$_Stage3CalCurve$9$E)
    3517                      .dwendtag DW$178
    3518              
    3519                      .dwattr DW$177, DW_AT_end_file("mancal.c")
    3520                      .dwattr DW$177, DW_AT_end_line(0x435)
    3521                      .dwattr DW$177, DW_AT_end_column(0x01)
    3522                      .dwendtag DW$177
    3523              
    3524 00000839               .sect   ".text"
    3525                      .global _Interpolate
    3526              
    3527              DW$186  .dwtag  DW_TAG_subprogram, DW_AT_name("Interpolate"), DW_AT_symbol_name("_Interpolate")
    3528                      .dwattr DW$186, DW_AT_low_pc(_Interpolate)
    3529                      .dwattr DW$186, DW_AT_high_pc(0x00)
    3530                      .dwattr DW$186, DW_AT_begin_file("mancal.c")
    3531                      .dwattr DW$186, DW_AT_begin_line(0x439)
    3532                      .dwattr DW$186, DW_AT_begin_column(0x06)
    3533                      .dwattr DW$186, DW_AT_frame_base[DW_OP_breg20 -14]
    3534                      .dwattr DW$186, DW_AT_skeletal(0x01)
    3535                      .dwpsn  "mancal.c",1082,1
    3536              
    3537              ;***************************************************************
    3538              ;* FNAME: _Interpolate                  FR SIZE:  12           *
    3539              ;*                                                             *
    3540              ;* FUNCTION ENVIRONMENT                                        *
    3541              ;*                                                             *
    3542              ;* FUNCTION PROPERTIES                                         *
    3543              ;*                            2 Parameter,  4 Auto,  6 SOE     *
    3544              ;***************************************************************
    3545              
    3546              _Interpolate:
    3547              ;* AR4   assigned to _chan
    3548              DW$187  .dwtag  DW_TAG_formal_parameter, DW_AT_name("chan"), DW_AT_symbol_name("_chan")
    3549                      .dwattr DW$187, DW_AT_type(*DW$T$10)
    3550                      .dwattr DW$187, DW_AT_location[DW_OP_reg12]
    3551              ;* AR5   assigned to _offset
TMS320C2000 COFF Assembler PC v4.1.3 Thu Aug 18 12:16:20 2016

Tools Copyright (c) 1996-2006 Texas Instruments Incorporated
mancal.asm                                                           PAGE   77

    3552              DW$188  .dwtag  DW_TAG_formal_parameter, DW_AT_name("offset"), DW_AT_symbol_name("_offset")
    3553                      .dwattr DW$188, DW_AT_type(*DW$T$10)
    3554                      .dwattr DW$188, DW_AT_location[DW_OP_reg14]
    3555              DW$189  .dwtag  DW_TAG_formal_parameter, DW_AT_name("interpoints"), DW_AT_symbol_name("_interpoints")
    3556                      .dwattr DW$189, DW_AT_type(*DW$T$10)
    3557                      .dwattr DW$189, DW_AT_location[DW_OP_breg20 -15]
    3558              ;* AL    assigned to _intercept
    3559              DW$190  .dwtag  DW_TAG_formal_parameter, DW_AT_name("intercept"), DW_AT_symbol_name("_intercept")
    3560                      .dwattr DW$190, DW_AT_type(*DW$T$16)
    3561                      .dwattr DW$190, DW_AT_location[DW_OP_reg0]
    3562              DW$191  .dwtag  DW_TAG_formal_parameter, DW_AT_name("increment"), DW_AT_symbol_name("_increment")
    3563                      .dwattr DW$191, DW_AT_type(*DW$T$16)
    3564                      .dwattr DW$191, DW_AT_location[DW_OP_breg20 -18]
    3565 00000839 B2BD          MOVL      *SP++,XAR1
    3566 0000083a AABD          MOVL      *SP++,XAR2
    3567 0000083b A2BD          MOVL      *SP++,XAR3
    3568 0000083c FE06          ADDB      SP,#6
    3569 0000083d 59A4          MOVZ      AR1,AR4               ; |1082| 
    3570 0000083e 1E46          MOVL      *-SP[6],ACC           ; |1082| 
    3571 0000083f D200          MOVB      XAR2,#0
    3572 00000840 924F          MOV       AL,*-SP[15]           ; |1082| 
    3573 00000841 7D44          MOV       *-SP[4],AR5           ; |1087| 
    3574 00000842 8252          MOVL      XAR3,*-SP[18]         ; |1082| 
    3575 00000843 9643          MOV       *-SP[3],AL            ; |1082| 
    3576 00000844 56C4          BF        L72,LT                ; |1089| 
         00000845 0020 
    3577                      ; branchcc occurs ; |1089| 
    3578              L71:    
    3579              DW$L$_Interpolate$2$B:
    3580                      .dwpsn  "mancal.c",1090,0
    3581 00000846 92A2          MOV       AL,AR2
    3582 00000847 7640!         LCR       #I$$TOFS              ; |1092| 
         00000848 0000 
    3583                      ; call occurs [#I$$TOFS] ; |1092| 
    3584 00000849 A242          MOVL      *-SP[2],XAR3          ; |1092| 
    3585 0000084a 7640!         LCR       #FS$$MPY              ; |1092| 
         0000084b 0000 
    3586                      ; call occurs [#FS$$MPY] ; |1092| 
    3587 0000084c 1E42          MOVL      *-SP[2],ACC           ; |1092| 
    3588 0000084d 0646          MOVL      ACC,*-SP[6]           ; |1092| 
    3589 0000084e 7640!         LCR       #FS$$ADD              ; |1092| 
         0000084f 0000 
    3590                      ; call occurs [#FS$$ADD] ; |1092| 
    3591 00000850 7640!         LCR       #_FloattoIntRound     ; |1092| 
         00000851 0000 
    3592                      ; call occurs [#_FloattoIntRound] ; |1092| 
    3593 00000852 88A9          MOVZ      AR6,AL                ; |1092| 
    3594 00000853 2D44          MOV       T,*-SP[4]             ; |1092| 
    3595 00000854 3B01          SETC      SXM
    3596 00000855 351C          MPYB      ACC,T,#28             ; |1092| 
    3597 00000856 8F00!         MOVL      XAR4,#_man_comptable  ; |1092| 
         00000857 0000 
    3598 00000858 81A1          ADD       ACC,AR1               ; |1092| 
    3599 00000859 5601          ADDL      XAR4,ACC
         0000085a 00A4 
TMS320C2000 COFF Assembler PC v4.1.3 Thu Aug 18 12:16:20 2016

Tools Copyright (c) 1996-2006 Texas Instruments Incorporated
mancal.asm                                                           PAGE   78

    3600 0000085b 92A2          MOV       AL,AR2                ; |1093| 
    3601 0000085c 9C01          ADDB      AL,#1                 ; |1089| 
    3602 0000085d 5AA9          MOVZ      AR2,AL                ; |1089| 
    3603 0000085e 7EC4          MOV       *+XAR4[0],AR6         ; |1092| 
    3604 0000085f 0A44          INC       *-SP[4]               ; |1093| 
    3605 00000860 9243          MOV       AL,*-SP[3]            ; |1089| 
    3606 00000861 54A2          CMP       AL,AR2                ; |1089| 
    3607                      .dwpsn  "mancal.c",1094,0
    3608 00000862 56C3          BF        L71,GEQ               ; |1089| 
         00000863 FFE4 
    3609                      ; branchcc occurs ; |1089| 
    3610 00000864       DW$L$_Interpolate$2$E:
    3611 00000864       L72:    
    3612 00000864 FE86          SUBB      SP,#6
    3613 00000865 82BE          MOVL      XAR3,*--SP
    3614 00000866 86BE          MOVL      XAR2,*--SP
    3615 00000867 8BBE          MOVL      XAR1,*--SP
    3616                      .dwpsn  "mancal.c",1095,1
    3617 00000868 0006          LRETR
    3618                      ; return occurs
    3619              
    3620              DW$192  .dwtag  DW_TAG_loop
    3621                      .dwattr DW$192, DW_AT_name("D:\DEV\Amot\BearingWear\XTSW_V6_20\mancal.asm:L71:1:1471518980")
    3622                      .dwattr DW$192, DW_AT_begin_file("mancal.c")
    3623                      .dwattr DW$192, DW_AT_begin_line(0x441)
    3624                      .dwattr DW$192, DW_AT_end_line(0x446)
    3625              DW$193  .dwtag  DW_TAG_loop_range
    3626                      .dwattr DW$193, DW_AT_low_pc(DW$L$_Interpolate$2$B)
    3627                      .dwattr DW$193, DW_AT_high_pc(DW$L$_Interpolate$2$E)
    3628                      .dwendtag DW$192
    3629              
    3630                      .dwattr DW$186, DW_AT_end_file("mancal.c")
    3631                      .dwattr DW$186, DW_AT_end_line(0x447)
    3632                      .dwattr DW$186, DW_AT_end_column(0x01)
    3633                      .dwendtag DW$186
    3634              
    3635 00000869               .sect   ".text"
    3636                      .global _FineCalModeInit
    3637              
    3638              DW$194  .dwtag  DW_TAG_subprogram, DW_AT_name("FineCalModeInit"), DW_AT_symbol_name("_FineCalModeInit")
    3639                      .dwattr DW$194, DW_AT_low_pc(_FineCalModeInit)
    3640                      .dwattr DW$194, DW_AT_high_pc(0x00)
    3641                      .dwattr DW$194, DW_AT_begin_file("mancal.c")
    3642                      .dwattr DW$194, DW_AT_begin_line(0x44a)
    3643                      .dwattr DW$194, DW_AT_begin_column(0x06)
    3644                      .dwattr DW$194, DW_AT_frame_base[DW_OP_breg20 -6]
    3645                      .dwattr DW$194, DW_AT_skeletal(0x01)
    3646                      .dwpsn  "mancal.c",1099,1
    3647              
    3648              ;***************************************************************
    3649              ;* FNAME: _FineCalModeInit              FR SIZE:   4           *
    3650              ;*                                                             *
    3651              ;* FUNCTION ENVIRONMENT                                        *
    3652              ;*                                                             *
    3653              ;* FUNCTION PROPERTIES                                         *
TMS320C2000 COFF Assembler PC v4.1.3 Thu Aug 18 12:16:20 2016

Tools Copyright (c) 1996-2006 Texas Instruments Incorporated
mancal.asm                                                           PAGE   79

    3654              ;*                            0 Parameter,  0 Auto,  4 SOE     *
    3655              ;***************************************************************
    3656              
    3657 00000869       _FineCalModeInit:
    3658 00000869 B2BD          MOVL      *SP++,XAR1
    3659 0000086a AABD          MOVL      *SP++,XAR2
    3660 0000086b 7640!         LCR       #_ClearManCompSequence ; |1106| 
         0000086c 0000 
    3661                      ; call occurs [#_ClearManCompSequence] ; |1106| 
    3662 0000086d 28AC          MOV       T,#12000              ; |1107| 
         0000086e 2EE0 
    3663 0000086f 761F-         MOVW      DP,#_speedcompcoeffs+10
         00000870 000D 
    3664 00000871 3024-         MPYXU     ACC,T,@_speedcompcoeffs+10 ; |1107| 
    3665 00000872 761F!         MOVW      DP,#_timers+46
         00000873 0000 
    3666 00000874 1E2E!         MOVL      @_timers+46,ACC       ; |1107| 
    3667 00000875 761F-         MOVW      DP,#_speedcompcoeffs+11
         00000876 000D 
    3668 00000877 3025-         MPYXU     ACC,T,@_speedcompcoeffs+11 ; |1108| 
    3669 00000878 761F!         MOVW      DP,#_timers+48
         00000879 0000 
    3670 0000087a 1E30!         MOVL      @_timers+48,ACC       ; |1108| 
    3671 0000087b 761F!         MOVW      DP,#_settings+34
         0000087c 0000 
    3672 0000087d 2822!         MOV       @_settings+34,#1      ; |1109| 
         0000087e 0001 
    3673                      .dwpsn  "mancal.c",1110,0
    3674 0000087f D100          MOVB      XAR1,#0
    3675              L73:    
    3676              DW$L$_FineCalModeInit$2$B:
    3677                      .dwpsn  "mancal.c",1111,0
    3678 00000880 0EA1          MOVU      ACC,AR1
    3679 00000881 8F00-         MOVL      XAR4,#_calibration+14 ; |1112| 
         00000882 004E 
    3680 00000883 FF30          LSL       ACC,1                 ; |1112| 
    3681 00000884 5601          ADDL      XAR4,ACC
         00000885 00A4 
    3682 00000886 D901          ADDB      XAR1,#1               ; |1110| 
    3683 00000887 0200          MOVB      ACC,#0
    3684 00000888 1EC4          MOVL      *+XAR4[0],ACC         ; |1112| 
    3685 00000889 92A1          MOV       AL,AR1                ; |1110| 
    3686 0000088a 5296          CMPB      AL,#150               ; |1110| 
    3687                      .dwpsn  "mancal.c",1113,0
    3688 0000088b 56C8          BF        L73,LO                ; |1110| 
         0000088c FFF5 
    3689                      ; branchcc occurs ; |1110| 
    3690 0000088d       DW$L$_FineCalModeInit$2$E:
    3691 0000088d D100          MOVB      XAR1,#0
    3692 0000088e BE00          MOVB      XAR6,#0
    3693                      .dwpsn  "mancal.c",1114,0
    3694 0000088f 28AC          MOV       T,#28                 ; |1118| 
         00000890 001C 
    3695              L74:    
    3696              DW$L$_FineCalModeInit$4$B:
TMS320C2000 COFF Assembler PC v4.1.3 Thu Aug 18 12:16:20 2016

Tools Copyright (c) 1996-2006 Texas Instruments Incorporated
mancal.asm                                                           PAGE   80

    3697                      .dwpsn  "mancal.c",1115,0
    3698                      .dwpsn  "mancal.c",1116,0
    3699 00000891 D200          MOVB      XAR2,#0
    3700              DW$L$_FineCalModeInit$4$E:
    3701              L75:    
    3702              DW$L$_FineCalModeInit$5$B:
    3703                      .dwpsn  "mancal.c",1117,0
    3704 00000892 30A1          MPYXU     ACC,T,AR1             ; |1118| 
    3705 00000893 8F00-         MOVL      XAR4,#_calibration+482 ; |1118| 
         00000894 0222 
    3706 00000895 0DA2          ADDU      ACC,AR2               ; |1118| 
    3707 00000896 FF30          LSL       ACC,1                 ; |1118| 
    3708 00000897 5601          ADDL      XAR4,ACC
         00000898 00A4 
    3709 00000899 C2C4          MOVL      *+XAR4[0],XAR6        ; |1118| 
    3710 0000089a 8F00-         MOVL      XAR4,#_calibration+314 ; |1119| 
         0000089b 017A 
    3711 0000089c 5601          ADDL      XAR4,ACC
         0000089d 00A4 
    3712 0000089e DA01          ADDB      XAR2,#1               ; |1116| 
    3713 0000089f 0200          MOVB      ACC,#0
    3714 000008a0 1EC4          MOVL      *+XAR4[0],ACC         ; |1119| 
    3715 000008a1 92A2          MOV       AL,AR2                ; |1116| 
    3716 000008a2 521C          CMPB      AL,#28                ; |1116| 
    3717                      .dwpsn  "mancal.c",1120,0
    3718 000008a3 56C8          BF        L75,LO                ; |1116| 
         000008a4 FFEF 
    3719                      ; branchcc occurs ; |1116| 
    3720 000008a5       DW$L$_FineCalModeInit$5$E:
    3721 000008a5       DW$L$_FineCalModeInit$6$B:
    3722 000008a5 D901          ADDB      XAR1,#1               ; |1114| 
    3723 000008a6 92A1          MOV       AL,AR1                ; |1114| 
    3724 000008a7 5203          CMPB      AL,#3                 ; |1114| 
    3725                      .dwpsn  "mancal.c",1121,0
    3726 000008a8 56C8          BF        L74,LO                ; |1114| 
         000008a9 FFE9 
    3727                      ; branchcc occurs ; |1114| 
    3728              DW$L$_FineCalModeInit$6$E:
    3729                      .dwpsn  "mancal.c",1125,0
    3730 000008aa D100          MOVB      XAR1,#0
    3731              L76:    
    3732              DW$L$_FineCalModeInit$8$B:
    3733                      .dwpsn  "mancal.c",1126,0
    3734 000008ab 92A1          MOV       AL,AR1                ; |1127| 
    3735 000008ac 7640'         LCR       #_WriteAccCalNVMEM    ; |1127| 
         000008ad 0074 
    3736                      ; call occurs [#_WriteAccCalNVMEM] ; |1127| 
    3737                      .dwpsn  "mancal.c",1128,0
    3738 000008ae D200          MOVB      XAR2,#0
    3739              DW$L$_FineCalModeInit$8$E:
    3740              L77:    
    3741              DW$L$_FineCalModeInit$9$B:
    3742                      .dwpsn  "mancal.c",1129,0
    3743 000008af 92A1          MOV       AL,AR1                ; |1130| 
    3744 000008b0 D400          MOVB      XAR4,#0
TMS320C2000 COFF Assembler PC v4.1.3 Thu Aug 18 12:16:20 2016

Tools Copyright (c) 1996-2006 Texas Instruments Incorporated
mancal.asm                                                           PAGE   81

    3745 000008b1 93A2          MOV       AH,AR2                ; |1130| 
    3746 000008b2 7640'         LCR       #_WriteMAN1000NVMEM   ; |1130| 
         000008b3 008C 
    3747                      ; call occurs [#_WriteMAN1000NVMEM] ; |1130| 
    3748 000008b4 DA01          ADDB      XAR2,#1               ; |1128| 
    3749 000008b5 92A2          MOV       AL,AR2                ; |1128| 
    3750 000008b6 521C          CMPB      AL,#28                ; |1128| 
    3751                      .dwpsn  "mancal.c",1131,0
    3752 000008b7 56C8          BF        L77,LO                ; |1128| 
         000008b8 FFF8 
    3753                      ; branchcc occurs ; |1128| 
    3754 000008b9       DW$L$_FineCalModeInit$9$E:
    3755 000008b9       DW$L$_FineCalModeInit$10$B:
    3756 000008b9 D901          ADDB      XAR1,#1               ; |1125| 
    3757 000008ba 92A1          MOV       AL,AR1                ; |1125| 
    3758 000008bb 5296          CMPB      AL,#150               ; |1125| 
    3759                      .dwpsn  "mancal.c",1132,0
    3760 000008bc 56C8          BF        L76,LO                ; |1125| 
         000008bd FFEF 
    3761                      ; branchcc occurs ; |1125| 
    3762 000008be       DW$L$_FineCalModeInit$10$E:
    3763 000008be 761F-         MOVW      DP,#_calibration+650
         000008bf 000B 
    3764 000008c0 9A0A          MOVB      AL,#10                ; |1138| 
    3765 000008c1 2B0A-         MOV       @_calibration+650,#0  ; |1133| 
    3766 000008c2 7640!         LCR       #_SetBitEvent         ; |1138| 
         000008c3 0000 
    3767                      ; call occurs [#_SetBitEvent] ; |1138| 
    3768 000008c4 86BE          MOVL      XAR2,*--SP
    3769 000008c5 8BBE          MOVL      XAR1,*--SP
    3770                      .dwpsn  "mancal.c",1139,1
    3771 000008c6 0006          LRETR
    3772                      ; return occurs
    3773              
    3774              DW$195  .dwtag  DW_TAG_loop
    3775                      .dwattr DW$195, DW_AT_name("D:\DEV\Amot\BearingWear\XTSW_V6_20\mancal.asm:L76:1:1471518980")
    3776                      .dwattr DW$195, DW_AT_begin_file("mancal.c")
    3777                      .dwattr DW$195, DW_AT_begin_line(0x465)
    3778                      .dwattr DW$195, DW_AT_end_line(0x46c)
    3779              DW$196  .dwtag  DW_TAG_loop_range
    3780                      .dwattr DW$196, DW_AT_low_pc(DW$L$_FineCalModeInit$8$B)
    3781                      .dwattr DW$196, DW_AT_high_pc(DW$L$_FineCalModeInit$8$E)
    3782              DW$197  .dwtag  DW_TAG_loop_range
    3783                      .dwattr DW$197, DW_AT_low_pc(DW$L$_FineCalModeInit$10$B)
    3784                      .dwattr DW$197, DW_AT_high_pc(DW$L$_FineCalModeInit$10$E)
    3785              
    3786              DW$198  .dwtag  DW_TAG_loop
    3787                      .dwattr DW$198, DW_AT_name("D:\DEV\Amot\BearingWear\XTSW_V6_20\mancal.asm:L77:2:1471518980")
    3788                      .dwattr DW$198, DW_AT_begin_file("mancal.c")
    3789                      .dwattr DW$198, DW_AT_begin_line(0x468)
    3790                      .dwattr DW$198, DW_AT_end_line(0x46b)
    3791              DW$199  .dwtag  DW_TAG_loop_range
    3792                      .dwattr DW$199, DW_AT_low_pc(DW$L$_FineCalModeInit$9$B)
    3793                      .dwattr DW$199, DW_AT_high_pc(DW$L$_FineCalModeInit$9$E)
    3794                      .dwendtag DW$198
TMS320C2000 COFF Assembler PC v4.1.3 Thu Aug 18 12:16:20 2016

Tools Copyright (c) 1996-2006 Texas Instruments Incorporated
mancal.asm                                                           PAGE   82

    3795              
    3796                      .dwendtag DW$195
    3797              
    3798              
    3799              DW$200  .dwtag  DW_TAG_loop
    3800                      .dwattr DW$200, DW_AT_name("D:\DEV\Amot\BearingWear\XTSW_V6_20\mancal.asm:L74:1:1471518980")
    3801                      .dwattr DW$200, DW_AT_begin_file("mancal.c")
    3802                      .dwattr DW$200, DW_AT_begin_line(0x45a)
    3803                      .dwattr DW$200, DW_AT_end_line(0x461)
    3804              DW$201  .dwtag  DW_TAG_loop_range
    3805                      .dwattr DW$201, DW_AT_low_pc(DW$L$_FineCalModeInit$4$B)
    3806                      .dwattr DW$201, DW_AT_high_pc(DW$L$_FineCalModeInit$4$E)
    3807              DW$202  .dwtag  DW_TAG_loop_range
    3808                      .dwattr DW$202, DW_AT_low_pc(DW$L$_FineCalModeInit$6$B)
    3809                      .dwattr DW$202, DW_AT_high_pc(DW$L$_FineCalModeInit$6$E)
    3810              
    3811              DW$203  .dwtag  DW_TAG_loop
    3812                      .dwattr DW$203, DW_AT_name("D:\DEV\Amot\BearingWear\XTSW_V6_20\mancal.asm:L75:2:1471518980")
    3813                      .dwattr DW$203, DW_AT_begin_file("mancal.c")
    3814                      .dwattr DW$203, DW_AT_begin_line(0x45c)
    3815                      .dwattr DW$203, DW_AT_end_line(0x460)
    3816              DW$204  .dwtag  DW_TAG_loop_range
    3817                      .dwattr DW$204, DW_AT_low_pc(DW$L$_FineCalModeInit$5$B)
    3818                      .dwattr DW$204, DW_AT_high_pc(DW$L$_FineCalModeInit$5$E)
    3819                      .dwendtag DW$203
    3820              
    3821                      .dwendtag DW$200
    3822              
    3823              
    3824              DW$205  .dwtag  DW_TAG_loop
    3825                      .dwattr DW$205, DW_AT_name("D:\DEV\Amot\BearingWear\XTSW_V6_20\mancal.asm:L73:1:1471518980")
    3826                      .dwattr DW$205, DW_AT_begin_file("mancal.c")
    3827                      .dwattr DW$205, DW_AT_begin_line(0x456)
    3828                      .dwattr DW$205, DW_AT_end_line(0x459)
    3829              DW$206  .dwtag  DW_TAG_loop_range
    3830                      .dwattr DW$206, DW_AT_low_pc(DW$L$_FineCalModeInit$2$B)
    3831                      .dwattr DW$206, DW_AT_high_pc(DW$L$_FineCalModeInit$2$E)
    3832                      .dwendtag DW$205
    3833              
    3834                      .dwattr DW$194, DW_AT_end_file("mancal.c")
    3835                      .dwattr DW$194, DW_AT_end_line(0x473)
    3836                      .dwattr DW$194, DW_AT_end_column(0x01)
    3837                      .dwendtag DW$194
    3838              
    3839 000008c7               .sect   ".text"
    3840                      .global _CheckRoughCalPoints
    3841              
    3842              DW$207  .dwtag  DW_TAG_subprogram, DW_AT_name("CheckRoughCalPoints"), DW_AT_symbol_name("_CheckRoughCalPoints
    3843                      .dwattr DW$207, DW_AT_low_pc(_CheckRoughCalPoints)
    3844                      .dwattr DW$207, DW_AT_high_pc(0x00)
    3845                      .dwattr DW$207, DW_AT_begin_file("mancal.c")
    3846                      .dwattr DW$207, DW_AT_begin_line(0x478)
    3847                      .dwattr DW$207, DW_AT_begin_column(0x06)
    3848                      .dwattr DW$207, DW_AT_frame_base[DW_OP_breg20 -12]
    3849                      .dwattr DW$207, DW_AT_skeletal(0x01)
TMS320C2000 COFF Assembler PC v4.1.3 Thu Aug 18 12:16:20 2016

Tools Copyright (c) 1996-2006 Texas Instruments Incorporated
mancal.asm                                                           PAGE   83

    3850                      .dwpsn  "mancal.c",1145,1
    3851              
    3852              ;***************************************************************
    3853              ;* FNAME: _CheckRoughCalPoints          FR SIZE:  10           *
    3854              ;*                                                             *
    3855              ;* FUNCTION ENVIRONMENT                                        *
    3856              ;*                                                             *
    3857              ;* FUNCTION PROPERTIES                                         *
    3858              ;*                            0 Parameter,  6 Auto,  4 SOE     *
    3859              ;***************************************************************
    3860              
    3861              _CheckRoughCalPoints:
    3862              ;* AL    assigned to _numsamples
    3863              DW$208  .dwtag  DW_TAG_formal_parameter, DW_AT_name("numsamples"), DW_AT_symbol_name("_numsamples")
    3864                      .dwattr DW$208, DW_AT_type(*DW$T$11)
    3865                      .dwattr DW$208, DW_AT_location[DW_OP_reg0]
    3866 000008c7 AABD          MOVL      *SP++,XAR2
    3867 000008c8 761F!         MOVW      DP,#_allsensors+4
         000008c9 0000 
    3868 000008ca 8F00-         MOVL      XAR4,#_calibration+651 ; |1156| 
         000008cb 02CB 
    3869 000008cc 88A9          MOVZ      AR6,AL                ; |1145| 
    3870 000008cd A2BD          MOVL      *SP++,XAR3
    3871 000008ce 8004!         MOVZ      AR7,@_allsensors+4    ; |1156| 
    3872 000008cf 93C4          MOV       AH,*+XAR4[0]          ; |1156| 
    3873 000008d0 FE06          ADDB      SP,#6
    3874 000008d1 92A8          MOV       AL,AH                 ; |1156| 
    3875 000008d2 9EA7          SUB       AL,AR7                ; |1156| 
    3876 000008d3 9CFE          ADDB      AL,#-2
    3877 000008d4 9643          MOV       *-SP[3],AL            ; |1156| 
    3878 000008d5 92CC          MOV       AL,*+XAR4[1]          ; |1157| 
    3879 000008d6 9EA7          SUB       AL,AR7                ; |1157| 
    3880 000008d7 9CFE          ADDB      AL,#-2
    3881 000008d8 9642          MOV       *-SP[2],AL            ; |1157| 
    3882 000008d9 92D4          MOV       AL,*+XAR4[2]          ; |1158| 
    3883 000008da 9EA7          SUB       AL,AR7                ; |1158| 
    3884 000008db 9CFE          ADDB      AL,#-2
    3885 000008dc 9641          MOV       *-SP[1],AL            ; |1158| 
    3886 000008dd 9243          MOV       AL,*-SP[3]            ; |1161| 
    3887 000008de 56C3          BF        L78,GEQ               ; |1161| 
         000008df 0004 
    3888                      ; branchcc occurs ; |1161| 
    3889 000008e0 9FA7          SUB       AH,AR7                ; |1161| 
    3890 000008e1 9743          MOV       *-SP[3],AH            ; |1161| 
    3891 000008e2       L78:    
    3892 000008e2 9342          MOV       AH,*-SP[2]            ; |1162| 
    3893 000008e3 56C3          BF        L79,GEQ               ; |1162| 
         000008e4 0009 
    3894                      ; branchcc occurs ; |1162| 
    3895 000008e5 761F-         MOVW      DP,#_calibration+652
         000008e6 000B 
    3896 000008e7 930C-         MOV       AH,@_calibration+652  ; |1162| 
    3897 000008e8 761F!         MOVW      DP,#_allsensors+4
         000008e9 0000 
    3898 000008ea 9F04!         SUB       AH,@_allsensors+4     ; |1162| 
TMS320C2000 COFF Assembler PC v4.1.3 Thu Aug 18 12:16:20 2016

Tools Copyright (c) 1996-2006 Texas Instruments Incorporated
mancal.asm                                                           PAGE   84

    3899 000008eb 9742          MOV       *-SP[2],AH            ; |1162| 
    3900 000008ec       L79:    
    3901 000008ec 9341          MOV       AH,*-SP[1]            ; |1163| 
    3902 000008ed 56C3          BF        L80,GEQ               ; |1163| 
         000008ee 0009 
    3903                      ; branchcc occurs ; |1163| 
    3904 000008ef 761F-         MOVW      DP,#_calibration+653
         000008f0 000B 
    3905 000008f1 930D-         MOV       AH,@_calibration+653  ; |1163| 
    3906 000008f2 761F!         MOVW      DP,#_allsensors+4
         000008f3 0000 
    3907 000008f4 9F04!         SUB       AH,@_allsensors+4     ; |1163| 
    3908 000008f5 9741          MOV       *-SP[1],AH            ; |1163| 
    3909 000008f6       L80:    
    3910 000008f6 3B01          SETC      SXM
    3911 000008f7 2BAC          MOV       T,#0                  ; |1166| 
    3912                      .dwpsn  "mancal.c",1166,0
    3913 000008f8 5DAC          MOVZ      AR5,T                 ; |1166| 
    3914              L81:    
    3915              DW$L$_CheckRoughCalPoints$8$B:
    3916                      .dwpsn  "mancal.c",1167,0
    3917 000008f9 5CAD          MOVZ      AR4,SP                ; |1168| 
    3918 000008fa 92A5          MOV       AL,AR5
    3919 000008fb 85A9          MOV       ACC,AL                ; |1168| 
    3920 000008fc DC86          SUBB      XAR4,#6               ; |1168| 
    3921 000008fd 5601          ADDL      XAR4,ACC
         000008fe 00A4 
    3922 000008ff 93A5          MOV       AH,AR5                ; |1168| 
    3923 00000900 9D01          ADDB      AH,#1                 ; |1166| 
    3924 00000901 5DA8          MOVZ      AR5,AH                ; |1166| 
    3925 00000902 5303          CMPB      AH,#3                 ; |1166| 
    3926 00000903 2BC4          MOV       *+XAR4[0],#0          ; |1168| 
    3927                      .dwpsn  "mancal.c",1169,0
    3928 00000904 56C4          BF        L81,LT                ; |1166| 
         00000905 FFF5 
    3929                      ; branchcc occurs ; |1166| 
    3930              DW$L$_CheckRoughCalPoints$8$E:
    3931                      .dwpsn  "mancal.c",1171,0
    3932 00000906 B600          MOVB      XAR7,#0
    3933              L82:    
    3934              DW$L$_CheckRoughCalPoints$10$B:
    3935                      .dwpsn  "mancal.c",1172,0
    3936 00000907 5CAD          MOVZ      AR4,SP                ; |1175| 
    3937 00000908 3B01          SETC      SXM
    3938 00000909 85A7          MOV       ACC,AR7               ; |1175| 
    3939 0000090a DC83          SUBB      XAR4,#3               ; |1175| 
    3940 0000090b 5601          ADDL      XAR4,ACC
         0000090c 00A4 
    3941 0000090d 9A04          MOVB      AL,#4                 ; |1175| 
    3942 0000090e 2DC4          MOV       T,*+XAR4[0]           ; |1175| 
    3943 0000090f 94AC          ADD       AL,T                  ; |1175| 
    3944 00000910 5DAC          MOVZ      AR5,T                 ; |1177| 
    3945 00000911 27A9          MOV       PL,AL                 ; |1175| 
    3946                      .dwpsn  "mancal.c",1177,0
    3947 00000912 3B01          SETC      SXM
TMS320C2000 COFF Assembler PC v4.1.3 Thu Aug 18 12:16:20 2016

Tools Copyright (c) 1996-2006 Texas Instruments Incorporated
mancal.asm                                                           PAGE   85

    3948              DW$L$_CheckRoughCalPoints$10$E:
    3949              L83:    
    3950              DW$L$_CheckRoughCalPoints$11$B:
    3951                      .dwpsn  "mancal.c",1178,0
    3952 00000913 5603          MOV       ACC,T << 1            ; |1179| 
         00000914 01AC 
    3953 00000915 8F00-         MOVL      XAR4,#_calibration+14 ; |1179| 
         00000916 004E 
    3954 00000917 5601          ADDL      XAR4,ACC
         00000918 00A4 
    3955 00000919 0EA6          MOVU      ACC,AR6
    3956 0000091a 0FC4          CMPL      ACC,*+XAR4[0]         ; |1179| 
    3957 0000091b 56C6          BF        L84,HI                ; |1179| 
         0000091c 0009 
    3958                      ; branchcc occurs ; |1179| 
    3959 0000091d       DW$L$_CheckRoughCalPoints$11$E:
    3960 0000091d       DW$L$_CheckRoughCalPoints$12$B:
    3961 0000091d 5CAD          MOVZ      AR4,SP                ; |1181| 
    3962 0000091e 85A7          MOV       ACC,AR7               ; |1181| 
    3963 0000091f DC86          SUBB      XAR4,#6               ; |1181| 
    3964 00000920 5601          ADDL      XAR4,ACC
         00000921 00A4 
    3965 00000922 28C4          MOV       *+XAR4[0],#1          ; |1181| 
         00000923 0001 
    3966 00000924       DW$L$_CheckRoughCalPoints$12$E:
    3967 00000924       L84:    
    3968 00000924       DW$L$_CheckRoughCalPoints$13$B:
    3969 00000924 93A5          MOV       AH,AR5
    3970 00000925 9D01          ADDB      AH,#1                 ; |1177| 
    3971 00000926 5DA8          MOVZ      AR5,AH                ; |1177| 
    3972 00000927 2DA5          MOV       T,AR5                 ; |1177| 
    3973 00000928 93AB          MOV       AH,PL                 ; |1177| 
    3974 00000929 55AC          CMP       AH,T                  ; |1177| 
    3975                      .dwpsn  "mancal.c",1183,0
    3976 0000092a 56C3          BF        L83,GEQ               ; |1177| 
         0000092b FFE9 
    3977                      ; branchcc occurs ; |1177| 
    3978 0000092c       DW$L$_CheckRoughCalPoints$13$E:
    3979 0000092c       DW$L$_CheckRoughCalPoints$14$B:
    3980 0000092c 93A7          MOV       AH,AR7
    3981 0000092d 9D01          ADDB      AH,#1                 ; |1171| 
    3982 0000092e 5303          CMPB      AH,#3                 ; |1171| 
    3983 0000092f 80A8          MOVZ      AR7,AH                ; |1171| 
    3984                      .dwpsn  "mancal.c",1184,0
    3985 00000930 56C4          BF        L82,LT                ; |1171| 
         00000931 FFD7 
    3986                      ; branchcc occurs ; |1171| 
    3987 00000932       DW$L$_CheckRoughCalPoints$14$E:
    3988 00000932 2BAC          MOV       T,#0                  ; |1186| 
    3989                      .dwpsn  "mancal.c",1186,0
    3990 00000933 5DAC          MOVZ      AR5,T                 ; |1186| 
    3991              L85:    
    3992              DW$L$_CheckRoughCalPoints$16$B:
    3993                      .dwpsn  "mancal.c",1187,0
    3994 00000934 3B01          SETC      SXM
TMS320C2000 COFF Assembler PC v4.1.3 Thu Aug 18 12:16:20 2016

Tools Copyright (c) 1996-2006 Texas Instruments Incorporated
mancal.asm                                                           PAGE   86

    3995 00000935 92A5          MOV       AL,AR5
    3996 00000936 8F00-         MOVL      XAR4,#_calibration+651 ; |1188| 
         00000937 02CB 
    3997 00000938 85A9          MOV       ACC,AL                ; |1188| 
    3998 00000939 5601          ADDL      XAR4,ACC
         0000093a 00A4 
    3999 0000093b 761F!         MOVW      DP,#_allsensors+4
         0000093c 0000 
    4000 0000093d 93C4          MOV       AH,*+XAR4[0]          ; |1188| 
    4001 0000093e 5CAD          MOVZ      AR4,SP                ; |1189| 
    4002 0000093f 9F04!         SUB       AH,@_allsensors+4     ; |1188| 
    4003 00000940 92A5          MOV       AL,AR5                ; |1188| 
    4004 00000941 58A8          MOVZ      AR0,AH                ; |1188| 
    4005 00000942 DC86          SUBB      XAR4,#6               ; |1189| 
    4006 00000943 85A9          MOV       ACC,AL                ; |1189| 
    4007 00000944 5601          ADDL      XAR4,ACC
         00000945 00A4 
    4008 00000946 93C4          MOV       AH,*+XAR4[0]          ; |1189| 
    4009 00000947 ED2F          BF        L88,NEQ               ; |1189| 
    4010                      ; branchcc occurs ; |1189| 
    4011 00000948       DW$L$_CheckRoughCalPoints$16$E:
    4012 00000948       DW$L$_CheckRoughCalPoints$17$B:
    4013 00000948 761F!         MOVW      DP,#_allsensors
         00000949 0000 
    4014 0000094a B600          MOVB      XAR7,#0
    4015 0000094b 9300!         MOV       AH,@_allsensors       ; |1191| 
    4016 0000094c EC2A          BF        L88,EQ                ; |1191| 
    4017                      ; branchcc occurs ; |1191| 
    4018              DW$L$_CheckRoughCalPoints$17$E:
    4019              L86:    
    4020              DW$L$_CheckRoughCalPoints$18$B:
    4021                      .dwpsn  "mancal.c",1192,0
    4022 0000094d 2DA7          MOV       T,AR7                 ; |1193| 
    4023 0000094e 8F00!         MOVL      XAR4,#_sensor         ; |1193| 
         0000094f 0000 
    4024 00000950 3512          MPYB      ACC,T,#18             ; |1193| 
    4025 00000951 5601          ADDL      XAR4,ACC
         00000952 00A4 
    4026 00000953 93C4          MOV       AH,*+XAR4[0]          ; |1193| 
    4027 00000954 CCA8          AND       AL,AH,#0x0001         ; |1193| 
         00000955 0001 
    4028 00000956 EC18          BF        L87,EQ                ; |1193| 
    4029                      ; branchcc occurs ; |1193| 
    4030 00000957       DW$L$_CheckRoughCalPoints$18$E:
    4031 00000957       DW$L$_CheckRoughCalPoints$19$B:
    4032 00000957 9102          ANDB      AH,#2                 ; |1193| 
    4033 00000958 EC16          BF        L87,EQ                ; |1193| 
    4034                      ; branchcc occurs ; |1193| 
    4035 00000959       DW$L$_CheckRoughCalPoints$19$E:
    4036 00000959       DW$L$_CheckRoughCalPoints$20$B:
    4037 00000959 2DA0          MOV       T,AR0                 ; |1196| 
    4038 0000095a 3B01          SETC      SXM
    4039 0000095b 311C          MPYB      P,T,#28               ; |1196| 
    4040 0000095c 8F00-         MOVL      XAR4,#_calibration+654 ; |1196| 
         0000095d 02CE 
TMS320C2000 COFF Assembler PC v4.1.3 Thu Aug 18 12:16:20 2016

Tools Copyright (c) 1996-2006 Texas Instruments Incorporated
mancal.asm                                                           PAGE   87

    4041 0000095e 85A7          MOV       ACC,AR7               ; |1196| 
    4042 0000095f 2DA5          MOV       T,AR5                 ; |1196| 
    4043 00000960 A9A3          MOVL      XAR3,P                ; |1196| 
    4044 00000961 86A9          MOVL      XAR2,ACC              ; |1196| 
    4045 00000962 311C          MPYB      P,T,#28               ; |1196| 
    4046 00000963 07AB          ADDL      ACC,P
    4047 00000964 5601          ADDL      XAR4,ACC
         00000965 00A4 
    4048 00000966 27C4          MOV       PL,*+XAR4[0]          ; |1196| 
    4049 00000967 AAA9          MOVL      ACC,XAR2              ; |1196| 
    4050 00000968 8F00!         MOVL      XAR4,#_man_comptable  ; |1196| 
         00000969 0000 
    4051 0000096a 07A3          ADDL      ACC,XAR3
    4052 0000096b 5601          ADDL      XAR4,ACC
         0000096c 00A4 
    4053 0000096d 3FC4          MOV       *+XAR4[0],P           ; |1196| 
    4054 0000096e       DW$L$_CheckRoughCalPoints$20$E:
    4055 0000096e       L87:    
    4056 0000096e       DW$L$_CheckRoughCalPoints$21$B:
    4057 0000096e 93A7          MOV       AH,AR7
    4058 0000096f 9D01          ADDB      AH,#1                 ; |1191| 
    4059 00000970 80A8          MOVZ      AR7,AH                ; |1191| 
    4060 00000971 761F!         MOVW      DP,#_allsensors
         00000972 0000 
    4061 00000973 5500!         CMP       AH,@_allsensors       ; |1191| 
    4062                      .dwpsn  "mancal.c",1198,0
    4063 00000974 56C8          BF        L86,LO                ; |1191| 
         00000975 FFD9 
    4064                      ; branchcc occurs ; |1191| 
    4065 00000976       DW$L$_CheckRoughCalPoints$21$E:
    4066 00000976       L88:    
    4067 00000976       DW$L$_CheckRoughCalPoints$22$B:
    4068 00000976 93A5          MOV       AH,AR5
    4069 00000977 9D01          ADDB      AH,#1                 ; |1186| 
    4070 00000978 5303          CMPB      AH,#3                 ; |1186| 
    4071 00000979 5DA8          MOVZ      AR5,AH                ; |1186| 
    4072                      .dwpsn  "mancal.c",1200,0
    4073 0000097a 56C4          BF        L85,LT                ; |1186| 
         0000097b FFBA 
    4074                      ; branchcc occurs ; |1186| 
    4075 0000097c       DW$L$_CheckRoughCalPoints$22$E:
    4076 0000097c 0EA6          MOVU      ACC,AR6
    4077 0000097d 8F00-         MOVL      XAR4,#_calibration+14 ; |1208| 
         0000097e 004E 
    4078 0000097f 0FC4          CMPL      ACC,*+XAR4[0]         ; |1208| 
    4079 00000980 56C9          BF        L91,LOS               ; |1208| 
         00000981 0030 
    4080                      ; branchcc occurs ; |1208| 
    4081 00000982 0EA6          MOVU      ACC,AR6
    4082 00000983 0FD4          CMPL      ACC,*+XAR4[2]         ; |1208| 
    4083 00000984 56C9          BF        L91,LOS               ; |1208| 
         00000985 002C 
    4084                      ; branchcc occurs ; |1208| 
    4085 00000986 0EA6          MOVU      ACC,AR6
    4086 00000987 0FE4          CMPL      ACC,*+XAR4[4]         ; |1208| 
TMS320C2000 COFF Assembler PC v4.1.3 Thu Aug 18 12:16:20 2016

Tools Copyright (c) 1996-2006 Texas Instruments Incorporated
mancal.asm                                                           PAGE   88

    4087 00000988 56C9          BF        L91,LOS               ; |1208| 
         00000989 0028 
    4088                      ; branchcc occurs ; |1208| 
    4089 0000098a 761F!         MOVW      DP,#_allsensors
         0000098b 0000 
    4090 0000098c B600          MOVB      XAR7,#0
    4091 0000098d 9300!         MOV       AH,@_allsensors       ; |1210| 
    4092 0000098e EC22          BF        L91,EQ                ; |1210| 
    4093                      ; branchcc occurs ; |1210| 
    4094              L89:    
    4095              DW$L$_CheckRoughCalPoints$27$B:
    4096                      .dwpsn  "mancal.c",1211,0
    4097 0000098f 2DA7          MOV       T,AR7                 ; |1212| 
    4098 00000990 8F00!         MOVL      XAR4,#_sensor         ; |1212| 
         00000991 0000 
    4099 00000992 3512          MPYB      ACC,T,#18             ; |1212| 
    4100 00000993 5601          ADDL      XAR4,ACC
         00000994 00A4 
    4101 00000995 93C4          MOV       AH,*+XAR4[0]          ; |1212| 
    4102 00000996 CCA8          AND       AL,AH,#0x0001         ; |1212| 
         00000997 0001 
    4103 00000998 EC10          BF        L90,EQ                ; |1212| 
    4104                      ; branchcc occurs ; |1212| 
    4105 00000999       DW$L$_CheckRoughCalPoints$27$E:
    4106 00000999       DW$L$_CheckRoughCalPoints$28$B:
    4107 00000999 9102          ANDB      AH,#2                 ; |1212| 
    4108 0000099a EC0E          BF        L90,EQ                ; |1212| 
    4109                      ; branchcc occurs ; |1212| 
    4110 0000099b       DW$L$_CheckRoughCalPoints$28$E:
    4111 0000099b       DW$L$_CheckRoughCalPoints$29$B:
    4112 0000099b 3B01          SETC      SXM
    4113 0000099c 8F00-         MOVL      XAR4,#_calibration+738 ; |1215| 
         0000099d 0322 
    4114 0000099e 85A7          MOV       ACC,AR7               ; |1215| 
    4115 0000099f 5601          ADDL      XAR4,ACC
         000009a0 00A4 
    4116 000009a1 27C4          MOV       PL,*+XAR4[0]          ; |1215| 
    4117 000009a2 85A7          MOV       ACC,AR7               ; |1215| 
    4118 000009a3 8F00!         MOVL      XAR4,#_man_comptable  ; |1215| 
         000009a4 0000 
    4119 000009a5 5601          ADDL      XAR4,ACC
         000009a6 00A4 
    4120 000009a7 3FC4          MOV       *+XAR4[0],P           ; |1215| 
    4121 000009a8       DW$L$_CheckRoughCalPoints$29$E:
    4122 000009a8       L90:    
    4123 000009a8       DW$L$_CheckRoughCalPoints$30$B:
    4124 000009a8 93A7          MOV       AH,AR7
    4125 000009a9 9D01          ADDB      AH,#1                 ; |1210| 
    4126 000009aa 80A8          MOVZ      AR7,AH                ; |1210| 
    4127 000009ab 761F!         MOVW      DP,#_allsensors
         000009ac 0000 
    4128 000009ad 5500!         CMP       AH,@_allsensors       ; |1210| 
    4129                      .dwpsn  "mancal.c",1217,0
    4130 000009ae 56C8          BF        L89,LO                ; |1210| 
         000009af FFE1 
TMS320C2000 COFF Assembler PC v4.1.3 Thu Aug 18 12:16:20 2016

Tools Copyright (c) 1996-2006 Texas Instruments Incorporated
mancal.asm                                                           PAGE   89

    4131                      ; branchcc occurs ; |1210| 
    4132 000009b0       DW$L$_CheckRoughCalPoints$30$E:
    4133 000009b0       L91:    
    4134 000009b0 761F-         MOVW      DP,#_calibration
         000009b1 0001 
    4135 000009b2 8000-         MOVZ      AR7,@_calibration     ; |1219| 
    4136 000009b3 8F00-         MOVL      XAR4,#_calibration+14 ; |1219| 
         000009b4 004E 
    4137 000009b5 92A7          MOV       AL,AR7                ; |1219| 
    4138 000009b6 83A4          MOVL      XAR5,XAR4             ; |1219| 
    4139 000009b7 9CFF          ADDB      AL,#-1
    4140 000009b8 0EA9          MOVU      ACC,AL
    4141 000009b9 FF30          LSL       ACC,1                 ; |1219| 
    4142 000009ba 5601          ADDL      XAR5,ACC
         000009bb 00A5 
    4143 000009bc 0EA6          MOVU      ACC,AR6
    4144 000009bd 0FC5          CMPL      ACC,*+XAR5[0]         ; |1219| 
    4145 000009be 56C9          BF        L94,LOS               ; |1219| 
         000009bf 0044 
    4146                      ; branchcc occurs ; |1219| 
    4147 000009c0 92A7          MOV       AL,AR7                ; |1219| 
    4148 000009c1 83A4          MOVL      XAR5,XAR4             ; |1219| 
    4149 000009c2 9CFE          ADDB      AL,#-2
    4150 000009c3 0EA9          MOVU      ACC,AL
    4151 000009c4 FF30          LSL       ACC,1                 ; |1219| 
    4152 000009c5 5601          ADDL      XAR5,ACC
         000009c6 00A5 
    4153 000009c7 0EA6          MOVU      ACC,AR6
    4154 000009c8 0FC5          CMPL      ACC,*+XAR5[0]         ; |1219| 
    4155 000009c9 56C9          BF        L94,LOS               ; |1219| 
         000009ca 0039 
    4156                      ; branchcc occurs ; |1219| 
    4157 000009cb 93A7          MOV       AH,AR7                ; |1219| 
    4158 000009cc 9DFD          ADDB      AH,#-3
    4159 000009cd 0EA8          MOVU      ACC,AH
    4160 000009ce FF30          LSL       ACC,1                 ; |1219| 
    4161 000009cf 5601          ADDL      XAR4,ACC
         000009d0 00A4 
    4162 000009d1 0EA6          MOVU      ACC,AR6
    4163 000009d2 0FC4          CMPL      ACC,*+XAR4[0]         ; |1219| 
    4164 000009d3 56C9          BF        L94,LOS               ; |1219| 
         000009d4 002F 
    4165                      ; branchcc occurs ; |1219| 
    4166 000009d5 761F!         MOVW      DP,#_allsensors
         000009d6 0000 
    4167 000009d7 9200!         MOV       AL,@_allsensors       ; |1221| 
    4168 000009d8 B600          MOVB      XAR7,#0
    4169 000009d9 EC29          BF        L94,EQ                ; |1221| 
    4170                      ; branchcc occurs ; |1221| 
    4171              L92:    
    4172              DW$L$_CheckRoughCalPoints$35$B:
    4173                      .dwpsn  "mancal.c",1222,0
    4174 000009da 2DA7          MOV       T,AR7                 ; |1223| 
    4175 000009db 8F00!         MOVL      XAR4,#_sensor         ; |1223| 
         000009dc 0000 
TMS320C2000 COFF Assembler PC v4.1.3 Thu Aug 18 12:16:20 2016

Tools Copyright (c) 1996-2006 Texas Instruments Incorporated
mancal.asm                                                           PAGE   90

    4176 000009dd 3512          MPYB      ACC,T,#18             ; |1223| 
    4177 000009de 5601          ADDL      XAR4,ACC
         000009df 00A4 
    4178 000009e0 92C4          MOV       AL,*+XAR4[0]          ; |1223| 
    4179 000009e1 CDA9          AND       AH,AL,#0x0001         ; |1223| 
         000009e2 0001 
    4180 000009e3 EC17          BF        L93,EQ                ; |1223| 
    4181                      ; branchcc occurs ; |1223| 
    4182 000009e4       DW$L$_CheckRoughCalPoints$35$E:
    4183 000009e4       DW$L$_CheckRoughCalPoints$36$B:
    4184 000009e4 9002          ANDB      AL,#2                 ; |1223| 
    4185 000009e5 EC15          BF        L93,EQ                ; |1223| 
    4186                      ; branchcc occurs ; |1223| 
    4187 000009e6       DW$L$_CheckRoughCalPoints$36$E:
    4188 000009e6       DW$L$_CheckRoughCalPoints$37$B:
    4189 000009e6 3B01          SETC      SXM
    4190 000009e7 8F00-         MOVL      XAR4,#_calibration+766 ; |1226| 
         000009e8 033E 
    4191 000009e9 761F-         MOVW      DP,#_calibration
         000009ea 0001 
    4192 000009eb 85A7          MOV       ACC,AR7               ; |1226| 
    4193 000009ec 28AC          MOV       T,#28                 ; |1226| 
         000009ed 001C 
    4194 000009ee 5601          ADDL      XAR4,ACC
         000009ef 00A4 
    4195 000009f0 9200-         MOV       AL,@_calibration      ; |1226| 
    4196 000009f1 9CFF          ADDB      AL,#-1
    4197 000009f2 30A9          MPYXU     ACC,T,AL              ; |1226| 
    4198 000009f3 88C4          MOVZ      AR6,*+XAR4[0]         ; |1226| 
    4199 000009f4 81A7          ADD       ACC,AR7               ; |1226| 
    4200 000009f5 8F00!         MOVL      XAR4,#_man_comptable  ; |1226| 
         000009f6 0000 
    4201 000009f7 5601          ADDL      XAR4,ACC
         000009f8 00A4 
    4202 000009f9 7EC4          MOV       *+XAR4[0],AR6         ; |1226| 
    4203 000009fa       DW$L$_CheckRoughCalPoints$37$E:
    4204 000009fa       L93:    
    4205 000009fa       DW$L$_CheckRoughCalPoints$38$B:
    4206 000009fa 92A7          MOV       AL,AR7
    4207 000009fb 9C01          ADDB      AL,#1                 ; |1221| 
    4208 000009fc 80A9          MOVZ      AR7,AL                ; |1221| 
    4209 000009fd 761F!         MOVW      DP,#_allsensors
         000009fe 0000 
    4210 000009ff 5400!         CMP       AL,@_allsensors       ; |1221| 
    4211                      .dwpsn  "mancal.c",1228,0
    4212 00000a00 56C8          BF        L92,LO                ; |1221| 
         00000a01 FFDA 
    4213                      ; branchcc occurs ; |1221| 
    4214 00000a02       DW$L$_CheckRoughCalPoints$38$E:
    4215 00000a02       L94:    
    4216 00000a02 FE86          SUBB      SP,#6
    4217 00000a03 82BE          MOVL      XAR3,*--SP
    4218 00000a04 86BE          MOVL      XAR2,*--SP
    4219                      .dwpsn  "mancal.c",1231,1
    4220 00000a05 0006          LRETR
TMS320C2000 COFF Assembler PC v4.1.3 Thu Aug 18 12:16:20 2016

Tools Copyright (c) 1996-2006 Texas Instruments Incorporated
mancal.asm                                                           PAGE   91

    4221                      ; return occurs
    4222              
    4223              DW$209  .dwtag  DW_TAG_loop
    4224                      .dwattr DW$209, DW_AT_name("D:\DEV\Amot\BearingWear\XTSW_V6_20\mancal.asm:L92:1:1471518980")
    4225                      .dwattr DW$209, DW_AT_begin_file("mancal.c")
    4226                      .dwattr DW$209, DW_AT_begin_line(0x4c5)
    4227                      .dwattr DW$209, DW_AT_end_line(0x4cc)
    4228              DW$210  .dwtag  DW_TAG_loop_range
    4229                      .dwattr DW$210, DW_AT_low_pc(DW$L$_CheckRoughCalPoints$35$B)
    4230                      .dwattr DW$210, DW_AT_high_pc(DW$L$_CheckRoughCalPoints$35$E)
    4231              DW$211  .dwtag  DW_TAG_loop_range
    4232                      .dwattr DW$211, DW_AT_low_pc(DW$L$_CheckRoughCalPoints$36$B)
    4233                      .dwattr DW$211, DW_AT_high_pc(DW$L$_CheckRoughCalPoints$36$E)
    4234              DW$212  .dwtag  DW_TAG_loop_range
    4235                      .dwattr DW$212, DW_AT_low_pc(DW$L$_CheckRoughCalPoints$37$B)
    4236                      .dwattr DW$212, DW_AT_high_pc(DW$L$_CheckRoughCalPoints$37$E)
    4237              DW$213  .dwtag  DW_TAG_loop_range
    4238                      .dwattr DW$213, DW_AT_low_pc(DW$L$_CheckRoughCalPoints$38$B)
    4239                      .dwattr DW$213, DW_AT_high_pc(DW$L$_CheckRoughCalPoints$38$E)
    4240                      .dwendtag DW$209
    4241              
    4242              
    4243              DW$214  .dwtag  DW_TAG_loop
    4244                      .dwattr DW$214, DW_AT_name("D:\DEV\Amot\BearingWear\XTSW_V6_20\mancal.asm:L89:1:1471518980")
    4245                      .dwattr DW$214, DW_AT_begin_file("mancal.c")
    4246                      .dwattr DW$214, DW_AT_begin_line(0x4ba)
    4247                      .dwattr DW$214, DW_AT_end_line(0x4c1)
    4248              DW$215  .dwtag  DW_TAG_loop_range
    4249                      .dwattr DW$215, DW_AT_low_pc(DW$L$_CheckRoughCalPoints$27$B)
    4250                      .dwattr DW$215, DW_AT_high_pc(DW$L$_CheckRoughCalPoints$27$E)
    4251              DW$216  .dwtag  DW_TAG_loop_range
    4252                      .dwattr DW$216, DW_AT_low_pc(DW$L$_CheckRoughCalPoints$28$B)
    4253                      .dwattr DW$216, DW_AT_high_pc(DW$L$_CheckRoughCalPoints$28$E)
    4254              DW$217  .dwtag  DW_TAG_loop_range
    4255                      .dwattr DW$217, DW_AT_low_pc(DW$L$_CheckRoughCalPoints$29$B)
    4256                      .dwattr DW$217, DW_AT_high_pc(DW$L$_CheckRoughCalPoints$29$E)
    4257              DW$218  .dwtag  DW_TAG_loop_range
    4258                      .dwattr DW$218, DW_AT_low_pc(DW$L$_CheckRoughCalPoints$30$B)
    4259                      .dwattr DW$218, DW_AT_high_pc(DW$L$_CheckRoughCalPoints$30$E)
    4260                      .dwendtag DW$214
    4261              
    4262              
    4263              DW$219  .dwtag  DW_TAG_loop
    4264                      .dwattr DW$219, DW_AT_name("D:\DEV\Amot\BearingWear\XTSW_V6_20\mancal.asm:L85:1:1471518980")
    4265                      .dwattr DW$219, DW_AT_begin_file("mancal.c")
    4266                      .dwattr DW$219, DW_AT_begin_line(0x4a2)
    4267                      .dwattr DW$219, DW_AT_end_line(0x4b0)
    4268              DW$220  .dwtag  DW_TAG_loop_range
    4269                      .dwattr DW$220, DW_AT_low_pc(DW$L$_CheckRoughCalPoints$16$B)
    4270                      .dwattr DW$220, DW_AT_high_pc(DW$L$_CheckRoughCalPoints$16$E)
    4271              DW$221  .dwtag  DW_TAG_loop_range
    4272                      .dwattr DW$221, DW_AT_low_pc(DW$L$_CheckRoughCalPoints$17$B)
    4273                      .dwattr DW$221, DW_AT_high_pc(DW$L$_CheckRoughCalPoints$17$E)
    4274              DW$222  .dwtag  DW_TAG_loop_range
    4275                      .dwattr DW$222, DW_AT_low_pc(DW$L$_CheckRoughCalPoints$22$B)
TMS320C2000 COFF Assembler PC v4.1.3 Thu Aug 18 12:16:20 2016

Tools Copyright (c) 1996-2006 Texas Instruments Incorporated
mancal.asm                                                           PAGE   92

    4276                      .dwattr DW$222, DW_AT_high_pc(DW$L$_CheckRoughCalPoints$22$E)
    4277              
    4278              DW$223  .dwtag  DW_TAG_loop
    4279                      .dwattr DW$223, DW_AT_name("D:\DEV\Amot\BearingWear\XTSW_V6_20\mancal.asm:L86:2:1471518980")
    4280                      .dwattr DW$223, DW_AT_begin_file("mancal.c")
    4281                      .dwattr DW$223, DW_AT_begin_line(0x4a7)
    4282                      .dwattr DW$223, DW_AT_end_line(0x4ae)
    4283              DW$224  .dwtag  DW_TAG_loop_range
    4284                      .dwattr DW$224, DW_AT_low_pc(DW$L$_CheckRoughCalPoints$18$B)
    4285                      .dwattr DW$224, DW_AT_high_pc(DW$L$_CheckRoughCalPoints$18$E)
    4286              DW$225  .dwtag  DW_TAG_loop_range
    4287                      .dwattr DW$225, DW_AT_low_pc(DW$L$_CheckRoughCalPoints$19$B)
    4288                      .dwattr DW$225, DW_AT_high_pc(DW$L$_CheckRoughCalPoints$19$E)
    4289              DW$226  .dwtag  DW_TAG_loop_range
    4290                      .dwattr DW$226, DW_AT_low_pc(DW$L$_CheckRoughCalPoints$20$B)
    4291                      .dwattr DW$226, DW_AT_high_pc(DW$L$_CheckRoughCalPoints$20$E)
    4292              DW$227  .dwtag  DW_TAG_loop_range
    4293                      .dwattr DW$227, DW_AT_low_pc(DW$L$_CheckRoughCalPoints$21$B)
    4294                      .dwattr DW$227, DW_AT_high_pc(DW$L$_CheckRoughCalPoints$21$E)
    4295                      .dwendtag DW$223
    4296              
    4297                      .dwendtag DW$219
    4298              
    4299              
    4300              DW$228  .dwtag  DW_TAG_loop
    4301                      .dwattr DW$228, DW_AT_name("D:\DEV\Amot\BearingWear\XTSW_V6_20\mancal.asm:L82:1:1471518980")
    4302                      .dwattr DW$228, DW_AT_begin_file("mancal.c")
    4303                      .dwattr DW$228, DW_AT_begin_line(0x493)
    4304                      .dwattr DW$228, DW_AT_end_line(0x4a0)
    4305              DW$229  .dwtag  DW_TAG_loop_range
    4306                      .dwattr DW$229, DW_AT_low_pc(DW$L$_CheckRoughCalPoints$10$B)
    4307                      .dwattr DW$229, DW_AT_high_pc(DW$L$_CheckRoughCalPoints$10$E)
    4308              DW$230  .dwtag  DW_TAG_loop_range
    4309                      .dwattr DW$230, DW_AT_low_pc(DW$L$_CheckRoughCalPoints$14$B)
    4310                      .dwattr DW$230, DW_AT_high_pc(DW$L$_CheckRoughCalPoints$14$E)
    4311              
    4312              DW$231  .dwtag  DW_TAG_loop
    4313                      .dwattr DW$231, DW_AT_name("D:\DEV\Amot\BearingWear\XTSW_V6_20\mancal.asm:L83:2:1471518980")
    4314                      .dwattr DW$231, DW_AT_begin_file("mancal.c")
    4315                      .dwattr DW$231, DW_AT_begin_line(0x499)
    4316                      .dwattr DW$231, DW_AT_end_line(0x49f)
    4317              DW$232  .dwtag  DW_TAG_loop_range
    4318                      .dwattr DW$232, DW_AT_low_pc(DW$L$_CheckRoughCalPoints$11$B)
    4319                      .dwattr DW$232, DW_AT_high_pc(DW$L$_CheckRoughCalPoints$11$E)
    4320              DW$233  .dwtag  DW_TAG_loop_range
    4321                      .dwattr DW$233, DW_AT_low_pc(DW$L$_CheckRoughCalPoints$12$B)
    4322                      .dwattr DW$233, DW_AT_high_pc(DW$L$_CheckRoughCalPoints$12$E)
    4323              DW$234  .dwtag  DW_TAG_loop_range
    4324                      .dwattr DW$234, DW_AT_low_pc(DW$L$_CheckRoughCalPoints$13$B)
    4325                      .dwattr DW$234, DW_AT_high_pc(DW$L$_CheckRoughCalPoints$13$E)
    4326                      .dwendtag DW$231
    4327              
    4328                      .dwendtag DW$228
    4329              
    4330              
TMS320C2000 COFF Assembler PC v4.1.3 Thu Aug 18 12:16:20 2016

Tools Copyright (c) 1996-2006 Texas Instruments Incorporated
mancal.asm                                                           PAGE   93

    4331              DW$235  .dwtag  DW_TAG_loop
    4332                      .dwattr DW$235, DW_AT_name("D:\DEV\Amot\BearingWear\XTSW_V6_20\mancal.asm:L81:1:1471518980")
    4333                      .dwattr DW$235, DW_AT_begin_file("mancal.c")
    4334                      .dwattr DW$235, DW_AT_begin_line(0x48e)
    4335                      .dwattr DW$235, DW_AT_end_line(0x491)
    4336              DW$236  .dwtag  DW_TAG_loop_range
    4337                      .dwattr DW$236, DW_AT_low_pc(DW$L$_CheckRoughCalPoints$8$B)
    4338                      .dwattr DW$236, DW_AT_high_pc(DW$L$_CheckRoughCalPoints$8$E)
    4339                      .dwendtag DW$235
    4340              
    4341                      .dwattr DW$207, DW_AT_end_file("mancal.c")
    4342                      .dwattr DW$207, DW_AT_end_line(0x4cf)
    4343                      .dwattr DW$207, DW_AT_end_column(0x01)
    4344                      .dwendtag DW$207
    4345              
    4346 00000a06               .sect   ".text"
    4347                      .global _FineCurveCal
    4348              
    4349              DW$237  .dwtag  DW_TAG_subprogram, DW_AT_name("FineCurveCal"), DW_AT_symbol_name("_FineCurveCal")
    4350                      .dwattr DW$237, DW_AT_low_pc(_FineCurveCal)
    4351                      .dwattr DW$237, DW_AT_high_pc(0x00)
    4352                      .dwattr DW$237, DW_AT_begin_file("mancal.c")
    4353                      .dwattr DW$237, DW_AT_begin_line(0x4d6)
    4354                      .dwattr DW$237, DW_AT_begin_column(0x06)
    4355                      .dwattr DW$237, DW_AT_frame_base[DW_OP_breg20 -14]
    4356                      .dwattr DW$237, DW_AT_skeletal(0x01)
    4357                      .dwpsn  "mancal.c",1239,1
    4358              
    4359              ;***************************************************************
    4360              ;* FNAME: _FineCurveCal                 FR SIZE:  12           *
    4361              ;*                                                             *
    4362              ;* FUNCTION ENVIRONMENT                                        *
    4363              ;*                                                             *
    4364              ;* FUNCTION PROPERTIES                                         *
    4365              ;*                            2 Parameter,  4 Auto,  6 SOE     *
    4366              ;***************************************************************
    4367              
    4368 00000a06       _FineCurveCal:
    4369 00000a06 B2BD          MOVL      *SP++,XAR1
    4370 00000a07 9A00          MOVB      AL,#0
    4371 00000a08 AABD          MOVL      *SP++,XAR2
    4372 00000a09 A2BD          MOVL      *SP++,XAR3
    4373 00000a0a FE06          ADDB      SP,#6
    4374 00000a0b 7640!         LCR       #_GetModalRPM         ; |1247| 
         00000a0c 0000 
    4375                      ; call occurs [#_GetModalRPM] ; |1247| 
    4376 00000a0d 761F!         MOVW      DP,#_allsensors+16
         00000a0e 0000 
    4377 00000a0f 4010!         TBIT      @_allsensors+16,#0    ; |1248| 
    4378 00000a10 EE09          BF        L95,TC                ; |1248| 
    4379                      ; branchcc occurs ; |1248| 
    4380 00000a11 5200          CMPB      AL,#0                 ; |1346| 
    4381 00000a12 56C0          BF        L105,NEQ              ; |1346| 
         00000a13 0130 
    4382                      ; branchcc occurs ; |1346| 
TMS320C2000 COFF Assembler PC v4.1.3 Thu Aug 18 12:16:20 2016

Tools Copyright (c) 1996-2006 Texas Instruments Incorporated
mancal.asm                                                           PAGE   94

    4383 00000a14 761F!         MOVW      DP,#_settings+34
         00000a15 0000 
    4384 00000a16 2B22!         MOV       @_settings+34,#0      ; |1348| 
    4385 00000a17 56CF          BF        L105,UNC              ; |1348| 
         00000a18 012B 
    4386                      ; branch occurs ; |1348| 
    4387 00000a19       L95:    
    4388 00000a19 761F!         MOVW      DP,#_settings+34
         00000a1a 0000 
    4389 00000a1b 2822!         MOV       @_settings+34,#1      ; |1250| 
         00000a1c 0001 
    4390 00000a1d 761F!         MOVW      DP,#_allsensors+4
         00000a1e 0000 
    4391 00000a1f 9E04!         SUB       AL,@_allsensors+4     ; |1253| 
    4392 00000a20 5296          CMPB      AL,#150               ; |1253| 
    4393 00000a21 9643          MOV       *-SP[3],AL            ; |1253| 
    4394 00000a22 56C7          BF        L103,HIS              ; |1253| 
         00000a23 00E6 
    4395                      ; branchcc occurs ; |1253| 
    4396 00000a24 761F!         MOVW      DP,#_iBarred
         00000a25 0000 
    4397 00000a26 9200!         MOV       AL,@_iBarred          ; |1253| 
    4398 00000a27 56C0          BF        L103,NEQ              ; |1253| 
         00000a28 00E1 
    4399                      ; branchcc occurs ; |1253| 
    4400 00000a29 761F!         MOVW      DP,#_iDeltaRPM15
         00000a2a 0000 
    4401 00000a2b 9200!         MOV       AL,@_iDeltaRPM15      ; |1253| 
    4402 00000a2c 56C0          BF        L103,NEQ              ; |1253| 
         00000a2d 00DC 
    4403                      ; branchcc occurs ; |1253| 
    4404 00000a2e 9243          MOV       AL,*-SP[3]
    4405 00000a2f 8F00-         MOVL      XAR4,#_calibration+14 ; |1259| 
         00000a30 004E 
    4406 00000a31 0EA9          MOVU      ACC,AL
    4407 00000a32 FF30          LSL       ACC,1                 ; |1259| 
    4408 00000a33 5601          ADDL      XAR4,ACC
         00000a34 00A4 
    4409 00000a35 8F46          MOVL      XAR5,#400000          ; |1259| 
         00000a36 1A80 
    4410 00000a37 A0A9          MOVL      ACC,XAR5              ; |1259| 
    4411 00000a38 0FC4          CMPL      ACC,*+XAR4[0]         ; |1259| 
    4412 00000a39 56C9          BF        L103,LOS              ; |1259| 
         00000a3a 00CF 
    4413                      ; branchcc occurs ; |1259| 
    4414 00000a3b 0201          MOVB      ACC,#1
    4415 00000a3c 5601          ADDL      *+XAR4[0],ACC         ; |1261| 
         00000a3d 00C4 
    4416 00000a3e 9243          MOV       AL,*-SP[3]            ; |1261| 
    4417 00000a3f 7640'         LCR       #_ReadAccCalNVMEM     ; |1262| 
         00000a40 0080 
    4418                      ; call occurs [#_ReadAccCalNVMEM] ; |1262| 
    4419 00000a41 D100          MOVB      XAR1,#0
    4420 00000a42 761F!         MOVW      DP,#_allsensors
         00000a43 0000 
TMS320C2000 COFF Assembler PC v4.1.3 Thu Aug 18 12:16:20 2016

Tools Copyright (c) 1996-2006 Texas Instruments Incorporated
mancal.asm                                                           PAGE   95

    4421 00000a44 9200!         MOV       AL,@_allsensors       ; |1263| 
    4422 00000a45 EC4C          BF        L99,EQ                ; |1263| 
    4423                      ; branchcc occurs ; |1263| 
    4424              L96:    
    4425              DW$L$_FineCurveCal$9$B:
    4426                      .dwpsn  "mancal.c",1264,0
    4427 00000a46 28AC          MOV       T,#18                 ; |1265| 
         00000a47 0012 
    4428 00000a48 8F00!         MOVL      XAR4,#_sensor         ; |1265| 
         00000a49 0000 
    4429 00000a4a 30A1          MPYXU     ACC,T,AR1             ; |1265| 
    4430 00000a4b 5601          ADDL      XAR4,ACC
         00000a4c 00A4 
    4431 00000a4d 92C4          MOV       AL,*+XAR4[0]          ; |1265| 
    4432 00000a4e CDA9          AND       AH,AL,#0x0001         ; |1265| 
         00000a4f 0001 
    4433 00000a50 EC3A          BF        L98,EQ                ; |1265| 
    4434                      ; branchcc occurs ; |1265| 
    4435 00000a51       DW$L$_FineCurveCal$9$E:
    4436 00000a51       DW$L$_FineCurveCal$10$B:
    4437 00000a51 9002          ANDB      AL,#2                 ; |1265| 
    4438 00000a52 EC38          BF        L98,EQ                ; |1265| 
    4439                      ; branchcc occurs ; |1265| 
    4440 00000a53       DW$L$_FineCurveCal$10$E:
    4441 00000a53       DW$L$_FineCurveCal$11$B:
    4442 00000a53 92A1          MOV       AL,AR1                ; |1268| 
    4443 00000a54 7640!         LCR       #_GetPreCompValue     ; |1268| 
         00000a55 0000 
    4444                      ; call occurs [#_GetPreCompValue] ; |1268| 
    4445 00000a56 88A9          MOVZ      AR6,AL                ; |1268| 
    4446 00000a57 1BA6          CMP       AR6,#-32000           ; |1268| 
         00000a58 8300 
    4447 00000a59 56C2          BF        L97,GT                ; |1268| 
         00000a5a 0027 
    4448                      ; branchcc occurs ; |1268| 
    4449 00000a5b       DW$L$_FineCurveCal$11$E:
    4450 00000a5b       DW$L$_FineCurveCal$12$B:
    4451 00000a5b 9243          MOV       AL,*-SP[3]
    4452 00000a5c 8F00-         MOVL      XAR4,#_calibration+14 ; |1280| 
         00000a5d 004E 
    4453 00000a5e 0EA9          MOVU      ACC,AL
    4454 00000a5f FF30          LSL       ACC,1                 ; |1280| 
    4455 00000a60 5601          ADDL      XAR4,ACC
         00000a61 00A4 
    4456 00000a62 86A4          MOVL      XAR2,XAR4             ; |1280| 
    4457 00000a63 0201          MOVB      ACC,#1
    4458 00000a64 0FC2          CMPL      ACC,*+XAR2[0]         ; |1280| 
    4459 00000a65 EC25          BF        L98,EQ                ; |1280| 
    4460                      ; branchcc occurs ; |1280| 
    4461 00000a66       DW$L$_FineCurveCal$12$E:
    4462 00000a66       DW$L$_FineCurveCal$13$B:
    4463 00000a66 0EA1          MOVU      ACC,AR1
    4464 00000a67 8DC0-         MOVL      XAR3,#_calibration+482 ; |1283| 
         00000a68 0222 
    4465 00000a69 FF30          LSL       ACC,1                 ; |1283| 
TMS320C2000 COFF Assembler PC v4.1.3 Thu Aug 18 12:16:20 2016

Tools Copyright (c) 1996-2006 Texas Instruments Incorporated
mancal.asm                                                           PAGE   96

    4466 00000a6a 5601          ADDL      XAR3,ACC
         00000a6b 00A3 
    4467 00000a6c 06C3          MOVL      ACC,*+XAR3[0]         ; |1283| 
    4468 00000a6d 7640!         LCR       #L$$TOFS              ; |1283| 
         00000a6e 0000 
    4469                      ; call occurs [#L$$TOFS] ; |1283| 
    4470 00000a6f 1E46          MOVL      *-SP[6],ACC           ; |1283| 
    4471 00000a70 06C2          MOVL      ACC,*+XAR2[0]         ; |1283| 
    4472 00000a71 1901          SUBB      ACC,#1                ; |1283| 
    4473 00000a72 7640!         LCR       #UL$$TOFS             ; |1283| 
         00000a73 0000 
    4474                      ; call occurs [#UL$$TOFS] ; |1283| 
    4475 00000a74 1E42          MOVL      *-SP[2],ACC           ; |1283| 
    4476 00000a75 0646          MOVL      ACC,*-SP[6]           ; |1283| 
    4477 00000a76 7640!         LCR       #FS$$DIV              ; |1283| 
         00000a77 0000 
    4478                      ; call occurs [#FS$$DIV] ; |1283| 
    4479 00000a78 7640!         LCR       #_FloattoIntRound     ; |1283| 
         00000a79 0000 
    4480                      ; call occurs [#_FloattoIntRound] ; |1283| 
    4481 00000a7a 3B01          SETC      SXM
    4482 00000a7b 85A9          MOV       ACC,AL                ; |1283| 
    4483 00000a7c 5601          ADDL      *+XAR3[0],ACC         ; |1283| 
         00000a7d 00C3 
    4484 00000a7e 56CF          BF        L98,UNC               ; |1283| 
         00000a7f 000C 
    4485                      ; branch occurs ; |1283| 
    4486 00000a80       DW$L$_FineCurveCal$13$E:
    4487 00000a80       L97:    
    4488 00000a80       DW$L$_FineCurveCal$14$B:
    4489 00000a80 0EA1          MOVU      ACC,AR1
    4490 00000a81 8F00-         MOVL      XAR4,#_calibration+482 ; |1272| 
         00000a82 0222 
    4491 00000a83 FF30          LSL       ACC,1                 ; |1272| 
    4492 00000a84 5601          ADDL      XAR4,ACC
         00000a85 00A4 
    4493 00000a86 3B01          SETC      SXM
    4494 00000a87 85A6          MOV       ACC,AR6               ; |1272| 
    4495 00000a88 5601          ADDL      *+XAR4[0],ACC         ; |1272| 
         00000a89 00C4 
    4496 00000a8a       DW$L$_FineCurveCal$14$E:
    4497 00000a8a       L98:    
    4498 00000a8a       DW$L$_FineCurveCal$15$B:
    4499 00000a8a D901          ADDB      XAR1,#1               ; |1263| 
    4500 00000a8b 761F!         MOVW      DP,#_allsensors
         00000a8c 0000 
    4501 00000a8d 92A1          MOV       AL,AR1                ; |1263| 
    4502 00000a8e 5400!         CMP       AL,@_allsensors       ; |1263| 
    4503                      .dwpsn  "mancal.c",1288,0
    4504 00000a8f 56C8          BF        L96,LO                ; |1263| 
         00000a90 FFB7 
    4505                      ; branchcc occurs ; |1263| 
    4506 00000a91       DW$L$_FineCurveCal$15$E:
    4507 00000a91       L99:    
    4508 00000a91 9243          MOV       AL,*-SP[3]
TMS320C2000 COFF Assembler PC v4.1.3 Thu Aug 18 12:16:20 2016

Tools Copyright (c) 1996-2006 Texas Instruments Incorporated
mancal.asm                                                           PAGE   97

    4509 00000a92 7640'         LCR       #_WriteAccCalNVMEM    ; |1289| 
         00000a93 0074 
    4510                      ; call occurs [#_WriteAccCalNVMEM] ; |1289| 
    4511 00000a94 9243          MOV       AL,*-SP[3]            ; |1289| 
    4512 00000a95 0EA9          MOVU      ACC,AL
    4513 00000a96 8F00-         MOVL      XAR4,#_calibration+14 ; |1291| 
         00000a97 004E 
    4514 00000a98 FF30          LSL       ACC,1                 ; |1291| 
    4515 00000a99 5601          ADDL      XAR4,ACC
         00000a9a 00A4 
    4516 00000a9b 761F-         MOVW      DP,#_speedcompcoeffs+12
         00000a9c 000D 
    4517 00000a9d 0E26-         MOVU      ACC,@_speedcompcoeffs+12
    4518 00000a9e 0FC4          CMPL      ACC,*+XAR4[0]         ; |1291| 
    4519 00000a9f ED69          BF        L103,NEQ              ; |1291| 
    4520                      ; branchcc occurs ; |1291| 
    4521 00000aa0 761F!         MOVW      DP,#_allsensors
         00000aa1 0000 
    4522 00000aa2 D100          MOVB      XAR1,#0
    4523 00000aa3 9200!         MOV       AL,@_allsensors       ; |1293| 
    4524 00000aa4 EC3A          BF        L102,EQ               ; |1293| 
    4525                      ; branchcc occurs ; |1293| 
    4526              L100:    
    4527              DW$L$_FineCurveCal$18$B:
    4528                      .dwpsn  "mancal.c",1294,0
    4529 00000aa5 28AC          MOV       T,#18                 ; |1295| 
         00000aa6 0012 
    4530 00000aa7 8F00!         MOVL      XAR4,#_sensor         ; |1295| 
         00000aa8 0000 
    4531 00000aa9 30A1          MPYXU     ACC,T,AR1             ; |1295| 
    4532 00000aaa 5601          ADDL      XAR4,ACC
         00000aab 00A4 
    4533 00000aac 92C4          MOV       AL,*+XAR4[0]          ; |1295| 
    4534 00000aad CDA9          AND       AH,AL,#0x0001         ; |1295| 
         00000aae 0001 
    4535 00000aaf EC28          BF        L101,EQ               ; |1295| 
    4536                      ; branchcc occurs ; |1295| 
    4537 00000ab0       DW$L$_FineCurveCal$18$E:
    4538 00000ab0       DW$L$_FineCurveCal$19$B:
    4539 00000ab0 9002          ANDB      AL,#2                 ; |1295| 
    4540 00000ab1 EC26          BF        L101,EQ               ; |1295| 
    4541                      ; branchcc occurs ; |1295| 
    4542 00000ab2       DW$L$_FineCurveCal$19$E:
    4543 00000ab2       DW$L$_FineCurveCal$20$B:
    4544 00000ab2 0EA1          MOVU      ACC,AR1
    4545 00000ab3 8F00-         MOVL      XAR4,#_calibration+482 ; |1297| 
         00000ab4 0222 
    4546 00000ab5 FF30          LSL       ACC,1                 ; |1297| 
    4547 00000ab6 5601          ADDL      XAR4,ACC
         00000ab7 00A4 
    4548 00000ab8 06C4          MOVL      ACC,*+XAR4[0]         ; |1297| 
    4549 00000ab9 7640!         LCR       #L$$TOFS              ; |1297| 
         00000aba 0000 
    4550                      ; call occurs [#L$$TOFS] ; |1297| 
    4551 00000abb 86A9          MOVL      XAR2,ACC              ; |1297| 
TMS320C2000 COFF Assembler PC v4.1.3 Thu Aug 18 12:16:20 2016

Tools Copyright (c) 1996-2006 Texas Instruments Incorporated
mancal.asm                                                           PAGE   98

    4552 00000abc 9243          MOV       AL,*-SP[3]            ; |1297| 
    4553 00000abd 0EA9          MOVU      ACC,AL
    4554 00000abe 8F00-         MOVL      XAR4,#_calibration+14 ; |1299| 
         00000abf 004E 
    4555 00000ac0 FF30          LSL       ACC,1                 ; |1299| 
    4556 00000ac1 5601          ADDL      XAR4,ACC
         00000ac2 00A4 
    4557 00000ac3 06C4          MOVL      ACC,*+XAR4[0]         ; |1299| 
    4558 00000ac4 7640!         LCR       #UL$$TOFS             ; |1299| 
         00000ac5 0000 
    4559                      ; call occurs [#UL$$TOFS] ; |1299| 
    4560 00000ac6 1E42          MOVL      *-SP[2],ACC           ; |1299| 
    4561 00000ac7 AAA9          MOVL      ACC,XAR2              ; |1299| 
    4562 00000ac8 7640!         LCR       #FS$$DIV              ; |1299| 
         00000ac9 0000 
    4563                      ; call occurs [#FS$$DIV] ; |1299| 
    4564 00000aca 7640!         LCR       #_FloattoIntRound     ; |1300| 
         00000acb 0000 
    4565                      ; call occurs [#_FloattoIntRound] ; |1300| 
    4566 00000acc 88A9          MOVZ      AR6,AL                ; |1300| 
    4567 00000acd 28AC          MOV       T,#28                 ; |1300| 
         00000ace 001C 
    4568 00000acf 9243          MOV       AL,*-SP[3]            ; |1300| 
    4569 00000ad0 30A9          MPYXU     ACC,T,AL              ; |1300| 
    4570 00000ad1 8F00!         MOVL      XAR4,#_man_comptable  ; |1300| 
         00000ad2 0000 
    4571 00000ad3 0DA1          ADDU      ACC,AR1               ; |1300| 
    4572 00000ad4 5601          ADDL      XAR4,ACC
         00000ad5 00A4 
    4573 00000ad6 7EC4          MOV       *+XAR4[0],AR6         ; |1300| 
    4574 00000ad7       DW$L$_FineCurveCal$20$E:
    4575 00000ad7       L101:    
    4576 00000ad7       DW$L$_FineCurveCal$21$B:
    4577 00000ad7 D901          ADDB      XAR1,#1               ; |1293| 
    4578 00000ad8 761F!         MOVW      DP,#_allsensors
         00000ad9 0000 
    4579 00000ada 92A1          MOV       AL,AR1                ; |1293| 
    4580 00000adb 5400!         CMP       AL,@_allsensors       ; |1293| 
    4581                      .dwpsn  "mancal.c",1302,0
    4582 00000adc 56C8          BF        L100,LO               ; |1293| 
         00000add FFC9 
    4583                      ; branchcc occurs ; |1293| 
    4584 00000ade       DW$L$_FineCurveCal$21$E:
    4585 00000ade       L102:    
    4586 00000ade 761F-         MOVW      DP,#_calibration+650
         00000adf 000B 
    4587 00000ae0 0A0A-         INC       @_calibration+650     ; |1303| 
    4588 00000ae1 761F-         MOVW      DP,#_speedcompcoeffs
         00000ae2 000D 
    4589 00000ae3 281A-         MOV       @_speedcompcoeffs,#8  ; |1306| 
         00000ae4 0008 
    4590 00000ae5 7640'         LCR       #_WriteSpeedCompStructtoNVMEM ; |1307| 
         00000ae6 005E 
    4591                      ; call occurs [#_WriteSpeedCompStructtoNVMEM] ; |1307| 
    4592 00000ae7 761F-         MOVW      DP,#_speedcompcoeffs+12
TMS320C2000 COFF Assembler PC v4.1.3 Thu Aug 18 12:16:20 2016

Tools Copyright (c) 1996-2006 Texas Instruments Incorporated
mancal.asm                                                           PAGE   99

         00000ae8 000D 
    4593 00000ae9 9226-         MOV       AL,@_speedcompcoeffs+12 ; |1309| 
    4594 00000aea 7640'         LCR       #_FineCurveCalInterpolation ; |1309| 
         00000aeb 0B8C 
    4595                      ; call occurs [#_FineCurveCalInterpolation] ; |1309| 
    4596 00000aec 7640!         LCR       #_WriteMANCompTabletoNVMEM ; |1310| 
         00000aed 0000 
    4597                      ; call occurs [#_WriteMANCompTabletoNVMEM] ; |1310| 
    4598 00000aee 761F!         MOVW      DP,#_sdsettings+1
         00000aef 0000 
    4599 00000af0 0A01!         INC       @_sdsettings+1        ; |1311| 
    4600 00000af1 761F!         MOVW      DP,#_sdsettings+1
         00000af2 0000 
    4601 00000af3 9201!         MOV       AL,@_sdsettings+1     ; |1311| 
    4602 00000af4 8F00!         MOVL      XAR4,#_sdcarddir+18   ; |1311| 
         00000af5 0012 
    4603 00000af6 9CFF          ADDB      AL,#-1
    4604 00000af7 7640!         LCR       #_MANCompTabletoSDCardFile ; |1311| 
         00000af8 0000 
    4605                      ; call occurs [#_MANCompTabletoSDCardFile] ; |1311| 
    4606 00000af9 9A00          MOVB      AL,#0
    4607 00000afa 8F00!         MOVL      XAR4,#_sdcarddir+27   ; |1312| 
         00000afb 001B 
    4608 00000afc 7640!         LCR       #_MANCompTabletoSDCardFile ; |1312| 
         00000afd 0000 
    4609                      ; call occurs [#_MANCompTabletoSDCardFile] ; |1312| 
    4610 00000afe 9A01          MOVB      AL,#1                 ; |1314| 
    4611 00000aff 761F-         MOVW      DP,#_mancal+3
         00000b00 0000 
    4612 00000b01 963B-         MOV       @_mancal+3,AL         ; |1314| 
    4613 00000b02 761F!         MOVW      DP,#_iSensorInResetMode
         00000b03 0000 
    4614 00000b04 9600!         MOV       @_iSensorInResetMode,AL ; |1315| 
    4615 00000b05 761F!         MOVW      DP,#_iSensorInRepalceTimer
         00000b06 0000 
    4616 00000b07 9600!         MOV       @_iSensorInRepalceTimer,AL ; |1316| 
    4617 00000b08       L103:    
    4618 00000b08 761F-         MOVW      DP,#_speedcompcoeffs
         00000b09 000D 
    4619 00000b0a 921A-         MOV       AL,@_speedcompcoeffs  ; |1323| 
    4620 00000b0b 5208          CMPB      AL,#8                 ; |1323| 
    4621 00000b0c ED2E          BF        L104,NEQ              ; |1323| 
    4622                      ; branchcc occurs ; |1323| 
    4623 00000b0d 761F!         MOVW      DP,#_timers+48
         00000b0e 0000 
    4624 00000b0f 0630!         MOVL      ACC,@_timers+48       ; |1325| 
    4625 00000b10 ED2A          BF        L104,NEQ              ; |1325| 
    4626                      ; branchcc occurs ; |1325| 
    4627 00000b11 761F-         MOVW      DP,#_speedcompcoeffs+12
         00000b12 000D 
    4628 00000b13 9226-         MOV       AL,@_speedcompcoeffs+12 ; |1328| 
    4629 00000b14 7640'         LCR       #_FineCurveCalInterpolation ; |1328| 
         00000b15 0B8C 
    4630                      ; call occurs [#_FineCurveCalInterpolation] ; |1328| 
    4631 00000b16 28AC          MOV       T,#12000              ; |1329| 
TMS320C2000 COFF Assembler PC v4.1.3 Thu Aug 18 12:16:20 2016

Tools Copyright (c) 1996-2006 Texas Instruments Incorporated
mancal.asm                                                           PAGE  100

         00000b17 2EE0 
    4632 00000b18 761F-         MOVW      DP,#_speedcompcoeffs+11
         00000b19 000D 
    4633 00000b1a 3025-         MPYXU     ACC,T,@_speedcompcoeffs+11 ; |1329| 
    4634 00000b1b 761F!         MOVW      DP,#_timers+48
         00000b1c 0000 
    4635 00000b1d 1E30!         MOVL      @_timers+48,ACC       ; |1329| 
    4636 00000b1e 7640!         LCR       #_WriteMANCompTabletoNVMEM ; |1330| 
         00000b1f 0000 
    4637                      ; call occurs [#_WriteMANCompTabletoNVMEM] ; |1330| 
    4638 00000b20 761F!         MOVW      DP,#_sdsettings+1
         00000b21 0000 
    4639 00000b22 0A01!         INC       @_sdsettings+1        ; |1331| 
    4640 00000b23 761F!         MOVW      DP,#_sdsettings+1
         00000b24 0000 
    4641 00000b25 9201!         MOV       AL,@_sdsettings+1     ; |1331| 
    4642 00000b26 8F00!         MOVL      XAR4,#_sdcarddir+18   ; |1331| 
         00000b27 0012 
    4643 00000b28 9CFF          ADDB      AL,#-1
    4644 00000b29 7640!         LCR       #_MANCompTabletoSDCardFile ; |1331| 
         00000b2a 0000 
    4645                      ; call occurs [#_MANCompTabletoSDCardFile] ; |1331| 
    4646 00000b2b 9A00          MOVB      AL,#0
    4647 00000b2c 8F00!         MOVL      XAR4,#_sdcarddir+27   ; |1333| 
         00000b2d 001B 
    4648 00000b2e 7640!         LCR       #_MANCompTabletoSDCardFile ; |1333| 
         00000b2f 0000 
    4649                      ; call occurs [#_MANCompTabletoSDCardFile] ; |1333| 
    4650 00000b30 9A01          MOVB      AL,#1                 ; |1334| 
    4651 00000b31 761F-         MOVW      DP,#_mancal+3
         00000b32 0000 
    4652 00000b33 963B-         MOV       @_mancal+3,AL         ; |1334| 
    4653 00000b34 761F!         MOVW      DP,#_iSensorInResetMode
         00000b35 0000 
    4654 00000b36 9600!         MOV       @_iSensorInResetMode,AL ; |1336| 
    4655 00000b37 761F!         MOVW      DP,#_iSensorInRepalceTimer
         00000b38 0000 
    4656 00000b39 9600!         MOV       @_iSensorInRepalceTimer,AL ; |1337| 
    4657 00000b3a       L104:    
    4658 00000b3a 7640'         LCR       #_WriteCalibrationStructtoNVMEM ; |1341| 
         00000b3b 00AE 
    4659                      ; call occurs [#_WriteCalibrationStructtoNVMEM] ; |1341| 
    4660 00000b3c 7640'         LCR       #_GetLearningTimeLeft ; |1342| 
         00000b3d 0118 
    4661                      ; call occurs [#_GetLearningTimeLeft] ; |1342| 
    4662 00000b3e 7640'         LCR       #_GetIntervalTimeLeft ; |1343| 
         00000b3f 0132 
    4663                      ; call occurs [#_GetIntervalTimeLeft] ; |1343| 
    4664 00000b40 7640'         LCR       #_WriteMANCaltoNVMEM  ; |1344| 
         00000b41 00C2 
    4665                      ; call occurs [#_WriteMANCaltoNVMEM] ; |1344| 
    4666 00000b42       L105:    
    4667 00000b42 FE86          SUBB      SP,#6
    4668 00000b43 82BE          MOVL      XAR3,*--SP
    4669 00000b44 86BE          MOVL      XAR2,*--SP
TMS320C2000 COFF Assembler PC v4.1.3 Thu Aug 18 12:16:20 2016

Tools Copyright (c) 1996-2006 Texas Instruments Incorporated
mancal.asm                                                           PAGE  101

    4670 00000b45 8BBE          MOVL      XAR1,*--SP
    4671                      .dwpsn  "mancal.c",1350,1
    4672 00000b46 0006          LRETR
    4673                      ; return occurs
    4674              
    4675              DW$238  .dwtag  DW_TAG_loop
    4676                      .dwattr DW$238, DW_AT_name("D:\DEV\Amot\BearingWear\XTSW_V6_20\mancal.asm:L100:1:1471518980")
    4677                      .dwattr DW$238, DW_AT_begin_file("mancal.c")
    4678                      .dwattr DW$238, DW_AT_begin_line(0x50d)
    4679                      .dwattr DW$238, DW_AT_end_line(0x516)
    4680              DW$239  .dwtag  DW_TAG_loop_range
    4681                      .dwattr DW$239, DW_AT_low_pc(DW$L$_FineCurveCal$18$B)
    4682                      .dwattr DW$239, DW_AT_high_pc(DW$L$_FineCurveCal$18$E)
    4683              DW$240  .dwtag  DW_TAG_loop_range
    4684                      .dwattr DW$240, DW_AT_low_pc(DW$L$_FineCurveCal$19$B)
    4685                      .dwattr DW$240, DW_AT_high_pc(DW$L$_FineCurveCal$19$E)
    4686              DW$241  .dwtag  DW_TAG_loop_range
    4687                      .dwattr DW$241, DW_AT_low_pc(DW$L$_FineCurveCal$20$B)
    4688                      .dwattr DW$241, DW_AT_high_pc(DW$L$_FineCurveCal$20$E)
    4689              DW$242  .dwtag  DW_TAG_loop_range
    4690                      .dwattr DW$242, DW_AT_low_pc(DW$L$_FineCurveCal$21$B)
    4691                      .dwattr DW$242, DW_AT_high_pc(DW$L$_FineCurveCal$21$E)
    4692                      .dwendtag DW$238
    4693              
    4694              
    4695              DW$243  .dwtag  DW_TAG_loop
    4696                      .dwattr DW$243, DW_AT_name("D:\DEV\Amot\BearingWear\XTSW_V6_20\mancal.asm:L96:1:1471518980")
    4697                      .dwattr DW$243, DW_AT_begin_file("mancal.c")
    4698                      .dwattr DW$243, DW_AT_begin_line(0x4ef)
    4699                      .dwattr DW$243, DW_AT_end_line(0x508)
    4700              DW$244  .dwtag  DW_TAG_loop_range
    4701                      .dwattr DW$244, DW_AT_low_pc(DW$L$_FineCurveCal$9$B)
    4702                      .dwattr DW$244, DW_AT_high_pc(DW$L$_FineCurveCal$9$E)
    4703              DW$245  .dwtag  DW_TAG_loop_range
    4704                      .dwattr DW$245, DW_AT_low_pc(DW$L$_FineCurveCal$11$B)
    4705                      .dwattr DW$245, DW_AT_high_pc(DW$L$_FineCurveCal$11$E)
    4706              DW$246  .dwtag  DW_TAG_loop_range
    4707                      .dwattr DW$246, DW_AT_low_pc(DW$L$_FineCurveCal$10$B)
    4708                      .dwattr DW$246, DW_AT_high_pc(DW$L$_FineCurveCal$10$E)
    4709              DW$247  .dwtag  DW_TAG_loop_range
    4710                      .dwattr DW$247, DW_AT_low_pc(DW$L$_FineCurveCal$12$B)
    4711                      .dwattr DW$247, DW_AT_high_pc(DW$L$_FineCurveCal$12$E)
    4712              DW$248  .dwtag  DW_TAG_loop_range
    4713                      .dwattr DW$248, DW_AT_low_pc(DW$L$_FineCurveCal$13$B)
    4714                      .dwattr DW$248, DW_AT_high_pc(DW$L$_FineCurveCal$13$E)
    4715              DW$249  .dwtag  DW_TAG_loop_range
    4716                      .dwattr DW$249, DW_AT_low_pc(DW$L$_FineCurveCal$14$B)
    4717                      .dwattr DW$249, DW_AT_high_pc(DW$L$_FineCurveCal$14$E)
    4718              DW$250  .dwtag  DW_TAG_loop_range
    4719                      .dwattr DW$250, DW_AT_low_pc(DW$L$_FineCurveCal$15$B)
    4720                      .dwattr DW$250, DW_AT_high_pc(DW$L$_FineCurveCal$15$E)
    4721                      .dwendtag DW$243
    4722              
    4723                      .dwattr DW$237, DW_AT_end_file("mancal.c")
    4724                      .dwattr DW$237, DW_AT_end_line(0x546)
TMS320C2000 COFF Assembler PC v4.1.3 Thu Aug 18 12:16:20 2016

Tools Copyright (c) 1996-2006 Texas Instruments Incorporated
mancal.asm                                                           PAGE  102

    4725                      .dwattr DW$237, DW_AT_end_column(0x01)
    4726                      .dwendtag DW$237
    4727              
    4728 00000b47               .sect   ".text"
    4729                      .global _MANCalAlarm
    4730              
    4731              DW$251  .dwtag  DW_TAG_subprogram, DW_AT_name("MANCalAlarm"), DW_AT_symbol_name("_MANCalAlarm")
    4732                      .dwattr DW$251, DW_AT_low_pc(_MANCalAlarm)
    4733                      .dwattr DW$251, DW_AT_high_pc(0x00)
    4734                      .dwattr DW$251, DW_AT_begin_file("mancal.c")
    4735                      .dwattr DW$251, DW_AT_begin_line(0x54b)
    4736                      .dwattr DW$251, DW_AT_begin_column(0x06)
    4737                      .dwattr DW$251, DW_AT_frame_base[DW_OP_breg20 -34]
    4738                      .dwattr DW$251, DW_AT_skeletal(0x01)
    4739                      .dwpsn  "mancal.c",1356,1
    4740              
    4741              ;***************************************************************
    4742              ;* FNAME: _MANCalAlarm                  FR SIZE:  32           *
    4743              ;*                                                             *
    4744              ;* FUNCTION ENVIRONMENT                                        *
    4745              ;*                                                             *
    4746              ;* FUNCTION PROPERTIES                                         *
    4747              ;*                            0 Parameter, 30 Auto,  2 SOE     *
    4748              ;***************************************************************
    4749              
    4750              _MANCalAlarm:
    4751              ;* AL    assigned to _chan
    4752              DW$252  .dwtag  DW_TAG_formal_parameter, DW_AT_name("chan"), DW_AT_symbol_name("_chan")
    4753                      .dwattr DW$252, DW_AT_type(*DW$T$11)
    4754                      .dwattr DW$252, DW_AT_location[DW_OP_reg0]
    4755              ;* AH    assigned to _rpm
    4756              DW$253  .dwtag  DW_TAG_formal_parameter, DW_AT_name("rpm"), DW_AT_symbol_name("_rpm")
    4757                      .dwattr DW$253, DW_AT_type(*DW$T$10)
    4758                      .dwattr DW$253, DW_AT_location[DW_OP_reg1]
    4759              ;* AR4   assigned to _val
    4760              DW$254  .dwtag  DW_TAG_formal_parameter, DW_AT_name("val"), DW_AT_symbol_name("_val")
    4761                      .dwattr DW$254, DW_AT_type(*DW$T$11)
    4762                      .dwattr DW$254, DW_AT_location[DW_OP_reg12]
    4763              ;* AR5   assigned to _man1000input
    4764              DW$255  .dwtag  DW_TAG_formal_parameter, DW_AT_name("man1000input"), DW_AT_symbol_name("_man1000input")
    4765                      .dwattr DW$255, DW_AT_type(*DW$T$10)
    4766                      .dwattr DW$255, DW_AT_location[DW_OP_reg14]
    4767 00000b47 B2BD          MOVL      *SP++,XAR1
    4768 00000b48 FE1E          ADDB      SP,#30
    4769 00000b49 5CAD          MOVZ      AR4,SP                ; |1361| 
    4770 00000b4a 59A9          MOVZ      AR1,AL                ; |1356| 
    4771 00000b4b D500          MOVB      XAR5,#0
    4772 00000b4c 021E          MOVB      ACC,#30
    4773 00000b4d DC9E          SUBB      XAR4,#30              ; |1361| 
    4774 00000b4e 7640!         LCR       #_memset              ; |1361| 
         00000b4f 0000 
    4775                      ; call occurs [#_memset] ; |1361| 
    4776 00000b50 9AE0          MOVB      AL,#224               ; |1364| 
    4777 00000b51 94A1          ADD       AL,AR1                ; |1364| 
    4778 00000b52 7640!         LCR       #_SetAlarmEvent       ; |1364| 
TMS320C2000 COFF Assembler PC v4.1.3 Thu Aug 18 12:16:20 2016

Tools Copyright (c) 1996-2006 Texas Instruments Incorporated
mancal.asm                                                           PAGE  103

         00000b53 0000 
    4779                      ; call occurs [#_SetAlarmEvent] ; |1364| 
    4780 00000b54 92A1          MOV       AL,AR1                ; |1371| 
    4781 00000b55 7640!         LCR       #_GetStatus2Flags     ; |1371| 
         00000b56 0000 
    4782                      ; call occurs [#_GetStatus2Flags] ; |1371| 
    4783 00000b57 1AC4          OR        *+XAR4[0],#0x0c00     ; |1372| 
         00000b58 0C00 
    4784 00000b59 FE9E          SUBB      SP,#30
    4785 00000b5a 8BBE          MOVL      XAR1,*--SP
    4786                      .dwpsn  "mancal.c",1374,1
    4787 00000b5b 0006          LRETR
    4788                      ; return occurs
    4789                      .dwattr DW$251, DW_AT_end_file("mancal.c")
    4790                      .dwattr DW$251, DW_AT_end_line(0x55e)
    4791                      .dwattr DW$251, DW_AT_end_column(0x01)
    4792                      .dwendtag DW$251
    4793              
    4794 00000b5c               .sect   ".text"
    4795                      .global _ClearCalAveragingAlarm
    4796              
    4797              DW$256  .dwtag  DW_TAG_subprogram, DW_AT_name("ClearCalAveragingAlarm"), DW_AT_symbol_name("_ClearCalAveragin
    4798                      .dwattr DW$256, DW_AT_low_pc(_ClearCalAveragingAlarm)
    4799                      .dwattr DW$256, DW_AT_high_pc(0x00)
    4800                      .dwattr DW$256, DW_AT_begin_file("mancal.c")
    4801                      .dwattr DW$256, DW_AT_begin_line(0x562)
    4802                      .dwattr DW$256, DW_AT_begin_column(0x06)
    4803                      .dwattr DW$256, DW_AT_frame_base[DW_OP_breg20 -4]
    4804                      .dwattr DW$256, DW_AT_skeletal(0x01)
    4805                      .dwpsn  "mancal.c",1379,1
    4806              
    4807              ;***************************************************************
    4808              ;* FNAME: _ClearCalAveragingAlarm       FR SIZE:   2           *
    4809              ;*                                                             *
    4810              ;* FUNCTION ENVIRONMENT                                        *
    4811              ;*                                                             *
    4812              ;* FUNCTION PROPERTIES                                         *
    4813              ;*                            0 Parameter,  0 Auto,  2 SOE     *
    4814              ;***************************************************************
    4815              
    4816 00000b5c       _ClearCalAveragingAlarm:
    4817 00000b5c B2BD          MOVL      *SP++,XAR1
    4818                      .dwpsn  "mancal.c",1381,0
    4819 00000b5d D100          MOVB      XAR1,#0
    4820              L106:    
    4821              DW$L$_ClearCalAveragingAlarm$2$B:
    4822                      .dwpsn  "mancal.c",1382,0
    4823 00000b5e 9AE0          MOVB      AL,#224               ; |1383| 
    4824 00000b5f 94A1          ADD       AL,AR1                ; |1383| 
    4825 00000b60 7640!         LCR       #_ClearAlarmEvent     ; |1383| 
         00000b61 0000 
    4826                      ; call occurs [#_ClearAlarmEvent] ; |1383| 
    4827 00000b62 92A1          MOV       AL,AR1                ; |1383| 
    4828 00000b63 9C01          ADDB      AL,#1                 ; |1381| 
    4829 00000b64 59A9          MOVZ      AR1,AL                ; |1381| 
TMS320C2000 COFF Assembler PC v4.1.3 Thu Aug 18 12:16:20 2016

Tools Copyright (c) 1996-2006 Texas Instruments Incorporated
mancal.asm                                                           PAGE  104

    4830 00000b65 521C          CMPB      AL,#28                ; |1381| 
    4831                      .dwpsn  "mancal.c",1384,0
    4832 00000b66 56C4          BF        L106,LT               ; |1381| 
         00000b67 FFF8 
    4833                      ; branchcc occurs ; |1381| 
    4834 00000b68       DW$L$_ClearCalAveragingAlarm$2$E:
    4835 00000b68 8BBE          MOVL      XAR1,*--SP
    4836                      .dwpsn  "mancal.c",1385,1
    4837 00000b69 0006          LRETR
    4838                      ; return occurs
    4839              
    4840              DW$257  .dwtag  DW_TAG_loop
    4841                      .dwattr DW$257, DW_AT_name("D:\DEV\Amot\BearingWear\XTSW_V6_20\mancal.asm:L106:1:1471518980")
    4842                      .dwattr DW$257, DW_AT_begin_file("mancal.c")
    4843                      .dwattr DW$257, DW_AT_begin_line(0x565)
    4844                      .dwattr DW$257, DW_AT_end_line(0x568)
    4845              DW$258  .dwtag  DW_TAG_loop_range
    4846                      .dwattr DW$258, DW_AT_low_pc(DW$L$_ClearCalAveragingAlarm$2$B)
    4847                      .dwattr DW$258, DW_AT_high_pc(DW$L$_ClearCalAveragingAlarm$2$E)
    4848                      .dwendtag DW$257
    4849              
    4850                      .dwattr DW$256, DW_AT_end_file("mancal.c")
    4851                      .dwattr DW$256, DW_AT_end_line(0x569)
    4852                      .dwattr DW$256, DW_AT_end_column(0x01)
    4853                      .dwendtag DW$256
    4854              
    4855 00000b6a               .sect   ".text"
    4856                      .global _ClearCalibrationAlarms
    4857              
    4858              DW$259  .dwtag  DW_TAG_subprogram, DW_AT_name("ClearCalibrationAlarms"), DW_AT_symbol_name("_ClearCalibration
    4859                      .dwattr DW$259, DW_AT_low_pc(_ClearCalibrationAlarms)
    4860                      .dwattr DW$259, DW_AT_high_pc(0x00)
    4861                      .dwattr DW$259, DW_AT_begin_file("mancal.c")
    4862                      .dwattr DW$259, DW_AT_begin_line(0x56c)
    4863                      .dwattr DW$259, DW_AT_begin_column(0x06)
    4864                      .dwattr DW$259, DW_AT_frame_base[DW_OP_breg20 -6]
    4865                      .dwattr DW$259, DW_AT_skeletal(0x01)
    4866                      .dwpsn  "mancal.c",1389,1
    4867              
    4868              ;***************************************************************
    4869              ;* FNAME: _ClearCalibrationAlarms       FR SIZE:   4           *
    4870              ;*                                                             *
    4871              ;* FUNCTION ENVIRONMENT                                        *
    4872              ;*                                                             *
    4873              ;* FUNCTION PROPERTIES                                         *
    4874              ;*                            0 Parameter,  0 Auto,  4 SOE     *
    4875              ;***************************************************************
    4876              
    4877 00000b6a       _ClearCalibrationAlarms:
    4878 00000b6a B2BD          MOVL      *SP++,XAR1
    4879 00000b6b AABD          MOVL      *SP++,XAR2
    4880                      .dwpsn  "mancal.c",1392,0
    4881 00000b6c D200          MOVB      XAR2,#0
    4882              L107:    
    4883              DW$L$_ClearCalibrationAlarms$2$B:
TMS320C2000 COFF Assembler PC v4.1.3 Thu Aug 18 12:16:20 2016

Tools Copyright (c) 1996-2006 Texas Instruments Incorporated
mancal.asm                                                           PAGE  105

    4884                      .dwpsn  "mancal.c",1393,0
    4885 00000b6d 92A2          MOV       AL,AR2                ; |1394| 
    4886 00000b6e 7640!         LCR       #_GetStatus2Flags     ; |1394| 
         00000b6f 0000 
    4887                      ; call occurs [#_GetStatus2Flags] ; |1394| 
    4888 00000b70 8BA4          MOVL      XAR1,XAR4             ; |1394| 
    4889 00000b71 18C1          AND       *+XAR1[0],#0xf3ff     ; |1395| 
         00000b72 F3FF 
    4890 00000b73 9AC4          MOVB      AL,#196               ; |1397| 
    4891 00000b74 94A2          ADD       AL,AR2                ; |1397| 
    4892 00000b75 7640!         LCR       #_ClearAlarmEvent     ; |1397| 
         00000b76 0000 
    4893                      ; call occurs [#_ClearAlarmEvent] ; |1397| 
    4894 00000b77 28A9          MOV       AL,#14305             ; |1400| 
         00000b78 37E1 
    4895 00000b79 94A2          ADD       AL,AR2                ; |1400| 
    4896 00000b7a 18C1          AND       *+XAR1[0],#0xcfff     ; |1398| 
         00000b7b CFFF 
    4897 00000b7c 5603          MOV       ACC,AL << #1          ; |1400| 
         00000b7d 01A9 
    4898 00000b7e 93A9          MOV       AH,AL                 ; |1400| 
    4899 00000b7f 8AA1          MOVL      XAR4,XAR1             ; |1400| 
    4900 00000b80 D501          MOVB      XAR5,#1               ; |1400| 
    4901 00000b81 9A00          MOVB      AL,#0
    4902 00000b82 7640!         LCR       #_WriteNVMemory       ; |1400| 
         00000b83 0000 
    4903                      ; call occurs [#_WriteNVMemory] ; |1400| 
    4904 00000b84 DA01          ADDB      XAR2,#1               ; |1392| 
    4905 00000b85 92A2          MOV       AL,AR2                ; |1392| 
    4906 00000b86 521C          CMPB      AL,#28                ; |1392| 
    4907                      .dwpsn  "mancal.c",1401,0
    4908 00000b87 56C8          BF        L107,LO               ; |1392| 
         00000b88 FFE6 
    4909                      ; branchcc occurs ; |1392| 
    4910 00000b89       DW$L$_ClearCalibrationAlarms$2$E:
    4911 00000b89 86BE          MOVL      XAR2,*--SP
    4912 00000b8a 8BBE          MOVL      XAR1,*--SP
    4913                      .dwpsn  "mancal.c",1403,1
    4914 00000b8b 0006          LRETR
    4915                      ; return occurs
    4916              
    4917              DW$260  .dwtag  DW_TAG_loop
    4918                      .dwattr DW$260, DW_AT_name("D:\DEV\Amot\BearingWear\XTSW_V6_20\mancal.asm:L107:1:1471518980")
    4919                      .dwattr DW$260, DW_AT_begin_file("mancal.c")
    4920                      .dwattr DW$260, DW_AT_begin_line(0x570)
    4921                      .dwattr DW$260, DW_AT_end_line(0x579)
    4922              DW$261  .dwtag  DW_TAG_loop_range
    4923                      .dwattr DW$261, DW_AT_low_pc(DW$L$_ClearCalibrationAlarms$2$B)
    4924                      .dwattr DW$261, DW_AT_high_pc(DW$L$_ClearCalibrationAlarms$2$E)
    4925                      .dwendtag DW$260
    4926              
    4927                      .dwattr DW$259, DW_AT_end_file("mancal.c")
    4928                      .dwattr DW$259, DW_AT_end_line(0x57b)
    4929                      .dwattr DW$259, DW_AT_end_column(0x01)
    4930                      .dwendtag DW$259
TMS320C2000 COFF Assembler PC v4.1.3 Thu Aug 18 12:16:20 2016

Tools Copyright (c) 1996-2006 Texas Instruments Incorporated
mancal.asm                                                           PAGE  106

    4931              
    4932 00000b8c               .sect   ".text"
    4933                      .global _FineCurveCalInterpolation
    4934              
    4935              DW$262  .dwtag  DW_TAG_subprogram, DW_AT_name("FineCurveCalInterpolation"), DW_AT_symbol_name("_FineCurveCalI
    4936                      .dwattr DW$262, DW_AT_low_pc(_FineCurveCalInterpolation)
    4937                      .dwattr DW$262, DW_AT_high_pc(0x00)
    4938                      .dwattr DW$262, DW_AT_begin_file("mancal.c")
    4939                      .dwattr DW$262, DW_AT_begin_line(0x581)
    4940                      .dwattr DW$262, DW_AT_begin_column(0x06)
    4941                      .dwattr DW$262, DW_AT_frame_base[DW_OP_breg20 -28]
    4942                      .dwattr DW$262, DW_AT_skeletal(0x01)
    4943                      .dwpsn  "mancal.c",1410,1
    4944              
    4945              ;***************************************************************
    4946              ;* FNAME: _FineCurveCalInterpolation    FR SIZE:  26           *
    4947              ;*                                                             *
    4948              ;* FUNCTION ENVIRONMENT                                        *
    4949              ;*                                                             *
    4950              ;* FUNCTION PROPERTIES                                         *
    4951              ;*                           10 Parameter, 10 Auto,  6 SOE     *
    4952              ;***************************************************************
    4953              
    4954              _FineCurveCalInterpolation:
    4955              ;* AL    assigned to _numsamples
    4956              DW$263  .dwtag  DW_TAG_formal_parameter, DW_AT_name("numsamples"), DW_AT_symbol_name("_numsamples")
    4957                      .dwattr DW$263, DW_AT_type(*DW$T$11)
    4958                      .dwattr DW$263, DW_AT_location[DW_OP_reg0]
    4959 00000b8c B2BD          MOVL      *SP++,XAR1
    4960 00000b8d AABD          MOVL      *SP++,XAR2
    4961 00000b8e A2BD          MOVL      *SP++,XAR3
    4962 00000b8f D100          MOVB      XAR1,#0
    4963 00000b90 FE14          ADDB      SP,#20
    4964 00000b91 BE00          MOVB      XAR6,#0
    4965 00000b92 761F-         MOVW      DP,#_calibration
         00000b93 0001 
    4966 00000b94 9300-         MOV       AH,@_calibration      ; |1431| 
    4967 00000b95 964B          MOV       *-SP[11],AL           ; |1410| 
    4968 00000b96 EC16          BF        L110,EQ               ; |1431| 
    4969                      ; branchcc occurs ; |1431| 
    4970              L108:    
    4971              DW$L$_FineCurveCalInterpolation$2$B:
    4972                      .dwpsn  "mancal.c",1432,0
    4973 00000b97 0EA1          MOVU      ACC,AR1
    4974 00000b98 8F00-         MOVL      XAR4,#_calibration+14 ; |1433| 
         00000b99 004E 
    4975 00000b9a FF30          LSL       ACC,1                 ; |1433| 
    4976 00000b9b 5601          ADDL      XAR4,ACC
         00000b9c 00A4 
    4977 00000b9d 924B          MOV       AL,*-SP[11]           ; |1433| 
    4978 00000b9e 0EA9          MOVU      ACC,AL
    4979 00000b9f 0FC4          CMPL      ACC,*+XAR4[0]         ; |1433| 
    4980 00000ba0 56C6          BF        L109,HI               ; |1433| 
         00000ba1 0005 
    4981                      ; branchcc occurs ; |1433| 
TMS320C2000 COFF Assembler PC v4.1.3 Thu Aug 18 12:16:20 2016

Tools Copyright (c) 1996-2006 Texas Instruments Incorporated
mancal.asm                                                           PAGE  107

    4982 00000ba2       DW$L$_FineCurveCalInterpolation$2$E:
    4983 00000ba2       DW$L$_FineCurveCalInterpolation$3$B:
    4984 00000ba2 92A6          MOV       AL,AR6
    4985 00000ba3 9C01          ADDB      AL,#1                 ; |1435| 
    4986 00000ba4 88A9          MOVZ      AR6,AL                ; |1435| 
    4987 00000ba5       DW$L$_FineCurveCalInterpolation$3$E:
    4988 00000ba5       L109:    
    4989 00000ba5       DW$L$_FineCurveCalInterpolation$4$B:
    4990 00000ba5 D901          ADDB      XAR1,#1               ; |1431| 
    4991 00000ba6 761F-         MOVW      DP,#_calibration
         00000ba7 0001 
    4992 00000ba8 93A1          MOV       AH,AR1                ; |1431| 
    4993 00000ba9 5500-         CMP       AH,@_calibration      ; |1431| 
    4994                      .dwpsn  "mancal.c",1437,0
    4995 00000baa 56C8          BF        L108,LO               ; |1431| 
         00000bab FFED 
    4996                      ; branchcc occurs ; |1431| 
    4997 00000bac       DW$L$_FineCurveCalInterpolation$4$E:
    4998 00000bac       L110:    
    4999 00000bac 9B00          MOVB      AH,#0
    5000 00000bad 761F!         MOVW      DP,#_function+6
         00000bae 0000 
    5001 00000baf 9206!         MOV       AL,@_function+6       ; |1439| 
    5002 00000bb0 ED05          BF        L111,NEQ              ; |1439| 
    5003                      ; branchcc occurs ; |1439| 
    5004 00000bb1 92A6          MOV       AL,AR6
    5005 00000bb2 5202          CMPB      AL,#2                 ; |1439| 
    5006 00000bb3 56C3          BF        L112,GEQ              ; |1439| 
         00000bb4 000A 
    5007                      ; branchcc occurs ; |1439| 
    5008 00000bb5       L111:    
    5009 00000bb5 761F!         MOVW      DP,#_function+6
         00000bb6 0000 
    5010 00000bb7 9206!         MOV       AL,@_function+6       ; |1439| 
    5011 00000bb8 5201          CMPB      AL,#1                 ; |1439| 
    5012 00000bb9 EC04          BF        L112,EQ               ; |1439| 
    5013                      ; branchcc occurs ; |1439| 
    5014 00000bba 5301          CMPB      AH,#1                 ; |1439| 
    5015 00000bbb 56C0          BF        L136,NEQ              ; |1439| 
         00000bbc 020B 
    5016                      ; branchcc occurs ; |1439| 
    5017 00000bbd       L112:    
    5018 00000bbd 761F-         MOVW      DP,#_calibration
         00000bbe 0001 
    5019 00000bbf D100          MOVB      XAR1,#0
    5020 00000bc0 9200-         MOV       AL,@_calibration      ; |1443| 
    5021 00000bc1 56C1          BF        L120,EQ               ; |1443| 
         00000bc2 00B3 
    5022                      ; branchcc occurs ; |1443| 
    5023              L113:    
    5024              DW$L$_FineCurveCalInterpolation$10$B:
    5025                      .dwpsn  "mancal.c",1444,0
    5026 00000bc3 92A1          MOV       AL,AR1                ; |1446| 
    5027 00000bc4 7640'         LCR       #_ReadAccCalNVMEM     ; |1446| 
         00000bc5 0080 
TMS320C2000 COFF Assembler PC v4.1.3 Thu Aug 18 12:16:20 2016

Tools Copyright (c) 1996-2006 Texas Instruments Incorporated
mancal.asm                                                           PAGE  108

    5028                      ; call occurs [#_ReadAccCalNVMEM] ; |1446| 
    5029 00000bc6 D200          MOVB      XAR2,#0
    5030 00000bc7 761F!         MOVW      DP,#_allsensors
         00000bc8 0000 
    5031 00000bc9 9200!         MOV       AL,@_allsensors       ; |1447| 
    5032 00000bca 56C1          BF        L119,EQ               ; |1447| 
         00000bcb 00A3 
    5033                      ; branchcc occurs ; |1447| 
    5034              DW$L$_FineCurveCalInterpolation$10$E:
    5035              L114:    
    5036              DW$L$_FineCurveCalInterpolation$11$B:
    5037                      .dwpsn  "mancal.c",1448,0
    5038 00000bcc 28AC          MOV       T,#18                 ; |1449| 
         00000bcd 0012 
    5039 00000bce 8F00!         MOVL      XAR4,#_sensor         ; |1449| 
         00000bcf 0000 
    5040 00000bd0 30A2          MPYXU     ACC,T,AR2             ; |1449| 
    5041 00000bd1 5601          ADDL      XAR4,ACC
         00000bd2 00A4 
    5042 00000bd3 92C4          MOV       AL,*+XAR4[0]          ; |1449| 
    5043 00000bd4 CDA9          AND       AH,AL,#0x0001         ; |1449| 
         00000bd5 0001 
    5044 00000bd6 56C1          BF        L118,EQ               ; |1449| 
         00000bd7 0090 
    5045                      ; branchcc occurs ; |1449| 
    5046 00000bd8       DW$L$_FineCurveCalInterpolation$11$E:
    5047 00000bd8       DW$L$_FineCurveCalInterpolation$12$B:
    5048 00000bd8 9002          ANDB      AL,#2                 ; |1449| 
    5049 00000bd9 56C1          BF        L118,EQ               ; |1449| 
         00000bda 008D 
    5050                      ; branchcc occurs ; |1449| 
    5051 00000bdb       DW$L$_FineCurveCalInterpolation$12$E:
    5052 00000bdb       DW$L$_FineCurveCalInterpolation$13$B:
    5053 00000bdb 0EA1          MOVU      ACC,AR1
    5054 00000bdc 8DC0-         MOVL      XAR3,#_calibration+14 ; |1451| 
         00000bdd 004E 
    5055 00000bde FF30          LSL       ACC,1                 ; |1451| 
    5056 00000bdf 5601          ADDL      XAR3,ACC
         00000be0 00A3 
    5057 00000be1 924B          MOV       AL,*-SP[11]           ; |1451| 
    5058 00000be2 0EA9          MOVU      ACC,AL
    5059 00000be3 0FC3          CMPL      ACC,*+XAR3[0]         ; |1451| 
    5060 00000be4 56C6          BF        L117,HI               ; |1451| 
         00000be5 0077 
    5061                      ; branchcc occurs ; |1451| 
    5062 00000be6       DW$L$_FineCurveCalInterpolation$13$E:
    5063 00000be6       DW$L$_FineCurveCalInterpolation$14$B:
    5064 00000be6 0EA2          MOVU      ACC,AR2
    5065 00000be7 8F00-         MOVL      XAR4,#_calibration+482 ; |1453| 
         00000be8 0222 
    5066 00000be9 FF30          LSL       ACC,1                 ; |1453| 
    5067 00000bea 5601          ADDL      XAR4,ACC
         00000beb 00A4 
    5068 00000bec 06C4          MOVL      ACC,*+XAR4[0]         ; |1453| 
    5069 00000bed 7640!         LCR       #L$$TOFS              ; |1453| 
TMS320C2000 COFF Assembler PC v4.1.3 Thu Aug 18 12:16:20 2016

Tools Copyright (c) 1996-2006 Texas Instruments Incorporated
mancal.asm                                                           PAGE  109

         00000bee 0000 
    5070                      ; call occurs [#L$$TOFS] ; |1453| 
    5071 00000bef 1E50          MOVL      *-SP[16],ACC          ; |1453| 
    5072 00000bf0 06C3          MOVL      ACC,*+XAR3[0]         ; |1453| 
    5073 00000bf1 7640!         LCR       #UL$$TOFS             ; |1453| 
         00000bf2 0000 
    5074                      ; call occurs [#UL$$TOFS] ; |1453| 
    5075 00000bf3 1E42          MOVL      *-SP[2],ACC           ; |1453| 
    5076 00000bf4 0650          MOVL      ACC,*-SP[16]          ; |1453| 
    5077 00000bf5 7640!         LCR       #FS$$DIV              ; |1453| 
         00000bf6 0000 
    5078                      ; call occurs [#FS$$DIV] ; |1453| 
    5079 00000bf7 82A9          MOVL      XAR3,ACC              ; |1453| 
    5080 00000bf8 92A1          MOV       AL,AR1                ; |1454| 
    5081 00000bf9 93A2          MOV       AH,AR2                ; |1454| 
    5082 00000bfa 7640'         LCR       #_ReadMAN1000NVMEM    ; |1454| 
         00000bfb 009D 
    5083                      ; call occurs [#_ReadMAN1000NVMEM] ; |1454| 
    5084 00000bfc 5200          CMPB      AL,#0                 ; |1454| 
    5085 00000bfd 964C          MOV       *-SP[12],AL           ; |1454| 
    5086 00000bfe ED0A          BF        L115,NEQ              ; |1454| 
    5087                      ; branchcc occurs ; |1454| 
    5088 00000bff       DW$L$_FineCurveCalInterpolation$14$E:
    5089 00000bff       DW$L$_FineCurveCalInterpolation$15$B:
    5090 00000bff A2A9          MOVL      ACC,XAR3              ; |1458| 
    5091 00000c00 7640!         LCR       #_FloattoIntRound     ; |1458| 
         00000c01 0000 
    5092                      ; call occurs [#_FloattoIntRound] ; |1458| 
    5093 00000c02 964C          MOV       *-SP[12],AL           ; |1458| 
    5094 00000c03 5C4C          MOVZ      AR4,*-SP[12]          ; |1459| 
    5095 00000c04 92A1          MOV       AL,AR1                ; |1459| 
    5096 00000c05 93A2          MOV       AH,AR2                ; |1459| 
    5097 00000c06 7640'         LCR       #_WriteMAN1000NVMEM   ; |1459| 
         00000c07 008C 
    5098                      ; call occurs [#_WriteMAN1000NVMEM] ; |1459| 
    5099 00000c08       DW$L$_FineCurveCalInterpolation$15$E:
    5100 00000c08       L115:    
    5101 00000c08       DW$L$_FineCurveCalInterpolation$16$B:
    5102 00000c08 761F!         MOVW      DP,#_sensorMoving
         00000c09 0000 
    5103 00000c0a 9300!         MOV       AH,@_sensorMoving     ; |1464| 
    5104 00000c0b 8F00!         MOVL      XAR4,#_stringbuffer   ; |1464| 
         00000c0c 0000 
    5105 00000c0d 924C          MOV       AL,*-SP[12]           ; |1464| 
    5106 00000c0e 974D          MOV       *-SP[13],AH           ; |1464| 
    5107 00000c0f A850          MOVL      *-SP[16],XAR4         ; |1464| 
    5108 00000c10 9EA8          SUB       AL,AH                 ; |1464| 
    5109 00000c11 7640!         LCR       #I$$TOFS              ; |1464| 
         00000c12 0000 
    5110                      ; call occurs [#I$$TOFS] ; |1464| 
    5111 00000c13 1E52          MOVL      *-SP[18],ACC          ; |1464| 
    5112 00000c14 924C          MOV       AL,*-SP[12]           ; |1464| 
    5113 00000c15 944D          ADD       AL,*-SP[13]           ; |1464| 
    5114 00000c16 7640!         LCR       #I$$TOFS              ; |1464| 
         00000c17 0000 
TMS320C2000 COFF Assembler PC v4.1.3 Thu Aug 18 12:16:20 2016

Tools Copyright (c) 1996-2006 Texas Instruments Incorporated
mancal.asm                                                           PAGE  110

    5115                      ; call occurs [#I$$TOFS] ; |1464| 
    5116 00000c18 8F00+         MOVL      XAR4,#FSL1            ; |1464| 
         00000c19 0002 
    5117 00000c1a A842          MOVL      *-SP[2],XAR4          ; |1464| 
    5118 00000c1b A244          MOVL      *-SP[4],XAR3          ; |1464| 
    5119 00000c1c 884D          MOVZ      AR6,*-SP[13]          ; |1464| 
    5120 00000c1d 7E45          MOV       *-SP[5],AR6           ; |1464| 
    5121 00000c1e 884C          MOVZ      AR6,*-SP[12]          ; |1464| 
    5122 00000c1f 7E46          MOV       *-SP[6],AR6           ; |1464| 
    5123 00000c20 C452          MOVL      XAR6,*-SP[18]         ; |1464| 
    5124 00000c21 C248          MOVL      *-SP[8],XAR6          ; |1464| 
    5125 00000c22 1E4A          MOVL      *-SP[10],ACC          ; |1464| 
    5126 00000c23 8A50          MOVL      XAR4,*-SP[16]         ; |1464| 
    5127 00000c24 7640!         LCR       #_sprintf             ; |1464| 
         00000c25 0000 
    5128                      ; call occurs [#_sprintf] ; |1464| 
    5129 00000c26 8A50          MOVL      XAR4,*-SP[16]         ; |1464| 
    5130 00000c27 7640!         LCR       #_DebugStringOut      ; |1464| 
         00000c28 0000 
    5131                      ; call occurs [#_DebugStringOut] ; |1464| 
    5132 00000c29 761F!         MOVW      DP,#_sensorMoving
         00000c2a 0000 
    5133 00000c2b 9300!         MOV       AH,@_sensorMoving     ; |1466| 
    5134 00000c2c 924C          MOV       AL,*-SP[12]           ; |1466| 
    5135 00000c2d 974D          MOV       *-SP[13],AH           ; |1466| 
    5136 00000c2e 94A8          ADD       AL,AH                 ; |1466| 
    5137 00000c2f 7640!         LCR       #I$$TOFS              ; |1466| 
         00000c30 0000 
    5138                      ; call occurs [#I$$TOFS] ; |1466| 
    5139 00000c31 1E42          MOVL      *-SP[2],ACC           ; |1466| 
    5140 00000c32 A2A9          MOVL      ACC,XAR3              ; |1466| 
    5141 00000c33 7640!         LCR       #FS$$CMP              ; |1466| 
         00000c34 0000 
    5142                      ; call occurs [#FS$$CMP] ; |1466| 
    5143 00000c35 5200          CMPB      AL,#0                 ; |1466| 
    5144 00000c36 56C3          BF        L116,GEQ              ; |1466| 
         00000c37 001D 
    5145                      ; branchcc occurs ; |1466| 
    5146 00000c38       DW$L$_FineCurveCalInterpolation$16$E:
    5147 00000c38       DW$L$_FineCurveCalInterpolation$17$B:
    5148 00000c38 924C          MOV       AL,*-SP[12]
    5149 00000c39 9E4D          SUB       AL,*-SP[13]           ; |1466| 
    5150 00000c3a 7640!         LCR       #I$$TOFS              ; |1466| 
         00000c3b 0000 
    5151                      ; call occurs [#I$$TOFS] ; |1466| 
    5152 00000c3c 1E42          MOVL      *-SP[2],ACC           ; |1466| 
    5153 00000c3d A2A9          MOVL      ACC,XAR3              ; |1466| 
    5154 00000c3e 7640!         LCR       #FS$$CMP              ; |1466| 
         00000c3f 0000 
    5155                      ; call occurs [#FS$$CMP] ; |1466| 
    5156 00000c40 5200          CMPB      AL,#0                 ; |1466| 
    5157 00000c41 56C5          BF        L116,LEQ              ; |1466| 
         00000c42 0012 
    5158                      ; branchcc occurs ; |1466| 
    5159 00000c43       DW$L$_FineCurveCalInterpolation$17$E:
TMS320C2000 COFF Assembler PC v4.1.3 Thu Aug 18 12:16:20 2016

Tools Copyright (c) 1996-2006 Texas Instruments Incorporated
mancal.asm                                                           PAGE  111

    5160 00000c43       DW$L$_FineCurveCalInterpolation$18$B:
    5161 00000c43 A2A9          MOVL      ACC,XAR3              ; |1468| 
    5162 00000c44 7640!         LCR       #_FloattoIntRound     ; |1468| 
         00000c45 0000 
    5163                      ; call occurs [#_FloattoIntRound] ; |1468| 
    5164 00000c46 88A9          MOVZ      AR6,AL                ; |1468| 
    5165 00000c47 28AC          MOV       T,#28                 ; |1468| 
         00000c48 001C 
    5166 00000c49 92A1          MOV       AL,AR1                ; |1468| 
    5167 00000c4a 30A9          MPYXU     ACC,T,AL              ; |1468| 
    5168 00000c4b 8F00!         MOVL      XAR4,#_man_comptable  ; |1468| 
         00000c4c 0000 
    5169 00000c4d 0DA2          ADDU      ACC,AR2               ; |1468| 
    5170 00000c4e 5601          ADDL      XAR4,ACC
         00000c4f 00A4 
    5171 00000c50 7EC4          MOV       *+XAR4[0],AR6         ; |1468| 
    5172 00000c51 56CF          BF        L118,UNC              ; |1469| 
         00000c52 0015 
    5173                      ; branch occurs ; |1469| 
    5174 00000c53       DW$L$_FineCurveCalInterpolation$18$E:
    5175 00000c53       L116:    
    5176 00000c53       DW$L$_FineCurveCalInterpolation$19$B:
    5177 00000c53 A2A9          MOVL      ACC,XAR3              ; |1473| 
    5178 00000c54 7640!         LCR       #FS$$TOI              ; |1473| 
         00000c55 0000 
    5179                      ; call occurs [#FS$$TOI] ; |1473| 
    5180 00000c56 92A2          MOV       AL,AR2                ; |1473| 
    5181 00000c57 7640'         LCR       #_MANCalAlarm         ; |1473| 
         00000c58 0B47 
    5182                      ; call occurs [#_MANCalAlarm] ; |1473| 
    5183 00000c59 56CF          BF        L118,UNC              ; |1473| 
         00000c5a 000D 
    5184                      ; branch occurs ; |1473| 
    5185 00000c5b       DW$L$_FineCurveCalInterpolation$19$E:
    5186 00000c5b       L117:    
    5187 00000c5b       DW$L$_FineCurveCalInterpolation$20$B:
    5188 00000c5b 92A1          MOV       AL,AR1                ; |1476| 
    5189 00000c5c 28AC          MOV       T,#28                 ; |1476| 
         00000c5d 001C 
    5190 00000c5e 8F00!         MOVL      XAR4,#_man_comptable  ; |1476| 
         00000c5f 0000 
    5191 00000c60 30A9          MPYXU     ACC,T,AL              ; |1476| 
    5192 00000c61 0DA2          ADDU      ACC,AR2               ; |1476| 
    5193 00000c62 5601          ADDL      XAR4,ACC
         00000c63 00A4 
    5194 00000c64 28C4          MOV       *+XAR4[0],#32767      ; |1476| 
         00000c65 7FFF 
    5195 00000c66       DW$L$_FineCurveCalInterpolation$20$E:
    5196 00000c66       L118:    
    5197 00000c66       DW$L$_FineCurveCalInterpolation$21$B:
    5198 00000c66 DA01          ADDB      XAR2,#1               ; |1447| 
    5199 00000c67 761F!         MOVW      DP,#_allsensors
         00000c68 0000 
    5200 00000c69 92A2          MOV       AL,AR2                ; |1447| 
    5201 00000c6a 5400!         CMP       AL,@_allsensors       ; |1447| 
TMS320C2000 COFF Assembler PC v4.1.3 Thu Aug 18 12:16:20 2016

Tools Copyright (c) 1996-2006 Texas Instruments Incorporated
mancal.asm                                                           PAGE  112

    5202                      .dwpsn  "mancal.c",1478,0
    5203 00000c6b 56C8          BF        L114,LO               ; |1447| 
         00000c6c FF61 
    5204                      ; branchcc occurs ; |1447| 
    5205 00000c6d       DW$L$_FineCurveCalInterpolation$21$E:
    5206 00000c6d       L119:    
    5207 00000c6d       DW$L$_FineCurveCalInterpolation$22$B:
    5208 00000c6d D901          ADDB      XAR1,#1               ; |1443| 
    5209 00000c6e 761F-         MOVW      DP,#_calibration
         00000c6f 0001 
    5210 00000c70 92A1          MOV       AL,AR1                ; |1443| 
    5211 00000c71 5400-         CMP       AL,@_calibration      ; |1443| 
    5212                      .dwpsn  "mancal.c",1479,0
    5213 00000c72 56C8          BF        L113,LO               ; |1443| 
         00000c73 FF51 
    5214                      ; branchcc occurs ; |1443| 
    5215 00000c74       DW$L$_FineCurveCalInterpolation$22$E:
    5216 00000c74       L120:    
    5217 00000c74 761F!         MOVW      DP,#_sdsettings+1
         00000c75 0000 
    5218 00000c76 0A01!         INC       @_sdsettings+1        ; |1481| 
    5219 00000c77 8F00!         MOVL      XAR4,#_sdcarddir+18   ; |1481| 
         00000c78 0012 
    5220 00000c79 761F!         MOVW      DP,#_sdsettings+1
         00000c7a 0000 
    5221 00000c7b 9201!         MOV       AL,@_sdsettings+1     ; |1481| 
    5222 00000c7c 9CFF          ADDB      AL,#-1
    5223 00000c7d 7640!         LCR       #_MANCompTabletoSDCardFile ; |1481| 
         00000c7e 0000 
    5224                      ; call occurs [#_MANCompTabletoSDCardFile] ; |1481| 
    5225 00000c7f 761F!         MOVW      DP,#_function+6
         00000c80 0000 
    5226 00000c81 9206!         MOV       AL,@_function+6       ; |1482| 
    5227 00000c82 5201          CMPB      AL,#1                 ; |1482| 
    5228 00000c83 ED04          BF        L121,NEQ              ; |1482| 
    5229                      ; branchcc occurs ; |1482| 
    5230 00000c84 924B          MOV       AL,*-SP[11]
    5231 00000c85 7640'         LCR       #_CheckRoughCalPoints ; |1482| 
         00000c86 08C7 
    5232                      ; call occurs [#_CheckRoughCalPoints] ; |1482| 
    5233 00000c87       L121:    
    5234 00000c87 761F!         MOVW      DP,#_sdsettings+1
         00000c88 0000 
    5235 00000c89 0A01!         INC       @_sdsettings+1        ; |1483| 
    5236 00000c8a 8F00!         MOVL      XAR4,#_sdcarddir+18   ; |1483| 
         00000c8b 0012 
    5237 00000c8c 761F!         MOVW      DP,#_sdsettings+1
         00000c8d 0000 
    5238 00000c8e 9201!         MOV       AL,@_sdsettings+1     ; |1483| 
    5239 00000c8f 9CFF          ADDB      AL,#-1
    5240 00000c90 7640!         LCR       #_MANCompTabletoSDCardFile ; |1483| 
         00000c91 0000 
    5241                      ; call occurs [#_MANCompTabletoSDCardFile] ; |1483| 
    5242 00000c92 761F!         MOVW      DP,#_allsensors
         00000c93 0000 
TMS320C2000 COFF Assembler PC v4.1.3 Thu Aug 18 12:16:20 2016

Tools Copyright (c) 1996-2006 Texas Instruments Incorporated
mancal.asm                                                           PAGE  113

    5243 00000c94 9200!         MOV       AL,@_allsensors       ; |1486| 
    5244 00000c95 D200          MOVB      XAR2,#0
    5245 00000c96 56C1          BF        L136,EQ               ; |1486| 
         00000c97 0130 
    5246                      ; branchcc occurs ; |1486| 
    5247              L122:    
    5248              DW$L$_FineCurveCalInterpolation$26$B:
    5249                      .dwpsn  "mancal.c",1487,0
    5250 00000c98 28AC          MOV       T,#18                 ; |1488| 
         00000c99 0012 
    5251 00000c9a 8F00!         MOVL      XAR4,#_sensor         ; |1488| 
         00000c9b 0000 
    5252 00000c9c 30A2          MPYXU     ACC,T,AR2             ; |1488| 
    5253 00000c9d 5601          ADDL      XAR4,ACC
         00000c9e 00A4 
    5254 00000c9f 92C4          MOV       AL,*+XAR4[0]          ; |1488| 
    5255 00000ca0 CDA9          AND       AH,AL,#0x0001         ; |1488| 
         00000ca1 0001 
    5256 00000ca2 56C1          BF        L135,EQ               ; |1488| 
         00000ca3 011D 
    5257                      ; branchcc occurs ; |1488| 
    5258 00000ca4       DW$L$_FineCurveCalInterpolation$26$E:
    5259 00000ca4       DW$L$_FineCurveCalInterpolation$27$B:
    5260 00000ca4 9002          ANDB      AL,#2                 ; |1488| 
    5261 00000ca5 56C1          BF        L135,EQ               ; |1488| 
         00000ca6 011A 
    5262                      ; branchcc occurs ; |1488| 
    5263 00000ca7       DW$L$_FineCurveCalInterpolation$27$E:
    5264 00000ca7       DW$L$_FineCurveCalInterpolation$28$B:
    5265 00000ca7 761F-         MOVW      DP,#_calibration
         00000ca8 0001 
    5266 00000ca9 D100          MOVB      XAR1,#0
    5267 00000caa 9200-         MOV       AL,@_calibration      ; |1491| 
    5268 00000cab 56C1          BF        L135,EQ               ; |1491| 
         00000cac 0114 
    5269                      ; branchcc occurs ; |1491| 
    5270              DW$L$_FineCurveCalInterpolation$28$E:
    5271              L123:    
    5272              DW$L$_FineCurveCalInterpolation$29$B:
    5273                      .dwpsn  "mancal.c",1492,0
    5274 00000cad 8F00!         MOVL      XAR4,#_man_comptable  ; |1495| 
         00000cae 0000 
    5275 00000caf 92A1          MOV       AL,AR1                ; |1495| 
    5276 00000cb0 83A4          MOVL      XAR5,XAR4             ; |1495| 
    5277 00000cb1 28AC          MOV       T,#28                 ; |1495| 
         00000cb2 001C 
    5278 00000cb3 30A9          MPYXU     ACC,T,AL              ; |1495| 
    5279 00000cb4 0DA2          ADDU      ACC,AR2               ; |1495| 
    5280 00000cb5 5601          ADDL      XAR5,ACC
         00000cb6 00A5 
    5281 00000cb7 BE00          MOVB      XAR6,#0
    5282 00000cb8 2B4D          MOV       *-SP[13],#0           ; |1494| 
    5283 00000cb9 1BC5          CMP       *+XAR5[0],#32767      ; |1495| 
         00000cba 7FFF 
    5284 00000cbb 56C0          BF        L134,NEQ              ; |1495| 
TMS320C2000 COFF Assembler PC v4.1.3 Thu Aug 18 12:16:20 2016

Tools Copyright (c) 1996-2006 Texas Instruments Incorporated
mancal.asm                                                           PAGE  114

         00000cbc 00F9 
    5285                      ; branchcc occurs ; |1495| 
    5286 00000cbd       DW$L$_FineCurveCalInterpolation$29$E:
    5287 00000cbd       DW$L$_FineCurveCalInterpolation$30$B:
    5288 00000cbd 92A1          MOV       AL,AR1                ; |1498| 
    5289 00000cbe 761F-         MOVW      DP,#_calibration
         00000cbf 0001 
    5290 00000cc0 D300          MOVB      XAR3,#0
    5291 00000cc1 9E00-         SUB       AL,@_calibration      ; |1498| 
    5292 00000cc2 1BA9          CMP       AL,#65535             ; |1498| 
         00000cc3 FFFF 
    5293 00000cc4 EC31          BF        L126,EQ               ; |1498| 
    5294                      ; branchcc occurs ; |1498| 
    5295 00000cc5       DW$L$_FineCurveCalInterpolation$30$E:
    5296 00000cc5       DW$L$_FineCurveCalInterpolation$31$B:
    5297 00000cc5 9A01          MOVB      AL,#1                 ; |1501| 
    5298 00000cc6 28AC          MOV       T,#28                 ; |1501| 
         00000cc7 001C 
    5299 00000cc8 94A1          ADD       AL,AR1                ; |1501| 
    5300 00000cc9 30A9          MPYXU     ACC,T,AL              ; |1501| 
    5301 00000cca 0DA2          ADDU      ACC,AR2               ; |1501| 
    5302 00000ccb 5601          ADDL      XAR4,ACC
         00000ccc 00A4 
    5303 00000ccd D301          MOVB      XAR3,#1               ; |1500| 
    5304 00000cce 1BC4          CMP       *+XAR4[0],#32767      ; |1501| 
         00000ccf 7FFF 
    5305 00000cd0 ED17          BF        L125,NEQ              ; |1501| 
    5306                      ; branchcc occurs ; |1501| 
    5307              DW$L$_FineCurveCalInterpolation$31$E:
    5308              L124:    
    5309              DW$L$_FineCurveCalInterpolation$32$B:
    5310                      .dwpsn  "mancal.c",1501,0
    5311 00000cd1 92A3          MOV       AL,AR3                ; |1501| 
    5312 00000cd2 761F-         MOVW      DP,#_calibration
         00000cd3 0001 
    5313 00000cd4 94A1          ADD       AL,AR1                ; |1501| 
    5314 00000cd5 9E00-         SUB       AL,@_calibration      ; |1501| 
    5315 00000cd6 1BA9          CMP       AL,#65535             ; |1501| 
         00000cd7 FFFF 
    5316 00000cd8 EC0F          BF        L125,EQ               ; |1501| 
    5317                      ; branchcc occurs ; |1501| 
    5318 00000cd9       DW$L$_FineCurveCalInterpolation$32$E:
    5319 00000cd9       DW$L$_FineCurveCalInterpolation$33$B:
    5320 00000cd9 DB01          ADDB      XAR3,#1               ; |1501| 
    5321 00000cda 28AC          MOV       T,#28                 ; |1501| 
         00000cdb 001C 
    5322 00000cdc 92A3          MOV       AL,AR3                ; |1501| 
    5323 00000cdd 8F00!         MOVL      XAR4,#_man_comptable  ; |1501| 
         00000cde 0000 
    5324 00000cdf 94A1          ADD       AL,AR1                ; |1501| 
    5325 00000ce0 30A9          MPYXU     ACC,T,AL              ; |1501| 
    5326 00000ce1 0DA2          ADDU      ACC,AR2               ; |1501| 
    5327 00000ce2 5601          ADDL      XAR4,ACC
         00000ce3 00A4 
    5328 00000ce4 1BC4          CMP       *+XAR4[0],#32767      ; |1501| 
TMS320C2000 COFF Assembler PC v4.1.3 Thu Aug 18 12:16:20 2016

Tools Copyright (c) 1996-2006 Texas Instruments Incorporated
mancal.asm                                                           PAGE  115

         00000ce5 7FFF 
    5329 00000ce6 ECEB          BF        L124,EQ               ; |1501| 
    5330                      ; branchcc occurs ; |1501| 
    5331 00000ce7       DW$L$_FineCurveCalInterpolation$33$E:
    5332 00000ce7       L125:    
    5333 00000ce7       DW$L$_FineCurveCalInterpolation$34$B:
    5334 00000ce7 92A3          MOV       AL,AR3                ; |1502| 
    5335 00000ce8 28AC          MOV       T,#28                 ; |1502| 
         00000ce9 001C 
    5336 00000cea 94A1          ADD       AL,AR1                ; |1502| 
    5337 00000ceb 8F00!         MOVL      XAR4,#_man_comptable  ; |1502| 
         00000cec 0000 
    5338 00000ced 30A9          MPYXU     ACC,T,AL              ; |1502| 
    5339 00000cee 0DA2          ADDU      ACC,AR2               ; |1502| 
    5340 00000cef 5601          ADDL      XAR4,ACC
         00000cf0 00A4 
    5341 00000cf1 1BC4          CMP       *+XAR4[0],#32767      ; |1502| 
         00000cf2 7FFF 
    5342 00000cf3 ED02          BF        L126,NEQ              ; |1502| 
    5343                      ; branchcc occurs ; |1502| 
    5344 00000cf4       DW$L$_FineCurveCalInterpolation$34$E:
    5345 00000cf4       DW$L$_FineCurveCalInterpolation$35$B:
    5346 00000cf4 BE01          MOVB      XAR6,#1               ; |1502| 
    5347 00000cf5       DW$L$_FineCurveCalInterpolation$35$E:
    5348 00000cf5       L126:    
    5349 00000cf5       DW$L$_FineCurveCalInterpolation$36$B:
    5350 00000cf5 92A1          MOV       AL,AR1
    5351 00000cf6 ED3F          BF        L129,NEQ              ; |1505| 
    5352                      ; branchcc occurs ; |1505| 
    5353 00000cf7       DW$L$_FineCurveCalInterpolation$36$E:
    5354 00000cf7       DW$L$_FineCurveCalInterpolation$37$B:
    5355 00000cf7 9A01          MOVB      AL,#1                 ; |1509| 
    5356 00000cf8 28AC          MOV       T,#28                 ; |1509| 
         00000cf9 001C 
    5357 00000cfa 94A3          ADD       AL,AR3                ; |1509| 
    5358 00000cfb 8F00!         MOVL      XAR4,#_man_comptable  ; |1509| 
         00000cfc 0000 
    5359 00000cfd 30A9          MPYXU     ACC,T,AL              ; |1509| 
    5360 00000cfe 0DA2          ADDU      ACC,AR2               ; |1509| 
    5361 00000cff 5601          ADDL      XAR4,ACC
         00000d00 00A4 
    5362 00000d01 D501          MOVB      XAR5,#1               ; |1508| 
    5363 00000d02 1BC4          CMP       *+XAR4[0],#32767      ; |1509| 
         00000d03 7FFF 
    5364 00000d04 ED17          BF        L128,NEQ              ; |1509| 
    5365                      ; branchcc occurs ; |1509| 
    5366              DW$L$_FineCurveCalInterpolation$37$E:
    5367              L127:    
    5368              DW$L$_FineCurveCalInterpolation$38$B:
    5369                      .dwpsn  "mancal.c",1509,0
    5370 00000d05 92A5          MOV       AL,AR5                ; |1509| 
    5371 00000d06 761F-         MOVW      DP,#_calibration
         00000d07 0001 
    5372 00000d08 94A3          ADD       AL,AR3                ; |1509| 
    5373 00000d09 9E00-         SUB       AL,@_calibration      ; |1509| 
TMS320C2000 COFF Assembler PC v4.1.3 Thu Aug 18 12:16:20 2016

Tools Copyright (c) 1996-2006 Texas Instruments Incorporated
mancal.asm                                                           PAGE  116

    5374 00000d0a 1BA9          CMP       AL,#65535             ; |1509| 
         00000d0b FFFF 
    5375 00000d0c EC0F          BF        L128,EQ               ; |1509| 
    5376                      ; branchcc occurs ; |1509| 
    5377 00000d0d       DW$L$_FineCurveCalInterpolation$38$E:
    5378 00000d0d       DW$L$_FineCurveCalInterpolation$39$B:
    5379 00000d0d DD01          ADDB      XAR5,#1               ; |1509| 
    5380 00000d0e 28AC          MOV       T,#28                 ; |1509| 
         00000d0f 001C 
    5381 00000d10 92A5          MOV       AL,AR5                ; |1509| 
    5382 00000d11 8F00!         MOVL      XAR4,#_man_comptable  ; |1509| 
         00000d12 0000 
    5383 00000d13 94A3          ADD       AL,AR3                ; |1509| 
    5384 00000d14 30A9          MPYXU     ACC,T,AL              ; |1509| 
    5385 00000d15 0DA2          ADDU      ACC,AR2               ; |1509| 
    5386 00000d16 5601          ADDL      XAR4,ACC
         00000d17 00A4 
    5387 00000d18 1BC4          CMP       *+XAR4[0],#32767      ; |1509| 
         00000d19 7FFF 
    5388 00000d1a ECEB          BF        L127,EQ               ; |1509| 
    5389                      ; branchcc occurs ; |1509| 
    5390 00000d1b       DW$L$_FineCurveCalInterpolation$39$E:
    5391 00000d1b       L128:    
    5392 00000d1b       DW$L$_FineCurveCalInterpolation$40$B:
    5393 00000d1b 92A5          MOV       AL,AR5                ; |1511| 
    5394 00000d1c 2B4D          MOV       *-SP[13],#0           ; |1513| 
    5395 00000d1d 7D4C          MOV       *-SP[12],AR5          ; |1512| 
    5396 00000d1e 7B4E          MOV       *-SP[14],AR3          ; |1510| 
    5397 00000d1f 94A3          ADD       AL,AR3                ; |1511| 
    5398 00000d20 964B          MOV       *-SP[11],AL           ; |1511| 
    5399 00000d21 92A2          MOV       AL,AR2                ; |1513| 
    5400 00000d22 ED56          BF        L132,NEQ              ; |1514| 
    5401                      ; branchcc occurs ; |1514| 
    5402 00000d23       DW$L$_FineCurveCalInterpolation$40$E:
    5403 00000d23       DW$L$_FineCurveCalInterpolation$41$B:
    5404 00000d23 8F00!         MOVL      XAR4,#_stringbuffer   ; |1516| 
         00000d24 0000 
    5405 00000d25 A850          MOVL      *-SP[16],XAR4         ; |1516| 
    5406 00000d26 8F00+         MOVL      XAR4,#FSL2            ; |1516| 
         00000d27 003E 
    5407 00000d28 A842          MOVL      *-SP[2],XAR4          ; |1516| 
    5408 00000d29 7B43          MOV       *-SP[3],AR3           ; |1516| 
    5409 00000d2a 924B          MOV       AL,*-SP[11]           ; |1516| 
    5410 00000d2b 9644          MOV       *-SP[4],AL            ; |1516| 
    5411 00000d2c 7D45          MOV       *-SP[5],AR5           ; |1516| 
    5412 00000d2d 8A50          MOVL      XAR4,*-SP[16]         ; |1516| 
    5413 00000d2e 7640!         LCR       #_sprintf             ; |1516| 
         00000d2f 0000 
    5414                      ; call occurs [#_sprintf] ; |1516| 
    5415 00000d30 8A50          MOVL      XAR4,*-SP[16]         ; |1516| 
    5416 00000d31 7640!         LCR       #_DebugStringOut      ; |1517| 
         00000d32 0000 
    5417                      ; call occurs [#_DebugStringOut] ; |1517| 
    5418 00000d33 56CF          BF        L132,UNC              ; |1517| 
         00000d34 0045 
TMS320C2000 COFF Assembler PC v4.1.3 Thu Aug 18 12:16:20 2016

Tools Copyright (c) 1996-2006 Texas Instruments Incorporated
mancal.asm                                                           PAGE  117

    5419                      ; branch occurs ; |1517| 
    5420 00000d35       DW$L$_FineCurveCalInterpolation$41$E:
    5421 00000d35       L129:    
    5422 00000d35       DW$L$_FineCurveCalInterpolation$42$B:
    5423 00000d35 92A6          MOV       AL,AR6
    5424 00000d36 5201          CMPB      AL,#1                 ; |1520| 
    5425 00000d37 EC2A          BF        L130,EQ               ; |1520| 
    5426                      ; branchcc occurs ; |1520| 
    5427 00000d38       DW$L$_FineCurveCalInterpolation$42$E:
    5428 00000d38       DW$L$_FineCurveCalInterpolation$43$B:
    5429 00000d38 8F00!         MOVL      XAR4,#_man_comptable  ; |1534| 
         00000d39 0000 
    5430 00000d3a 92A1          MOV       AL,AR1                ; |1534| 
    5431 00000d3b 28AC          MOV       T,#28                 ; |1534| 
         00000d3c 001C 
    5432 00000d3d 83A4          MOVL      XAR5,XAR4             ; |1534| 
    5433 00000d3e 9CFF          ADDB      AL,#-1
    5434 00000d3f 30A9          MPYXU     ACC,T,AL              ; |1534| 
    5435 00000d40 0DA2          ADDU      ACC,AR2               ; |1534| 
    5436 00000d41 5601          ADDL      XAR5,ACC
         00000d42 00A5 
    5437 00000d43 1BC5          CMP       *+XAR5[0],#32767      ; |1534| 
         00000d44 7FFF 
    5438 00000d45 EC33          BF        L132,EQ               ; |1534| 
    5439                      ; branchcc occurs ; |1534| 
    5440 00000d46       DW$L$_FineCurveCalInterpolation$43$E:
    5441 00000d46       DW$L$_FineCurveCalInterpolation$44$B:
    5442 00000d46 92A3          MOV       AL,AR3                ; |1534| 
    5443 00000d47 28AC          MOV       T,#28                 ; |1534| 
         00000d48 001C 
    5444 00000d49 83A4          MOVL      XAR5,XAR4             ; |1534| 
    5445 00000d4a 94A1          ADD       AL,AR1                ; |1534| 
    5446 00000d4b 30A9          MPYXU     ACC,T,AL              ; |1534| 
    5447 00000d4c 0DA2          ADDU      ACC,AR2               ; |1534| 
    5448 00000d4d 5601          ADDL      XAR5,ACC
         00000d4e 00A5 
    5449 00000d4f 1BC5          CMP       *+XAR5[0],#32767      ; |1534| 
         00000d50 7FFF 
    5450 00000d51 EC27          BF        L132,EQ               ; |1534| 
    5451                      ; branchcc occurs ; |1534| 
    5452 00000d52       DW$L$_FineCurveCalInterpolation$44$E:
    5453 00000d52       DW$L$_FineCurveCalInterpolation$45$B:
    5454 00000d52 92A1          MOV       AL,AR1                ; |1536| 
    5455 00000d53 9CFF          ADDB      AL,#-1
    5456 00000d54 93A9          MOV       AH,AL                 ; |1536| 
    5457 00000d55 964E          MOV       *-SP[14],AL           ; |1536| 
    5458 00000d56 92A3          MOV       AL,AR3                ; |1537| 
    5459 00000d57 94A1          ADD       AL,AR1                ; |1537| 
    5460 00000d58 59A8          MOVZ      AR1,AH                ; |1538| 
    5461 00000d59 964B          MOV       *-SP[11],AL           ; |1537| 
    5462 00000d5a 9A01          MOVB      AL,#1                 ; |1538| 
    5463 00000d5b 94A3          ADD       AL,AR3                ; |1538| 
    5464 00000d5c 2DA1          MOV       T,AR1                 ; |1539| 
    5465 00000d5d 964C          MOV       *-SP[12],AL           ; |1538| 
    5466 00000d5e 5BA9          MOVZ      AR3,AL                ; |1538| 
TMS320C2000 COFF Assembler PC v4.1.3 Thu Aug 18 12:16:20 2016

Tools Copyright (c) 1996-2006 Texas Instruments Incorporated
mancal.asm                                                           PAGE  118

    5467 00000d5f 56CF          BF        L131,UNC              ; |1542| 
         00000d60 000F 
    5468                      ; branch occurs ; |1542| 
    5469 00000d61       DW$L$_FineCurveCalInterpolation$45$E:
    5470 00000d61       L130:    
    5471 00000d61       DW$L$_FineCurveCalInterpolation$46$B:
    5472 00000d61 92A1          MOV       AL,AR1                ; |1524| 
    5473 00000d62 9CFE          ADDB      AL,#-2
    5474 00000d63 8F00!         MOVL      XAR4,#_man_comptable  ; |1529| 
         00000d64 0000 
    5475 00000d65 DB02          ADDB      XAR3,#2               ; |1527| 
    5476 00000d66 964E          MOV       *-SP[14],AL           ; |1524| 
    5477 00000d67 284C          MOV       *-SP[12],#1           ; |1526| 
         00000d68 0001 
    5478 00000d69 92A1          MOV       AL,AR1                ; |1525| 
    5479 00000d6a 9CFF          ADDB      AL,#-1
    5480 00000d6b 964B          MOV       *-SP[11],AL           ; |1525| 
    5481 00000d6c 59A9          MOVZ      AR1,AL                ; |1528| 
    5482 00000d6d 2DA9          MOV       T,AL                  ; |1529| 
    5483 00000d6e       DW$L$_FineCurveCalInterpolation$46$E:
    5484 00000d6e       L131:    
    5485 00000d6e       DW$L$_FineCurveCalInterpolation$47$B:
    5486 00000d6e 351C          MPYB      ACC,T,#28             ; |1529| 
    5487 00000d6f 0DA2          ADDU      ACC,AR2               ; |1529| 
    5488 00000d70 5601          ADDL      XAR4,ACC
         00000d71 00A4 
    5489 00000d72 92C4          MOV       AL,*+XAR4[0]          ; |1529| 
    5490 00000d73 7640!         LCR       #I$$TOFS              ; |1529| 
         00000d74 0000 
    5491                      ; call occurs [#I$$TOFS] ; |1529| 
    5492 00000d75 284D          MOV       *-SP[13],#1           ; |1530| 
         00000d76 0001 
    5493 00000d77 1E54          MOVL      *-SP[20],ACC          ; |1529| 
    5494 00000d78       DW$L$_FineCurveCalInterpolation$47$E:
    5495 00000d78       L132:    
    5496 00000d78       DW$L$_FineCurveCalInterpolation$48$B:
    5497 00000d78 2D4E          MOV       T,*-SP[14]            ; |1547| 
    5498 00000d79 8F00!         MOVL      XAR4,#_man_comptable  ; |1547| 
         00000d7a 0000 
    5499 00000d7b 351C          MPYB      ACC,T,#28             ; |1547| 
    5500 00000d7c A852          MOVL      *-SP[18],XAR4         ; |1547| 
    5501 00000d7d 0DA2          ADDU      ACC,AR2               ; |1547| 
    5502 00000d7e 5601          ADDL      XAR4,ACC
         00000d7f 00A4 
    5503 00000d80 92C4          MOV       AL,*+XAR4[0]          ; |1547| 
    5504 00000d81 7640!         LCR       #I$$TOFS              ; |1547| 
         00000d82 0000 
    5505                      ; call occurs [#I$$TOFS] ; |1547| 
    5506 00000d83 2D4B          MOV       T,*-SP[11]            ; |1547| 
    5507 00000d84 8A52          MOVL      XAR4,*-SP[18]         ; |1547| 
    5508 00000d85 1E50          MOVL      *-SP[16],ACC          ; |1547| 
    5509 00000d86 351C          MPYB      ACC,T,#28             ; |1547| 
    5510 00000d87 0DA2          ADDU      ACC,AR2               ; |1547| 
    5511 00000d88 5601          ADDL      XAR4,ACC
         00000d89 00A4 
TMS320C2000 COFF Assembler PC v4.1.3 Thu Aug 18 12:16:20 2016

Tools Copyright (c) 1996-2006 Texas Instruments Incorporated
mancal.asm                                                           PAGE  119

    5512 00000d8a 92C4          MOV       AL,*+XAR4[0]          ; |1547| 
    5513 00000d8b 7640!         LCR       #I$$TOFS              ; |1547| 
         00000d8c 0000 
    5514                      ; call occurs [#I$$TOFS] ; |1547| 
    5515 00000d8d C450          MOVL      XAR6,*-SP[16]         ; |1547| 
    5516 00000d8e C242          MOVL      *-SP[2],XAR6          ; |1547| 
    5517 00000d8f 7640!         LCR       #FS$$SUB              ; |1547| 
         00000d90 0000 
    5518                      ; call occurs [#FS$$SUB] ; |1547| 
    5519 00000d91 1E52          MOVL      *-SP[18],ACC          ; |1547| 
    5520 00000d92 924C          MOV       AL,*-SP[12]           ; |1547| 
    5521 00000d93 7640!         LCR       #I$$TOFS              ; |1548| 
         00000d94 0000 
    5522                      ; call occurs [#I$$TOFS] ; |1548| 
    5523 00000d95 1E42          MOVL      *-SP[2],ACC           ; |1548| 
    5524 00000d96 0652          MOVL      ACC,*-SP[18]          ; |1548| 
    5525 00000d97 7640!         LCR       #FS$$DIV              ; |1548| 
         00000d98 0000 
    5526                      ; call occurs [#FS$$DIV] ; |1548| 
    5527 00000d99 1E52          MOVL      *-SP[18],ACC          ; |1548| 
    5528 00000d9a 924D          MOV       AL,*-SP[13]           ; |1548| 
    5529 00000d9b ED0D          BF        L133,NEQ              ; |1549| 
    5530                      ; branchcc occurs ; |1549| 
    5531 00000d9c       DW$L$_FineCurveCalInterpolation$48$E:
    5532 00000d9c       DW$L$_FineCurveCalInterpolation$49$B:
    5533 00000d9c 92A3          MOV       AL,AR3                ; |1549| 
    5534 00000d9d 7640!         LCR       #U$$TOFS              ; |1549| 
         00000d9e 0000 
    5535                      ; call occurs [#U$$TOFS] ; |1549| 
    5536 00000d9f C452          MOVL      XAR6,*-SP[18]         ; |1549| 
    5537 00000da0 C242          MOVL      *-SP[2],XAR6          ; |1549| 
    5538 00000da1 7640!         LCR       #FS$$MPY              ; |1549| 
         00000da2 0000 
    5539                      ; call occurs [#FS$$MPY] ; |1549| 
    5540 00000da3 1E42          MOVL      *-SP[2],ACC           ; |1549| 
    5541 00000da4 0650          MOVL      ACC,*-SP[16]          ; |1549| 
    5542 00000da5 7640!         LCR       #FS$$SUB              ; |1549| 
         00000da6 0000 
    5543                      ; call occurs [#FS$$SUB] ; |1549| 
    5544 00000da7 1E54          MOVL      *-SP[20],ACC          ; |1549| 
    5545 00000da8       DW$L$_FineCurveCalInterpolation$49$E:
    5546 00000da8       L133:    
    5547 00000da8       DW$L$_FineCurveCalInterpolation$50$B:
    5548 00000da8 7B41          MOV       *-SP[1],AR3           ; |1551| 
    5549 00000da9 5DA1          MOVZ      AR5,AR1               ; |1551| 
    5550 00000daa 0652          MOVL      ACC,*-SP[18]          ; |1551| 
    5551 00000dab 5CA2          MOVZ      AR4,AR2               ; |1551| 
    5552 00000dac 1E44          MOVL      *-SP[4],ACC           ; |1551| 
    5553 00000dad 0654          MOVL      ACC,*-SP[20]          ; |1551| 
    5554 00000dae 7640'         LCR       #_Interpolate         ; |1551| 
         00000daf 0839 
    5555                      ; call occurs [#_Interpolate] ; |1551| 
    5556 00000db0 92A1          MOV       AL,AR1                ; |1552| 
    5557 00000db1 94A3          ADD       AL,AR3                ; |1552| 
    5558 00000db2 9CFF          ADDB      AL,#-1
TMS320C2000 COFF Assembler PC v4.1.3 Thu Aug 18 12:16:20 2016

Tools Copyright (c) 1996-2006 Texas Instruments Incorporated
mancal.asm                                                           PAGE  120

    5559 00000db3 59A9          MOVZ      AR1,AL                ; |1552| 
    5560 00000db4       DW$L$_FineCurveCalInterpolation$50$E:
    5561 00000db4       L134:    
    5562 00000db4       DW$L$_FineCurveCalInterpolation$51$B:
    5563 00000db4 761F!         MOVW      DP,#_settings
         00000db5 0000 
    5564 00000db6 D901          ADDB      XAR1,#1               ; |1555| 
    5565 00000db7 2800!         MOV       @_settings,#1         ; |1555| 
         00000db8 0001 
    5566 00000db9 92A1          MOV       AL,AR1                ; |1555| 
    5567 00000dba 761F-         MOVW      DP,#_calibration
         00000dbb 0001 
    5568 00000dbc 5400-         CMP       AL,@_calibration      ; |1555| 
    5569                      .dwpsn  "mancal.c",1556,0
    5570 00000dbd 56C8          BF        L123,LO               ; |1555| 
         00000dbe FEF0 
    5571                      ; branchcc occurs ; |1555| 
    5572 00000dbf       DW$L$_FineCurveCalInterpolation$51$E:
    5573 00000dbf       L135:    
    5574 00000dbf       DW$L$_FineCurveCalInterpolation$52$B:
    5575 00000dbf DA01          ADDB      XAR2,#1               ; |1486| 
    5576 00000dc0 761F!         MOVW      DP,#_allsensors
         00000dc1 0000 
    5577 00000dc2 92A2          MOV       AL,AR2                ; |1486| 
    5578 00000dc3 5400!         CMP       AL,@_allsensors       ; |1486| 
    5579                      .dwpsn  "mancal.c",1558,0
    5580 00000dc4 56C8          BF        L122,LO               ; |1486| 
         00000dc5 FED4 
    5581                      ; branchcc occurs ; |1486| 
    5582 00000dc6       DW$L$_FineCurveCalInterpolation$52$E:
    5583 00000dc6       L136:    
    5584 00000dc6 FE94          SUBB      SP,#20
    5585 00000dc7 82BE          MOVL      XAR3,*--SP
    5586 00000dc8 86BE          MOVL      XAR2,*--SP
    5587 00000dc9 8BBE          MOVL      XAR1,*--SP
    5588                      .dwpsn  "mancal.c",1560,1
    5589 00000dca 0006          LRETR
    5590                      ; return occurs
    5591              
    5592              DW$264  .dwtag  DW_TAG_loop
    5593                      .dwattr DW$264, DW_AT_name("D:\DEV\Amot\BearingWear\XTSW_V6_20\mancal.asm:L122:1:1471518980")
    5594                      .dwattr DW$264, DW_AT_begin_file("mancal.c")
    5595                      .dwattr DW$264, DW_AT_begin_line(0x5ce)
    5596                      .dwattr DW$264, DW_AT_end_line(0x616)
    5597              DW$265  .dwtag  DW_TAG_loop_range
    5598                      .dwattr DW$265, DW_AT_low_pc(DW$L$_FineCurveCalInterpolation$26$B)
    5599                      .dwattr DW$265, DW_AT_high_pc(DW$L$_FineCurveCalInterpolation$26$E)
    5600              DW$266  .dwtag  DW_TAG_loop_range
    5601                      .dwattr DW$266, DW_AT_low_pc(DW$L$_FineCurveCalInterpolation$27$B)
    5602                      .dwattr DW$266, DW_AT_high_pc(DW$L$_FineCurveCalInterpolation$27$E)
    5603              DW$267  .dwtag  DW_TAG_loop_range
    5604                      .dwattr DW$267, DW_AT_low_pc(DW$L$_FineCurveCalInterpolation$28$B)
    5605                      .dwattr DW$267, DW_AT_high_pc(DW$L$_FineCurveCalInterpolation$28$E)
    5606              DW$268  .dwtag  DW_TAG_loop_range
    5607                      .dwattr DW$268, DW_AT_low_pc(DW$L$_FineCurveCalInterpolation$52$B)
TMS320C2000 COFF Assembler PC v4.1.3 Thu Aug 18 12:16:20 2016

Tools Copyright (c) 1996-2006 Texas Instruments Incorporated
mancal.asm                                                           PAGE  121

    5608                      .dwattr DW$268, DW_AT_high_pc(DW$L$_FineCurveCalInterpolation$52$E)
    5609              
    5610              DW$269  .dwtag  DW_TAG_loop
    5611                      .dwattr DW$269, DW_AT_name("D:\DEV\Amot\BearingWear\XTSW_V6_20\mancal.asm:L123:2:1471518980")
    5612                      .dwattr DW$269, DW_AT_begin_file("mancal.c")
    5613                      .dwattr DW$269, DW_AT_begin_line(0x5d3)
    5614                      .dwattr DW$269, DW_AT_end_line(0x614)
    5615              DW$270  .dwtag  DW_TAG_loop_range
    5616                      .dwattr DW$270, DW_AT_low_pc(DW$L$_FineCurveCalInterpolation$29$B)
    5617                      .dwattr DW$270, DW_AT_high_pc(DW$L$_FineCurveCalInterpolation$29$E)
    5618              DW$271  .dwtag  DW_TAG_loop_range
    5619                      .dwattr DW$271, DW_AT_low_pc(DW$L$_FineCurveCalInterpolation$45$B)
    5620                      .dwattr DW$271, DW_AT_high_pc(DW$L$_FineCurveCalInterpolation$45$E)
    5621              DW$272  .dwtag  DW_TAG_loop_range
    5622                      .dwattr DW$272, DW_AT_low_pc(DW$L$_FineCurveCalInterpolation$46$B)
    5623                      .dwattr DW$272, DW_AT_high_pc(DW$L$_FineCurveCalInterpolation$46$E)
    5624              DW$273  .dwtag  DW_TAG_loop_range
    5625                      .dwattr DW$273, DW_AT_low_pc(DW$L$_FineCurveCalInterpolation$42$B)
    5626                      .dwattr DW$273, DW_AT_high_pc(DW$L$_FineCurveCalInterpolation$42$E)
    5627              DW$274  .dwtag  DW_TAG_loop_range
    5628                      .dwattr DW$274, DW_AT_low_pc(DW$L$_FineCurveCalInterpolation$31$B)
    5629                      .dwattr DW$274, DW_AT_high_pc(DW$L$_FineCurveCalInterpolation$31$E)
    5630              DW$275  .dwtag  DW_TAG_loop_range
    5631                      .dwattr DW$275, DW_AT_low_pc(DW$L$_FineCurveCalInterpolation$30$B)
    5632                      .dwattr DW$275, DW_AT_high_pc(DW$L$_FineCurveCalInterpolation$30$E)
    5633              DW$276  .dwtag  DW_TAG_loop_range
    5634                      .dwattr DW$276, DW_AT_low_pc(DW$L$_FineCurveCalInterpolation$34$B)
    5635                      .dwattr DW$276, DW_AT_high_pc(DW$L$_FineCurveCalInterpolation$34$E)
    5636              DW$277  .dwtag  DW_TAG_loop_range
    5637                      .dwattr DW$277, DW_AT_low_pc(DW$L$_FineCurveCalInterpolation$35$B)
    5638                      .dwattr DW$277, DW_AT_high_pc(DW$L$_FineCurveCalInterpolation$35$E)
    5639              DW$278  .dwtag  DW_TAG_loop_range
    5640                      .dwattr DW$278, DW_AT_low_pc(DW$L$_FineCurveCalInterpolation$36$B)
    5641                      .dwattr DW$278, DW_AT_high_pc(DW$L$_FineCurveCalInterpolation$36$E)
    5642              DW$279  .dwtag  DW_TAG_loop_range
    5643                      .dwattr DW$279, DW_AT_low_pc(DW$L$_FineCurveCalInterpolation$37$B)
    5644                      .dwattr DW$279, DW_AT_high_pc(DW$L$_FineCurveCalInterpolation$37$E)
    5645              DW$280  .dwtag  DW_TAG_loop_range
    5646                      .dwattr DW$280, DW_AT_low_pc(DW$L$_FineCurveCalInterpolation$40$B)
    5647                      .dwattr DW$280, DW_AT_high_pc(DW$L$_FineCurveCalInterpolation$40$E)
    5648              DW$281  .dwtag  DW_TAG_loop_range
    5649                      .dwattr DW$281, DW_AT_low_pc(DW$L$_FineCurveCalInterpolation$41$B)
    5650                      .dwattr DW$281, DW_AT_high_pc(DW$L$_FineCurveCalInterpolation$41$E)
    5651              DW$282  .dwtag  DW_TAG_loop_range
    5652                      .dwattr DW$282, DW_AT_low_pc(DW$L$_FineCurveCalInterpolation$43$B)
    5653                      .dwattr DW$282, DW_AT_high_pc(DW$L$_FineCurveCalInterpolation$43$E)
    5654              DW$283  .dwtag  DW_TAG_loop_range
    5655                      .dwattr DW$283, DW_AT_low_pc(DW$L$_FineCurveCalInterpolation$44$B)
    5656                      .dwattr DW$283, DW_AT_high_pc(DW$L$_FineCurveCalInterpolation$44$E)
    5657              DW$284  .dwtag  DW_TAG_loop_range
    5658                      .dwattr DW$284, DW_AT_low_pc(DW$L$_FineCurveCalInterpolation$47$B)
    5659                      .dwattr DW$284, DW_AT_high_pc(DW$L$_FineCurveCalInterpolation$47$E)
    5660              DW$285  .dwtag  DW_TAG_loop_range
    5661                      .dwattr DW$285, DW_AT_low_pc(DW$L$_FineCurveCalInterpolation$48$B)
    5662                      .dwattr DW$285, DW_AT_high_pc(DW$L$_FineCurveCalInterpolation$48$E)
TMS320C2000 COFF Assembler PC v4.1.3 Thu Aug 18 12:16:20 2016

Tools Copyright (c) 1996-2006 Texas Instruments Incorporated
mancal.asm                                                           PAGE  122

    5663              DW$286  .dwtag  DW_TAG_loop_range
    5664                      .dwattr DW$286, DW_AT_low_pc(DW$L$_FineCurveCalInterpolation$49$B)
    5665                      .dwattr DW$286, DW_AT_high_pc(DW$L$_FineCurveCalInterpolation$49$E)
    5666              DW$287  .dwtag  DW_TAG_loop_range
    5667                      .dwattr DW$287, DW_AT_low_pc(DW$L$_FineCurveCalInterpolation$50$B)
    5668                      .dwattr DW$287, DW_AT_high_pc(DW$L$_FineCurveCalInterpolation$50$E)
    5669              DW$288  .dwtag  DW_TAG_loop_range
    5670                      .dwattr DW$288, DW_AT_low_pc(DW$L$_FineCurveCalInterpolation$51$B)
    5671                      .dwattr DW$288, DW_AT_high_pc(DW$L$_FineCurveCalInterpolation$51$E)
    5672              
    5673              DW$289  .dwtag  DW_TAG_loop
    5674                      .dwattr DW$289, DW_AT_name("D:\DEV\Amot\BearingWear\XTSW_V6_20\mancal.asm:L124:3:1471518980")
    5675                      .dwattr DW$289, DW_AT_begin_file("mancal.c")
    5676                      .dwattr DW$289, DW_AT_begin_line(0x5dd)
    5677                      .dwattr DW$289, DW_AT_end_line(0x5dd)
    5678              DW$290  .dwtag  DW_TAG_loop_range
    5679                      .dwattr DW$290, DW_AT_low_pc(DW$L$_FineCurveCalInterpolation$32$B)
    5680                      .dwattr DW$290, DW_AT_high_pc(DW$L$_FineCurveCalInterpolation$32$E)
    5681              DW$291  .dwtag  DW_TAG_loop_range
    5682                      .dwattr DW$291, DW_AT_low_pc(DW$L$_FineCurveCalInterpolation$33$B)
    5683                      .dwattr DW$291, DW_AT_high_pc(DW$L$_FineCurveCalInterpolation$33$E)
    5684                      .dwendtag DW$289
    5685              
    5686              
    5687              DW$292  .dwtag  DW_TAG_loop
    5688                      .dwattr DW$292, DW_AT_name("D:\DEV\Amot\BearingWear\XTSW_V6_20\mancal.asm:L127:3:1471518980")
    5689                      .dwattr DW$292, DW_AT_begin_file("mancal.c")
    5690                      .dwattr DW$292, DW_AT_begin_line(0x5e5)
    5691                      .dwattr DW$292, DW_AT_end_line(0x5e5)
    5692              DW$293  .dwtag  DW_TAG_loop_range
    5693                      .dwattr DW$293, DW_AT_low_pc(DW$L$_FineCurveCalInterpolation$38$B)
    5694                      .dwattr DW$293, DW_AT_high_pc(DW$L$_FineCurveCalInterpolation$38$E)
    5695              DW$294  .dwtag  DW_TAG_loop_range
    5696                      .dwattr DW$294, DW_AT_low_pc(DW$L$_FineCurveCalInterpolation$39$B)
    5697                      .dwattr DW$294, DW_AT_high_pc(DW$L$_FineCurveCalInterpolation$39$E)
    5698                      .dwendtag DW$292
    5699              
    5700                      .dwendtag DW$269
    5701              
    5702                      .dwendtag DW$264
    5703              
    5704              
    5705              DW$295  .dwtag  DW_TAG_loop
    5706                      .dwattr DW$295, DW_AT_name("D:\DEV\Amot\BearingWear\XTSW_V6_20\mancal.asm:L113:1:1471518980")
    5707                      .dwattr DW$295, DW_AT_begin_file("mancal.c")
    5708                      .dwattr DW$295, DW_AT_begin_line(0x5a3)
    5709                      .dwattr DW$295, DW_AT_end_line(0x5c7)
    5710              DW$296  .dwtag  DW_TAG_loop_range
    5711                      .dwattr DW$296, DW_AT_low_pc(DW$L$_FineCurveCalInterpolation$10$B)
    5712                      .dwattr DW$296, DW_AT_high_pc(DW$L$_FineCurveCalInterpolation$10$E)
    5713              DW$297  .dwtag  DW_TAG_loop_range
    5714                      .dwattr DW$297, DW_AT_low_pc(DW$L$_FineCurveCalInterpolation$22$B)
    5715                      .dwattr DW$297, DW_AT_high_pc(DW$L$_FineCurveCalInterpolation$22$E)
    5716              
    5717              DW$298  .dwtag  DW_TAG_loop
TMS320C2000 COFF Assembler PC v4.1.3 Thu Aug 18 12:16:20 2016

Tools Copyright (c) 1996-2006 Texas Instruments Incorporated
mancal.asm                                                           PAGE  123

    5718                      .dwattr DW$298, DW_AT_name("D:\DEV\Amot\BearingWear\XTSW_V6_20\mancal.asm:L114:2:1471518980")
    5719                      .dwattr DW$298, DW_AT_begin_file("mancal.c")
    5720                      .dwattr DW$298, DW_AT_begin_line(0x5a7)
    5721                      .dwattr DW$298, DW_AT_end_line(0x5c6)
    5722              DW$299  .dwtag  DW_TAG_loop_range
    5723                      .dwattr DW$299, DW_AT_low_pc(DW$L$_FineCurveCalInterpolation$11$B)
    5724                      .dwattr DW$299, DW_AT_high_pc(DW$L$_FineCurveCalInterpolation$11$E)
    5725              DW$300  .dwtag  DW_TAG_loop_range
    5726                      .dwattr DW$300, DW_AT_low_pc(DW$L$_FineCurveCalInterpolation$13$B)
    5727                      .dwattr DW$300, DW_AT_high_pc(DW$L$_FineCurveCalInterpolation$13$E)
    5728              DW$301  .dwtag  DW_TAG_loop_range
    5729                      .dwattr DW$301, DW_AT_low_pc(DW$L$_FineCurveCalInterpolation$14$B)
    5730                      .dwattr DW$301, DW_AT_high_pc(DW$L$_FineCurveCalInterpolation$14$E)
    5731              DW$302  .dwtag  DW_TAG_loop_range
    5732                      .dwattr DW$302, DW_AT_low_pc(DW$L$_FineCurveCalInterpolation$15$B)
    5733                      .dwattr DW$302, DW_AT_high_pc(DW$L$_FineCurveCalInterpolation$15$E)
    5734              DW$303  .dwtag  DW_TAG_loop_range
    5735                      .dwattr DW$303, DW_AT_low_pc(DW$L$_FineCurveCalInterpolation$16$B)
    5736                      .dwattr DW$303, DW_AT_high_pc(DW$L$_FineCurveCalInterpolation$16$E)
    5737              DW$304  .dwtag  DW_TAG_loop_range
    5738                      .dwattr DW$304, DW_AT_low_pc(DW$L$_FineCurveCalInterpolation$17$B)
    5739                      .dwattr DW$304, DW_AT_high_pc(DW$L$_FineCurveCalInterpolation$17$E)
    5740              DW$305  .dwtag  DW_TAG_loop_range
    5741                      .dwattr DW$305, DW_AT_low_pc(DW$L$_FineCurveCalInterpolation$12$B)
    5742                      .dwattr DW$305, DW_AT_high_pc(DW$L$_FineCurveCalInterpolation$12$E)
    5743              DW$306  .dwtag  DW_TAG_loop_range
    5744                      .dwattr DW$306, DW_AT_low_pc(DW$L$_FineCurveCalInterpolation$18$B)
    5745                      .dwattr DW$306, DW_AT_high_pc(DW$L$_FineCurveCalInterpolation$18$E)
    5746              DW$307  .dwtag  DW_TAG_loop_range
    5747                      .dwattr DW$307, DW_AT_low_pc(DW$L$_FineCurveCalInterpolation$19$B)
    5748                      .dwattr DW$307, DW_AT_high_pc(DW$L$_FineCurveCalInterpolation$19$E)
    5749              DW$308  .dwtag  DW_TAG_loop_range
    5750                      .dwattr DW$308, DW_AT_low_pc(DW$L$_FineCurveCalInterpolation$20$B)
    5751                      .dwattr DW$308, DW_AT_high_pc(DW$L$_FineCurveCalInterpolation$20$E)
    5752              DW$309  .dwtag  DW_TAG_loop_range
    5753                      .dwattr DW$309, DW_AT_low_pc(DW$L$_FineCurveCalInterpolation$21$B)
    5754                      .dwattr DW$309, DW_AT_high_pc(DW$L$_FineCurveCalInterpolation$21$E)
    5755                      .dwendtag DW$298
    5756              
    5757                      .dwendtag DW$295
    5758              
    5759              
    5760              DW$310  .dwtag  DW_TAG_loop
    5761                      .dwattr DW$310, DW_AT_name("D:\DEV\Amot\BearingWear\XTSW_V6_20\mancal.asm:L108:1:1471518980")
    5762                      .dwattr DW$310, DW_AT_begin_file("mancal.c")
    5763                      .dwattr DW$310, DW_AT_begin_line(0x597)
    5764                      .dwattr DW$310, DW_AT_end_line(0x59d)
    5765              DW$311  .dwtag  DW_TAG_loop_range
    5766                      .dwattr DW$311, DW_AT_low_pc(DW$L$_FineCurveCalInterpolation$2$B)
    5767                      .dwattr DW$311, DW_AT_high_pc(DW$L$_FineCurveCalInterpolation$2$E)
    5768              DW$312  .dwtag  DW_TAG_loop_range
    5769                      .dwattr DW$312, DW_AT_low_pc(DW$L$_FineCurveCalInterpolation$3$B)
    5770                      .dwattr DW$312, DW_AT_high_pc(DW$L$_FineCurveCalInterpolation$3$E)
    5771              DW$313  .dwtag  DW_TAG_loop_range
    5772                      .dwattr DW$313, DW_AT_low_pc(DW$L$_FineCurveCalInterpolation$4$B)
TMS320C2000 COFF Assembler PC v4.1.3 Thu Aug 18 12:16:20 2016

Tools Copyright (c) 1996-2006 Texas Instruments Incorporated
mancal.asm                                                           PAGE  124

    5773                      .dwattr DW$313, DW_AT_high_pc(DW$L$_FineCurveCalInterpolation$4$E)
    5774                      .dwendtag DW$310
    5775              
    5776                      .dwattr DW$262, DW_AT_end_file("mancal.c")
    5777                      .dwattr DW$262, DW_AT_end_line(0x618)
    5778                      .dwattr DW$262, DW_AT_end_column(0x01)
    5779                      .dwendtag DW$262
    5780              
    5781              ;***************************************************************
    5782              ;* FAR STRINGS                                                 *
    5783              ;***************************************************************
    5784 00000002               .sect   ".econst"
    5785                      .align  2
    5786 00000002 000D  FSL1:   .string 13,10,"Avv: %f - reg: %d - man1000point:%d - low:%f - high:%"
         00000003 000A 
         00000004 0041 
         00000005 0076 
         00000006 0076 
         00000007 003A 
         00000008 0020 
         00000009 0025 
         0000000a 0066 
         0000000b 0020 
         0000000c 002D 
         0000000d 0020 
         0000000e 0072 
         0000000f 0065 
         00000010 0067 
         00000011 003A 
         00000012 0020 
         00000013 0025 
         00000014 0064 
         00000015 0020 
         00000016 002D 
         00000017 0020 
         00000018 006D 
         00000019 0061 
         0000001a 006E 
         0000001b 0031 
         0000001c 0030 
         0000001d 0030 
         0000001e 0030 
         0000001f 0070 
         00000020 006F 
         00000021 0069 
         00000022 006E 
         00000023 0074 
         00000024 003A 
         00000025 0025 
         00000026 0064 
         00000027 0020 
         00000028 002D 
         00000029 0020 
         0000002a 006C 
         0000002b 006F 
TMS320C2000 COFF Assembler PC v4.1.3 Thu Aug 18 12:16:20 2016

Tools Copyright (c) 1996-2006 Texas Instruments Incorporated
mancal.asm                                                           PAGE  125

         0000002c 0077 
         0000002d 003A 
         0000002e 0025 
         0000002f 0066 
         00000030 0020 
         00000031 002D 
         00000032 0020 
         00000033 0068 
         00000034 0069 
         00000035 0067 
         00000036 0068 
         00000037 003A 
         00000038 0025 
    5787 00000039 0066          .string "f ",13,10,0
         0000003a 0020 
         0000003b 000D 
         0000003c 000A 
         0000003d 0000 
    5788                      .align  2
    5789 0000003e 006B  FSL2:   .string "k=0 l%d,u%d,num%d",13,10,0
         0000003f 003D 
         00000040 0030 
         00000041 0020 
         00000042 006C 
         00000043 0025 
         00000044 0064 
         00000045 002C 
         00000046 0075 
         00000047 0025 
         00000048 0064 
         00000049 002C 
         0000004a 006E 
         0000004b 0075 
         0000004c 006D 
         0000004d 0025 
         0000004e 0064 
         0000004f 000D 
         00000050 000A 
         00000051 0000 
    5790              ;***************************************************************
    5791              ;* UNDEFINED EXTERNAL REFERENCES                               *
    5792              ;***************************************************************
    5793                      .global _sprintf
    5794                      .global _memset
    5795                      .global _DebugStringOut
    5796                      .global _WriteNVMemory
    5797                      .global _ReadNVMemory
    5798                      .global _SetupNormalModeAlarmLevels
    5799                      .global _PreWarningInit
    5800                      .global _SetCalMode
    5801                      .global _GetModalRPM
    5802                      .global _GetPreCompValue
    5803                      .global _Status1Flags
    5804                      .global _GetStatus2Flags
    5805                      .global _ClearSelectiveMANTable
TMS320C2000 COFF Assembler PC v4.1.3 Thu Aug 18 12:16:20 2016

Tools Copyright (c) 1996-2006 Texas Instruments Incorporated
mancal.asm                                                           PAGE  126

    5806                      .global _WriteSensorStatustoNVMEM
    5807                      .global _WriteMANCompTabletoNVMEM
    5808                      .global _ClearManCompSequence
    5809                      .global _MANCompTabletoSDCardFile
    5810                      .global _SensorStatustoSDCardFile
    5811                      .global _ClearEventCodeListArea
    5812                      .global _SetAlarmEvent
    5813                      .global _ClearAlarmEvent
    5814                      .global _SetBitEvent
    5815                      .global _ReadMANCompTablefromSDCardFile
    5816                      .global _PrewarnReset
    5817                      .global _CalibrationtdUpdate
    5818                      .global _FloattoIntRound
    5819                      .global _settings
    5820                      .global _motion
    5821                      .global _timers
    5822                      .global _allsensors
    5823                      .global _stringbuffer
    5824                      .global _sensor
    5825                      .global _iSensorInResetMode
    5826                      .global _iSensorInRepalceTimer
    5827                      .global _iBarred
    5828                      .global _iDeltaRPM15
    5829                      .global _function
    5830                      .global _man_comptable
    5831                      .global _manref
    5832                      .global _manrefsum
    5833                      .global _dynalarmlevels
    5834                      .global _sdcarddir
    5835                      .global _sdsettings
    5836                      .global _damagemonignore
    5837                      .global _sensorMoving
    5838                      .global UL$$TOFS
    5839                      .global FS$$DIV
    5840                      .global U$$TOFS
    5841                      .global FS$$MPY
    5842                      .global FS$$TOU
    5843                      .global L$$TOFS
    5844                      .global FS$$TOUL
    5845                      .global FS$$SUB
    5846                      .global I$$TOFS
    5847                      .global FS$$ADD
    5848                      .global FS$$TOI
    5849                      .global FS$$CMP
    5850              
    5851              ;***************************************************************
    5852              ;* TYPE INFORMATION                                            *
    5853              ;***************************************************************
    5854              DW$T$3  .dwtag  DW_TAG_pointer_type
    5855                      .dwattr DW$T$3, DW_AT_address_class(0x16)
    5856              
    5857              DW$T$57 .dwtag  DW_TAG_subroutine_type, DW_AT_type(*DW$T$3)
    5858                      .dwattr DW$T$57, DW_AT_language(DW_LANG_C)
    5859              DW$314  .dwtag  DW_TAG_formal_parameter, DW_AT_type(*DW$T$3)
    5860              DW$315  .dwtag  DW_TAG_formal_parameter, DW_AT_type(*DW$T$10)
TMS320C2000 COFF Assembler PC v4.1.3 Thu Aug 18 12:16:20 2016

Tools Copyright (c) 1996-2006 Texas Instruments Incorporated
mancal.asm                                                           PAGE  127

    5861              DW$316  .dwtag  DW_TAG_formal_parameter, DW_AT_type(*DW$T$56)
    5862                      .dwendtag DW$T$57
    5863              
    5864              
    5865              DW$T$60 .dwtag  DW_TAG_subroutine_type
    5866                      .dwattr DW$T$60, DW_AT_language(DW_LANG_C)
    5867              DW$317  .dwtag  DW_TAG_formal_parameter, DW_AT_type(*DW$T$59)
    5868                      .dwendtag DW$T$60
    5869              
    5870              
    5871              DW$T$63 .dwtag  DW_TAG_subroutine_type
    5872                      .dwattr DW$T$63, DW_AT_language(DW_LANG_C)
    5873              DW$318  .dwtag  DW_TAG_formal_parameter, DW_AT_type(*DW$T$11)
    5874              DW$319  .dwtag  DW_TAG_formal_parameter, DW_AT_type(*DW$T$11)
    5875              DW$320  .dwtag  DW_TAG_formal_parameter, DW_AT_type(*DW$T$62)
    5876              DW$321  .dwtag  DW_TAG_formal_parameter, DW_AT_type(*DW$T$11)
    5877                      .dwendtag DW$T$63
    5878              
    5879              
    5880              DW$T$65 .dwtag  DW_TAG_subroutine_type
    5881                      .dwattr DW$T$65, DW_AT_language(DW_LANG_C)
    5882              
    5883              DW$T$67 .dwtag  DW_TAG_subroutine_type
    5884                      .dwattr DW$T$67, DW_AT_language(DW_LANG_C)
    5885              DW$322  .dwtag  DW_TAG_formal_parameter, DW_AT_type(*DW$T$11)
    5886              DW$323  .dwtag  DW_TAG_formal_parameter, DW_AT_type(*DW$T$10)
    5887                      .dwendtag DW$T$67
    5888              
    5889              
    5890              DW$T$69 .dwtag  DW_TAG_subroutine_type
    5891                      .dwattr DW$T$69, DW_AT_language(DW_LANG_C)
    5892              DW$324  .dwtag  DW_TAG_formal_parameter, DW_AT_type(*DW$T$11)
    5893                      .dwendtag DW$T$69
    5894              
    5895              
    5896              DW$T$71 .dwtag  DW_TAG_subroutine_type
    5897                      .dwattr DW$T$71, DW_AT_language(DW_LANG_C)
    5898              DW$325  .dwtag  DW_TAG_formal_parameter, DW_AT_type(*DW$T$11)
    5899              DW$326  .dwtag  DW_TAG_formal_parameter, DW_AT_type(*DW$T$11)
    5900              DW$327  .dwtag  DW_TAG_formal_parameter, DW_AT_type(*DW$T$10)
    5901                      .dwendtag DW$T$71
    5902              
    5903              
    5904              DW$T$73 .dwtag  DW_TAG_subroutine_type
    5905                      .dwattr DW$T$73, DW_AT_language(DW_LANG_C)
    5906              DW$328  .dwtag  DW_TAG_formal_parameter, DW_AT_type(*DW$T$10)
    5907              DW$329  .dwtag  DW_TAG_formal_parameter, DW_AT_type(*DW$T$11)
    5908                      .dwendtag DW$T$73
    5909              
    5910              
    5911              DW$T$75 .dwtag  DW_TAG_subroutine_type
    5912                      .dwattr DW$T$75, DW_AT_language(DW_LANG_C)
    5913              DW$330  .dwtag  DW_TAG_formal_parameter, DW_AT_type(*DW$T$10)
    5914              DW$331  .dwtag  DW_TAG_formal_parameter, DW_AT_type(*DW$T$10)
    5915              DW$332  .dwtag  DW_TAG_formal_parameter, DW_AT_type(*DW$T$10)
TMS320C2000 COFF Assembler PC v4.1.3 Thu Aug 18 12:16:20 2016

Tools Copyright (c) 1996-2006 Texas Instruments Incorporated
mancal.asm                                                           PAGE  128

    5916              DW$333  .dwtag  DW_TAG_formal_parameter, DW_AT_type(*DW$T$16)
    5917              DW$334  .dwtag  DW_TAG_formal_parameter, DW_AT_type(*DW$T$16)
    5918                      .dwendtag DW$T$75
    5919              
    5920              
    5921              DW$T$77 .dwtag  DW_TAG_subroutine_type
    5922                      .dwattr DW$T$77, DW_AT_language(DW_LANG_C)
    5923              DW$335  .dwtag  DW_TAG_formal_parameter, DW_AT_type(*DW$T$11)
    5924              DW$336  .dwtag  DW_TAG_formal_parameter, DW_AT_type(*DW$T$10)
    5925              DW$337  .dwtag  DW_TAG_formal_parameter, DW_AT_type(*DW$T$11)
    5926              DW$338  .dwtag  DW_TAG_formal_parameter, DW_AT_type(*DW$T$10)
    5927                      .dwendtag DW$T$77
    5928              
    5929              DW$T$10 .dwtag  DW_TAG_base_type, DW_AT_name("int")
    5930                      .dwattr DW$T$10, DW_AT_encoding(DW_ATE_signed)
    5931                      .dwattr DW$T$10, DW_AT_byte_size(0x01)
    5932              
    5933              DW$T$51 .dwtag  DW_TAG_array_type, DW_AT_type(*DW$T$10)
    5934                      .dwattr DW$T$51, DW_AT_language(DW_LANG_C)
    5935                      .dwattr DW$T$51, DW_AT_byte_size(0x1c)
    5936              DW$339  .dwtag  DW_TAG_subrange_type
    5937                      .dwattr DW$339, DW_AT_upper_bound(0x1b)
    5938                      .dwendtag DW$T$51
    5939              
    5940              
    5941              DW$T$80 .dwtag  DW_TAG_array_type, DW_AT_type(*DW$T$10)
    5942                      .dwattr DW$T$80, DW_AT_language(DW_LANG_C)
    5943                      .dwattr DW$T$80, DW_AT_byte_size(0x1068)
    5944              DW$340  .dwtag  DW_TAG_subrange_type
    5945                      .dwattr DW$340, DW_AT_upper_bound(0x95)
    5946              DW$341  .dwtag  DW_TAG_subrange_type
    5947                      .dwattr DW$341, DW_AT_upper_bound(0x1b)
    5948                      .dwendtag DW$T$80
    5949              
    5950              
    5951              DW$T$84 .dwtag  DW_TAG_subroutine_type, DW_AT_type(*DW$T$10)
    5952                      .dwattr DW$T$84, DW_AT_language(DW_LANG_C)
    5953              DW$342  .dwtag  DW_TAG_formal_parameter, DW_AT_type(*DW$T$59)
    5954              DW$343  .dwtag  DW_TAG_formal_parameter, DW_AT_type(*DW$T$83)
    5955              DW$344  .dwtag  DW_TAG_unspecified_parameters
    5956                      .dwendtag DW$T$84
    5957              
    5958              
    5959              DW$T$86 .dwtag  DW_TAG_subroutine_type, DW_AT_type(*DW$T$10)
    5960                      .dwattr DW$T$86, DW_AT_language(DW_LANG_C)
    5961              DW$345  .dwtag  DW_TAG_formal_parameter, DW_AT_type(*DW$T$11)
    5962                      .dwendtag DW$T$86
    5963              
    5964              
    5965              DW$T$88 .dwtag  DW_TAG_subroutine_type, DW_AT_type(*DW$T$10)
    5966                      .dwattr DW$T$88, DW_AT_language(DW_LANG_C)
    5967              DW$346  .dwtag  DW_TAG_formal_parameter, DW_AT_type(*DW$T$83)
    5968              DW$347  .dwtag  DW_TAG_formal_parameter, DW_AT_type(*DW$T$11)
    5969                      .dwendtag DW$T$88
    5970              
TMS320C2000 COFF Assembler PC v4.1.3 Thu Aug 18 12:16:20 2016

Tools Copyright (c) 1996-2006 Texas Instruments Incorporated
mancal.asm                                                           PAGE  129

    5971              
    5972              DW$T$90 .dwtag  DW_TAG_subroutine_type, DW_AT_type(*DW$T$10)
    5973                      .dwattr DW$T$90, DW_AT_language(DW_LANG_C)
    5974              
    5975              DW$T$92 .dwtag  DW_TAG_subroutine_type, DW_AT_type(*DW$T$10)
    5976                      .dwattr DW$T$92, DW_AT_language(DW_LANG_C)
    5977              
    5978              DW$T$94 .dwtag  DW_TAG_subroutine_type, DW_AT_type(*DW$T$10)
    5979                      .dwattr DW$T$94, DW_AT_language(DW_LANG_C)
    5980              DW$348  .dwtag  DW_TAG_formal_parameter, DW_AT_type(*DW$T$11)
    5981              DW$349  .dwtag  DW_TAG_formal_parameter, DW_AT_type(*DW$T$11)
    5982                      .dwendtag DW$T$94
    5983              
    5984              DW$T$11 .dwtag  DW_TAG_base_type, DW_AT_name("unsigned int")
    5985                      .dwattr DW$T$11, DW_AT_encoding(DW_ATE_unsigned)
    5986                      .dwattr DW$T$11, DW_AT_byte_size(0x01)
    5987              DW$T$62 .dwtag  DW_TAG_pointer_type, DW_AT_type(*DW$T$11)
    5988                      .dwattr DW$T$62, DW_AT_address_class(0x16)
    5989              
    5990              DW$T$109        .dwtag  DW_TAG_subroutine_type, DW_AT_type(*DW$T$11)
    5991                      .dwattr DW$T$109, DW_AT_language(DW_LANG_C)
    5992              DW$350  .dwtag  DW_TAG_formal_parameter, DW_AT_type(*DW$T$10)
    5993                      .dwendtag DW$T$109
    5994              
    5995              
    5996              DW$T$111        .dwtag  DW_TAG_subroutine_type, DW_AT_type(*DW$T$11)
    5997                      .dwattr DW$T$111, DW_AT_language(DW_LANG_C)
    5998              DW$351  .dwtag  DW_TAG_far_type
    5999                      .dwattr DW$351, DW_AT_type(*DW$T$11)
    6000              DW$T$113        .dwtag  DW_TAG_volatile_type
    6001                      .dwattr DW$T$113, DW_AT_type(*DW$351)
    6002              
    6003              DW$T$117        .dwtag  DW_TAG_subroutine_type, DW_AT_type(*DW$T$116)
    6004                      .dwattr DW$T$117, DW_AT_language(DW_LANG_C)
    6005              DW$352  .dwtag  DW_TAG_formal_parameter, DW_AT_type(*DW$T$11)
    6006              DW$353  .dwtag  DW_TAG_formal_parameter, DW_AT_type(*DW$T$11)
    6007                      .dwendtag DW$T$117
    6008              
    6009              DW$T$13 .dwtag  DW_TAG_base_type, DW_AT_name("unsigned long")
    6010                      .dwattr DW$T$13, DW_AT_encoding(DW_ATE_unsigned)
    6011                      .dwattr DW$T$13, DW_AT_byte_size(0x02)
    6012              DW$T$56 .dwtag  DW_TAG_typedef, DW_AT_name("size_t"), DW_AT_type(*DW$T$13)
    6013                      .dwattr DW$T$56, DW_AT_language(DW_LANG_C)
    6014              
    6015              DW$T$119        .dwtag  DW_TAG_subroutine_type, DW_AT_type(*DW$T$118)
    6016                      .dwattr DW$T$119, DW_AT_language(DW_LANG_C)
    6017              DW$354  .dwtag  DW_TAG_formal_parameter, DW_AT_type(*DW$T$11)
    6018                      .dwendtag DW$T$119
    6019              
    6020              DW$355  .dwtag  DW_TAG_far_type
    6021                      .dwattr DW$355, DW_AT_type(*DW$T$13)
    6022              DW$T$120        .dwtag  DW_TAG_const_type
    6023                      .dwattr DW$T$120, DW_AT_type(*DW$355)
    6024              DW$T$16 .dwtag  DW_TAG_base_type, DW_AT_name("float")
    6025                      .dwattr DW$T$16, DW_AT_encoding(DW_ATE_float)
TMS320C2000 COFF Assembler PC v4.1.3 Thu Aug 18 12:16:20 2016

Tools Copyright (c) 1996-2006 Texas Instruments Incorporated
mancal.asm                                                           PAGE  130

    6026                      .dwattr DW$T$16, DW_AT_byte_size(0x02)
    6027              
    6028              DW$T$122        .dwtag  DW_TAG_array_type, DW_AT_type(*DW$T$16)
    6029                      .dwattr DW$T$122, DW_AT_language(DW_LANG_C)
    6030                      .dwattr DW$T$122, DW_AT_byte_size(0x38)
    6031              DW$356  .dwtag  DW_TAG_subrange_type
    6032                      .dwattr DW$356, DW_AT_upper_bound(0x1b)
    6033                      .dwendtag DW$T$122
    6034              
    6035              DW$T$127        .dwtag  DW_TAG_pointer_type, DW_AT_type(*DW$T$30)
    6036                      .dwattr DW$T$127, DW_AT_address_class(0x16)
    6037              
    6038              DW$T$128        .dwtag  DW_TAG_subroutine_type, DW_AT_type(*DW$T$127)
    6039                      .dwattr DW$T$128, DW_AT_language(DW_LANG_C)
    6040              DW$357  .dwtag  DW_TAG_formal_parameter, DW_AT_type(*DW$T$11)
    6041                      .dwendtag DW$T$128
    6042              
    6043              DW$T$132        .dwtag  DW_TAG_pointer_type, DW_AT_type(*DW$T$31)
    6044                      .dwattr DW$T$132, DW_AT_address_class(0x16)
    6045              
    6046              DW$T$133        .dwtag  DW_TAG_subroutine_type, DW_AT_type(*DW$T$132)
    6047                      .dwattr DW$T$133, DW_AT_language(DW_LANG_C)
    6048              DW$358  .dwtag  DW_TAG_formal_parameter, DW_AT_type(*DW$T$11)
    6049                      .dwendtag DW$T$133
    6050              
    6051              DW$T$137        .dwtag  DW_TAG_typedef, DW_AT_name("settingsstruct"), DW_AT_type(*DW$T$22)
    6052                      .dwattr DW$T$137, DW_AT_language(DW_LANG_C)
    6053              DW$T$138        .dwtag  DW_TAG_typedef, DW_AT_name("motionstruct"), DW_AT_type(*DW$T$24)
    6054                      .dwattr DW$T$138, DW_AT_language(DW_LANG_C)
    6055              DW$359  .dwtag  DW_TAG_far_type
    6056                      .dwattr DW$359, DW_AT_type(*DW$T$139)
    6057              DW$T$140        .dwtag  DW_TAG_volatile_type
    6058                      .dwattr DW$T$140, DW_AT_type(*DW$359)
    6059              DW$T$142        .dwtag  DW_TAG_typedef, DW_AT_name("allsensorstruct"), DW_AT_type(*DW$T$29)
    6060                      .dwattr DW$T$142, DW_AT_language(DW_LANG_C)
    6061              
    6062              DW$T$145        .dwtag  DW_TAG_array_type, DW_AT_type(*DW$T$144)
    6063                      .dwattr DW$T$145, DW_AT_language(DW_LANG_C)
    6064                      .dwattr DW$T$145, DW_AT_byte_size(0x1f8)
    6065              DW$360  .dwtag  DW_TAG_subrange_type
    6066                      .dwattr DW$360, DW_AT_upper_bound(0x1b)
    6067                      .dwendtag DW$T$145
    6068              
    6069              DW$T$148        .dwtag  DW_TAG_typedef, DW_AT_name("functionstruct"), DW_AT_type(*DW$T$34)
    6070                      .dwattr DW$T$148, DW_AT_language(DW_LANG_C)
    6071              
    6072              DW$T$150        .dwtag  DW_TAG_array_type, DW_AT_type(*DW$T$149)
    6073                      .dwattr DW$T$150, DW_AT_language(DW_LANG_C)
    6074                      .dwattr DW$T$150, DW_AT_byte_size(0x118)
    6075              DW$361  .dwtag  DW_TAG_subrange_type
    6076                      .dwattr DW$361, DW_AT_upper_bound(0x1b)
    6077                      .dwendtag DW$T$150
    6078              
    6079              
    6080              DW$T$154        .dwtag  DW_TAG_array_type, DW_AT_type(*DW$T$153)
TMS320C2000 COFF Assembler PC v4.1.3 Thu Aug 18 12:16:20 2016

Tools Copyright (c) 1996-2006 Texas Instruments Incorporated
mancal.asm                                                           PAGE  131

    6081                      .dwattr DW$T$154, DW_AT_language(DW_LANG_C)
    6082                      .dwattr DW$T$154, DW_AT_byte_size(0x1c)
    6083              DW$362  .dwtag  DW_TAG_subrange_type
    6084                      .dwattr DW$362, DW_AT_upper_bound(0x0d)
    6085                      .dwendtag DW$T$154
    6086              
    6087              DW$T$157        .dwtag  DW_TAG_typedef, DW_AT_name("dynamicalarmsstruct"), DW_AT_type(*DW$T$37)
    6088                      .dwattr DW$T$157, DW_AT_language(DW_LANG_C)
    6089              DW$T$59 .dwtag  DW_TAG_pointer_type, DW_AT_type(*DW$T$38)
    6090                      .dwattr DW$T$59, DW_AT_address_class(0x16)
    6091              DW$T$83 .dwtag  DW_TAG_pointer_type, DW_AT_type(*DW$T$82)
    6092                      .dwattr DW$T$83, DW_AT_address_class(0x16)
    6093              
    6094              DW$T$158        .dwtag  DW_TAG_array_type, DW_AT_type(*DW$T$38)
    6095                      .dwattr DW$T$158, DW_AT_language(DW_LANG_C)
    6096                      .dwattr DW$T$158, DW_AT_byte_size(0x64)
    6097              DW$363  .dwtag  DW_TAG_subrange_type
    6098                      .dwattr DW$363, DW_AT_upper_bound(0x63)
    6099                      .dwendtag DW$T$158
    6100              
    6101              DW$364  .dwtag  DW_TAG_far_type
    6102                      .dwattr DW$364, DW_AT_type(*DW$T$160)
    6103              DW$T$161        .dwtag  DW_TAG_const_type
    6104                      .dwattr DW$T$161, DW_AT_type(*DW$364)
    6105              DW$T$164        .dwtag  DW_TAG_typedef, DW_AT_name("sdsettingsstruct"), DW_AT_type(*DW$T$42)
    6106                      .dwattr DW$T$164, DW_AT_language(DW_LANG_C)
    6107              DW$T$165        .dwtag  DW_TAG_typedef, DW_AT_name("sensorMovingstruct"), DW_AT_type(*DW$T$43)
    6108                      .dwattr DW$T$165, DW_AT_language(DW_LANG_C)
    6109              DW$T$166        .dwtag  DW_TAG_typedef, DW_AT_name("calibrationstruct"), DW_AT_type(*DW$T$53)
    6110                      .dwattr DW$T$166, DW_AT_language(DW_LANG_C)
    6111              DW$T$168        .dwtag  DW_TAG_typedef, DW_AT_name("speedcompstruct"), DW_AT_type(*DW$T$54)
    6112                      .dwattr DW$T$168, DW_AT_language(DW_LANG_C)
    6113              DW$T$170        .dwtag  DW_TAG_typedef, DW_AT_name("mancalstruct"), DW_AT_type(*DW$T$55)
    6114                      .dwattr DW$T$170, DW_AT_language(DW_LANG_C)
    6115              DW$T$116        .dwtag  DW_TAG_pointer_type, DW_AT_type(*DW$T$12)
    6116                      .dwattr DW$T$116, DW_AT_address_class(0x16)
    6117              DW$T$118        .dwtag  DW_TAG_pointer_type, DW_AT_type(*DW$T$13)
    6118                      .dwattr DW$T$118, DW_AT_address_class(0x16)
    6119              DW$T$30 .dwtag  DW_TAG_typedef, DW_AT_name("status1struct"), DW_AT_type(*DW$T$19)
    6120                      .dwattr DW$T$30, DW_AT_language(DW_LANG_C)
    6121              DW$T$31 .dwtag  DW_TAG_typedef, DW_AT_name("sensoralarmstruct"), DW_AT_type(*DW$T$20)
    6122                      .dwattr DW$T$31, DW_AT_language(DW_LANG_C)
    6123              
    6124              DW$T$22 .dwtag  DW_TAG_structure_type
    6125                      .dwattr DW$T$22, DW_AT_name("tag_settingsstruct")
    6126                      .dwattr DW$T$22, DW_AT_byte_size(0x24)
    6127              DW$365  .dwtag  DW_TAG_member, DW_AT_type(*DW$T$11)
    6128                      .dwattr DW$365, DW_AT_name("watchdog"), DW_AT_symbol_name("_watchdog")
    6129                      .dwattr DW$365, DW_AT_data_member_location[DW_OP_plus_uconst 0x0]
    6130                      .dwattr DW$365, DW_AT_accessibility(DW_ACCESS_public)
    6131              DW$366  .dwtag  DW_TAG_member, DW_AT_type(*DW$T$11)
    6132                      .dwattr DW$366, DW_AT_name("ledflashflag"), DW_AT_symbol_name("_ledflashflag")
    6133                      .dwattr DW$366, DW_AT_data_member_location[DW_OP_plus_uconst 0x1]
    6134                      .dwattr DW$366, DW_AT_accessibility(DW_ACCESS_public)
    6135              DW$367  .dwtag  DW_TAG_member, DW_AT_type(*DW$T$11)
TMS320C2000 COFF Assembler PC v4.1.3 Thu Aug 18 12:16:20 2016

Tools Copyright (c) 1996-2006 Texas Instruments Incorporated
mancal.asm                                                           PAGE  132

    6136                      .dwattr DW$367, DW_AT_name("updatesafe"), DW_AT_symbol_name("_updatesafe")
    6137                      .dwattr DW$367, DW_AT_data_member_location[DW_OP_plus_uconst 0x2]
    6138                      .dwattr DW$367, DW_AT_accessibility(DW_ACCESS_public)
    6139              DW$368  .dwtag  DW_TAG_member, DW_AT_type(*DW$T$11)
    6140                      .dwattr DW$368, DW_AT_name("tableconfigtype"), DW_AT_symbol_name("_tableconfigtype")
    6141                      .dwattr DW$368, DW_AT_data_member_location[DW_OP_plus_uconst 0x3]
    6142                      .dwattr DW$368, DW_AT_accessibility(DW_ACCESS_public)
    6143              DW$369  .dwtag  DW_TAG_member, DW_AT_type(*DW$T$11)
    6144                      .dwattr DW$369, DW_AT_name("caltableconfigtype"), DW_AT_symbol_name("_caltableconfigtype")
    6145                      .dwattr DW$369, DW_AT_data_member_location[DW_OP_plus_uconst 0x4]
    6146                      .dwattr DW$369, DW_AT_accessibility(DW_ACCESS_public)
    6147              DW$370  .dwtag  DW_TAG_member, DW_AT_type(*DW$T$11)
    6148                      .dwattr DW$370, DW_AT_name("eventmsgid"), DW_AT_symbol_name("_eventmsgid")
    6149                      .dwattr DW$370, DW_AT_data_member_location[DW_OP_plus_uconst 0x5]
    6150                      .dwattr DW$370, DW_AT_accessibility(DW_ACCESS_public)
    6151              DW$371  .dwtag  DW_TAG_member, DW_AT_type(*DW$T$11)
    6152                      .dwattr DW$371, DW_AT_name("configoperationcomplete"), DW_AT_symbol_name("_configoperationcomplete")
    6153                      .dwattr DW$371, DW_AT_data_member_location[DW_OP_plus_uconst 0x6]
    6154                      .dwattr DW$371, DW_AT_accessibility(DW_ACCESS_public)
    6155              DW$372  .dwtag  DW_TAG_member, DW_AT_type(*DW$T$11)
    6156                      .dwattr DW$372, DW_AT_name("sdcarderr"), DW_AT_symbol_name("_sdcarderr")
    6157                      .dwattr DW$372, DW_AT_data_member_location[DW_OP_plus_uconst 0x7]
    6158                      .dwattr DW$372, DW_AT_accessibility(DW_ACCESS_public)
    6159              DW$373  .dwtag  DW_TAG_member, DW_AT_type(*DW$T$11)
    6160                      .dwattr DW$373, DW_AT_name("sderase"), DW_AT_symbol_name("_sderase")
    6161                      .dwattr DW$373, DW_AT_data_member_location[DW_OP_plus_uconst 0x8]
    6162                      .dwattr DW$373, DW_AT_accessibility(DW_ACCESS_public)
    6163              DW$374  .dwtag  DW_TAG_member, DW_AT_type(*DW$T$11)
    6164                      .dwattr DW$374, DW_AT_name("sdreinit"), DW_AT_symbol_name("_sdreinit")
    6165                      .dwattr DW$374, DW_AT_data_member_location[DW_OP_plus_uconst 0x9]
    6166                      .dwattr DW$374, DW_AT_accessibility(DW_ACCESS_public)
    6167              DW$375  .dwtag  DW_TAG_member, DW_AT_type(*DW$T$11)
    6168                      .dwattr DW$375, DW_AT_name("sdcardupdate"), DW_AT_symbol_name("_sdcardupdate")
    6169                      .dwattr DW$375, DW_AT_data_member_location[DW_OP_plus_uconst 0xa]
    6170                      .dwattr DW$375, DW_AT_accessibility(DW_ACCESS_public)
    6171              DW$376  .dwtag  DW_TAG_member, DW_AT_type(*DW$T$11)
    6172                      .dwattr DW$376, DW_AT_name("cardreadflag"), DW_AT_symbol_name("_cardreadflag")
    6173                      .dwattr DW$376, DW_AT_data_member_location[DW_OP_plus_uconst 0xb]
    6174                      .dwattr DW$376, DW_AT_accessibility(DW_ACCESS_public)
    6175              DW$377  .dwtag  DW_TAG_member, DW_AT_type(*DW$T$11)
    6176                      .dwattr DW$377, DW_AT_name("ignore"), DW_AT_symbol_name("_ignore")
    6177                      .dwattr DW$377, DW_AT_data_member_location[DW_OP_plus_uconst 0xc]
    6178                      .dwattr DW$377, DW_AT_accessibility(DW_ACCESS_public)
    6179              DW$378  .dwtag  DW_TAG_member, DW_AT_type(*DW$T$11)
    6180                      .dwattr DW$378, DW_AT_name("dcmode"), DW_AT_symbol_name("_dcmode")
    6181                      .dwattr DW$378, DW_AT_data_member_location[DW_OP_plus_uconst 0xd]
    6182                      .dwattr DW$378, DW_AT_accessibility(DW_ACCESS_public)
    6183              DW$379  .dwtag  DW_TAG_member, DW_AT_type(*DW$T$11)
    6184                      .dwattr DW$379, DW_AT_name("spiinuse"), DW_AT_symbol_name("_spiinuse")
    6185                      .dwattr DW$379, DW_AT_data_member_location[DW_OP_plus_uconst 0xe]
    6186                      .dwattr DW$379, DW_AT_accessibility(DW_ACCESS_public)
    6187              DW$380  .dwtag  DW_TAG_member, DW_AT_type(*DW$T$11)
    6188                      .dwattr DW$380, DW_AT_name("dcpeakhold"), DW_AT_symbol_name("_dcpeakhold")
    6189                      .dwattr DW$380, DW_AT_data_member_location[DW_OP_plus_uconst 0xf]
    6190                      .dwattr DW$380, DW_AT_accessibility(DW_ACCESS_public)
TMS320C2000 COFF Assembler PC v4.1.3 Thu Aug 18 12:16:20 2016

Tools Copyright (c) 1996-2006 Texas Instruments Incorporated
mancal.asm                                                           PAGE  133

    6191              DW$381  .dwtag  DW_TAG_member, DW_AT_type(*DW$T$11)
    6192                      .dwattr DW$381, DW_AT_name("dcpause"), DW_AT_symbol_name("_dcpause")
    6193                      .dwattr DW$381, DW_AT_data_member_location[DW_OP_plus_uconst 0x10]
    6194                      .dwattr DW$381, DW_AT_accessibility(DW_ACCESS_public)
    6195              DW$382  .dwtag  DW_TAG_member, DW_AT_type(*DW$T$11)
    6196                      .dwattr DW$382, DW_AT_name("mastermode"), DW_AT_symbol_name("_mastermode")
    6197                      .dwattr DW$382, DW_AT_data_member_location[DW_OP_plus_uconst 0x11]
    6198                      .dwattr DW$382, DW_AT_accessibility(DW_ACCESS_public)
    6199              DW$383  .dwtag  DW_TAG_member, DW_AT_type(*DW$T$11)
    6200                      .dwattr DW$383, DW_AT_name("updatescaling"), DW_AT_symbol_name("_updatescaling")
    6201                      .dwattr DW$383, DW_AT_data_member_location[DW_OP_plus_uconst 0x12]
    6202                      .dwattr DW$383, DW_AT_accessibility(DW_ACCESS_public)
    6203              DW$384  .dwtag  DW_TAG_member, DW_AT_type(*DW$T$11)
    6204                      .dwattr DW$384, DW_AT_name("forwardasternflag"), DW_AT_symbol_name("_forwardasternflag")
    6205                      .dwattr DW$384, DW_AT_data_member_location[DW_OP_plus_uconst 0x13]
    6206                      .dwattr DW$384, DW_AT_accessibility(DW_ACCESS_public)
    6207              DW$385  .dwtag  DW_TAG_member, DW_AT_type(*DW$T$11)
    6208                      .dwattr DW$385, DW_AT_name("initprogress"), DW_AT_symbol_name("_initprogress")
    6209                      .dwattr DW$385, DW_AT_data_member_location[DW_OP_plus_uconst 0x14]
    6210                      .dwattr DW$385, DW_AT_accessibility(DW_ACCESS_public)
    6211              DW$386  .dwtag  DW_TAG_member, DW_AT_type(*DW$T$11)
    6212                      .dwattr DW$386, DW_AT_name("dircountdown"), DW_AT_symbol_name("_dircountdown")
    6213                      .dwattr DW$386, DW_AT_data_member_location[DW_OP_plus_uconst 0x15]
    6214                      .dwattr DW$386, DW_AT_accessibility(DW_ACCESS_public)
    6215              DW$387  .dwtag  DW_TAG_member, DW_AT_type(*DW$T$11)
    6216                      .dwattr DW$387, DW_AT_name("slowdowncounter"), DW_AT_symbol_name("_slowdowncounter")
    6217                      .dwattr DW$387, DW_AT_data_member_location[DW_OP_plus_uconst 0x16]
    6218                      .dwattr DW$387, DW_AT_accessibility(DW_ACCESS_public)
    6219              DW$388  .dwtag  DW_TAG_member, DW_AT_type(*DW$T$11)
    6220                      .dwattr DW$388, DW_AT_name("slowdowncondition"), DW_AT_symbol_name("_slowdowncondition")
    6221                      .dwattr DW$388, DW_AT_data_member_location[DW_OP_plus_uconst 0x17]
    6222                      .dwattr DW$388, DW_AT_accessibility(DW_ACCESS_public)
    6223              DW$389  .dwtag  DW_TAG_member, DW_AT_type(*DW$T$11)
    6224                      .dwattr DW$389, DW_AT_name("slowdownlevel"), DW_AT_symbol_name("_slowdownlevel")
    6225                      .dwattr DW$389, DW_AT_data_member_location[DW_OP_plus_uconst 0x18]
    6226                      .dwattr DW$389, DW_AT_accessibility(DW_ACCESS_public)
    6227              DW$390  .dwtag  DW_TAG_member, DW_AT_type(*DW$T$11)
    6228                      .dwattr DW$390, DW_AT_name("alarmlevel"), DW_AT_symbol_name("_alarmlevel")
    6229                      .dwattr DW$390, DW_AT_data_member_location[DW_OP_plus_uconst 0x19]
    6230                      .dwattr DW$390, DW_AT_accessibility(DW_ACCESS_public)
    6231              DW$391  .dwtag  DW_TAG_member, DW_AT_type(*DW$T$11)
    6232                      .dwattr DW$391, DW_AT_name("slowdowndevlevel"), DW_AT_symbol_name("_slowdowndevlevel")
    6233                      .dwattr DW$391, DW_AT_data_member_location[DW_OP_plus_uconst 0x1a]
    6234                      .dwattr DW$391, DW_AT_accessibility(DW_ACCESS_public)
    6235              DW$392  .dwtag  DW_TAG_member, DW_AT_type(*DW$T$11)
    6236                      .dwattr DW$392, DW_AT_name("alarmdevlevel"), DW_AT_symbol_name("_alarmdevlevel")
    6237                      .dwattr DW$392, DW_AT_data_member_location[DW_OP_plus_uconst 0x1b]
    6238                      .dwattr DW$392, DW_AT_accessibility(DW_ACCESS_public)
    6239              DW$393  .dwtag  DW_TAG_member, DW_AT_type(*DW$T$11)
    6240                      .dwattr DW$393, DW_AT_name("cylinderalarmlevel"), DW_AT_symbol_name("_cylinderalarmlevel")
    6241                      .dwattr DW$393, DW_AT_data_member_location[DW_OP_plus_uconst 0x1c]
    6242                      .dwattr DW$393, DW_AT_accessibility(DW_ACCESS_public)
    6243              DW$394  .dwtag  DW_TAG_member, DW_AT_type(*DW$T$11)
    6244                      .dwattr DW$394, DW_AT_name("temperaturealarm"), DW_AT_symbol_name("_temperaturealarm")
    6245                      .dwattr DW$394, DW_AT_data_member_location[DW_OP_plus_uconst 0x1d]
TMS320C2000 COFF Assembler PC v4.1.3 Thu Aug 18 12:16:20 2016

Tools Copyright (c) 1996-2006 Texas Instruments Incorporated
mancal.asm                                                           PAGE  134

    6246                      .dwattr DW$394, DW_AT_accessibility(DW_ACCESS_public)
    6247              DW$395  .dwtag  DW_TAG_member, DW_AT_type(*DW$T$11)
    6248                      .dwattr DW$395, DW_AT_name("temperatureslowdown"), DW_AT_symbol_name("_temperatureslowdown")
    6249                      .dwattr DW$395, DW_AT_data_member_location[DW_OP_plus_uconst 0x1e]
    6250                      .dwattr DW$395, DW_AT_accessibility(DW_ACCESS_public)
    6251              DW$396  .dwtag  DW_TAG_member, DW_AT_type(*DW$T$21)
    6252                      .dwattr DW$396, DW_AT_name("anadebug"), DW_AT_symbol_name("_anadebug")
    6253                      .dwattr DW$396, DW_AT_data_member_location[DW_OP_plus_uconst 0x1f]
    6254                      .dwattr DW$396, DW_AT_accessibility(DW_ACCESS_public)
    6255              DW$397  .dwtag  DW_TAG_member, DW_AT_type(*DW$T$11)
    6256                      .dwattr DW$397, DW_AT_name("serialdebug"), DW_AT_symbol_name("_serialdebug")
    6257                      .dwattr DW$397, DW_AT_data_member_location[DW_OP_plus_uconst 0x21]
    6258                      .dwattr DW$397, DW_AT_accessibility(DW_ACCESS_public)
    6259              DW$398  .dwtag  DW_TAG_member, DW_AT_type(*DW$T$11)
    6260                      .dwattr DW$398, DW_AT_name("timerrunning"), DW_AT_symbol_name("_timerrunning")
    6261                      .dwattr DW$398, DW_AT_data_member_location[DW_OP_plus_uconst 0x22]
    6262                      .dwattr DW$398, DW_AT_accessibility(DW_ACCESS_public)
    6263              DW$399  .dwtag  DW_TAG_member, DW_AT_type(*DW$T$11)
    6264                      .dwattr DW$399, DW_AT_name("rpm"), DW_AT_symbol_name("_rpm")
    6265                      .dwattr DW$399, DW_AT_data_member_location[DW_OP_plus_uconst 0x23]
    6266                      .dwattr DW$399, DW_AT_accessibility(DW_ACCESS_public)
    6267                      .dwendtag DW$T$22
    6268              
    6269              
    6270              DW$T$24 .dwtag  DW_TAG_structure_type
    6271                      .dwattr DW$T$24, DW_AT_name("tag_motionstruct")
    6272                      .dwattr DW$T$24, DW_AT_byte_size(0x09)
    6273              DW$400  .dwtag  DW_TAG_member, DW_AT_type(*DW$T$11)
    6274                      .dwattr DW$400, DW_AT_name("counter"), DW_AT_symbol_name("_counter")
    6275                      .dwattr DW$400, DW_AT_data_member_location[DW_OP_plus_uconst 0x0]
    6276                      .dwattr DW$400, DW_AT_accessibility(DW_ACCESS_public)
    6277              DW$401  .dwtag  DW_TAG_member, DW_AT_type(*DW$T$11)
    6278                      .dwattr DW$401, DW_AT_name("ready"), DW_AT_symbol_name("_ready")
    6279                      .dwattr DW$401, DW_AT_data_member_location[DW_OP_plus_uconst 0x1]
    6280                      .dwattr DW$401, DW_AT_accessibility(DW_ACCESS_public)
    6281              DW$402  .dwtag  DW_TAG_member, DW_AT_type(*DW$T$23)
    6282                      .dwattr DW$402, DW_AT_name("order"), DW_AT_symbol_name("_order")
    6283                      .dwattr DW$402, DW_AT_data_member_location[DW_OP_plus_uconst 0x2]
    6284                      .dwattr DW$402, DW_AT_accessibility(DW_ACCESS_public)
    6285              DW$403  .dwtag  DW_TAG_member, DW_AT_type(*DW$T$10)
    6286                      .dwattr DW$403, DW_AT_name("forwardasternflag"), DW_AT_symbol_name("_forwardasternflag")
    6287                      .dwattr DW$403, DW_AT_data_member_location[DW_OP_plus_uconst 0x4]
    6288                      .dwattr DW$403, DW_AT_accessibility(DW_ACCESS_public)
    6289              DW$404  .dwtag  DW_TAG_member, DW_AT_type(*DW$T$10)
    6290                      .dwattr DW$404, DW_AT_name("forwardasternflagprev"), DW_AT_symbol_name("_forwardasternflagprev")
    6291                      .dwattr DW$404, DW_AT_data_member_location[DW_OP_plus_uconst 0x5]
    6292                      .dwattr DW$404, DW_AT_accessibility(DW_ACCESS_public)
    6293              DW$405  .dwtag  DW_TAG_member, DW_AT_type(*DW$T$10)
    6294                      .dwattr DW$405, DW_AT_name("recalnow"), DW_AT_symbol_name("_recalnow")
    6295                      .dwattr DW$405, DW_AT_data_member_location[DW_OP_plus_uconst 0x6]
    6296                      .dwattr DW$405, DW_AT_accessibility(DW_ACCESS_public)
    6297              DW$406  .dwtag  DW_TAG_member, DW_AT_type(*DW$T$10)
    6298                      .dwattr DW$406, DW_AT_name("calerror"), DW_AT_symbol_name("_calerror")
    6299                      .dwattr DW$406, DW_AT_data_member_location[DW_OP_plus_uconst 0x7]
    6300                      .dwattr DW$406, DW_AT_accessibility(DW_ACCESS_public)
TMS320C2000 COFF Assembler PC v4.1.3 Thu Aug 18 12:16:20 2016

Tools Copyright (c) 1996-2006 Texas Instruments Incorporated
mancal.asm                                                           PAGE  135

    6301              DW$407  .dwtag  DW_TAG_member, DW_AT_type(*DW$T$10)
    6302                      .dwattr DW$407, DW_AT_name("recheckdir"), DW_AT_symbol_name("_recheckdir")
    6303                      .dwattr DW$407, DW_AT_data_member_location[DW_OP_plus_uconst 0x8]
    6304                      .dwattr DW$407, DW_AT_accessibility(DW_ACCESS_public)
    6305                      .dwendtag DW$T$24
    6306              
    6307              DW$T$139        .dwtag  DW_TAG_typedef, DW_AT_name("timersstruct"), DW_AT_type(*DW$T$26)
    6308                      .dwattr DW$T$139, DW_AT_language(DW_LANG_C)
    6309              
    6310              DW$T$29 .dwtag  DW_TAG_structure_type
    6311                      .dwattr DW$T$29, DW_AT_name("tag_allsensorstruct")
    6312                      .dwattr DW$T$29, DW_AT_byte_size(0x2d)
    6313              DW$408  .dwtag  DW_TAG_member, DW_AT_type(*DW$T$11)
    6314                      .dwattr DW$408, DW_AT_name("numsensors"), DW_AT_symbol_name("_numsensors")
    6315                      .dwattr DW$408, DW_AT_data_member_location[DW_OP_plus_uconst 0x0]
    6316                      .dwattr DW$408, DW_AT_accessibility(DW_ACCESS_public)
    6317              DW$409  .dwtag  DW_TAG_member, DW_AT_type(*DW$T$11)
    6318                      .dwattr DW$409, DW_AT_name("numsensorsspu1"), DW_AT_symbol_name("_numsensorsspu1")
    6319                      .dwattr DW$409, DW_AT_data_member_location[DW_OP_plus_uconst 0x1]
    6320                      .dwattr DW$409, DW_AT_accessibility(DW_ACCESS_public)
    6321              DW$410  .dwtag  DW_TAG_member, DW_AT_type(*DW$T$11)
    6322                      .dwattr DW$410, DW_AT_name("numsensorsspu2"), DW_AT_symbol_name("_numsensorsspu2")
    6323                      .dwattr DW$410, DW_AT_data_member_location[DW_OP_plus_uconst 0x2]
    6324                      .dwattr DW$410, DW_AT_accessibility(DW_ACCESS_public)
    6325              DW$411  .dwtag  DW_TAG_member, DW_AT_type(*DW$T$11)
    6326                      .dwattr DW$411, DW_AT_name("nominalspeed"), DW_AT_symbol_name("_nominalspeed")
    6327                      .dwattr DW$411, DW_AT_data_member_location[DW_OP_plus_uconst 0x3]
    6328                      .dwattr DW$411, DW_AT_accessibility(DW_ACCESS_public)
    6329              DW$412  .dwtag  DW_TAG_member, DW_AT_type(*DW$T$11)
    6330                      .dwattr DW$412, DW_AT_name("rpmmin"), DW_AT_symbol_name("_rpmmin")
    6331                      .dwattr DW$412, DW_AT_data_member_location[DW_OP_plus_uconst 0x4]
    6332                      .dwattr DW$412, DW_AT_accessibility(DW_ACCESS_public)
    6333              DW$413  .dwtag  DW_TAG_member, DW_AT_type(*DW$T$11)
    6334                      .dwattr DW$413, DW_AT_name("rpmmax"), DW_AT_symbol_name("_rpmmax")
    6335                      .dwattr DW$413, DW_AT_data_member_location[DW_OP_plus_uconst 0x5]
    6336                      .dwattr DW$413, DW_AT_accessibility(DW_ACCESS_public)
    6337              DW$414  .dwtag  DW_TAG_member, DW_AT_type(*DW$T$11)
    6338                      .dwattr DW$414, DW_AT_name("reflash"), DW_AT_symbol_name("_reflash")
    6339                      .dwattr DW$414, DW_AT_data_member_location[DW_OP_plus_uconst 0x6]
    6340                      .dwattr DW$414, DW_AT_accessibility(DW_ACCESS_public)
    6341              DW$415  .dwtag  DW_TAG_member, DW_AT_type(*DW$T$10)
    6342                      .dwattr DW$415, DW_AT_name("sensorhysteresis"), DW_AT_symbol_name("_sensorhysteresis")
    6343                      .dwattr DW$415, DW_AT_data_member_location[DW_OP_plus_uconst 0x7]
    6344                      .dwattr DW$415, DW_AT_accessibility(DW_ACCESS_public)
    6345              DW$416  .dwtag  DW_TAG_member, DW_AT_type(*DW$T$10)
    6346                      .dwattr DW$416, DW_AT_name("cylinderhysteresis"), DW_AT_symbol_name("_cylinderhysteresis")
    6347                      .dwattr DW$416, DW_AT_data_member_location[DW_OP_plus_uconst 0x8]
    6348                      .dwattr DW$416, DW_AT_accessibility(DW_ACCESS_public)
    6349              DW$417  .dwtag  DW_TAG_member, DW_AT_type(*DW$T$11)
    6350                      .dwattr DW$417, DW_AT_name("slowdownlevel"), DW_AT_symbol_name("_slowdownlevel")
    6351                      .dwattr DW$417, DW_AT_data_member_location[DW_OP_plus_uconst 0x9]
    6352                      .dwattr DW$417, DW_AT_accessibility(DW_ACCESS_public)
    6353              DW$418  .dwtag  DW_TAG_member, DW_AT_type(*DW$T$11)
    6354                      .dwattr DW$418, DW_AT_name("alarmlevel"), DW_AT_symbol_name("_alarmlevel")
    6355                      .dwattr DW$418, DW_AT_data_member_location[DW_OP_plus_uconst 0xa]
TMS320C2000 COFF Assembler PC v4.1.3 Thu Aug 18 12:16:20 2016

Tools Copyright (c) 1996-2006 Texas Instruments Incorporated
mancal.asm                                                           PAGE  136

    6356                      .dwattr DW$418, DW_AT_accessibility(DW_ACCESS_public)
    6357              DW$419  .dwtag  DW_TAG_member, DW_AT_type(*DW$T$11)
    6358                      .dwattr DW$419, DW_AT_name("slowdowndevcallevel"), DW_AT_symbol_name("_slowdowndevcallevel")
    6359                      .dwattr DW$419, DW_AT_data_member_location[DW_OP_plus_uconst 0xb]
    6360                      .dwattr DW$419, DW_AT_accessibility(DW_ACCESS_public)
    6361              DW$420  .dwtag  DW_TAG_member, DW_AT_type(*DW$T$11)
    6362                      .dwattr DW$420, DW_AT_name("alarmdevcallevel"), DW_AT_symbol_name("_alarmdevcallevel")
    6363                      .dwattr DW$420, DW_AT_data_member_location[DW_OP_plus_uconst 0xc]
    6364                      .dwattr DW$420, DW_AT_accessibility(DW_ACCESS_public)
    6365              DW$421  .dwtag  DW_TAG_member, DW_AT_type(*DW$T$11)
    6366                      .dwattr DW$421, DW_AT_name("slowdowndevlevel"), DW_AT_symbol_name("_slowdowndevlevel")
    6367                      .dwattr DW$421, DW_AT_data_member_location[DW_OP_plus_uconst 0xd]
    6368                      .dwattr DW$421, DW_AT_accessibility(DW_ACCESS_public)
    6369              DW$422  .dwtag  DW_TAG_member, DW_AT_type(*DW$T$11)
    6370                      .dwattr DW$422, DW_AT_name("alarmdevlevel"), DW_AT_symbol_name("_alarmdevlevel")
    6371                      .dwattr DW$422, DW_AT_data_member_location[DW_OP_plus_uconst 0xe]
    6372                      .dwattr DW$422, DW_AT_accessibility(DW_ACCESS_public)
    6373              DW$423  .dwtag  DW_TAG_member, DW_AT_type(*DW$T$11)
    6374                      .dwattr DW$423, DW_AT_name("cylinderalarmlevel"), DW_AT_symbol_name("_cylinderalarmlevel")
    6375                      .dwattr DW$423, DW_AT_data_member_location[DW_OP_plus_uconst 0xf]
    6376                      .dwattr DW$423, DW_AT_accessibility(DW_ACCESS_public)
    6377              DW$424  .dwtag  DW_TAG_member, DW_AT_type(*DW$T$27)
    6378                      .dwattr DW$424, DW_AT_name("flags"), DW_AT_symbol_name("_flags")
    6379                      .dwattr DW$424, DW_AT_data_member_location[DW_OP_plus_uconst 0x10]
    6380                      .dwattr DW$424, DW_AT_accessibility(DW_ACCESS_public)
    6381              DW$425  .dwtag  DW_TAG_member, DW_AT_type(*DW$T$11)
    6382                      .dwattr DW$425, DW_AT_name("slowdownack"), DW_AT_symbol_name("_slowdownack")
    6383                      .dwattr DW$425, DW_AT_data_member_location[DW_OP_plus_uconst 0x11]
    6384                      .dwattr DW$425, DW_AT_accessibility(DW_ACCESS_public)
    6385              DW$426  .dwtag  DW_TAG_member, DW_AT_type(*DW$T$11)
    6386                      .dwattr DW$426, DW_AT_name("alarmack"), DW_AT_symbol_name("_alarmack")
    6387                      .dwattr DW$426, DW_AT_data_member_location[DW_OP_plus_uconst 0x12]
    6388                      .dwattr DW$426, DW_AT_accessibility(DW_ACCESS_public)
    6389              DW$427  .dwtag  DW_TAG_member, DW_AT_type(*DW$T$11)
    6390                      .dwattr DW$427, DW_AT_name("maxmintimer"), DW_AT_symbol_name("_maxmintimer")
    6391                      .dwattr DW$427, DW_AT_data_member_location[DW_OP_plus_uconst 0x13]
    6392                      .dwattr DW$427, DW_AT_accessibility(DW_ACCESS_public)
    6393              DW$428  .dwtag  DW_TAG_member, DW_AT_type(*DW$T$11)
    6394                      .dwattr DW$428, DW_AT_name("enginedircal"), DW_AT_symbol_name("_enginedircal")
    6395                      .dwattr DW$428, DW_AT_data_member_location[DW_OP_plus_uconst 0x14]
    6396                      .dwattr DW$428, DW_AT_accessibility(DW_ACCESS_public)
    6397              DW$429  .dwtag  DW_TAG_member, DW_AT_type(*DW$T$25)
    6398                      .dwattr DW$429, DW_AT_name("dirorder"), DW_AT_symbol_name("_dirorder")
    6399                      .dwattr DW$429, DW_AT_data_member_location[DW_OP_plus_uconst 0x15]
    6400                      .dwattr DW$429, DW_AT_accessibility(DW_ACCESS_public)
    6401              DW$430  .dwtag  DW_TAG_member, DW_AT_type(*DW$T$11)
    6402                      .dwattr DW$430, DW_AT_name("prewarningtimer"), DW_AT_symbol_name("_prewarningtimer")
    6403                      .dwattr DW$430, DW_AT_data_member_location[DW_OP_plus_uconst 0x23]
    6404                      .dwattr DW$430, DW_AT_accessibility(DW_ACCESS_public)
    6405              DW$431  .dwtag  DW_TAG_member, DW_AT_type(*DW$T$11)
    6406                      .dwattr DW$431, DW_AT_name("prewarninglevel"), DW_AT_symbol_name("_prewarninglevel")
    6407                      .dwattr DW$431, DW_AT_data_member_location[DW_OP_plus_uconst 0x24]
    6408                      .dwattr DW$431, DW_AT_accessibility(DW_ACCESS_public)
    6409              DW$432  .dwtag  DW_TAG_member, DW_AT_type(*DW$T$11)
    6410                      .dwattr DW$432, DW_AT_name("rpmlimit"), DW_AT_symbol_name("_rpmlimit")
TMS320C2000 COFF Assembler PC v4.1.3 Thu Aug 18 12:16:20 2016

Tools Copyright (c) 1996-2006 Texas Instruments Incorporated
mancal.asm                                                           PAGE  137

    6411                      .dwattr DW$432, DW_AT_data_member_location[DW_OP_plus_uconst 0x25]
    6412                      .dwattr DW$432, DW_AT_accessibility(DW_ACCESS_public)
    6413              DW$433  .dwtag  DW_TAG_member, DW_AT_type(*DW$T$11)
    6414                      .dwattr DW$433, DW_AT_name("dsss"), DW_AT_symbol_name("_dsss")
    6415                      .dwattr DW$433, DW_AT_data_member_location[DW_OP_plus_uconst 0x26]
    6416                      .dwattr DW$433, DW_AT_accessibility(DW_ACCESS_public)
    6417              DW$434  .dwtag  DW_TAG_member, DW_AT_type(*DW$T$11)
    6418                      .dwattr DW$434, DW_AT_name("slowdowncallevel"), DW_AT_symbol_name("_slowdowncallevel")
    6419                      .dwattr DW$434, DW_AT_data_member_location[DW_OP_plus_uconst 0x27]
    6420                      .dwattr DW$434, DW_AT_accessibility(DW_ACCESS_public)
    6421              DW$435  .dwtag  DW_TAG_member, DW_AT_type(*DW$T$11)
    6422                      .dwattr DW$435, DW_AT_name("alarmcallevel"), DW_AT_symbol_name("_alarmcallevel")
    6423                      .dwattr DW$435, DW_AT_data_member_location[DW_OP_plus_uconst 0x28]
    6424                      .dwattr DW$435, DW_AT_accessibility(DW_ACCESS_public)
    6425              DW$436  .dwtag  DW_TAG_member, DW_AT_type(*DW$T$11)
    6426                      .dwattr DW$436, DW_AT_name("cylinderalarmcallevel"), DW_AT_symbol_name("_cylinderalarmcallevel")
    6427                      .dwattr DW$436, DW_AT_data_member_location[DW_OP_plus_uconst 0x29]
    6428                      .dwattr DW$436, DW_AT_accessibility(DW_ACCESS_public)
    6429              DW$437  .dwtag  DW_TAG_member, DW_AT_type(*DW$T$28)
    6430                      .dwattr DW$437, DW_AT_name("bits"), DW_AT_symbol_name("_bits")
    6431                      .dwattr DW$437, DW_AT_data_member_location[DW_OP_plus_uconst 0x2a]
    6432                      .dwattr DW$437, DW_AT_accessibility(DW_ACCESS_public)
    6433              DW$438  .dwtag  DW_TAG_member, DW_AT_type(*DW$T$11)
    6434                      .dwattr DW$438, DW_AT_name("iBarredVibrationSpeedLow"), DW_AT_symbol_name("_iBarredVibrationSpeedLow"
    6435                      .dwattr DW$438, DW_AT_data_member_location[DW_OP_plus_uconst 0x2b]
    6436                      .dwattr DW$438, DW_AT_accessibility(DW_ACCESS_public)
    6437              DW$439  .dwtag  DW_TAG_member, DW_AT_type(*DW$T$11)
    6438                      .dwattr DW$439, DW_AT_name("iBarredVibrationSpeedHigh"), DW_AT_symbol_name("_iBarredVibrationSpeedHig
    6439                      .dwattr DW$439, DW_AT_data_member_location[DW_OP_plus_uconst 0x2c]
    6440                      .dwattr DW$439, DW_AT_accessibility(DW_ACCESS_public)
    6441                      .dwendtag DW$T$29
    6442              
    6443              DW$T$144        .dwtag  DW_TAG_typedef, DW_AT_name("sensorstruct"), DW_AT_type(*DW$T$32)
    6444                      .dwattr DW$T$144, DW_AT_language(DW_LANG_C)
    6445              
    6446              DW$T$34 .dwtag  DW_TAG_structure_type
    6447                      .dwattr DW$T$34, DW_AT_name("tag_functionstruct")
    6448                      .dwattr DW$T$34, DW_AT_byte_size(0x08)
    6449              DW$440  .dwtag  DW_TAG_member, DW_AT_type(*DW$T$33)
    6450                      .dwattr DW$440, DW_AT_name("enabled"), DW_AT_symbol_name("_enabled")
    6451                      .dwattr DW$440, DW_AT_data_member_location[DW_OP_plus_uconst 0x0]
    6452                      .dwattr DW$440, DW_AT_accessibility(DW_ACCESS_public)
    6453                      .dwendtag DW$T$34
    6454              
    6455              DW$T$149        .dwtag  DW_TAG_typedef, DW_AT_name("manrefstruct"), DW_AT_type(*DW$T$35)
    6456                      .dwattr DW$T$149, DW_AT_language(DW_LANG_C)
    6457              DW$T$153        .dwtag  DW_TAG_typedef, DW_AT_name("manrefsumstruct"), DW_AT_type(*DW$T$36)
    6458                      .dwattr DW$T$153, DW_AT_language(DW_LANG_C)
    6459              
    6460              DW$T$37 .dwtag  DW_TAG_structure_type
    6461                      .dwattr DW$T$37, DW_AT_name("tag_dynamicalarmsstruct")
    6462                      .dwattr DW$T$37, DW_AT_byte_size(0x24)
    6463              DW$441  .dwtag  DW_TAG_member, DW_AT_type(*DW$T$16)
    6464                      .dwattr DW$441, DW_AT_name("rpmav"), DW_AT_symbol_name("_rpmav")
    6465                      .dwattr DW$441, DW_AT_data_member_location[DW_OP_plus_uconst 0x0]
TMS320C2000 COFF Assembler PC v4.1.3 Thu Aug 18 12:16:20 2016

Tools Copyright (c) 1996-2006 Texas Instruments Incorporated
mancal.asm                                                           PAGE  138

    6466                      .dwattr DW$441, DW_AT_accessibility(DW_ACCESS_public)
    6467              DW$442  .dwtag  DW_TAG_member, DW_AT_type(*DW$T$16)
    6468                      .dwattr DW$442, DW_AT_name("single1"), DW_AT_symbol_name("_single1")
    6469                      .dwattr DW$442, DW_AT_data_member_location[DW_OP_plus_uconst 0x2]
    6470                      .dwattr DW$442, DW_AT_accessibility(DW_ACCESS_public)
    6471              DW$443  .dwtag  DW_TAG_member, DW_AT_type(*DW$T$16)
    6472                      .dwattr DW$443, DW_AT_name("cyl1"), DW_AT_symbol_name("_cyl1")
    6473                      .dwattr DW$443, DW_AT_data_member_location[DW_OP_plus_uconst 0x4]
    6474                      .dwattr DW$443, DW_AT_accessibility(DW_ACCESS_public)
    6475              DW$444  .dwtag  DW_TAG_member, DW_AT_type(*DW$T$16)
    6476                      .dwattr DW$444, DW_AT_name("mbsum1"), DW_AT_symbol_name("_mbsum1")
    6477                      .dwattr DW$444, DW_AT_data_member_location[DW_OP_plus_uconst 0x6]
    6478                      .dwattr DW$444, DW_AT_accessibility(DW_ACCESS_public)
    6479              DW$445  .dwtag  DW_TAG_member, DW_AT_type(*DW$T$16)
    6480                      .dwattr DW$445, DW_AT_name("single2"), DW_AT_symbol_name("_single2")
    6481                      .dwattr DW$445, DW_AT_data_member_location[DW_OP_plus_uconst 0x8]
    6482                      .dwattr DW$445, DW_AT_accessibility(DW_ACCESS_public)
    6483              DW$446  .dwtag  DW_TAG_member, DW_AT_type(*DW$T$16)
    6484                      .dwattr DW$446, DW_AT_name("cyl2"), DW_AT_symbol_name("_cyl2")
    6485                      .dwattr DW$446, DW_AT_data_member_location[DW_OP_plus_uconst 0xa]
    6486                      .dwattr DW$446, DW_AT_accessibility(DW_ACCESS_public)
    6487              DW$447  .dwtag  DW_TAG_member, DW_AT_type(*DW$T$16)
    6488                      .dwattr DW$447, DW_AT_name("mbsum2"), DW_AT_symbol_name("_mbsum2")
    6489                      .dwattr DW$447, DW_AT_data_member_location[DW_OP_plus_uconst 0xc]
    6490                      .dwattr DW$447, DW_AT_accessibility(DW_ACCESS_public)
    6491              DW$448  .dwtag  DW_TAG_member, DW_AT_type(*DW$T$16)
    6492                      .dwattr DW$448, DW_AT_name("deltarpmprev"), DW_AT_symbol_name("_deltarpmprev")
    6493                      .dwattr DW$448, DW_AT_data_member_location[DW_OP_plus_uconst 0xe]
    6494                      .dwattr DW$448, DW_AT_accessibility(DW_ACCESS_public)
    6495              DW$449  .dwtag  DW_TAG_member, DW_AT_type(*DW$T$16)
    6496                      .dwattr DW$449, DW_AT_name("deltarpm"), DW_AT_symbol_name("_deltarpm")
    6497                      .dwattr DW$449, DW_AT_data_member_location[DW_OP_plus_uconst 0x10]
    6498                      .dwattr DW$449, DW_AT_accessibility(DW_ACCESS_public)
    6499              DW$450  .dwtag  DW_TAG_member, DW_AT_type(*DW$T$10)
    6500                      .dwattr DW$450, DW_AT_name("deltarpm_int"), DW_AT_symbol_name("_deltarpm_int")
    6501                      .dwattr DW$450, DW_AT_data_member_location[DW_OP_plus_uconst 0x12]
    6502                      .dwattr DW$450, DW_AT_accessibility(DW_ACCESS_public)
    6503              DW$451  .dwtag  DW_TAG_member, DW_AT_type(*DW$T$10)
    6504                      .dwattr DW$451, DW_AT_name("rpmav_int"), DW_AT_symbol_name("_rpmav_int")
    6505                      .dwattr DW$451, DW_AT_data_member_location[DW_OP_plus_uconst 0x13]
    6506                      .dwattr DW$451, DW_AT_accessibility(DW_ACCESS_public)
    6507              DW$452  .dwtag  DW_TAG_member, DW_AT_type(*DW$T$10)
    6508                      .dwattr DW$452, DW_AT_name("deltarpmprev_int"), DW_AT_symbol_name("_deltarpmprev_int")
    6509                      .dwattr DW$452, DW_AT_data_member_location[DW_OP_plus_uconst 0x14]
    6510                      .dwattr DW$452, DW_AT_accessibility(DW_ACCESS_public)
    6511              DW$453  .dwtag  DW_TAG_member, DW_AT_type(*DW$T$10)
    6512                      .dwattr DW$453, DW_AT_name("single"), DW_AT_symbol_name("_single")
    6513                      .dwattr DW$453, DW_AT_data_member_location[DW_OP_plus_uconst 0x15]
    6514                      .dwattr DW$453, DW_AT_accessibility(DW_ACCESS_public)
    6515              DW$454  .dwtag  DW_TAG_member, DW_AT_type(*DW$T$10)
    6516                      .dwattr DW$454, DW_AT_name("cyl"), DW_AT_symbol_name("_cyl")
    6517                      .dwattr DW$454, DW_AT_data_member_location[DW_OP_plus_uconst 0x16]
    6518                      .dwattr DW$454, DW_AT_accessibility(DW_ACCESS_public)
    6519              DW$455  .dwtag  DW_TAG_member, DW_AT_type(*DW$T$10)
    6520                      .dwattr DW$455, DW_AT_name("mbsum"), DW_AT_symbol_name("_mbsum")
TMS320C2000 COFF Assembler PC v4.1.3 Thu Aug 18 12:16:20 2016

Tools Copyright (c) 1996-2006 Texas Instruments Incorporated
mancal.asm                                                           PAGE  139

    6521                      .dwattr DW$455, DW_AT_data_member_location[DW_OP_plus_uconst 0x17]
    6522                      .dwattr DW$455, DW_AT_accessibility(DW_ACCESS_public)
    6523              DW$456  .dwtag  DW_TAG_member, DW_AT_type(*DW$T$10)
    6524                      .dwattr DW$456, DW_AT_name("singleprev"), DW_AT_symbol_name("_singleprev")
    6525                      .dwattr DW$456, DW_AT_data_member_location[DW_OP_plus_uconst 0x18]
    6526                      .dwattr DW$456, DW_AT_accessibility(DW_ACCESS_public)
    6527              DW$457  .dwtag  DW_TAG_member, DW_AT_type(*DW$T$10)
    6528                      .dwattr DW$457, DW_AT_name("cylprev"), DW_AT_symbol_name("_cylprev")
    6529                      .dwattr DW$457, DW_AT_data_member_location[DW_OP_plus_uconst 0x19]
    6530                      .dwattr DW$457, DW_AT_accessibility(DW_ACCESS_public)
    6531              DW$458  .dwtag  DW_TAG_member, DW_AT_type(*DW$T$10)
    6532                      .dwattr DW$458, DW_AT_name("mbsumprev"), DW_AT_symbol_name("_mbsumprev")
    6533                      .dwattr DW$458, DW_AT_data_member_location[DW_OP_plus_uconst 0x1a]
    6534                      .dwattr DW$458, DW_AT_accessibility(DW_ACCESS_public)
    6535              DW$459  .dwtag  DW_TAG_member, DW_AT_type(*DW$T$10)
    6536                      .dwattr DW$459, DW_AT_name("single1_int"), DW_AT_symbol_name("_single1_int")
    6537                      .dwattr DW$459, DW_AT_data_member_location[DW_OP_plus_uconst 0x1b]
    6538                      .dwattr DW$459, DW_AT_accessibility(DW_ACCESS_public)
    6539              DW$460  .dwtag  DW_TAG_member, DW_AT_type(*DW$T$10)
    6540                      .dwattr DW$460, DW_AT_name("cyl1_int"), DW_AT_symbol_name("_cyl1_int")
    6541                      .dwattr DW$460, DW_AT_data_member_location[DW_OP_plus_uconst 0x1c]
    6542                      .dwattr DW$460, DW_AT_accessibility(DW_ACCESS_public)
    6543              DW$461  .dwtag  DW_TAG_member, DW_AT_type(*DW$T$10)
    6544                      .dwattr DW$461, DW_AT_name("mbsum1_int"), DW_AT_symbol_name("_mbsum1_int")
    6545                      .dwattr DW$461, DW_AT_data_member_location[DW_OP_plus_uconst 0x1d]
    6546                      .dwattr DW$461, DW_AT_accessibility(DW_ACCESS_public)
    6547              DW$462  .dwtag  DW_TAG_member, DW_AT_type(*DW$T$10)
    6548                      .dwattr DW$462, DW_AT_name("single2_int"), DW_AT_symbol_name("_single2_int")
    6549                      .dwattr DW$462, DW_AT_data_member_location[DW_OP_plus_uconst 0x1e]
    6550                      .dwattr DW$462, DW_AT_accessibility(DW_ACCESS_public)
    6551              DW$463  .dwtag  DW_TAG_member, DW_AT_type(*DW$T$10)
    6552                      .dwattr DW$463, DW_AT_name("cyl2_int"), DW_AT_symbol_name("_cyl2_int")
    6553                      .dwattr DW$463, DW_AT_data_member_location[DW_OP_plus_uconst 0x1f]
    6554                      .dwattr DW$463, DW_AT_accessibility(DW_ACCESS_public)
    6555              DW$464  .dwtag  DW_TAG_member, DW_AT_type(*DW$T$10)
    6556                      .dwattr DW$464, DW_AT_name("mbsum2_int"), DW_AT_symbol_name("_mbsum2_int")
    6557                      .dwattr DW$464, DW_AT_data_member_location[DW_OP_plus_uconst 0x20]
    6558                      .dwattr DW$464, DW_AT_accessibility(DW_ACCESS_public)
    6559              DW$465  .dwtag  DW_TAG_member, DW_AT_type(*DW$T$13)
    6560                      .dwattr DW$465, DW_AT_name("hits"), DW_AT_symbol_name("_hits")
    6561                      .dwattr DW$465, DW_AT_data_member_location[DW_OP_plus_uconst 0x22]
    6562                      .dwattr DW$465, DW_AT_accessibility(DW_ACCESS_public)
    6563                      .dwendtag DW$T$37
    6564              
    6565              DW$T$38 .dwtag  DW_TAG_base_type, DW_AT_name("signed char")
    6566                      .dwattr DW$T$38, DW_AT_encoding(DW_ATE_signed_char)
    6567                      .dwattr DW$T$38, DW_AT_byte_size(0x01)
    6568              DW$466  .dwtag  DW_TAG_far_type
    6569                      .dwattr DW$466, DW_AT_type(*DW$T$38)
    6570              DW$T$82 .dwtag  DW_TAG_const_type
    6571                      .dwattr DW$T$82, DW_AT_type(*DW$466)
    6572              DW$T$160        .dwtag  DW_TAG_typedef, DW_AT_name("sdcarddirstruct"), DW_AT_type(*DW$T$40)
    6573                      .dwattr DW$T$160, DW_AT_language(DW_LANG_C)
    6574              
    6575              DW$T$42 .dwtag  DW_TAG_structure_type
TMS320C2000 COFF Assembler PC v4.1.3 Thu Aug 18 12:16:20 2016

Tools Copyright (c) 1996-2006 Texas Instruments Incorporated
mancal.asm                                                           PAGE  140

    6576                      .dwattr DW$T$42, DW_AT_name("tag_sdsettingsstruct")
    6577                      .dwattr DW$T$42, DW_AT_byte_size(0x04)
    6578              DW$467  .dwtag  DW_TAG_member, DW_AT_type(*DW$T$11)
    6579                      .dwattr DW$467, DW_AT_name("present"), DW_AT_symbol_name("_present")
    6580                      .dwattr DW$467, DW_AT_data_member_location[DW_OP_plus_uconst 0x0]
    6581                      .dwattr DW$467, DW_AT_accessibility(DW_ACCESS_public)
    6582              DW$468  .dwtag  DW_TAG_member, DW_AT_type(*DW$T$11)
    6583                      .dwattr DW$468, DW_AT_name("sequence"), DW_AT_symbol_name("_sequence")
    6584                      .dwattr DW$468, DW_AT_data_member_location[DW_OP_plus_uconst 0x1]
    6585                      .dwattr DW$468, DW_AT_accessibility(DW_ACCESS_public)
    6586              DW$469  .dwtag  DW_TAG_member, DW_AT_type(*DW$T$11)
    6587                      .dwattr DW$469, DW_AT_name("errornum"), DW_AT_symbol_name("_errornum")
    6588                      .dwattr DW$469, DW_AT_data_member_location[DW_OP_plus_uconst 0x2]
    6589                      .dwattr DW$469, DW_AT_accessibility(DW_ACCESS_public)
    6590              DW$470  .dwtag  DW_TAG_member, DW_AT_type(*DW$T$41)
    6591                      .dwattr DW$470, DW_AT_name("readstatus"), DW_AT_symbol_name("_readstatus")
    6592                      .dwattr DW$470, DW_AT_data_member_location[DW_OP_plus_uconst 0x3]
    6593                      .dwattr DW$470, DW_AT_accessibility(DW_ACCESS_public)
    6594                      .dwendtag DW$T$42
    6595              
    6596              
    6597              DW$T$43 .dwtag  DW_TAG_structure_type
    6598                      .dwattr DW$T$43, DW_AT_name("tag_sensorMoving")
    6599                      .dwattr DW$T$43, DW_AT_byte_size(0x02)
    6600              DW$471  .dwtag  DW_TAG_member, DW_AT_type(*DW$T$11)
    6601                      .dwattr DW$471, DW_AT_name("calAlarmThreshhold"), DW_AT_symbol_name("_calAlarmThreshhold")
    6602                      .dwattr DW$471, DW_AT_data_member_location[DW_OP_plus_uconst 0x0]
    6603                      .dwattr DW$471, DW_AT_accessibility(DW_ACCESS_public)
    6604              DW$472  .dwtag  DW_TAG_member, DW_AT_type(*DW$T$11)
    6605                      .dwattr DW$472, DW_AT_name("unusedByte"), DW_AT_symbol_name("_unusedByte")
    6606                      .dwattr DW$472, DW_AT_data_member_location[DW_OP_plus_uconst 0x1]
    6607                      .dwattr DW$472, DW_AT_accessibility(DW_ACCESS_public)
    6608                      .dwendtag DW$T$43
    6609              
    6610              
    6611              DW$T$53 .dwtag  DW_TAG_structure_type
    6612                      .dwattr DW$T$53, DW_AT_name("tag_calibrationstruct")
    6613                      .dwattr DW$T$53, DW_AT_byte_size(0x31a)
    6614              DW$473  .dwtag  DW_TAG_member, DW_AT_type(*DW$T$11)
    6615                      .dwattr DW$473, DW_AT_name("rpmpoints"), DW_AT_symbol_name("_rpmpoints")
    6616                      .dwattr DW$473, DW_AT_data_member_location[DW_OP_plus_uconst 0x0]
    6617                      .dwattr DW$473, DW_AT_accessibility(DW_ACCESS_public)
    6618              DW$474  .dwtag  DW_TAG_member, DW_AT_type(*DW$T$45)
    6619                      .dwattr DW$474, DW_AT_name("speedcalpoints"), DW_AT_symbol_name("_speedcalpoints")
    6620                      .dwattr DW$474, DW_AT_data_member_location[DW_OP_plus_uconst 0x1]
    6621                      .dwattr DW$474, DW_AT_accessibility(DW_ACCESS_public)
    6622              DW$475  .dwtag  DW_TAG_member, DW_AT_type(*DW$T$46)
    6623                      .dwattr DW$475, DW_AT_name("roughnumpoints"), DW_AT_symbol_name("_roughnumpoints")
    6624                      .dwattr DW$475, DW_AT_data_member_location[DW_OP_plus_uconst 0x8]
    6625                      .dwattr DW$475, DW_AT_accessibility(DW_ACCESS_public)
    6626              DW$476  .dwtag  DW_TAG_member, DW_AT_type(*DW$T$47)
    6627                      .dwattr DW$476, DW_AT_name("numpoints"), DW_AT_symbol_name("_numpoints")
    6628                      .dwattr DW$476, DW_AT_data_member_location[DW_OP_plus_uconst 0xe]
    6629                      .dwattr DW$476, DW_AT_accessibility(DW_ACCESS_public)
    6630              DW$477  .dwtag  DW_TAG_member, DW_AT_type(*DW$T$49)
TMS320C2000 COFF Assembler PC v4.1.3 Thu Aug 18 12:16:20 2016

Tools Copyright (c) 1996-2006 Texas Instruments Incorporated
mancal.asm                                                           PAGE  141

    6631                      .dwattr DW$477, DW_AT_name("averagespeedacc"), DW_AT_symbol_name("_averagespeedacc")
    6632                      .dwattr DW$477, DW_AT_data_member_location[DW_OP_plus_uconst 0x13a]
    6633                      .dwattr DW$477, DW_AT_accessibility(DW_ACCESS_public)
    6634              DW$478  .dwtag  DW_TAG_member, DW_AT_type(*DW$T$49)
    6635                      .dwattr DW$478, DW_AT_name("averagevalacc"), DW_AT_symbol_name("_averagevalacc")
    6636                      .dwattr DW$478, DW_AT_data_member_location[DW_OP_plus_uconst 0x1e2]
    6637                      .dwattr DW$478, DW_AT_accessibility(DW_ACCESS_public)
    6638              DW$479  .dwtag  DW_TAG_member, DW_AT_type(*DW$T$11)
    6639                      .dwattr DW$479, DW_AT_name("validpoints"), DW_AT_symbol_name("_validpoints")
    6640                      .dwattr DW$479, DW_AT_data_member_location[DW_OP_plus_uconst 0x28a]
    6641                      .dwattr DW$479, DW_AT_accessibility(DW_ACCESS_public)
    6642              DW$480  .dwtag  DW_TAG_member, DW_AT_type(*DW$T$50)
    6643                      .dwattr DW$480, DW_AT_name("rpmatcal"), DW_AT_symbol_name("_rpmatcal")
    6644                      .dwattr DW$480, DW_AT_data_member_location[DW_OP_plus_uconst 0x28b]
    6645                      .dwattr DW$480, DW_AT_accessibility(DW_ACCESS_public)
    6646              DW$481  .dwtag  DW_TAG_member, DW_AT_type(*DW$T$52)
    6647                      .dwattr DW$481, DW_AT_name("manroughcalpts"), DW_AT_symbol_name("_manroughcalpts")
    6648                      .dwattr DW$481, DW_AT_data_member_location[DW_OP_plus_uconst 0x28e]
    6649                      .dwattr DW$481, DW_AT_accessibility(DW_ACCESS_public)
    6650              DW$482  .dwtag  DW_TAG_member, DW_AT_type(*DW$T$51)
    6651                      .dwattr DW$482, DW_AT_name("manroughmin"), DW_AT_symbol_name("_manroughmin")
    6652                      .dwattr DW$482, DW_AT_data_member_location[DW_OP_plus_uconst 0x2e2]
    6653                      .dwattr DW$482, DW_AT_accessibility(DW_ACCESS_public)
    6654              DW$483  .dwtag  DW_TAG_member, DW_AT_type(*DW$T$51)
    6655                      .dwattr DW$483, DW_AT_name("manroughmax"), DW_AT_symbol_name("_manroughmax")
    6656                      .dwattr DW$483, DW_AT_data_member_location[DW_OP_plus_uconst 0x2fe]
    6657                      .dwattr DW$483, DW_AT_accessibility(DW_ACCESS_public)
    6658                      .dwendtag DW$T$53
    6659              
    6660              
    6661              DW$T$54 .dwtag  DW_TAG_structure_type
    6662                      .dwattr DW$T$54, DW_AT_name("tag_speedcompstruct")
    6663                      .dwattr DW$T$54, DW_AT_byte_size(0x19)
    6664              DW$484  .dwtag  DW_TAG_member, DW_AT_type(*DW$T$11)
    6665                      .dwattr DW$484, DW_AT_name("stageflag"), DW_AT_symbol_name("_stageflag")
    6666                      .dwattr DW$484, DW_AT_data_member_location[DW_OP_plus_uconst 0x0]
    6667                      .dwattr DW$484, DW_AT_accessibility(DW_ACCESS_public)
    6668              DW$485  .dwtag  DW_TAG_member, DW_AT_type(*DW$T$11)
    6669                      .dwattr DW$485, DW_AT_name("status"), DW_AT_symbol_name("_status")
    6670                      .dwattr DW$485, DW_AT_data_member_location[DW_OP_plus_uconst 0x1]
    6671                      .dwattr DW$485, DW_AT_accessibility(DW_ACCESS_public)
    6672              DW$486  .dwtag  DW_TAG_member, DW_AT_type(*DW$T$45)
    6673                      .dwattr DW$486, DW_AT_name("speedbands"), DW_AT_symbol_name("_speedbands")
    6674                      .dwattr DW$486, DW_AT_data_member_location[DW_OP_plus_uconst 0x2]
    6675                      .dwattr DW$486, DW_AT_accessibility(DW_ACCESS_public)
    6676              DW$487  .dwtag  DW_TAG_member, DW_AT_type(*DW$T$11)
    6677                      .dwattr DW$487, DW_AT_name("slopecoeff"), DW_AT_symbol_name("_slopecoeff")
    6678                      .dwattr DW$487, DW_AT_data_member_location[DW_OP_plus_uconst 0x8]
    6679                      .dwattr DW$487, DW_AT_accessibility(DW_ACCESS_public)
    6680              DW$488  .dwtag  DW_TAG_member, DW_AT_type(*DW$T$11)
    6681                      .dwattr DW$488, DW_AT_name("initialtimer"), DW_AT_symbol_name("_initialtimer")
    6682                      .dwattr DW$488, DW_AT_data_member_location[DW_OP_plus_uconst 0x9]
    6683                      .dwattr DW$488, DW_AT_accessibility(DW_ACCESS_public)
    6684              DW$489  .dwtag  DW_TAG_member, DW_AT_type(*DW$T$11)
    6685                      .dwattr DW$489, DW_AT_name("learningmodetimer"), DW_AT_symbol_name("_learningmodetimer")
TMS320C2000 COFF Assembler PC v4.1.3 Thu Aug 18 12:16:20 2016

Tools Copyright (c) 1996-2006 Texas Instruments Incorporated
mancal.asm                                                           PAGE  142

    6686                      .dwattr DW$489, DW_AT_data_member_location[DW_OP_plus_uconst 0xa]
    6687                      .dwattr DW$489, DW_AT_accessibility(DW_ACCESS_public)
    6688              DW$490  .dwtag  DW_TAG_member, DW_AT_type(*DW$T$11)
    6689                      .dwattr DW$490, DW_AT_name("intervaltimer"), DW_AT_symbol_name("_intervaltimer")
    6690                      .dwattr DW$490, DW_AT_data_member_location[DW_OP_plus_uconst 0xb]
    6691                      .dwattr DW$490, DW_AT_accessibility(DW_ACCESS_public)
    6692              DW$491  .dwtag  DW_TAG_member, DW_AT_type(*DW$T$11)
    6693                      .dwattr DW$491, DW_AT_name("numsamples"), DW_AT_symbol_name("_numsamples")
    6694                      .dwattr DW$491, DW_AT_data_member_location[DW_OP_plus_uconst 0xc]
    6695                      .dwattr DW$491, DW_AT_accessibility(DW_ACCESS_public)
    6696              DW$492  .dwtag  DW_TAG_member, DW_AT_type(*DW$T$11)
    6697                      .dwattr DW$492, DW_AT_name("learningleft"), DW_AT_symbol_name("_learningleft")
    6698                      .dwattr DW$492, DW_AT_data_member_location[DW_OP_plus_uconst 0xd]
    6699                      .dwattr DW$492, DW_AT_accessibility(DW_ACCESS_public)
    6700              DW$493  .dwtag  DW_TAG_member, DW_AT_type(*DW$T$11)
    6701                      .dwattr DW$493, DW_AT_name("intervalleft"), DW_AT_symbol_name("_intervalleft")
    6702                      .dwattr DW$493, DW_AT_data_member_location[DW_OP_plus_uconst 0xe]
    6703                      .dwattr DW$493, DW_AT_accessibility(DW_ACCESS_public)
    6704              DW$494  .dwtag  DW_TAG_member, DW_AT_type(*DW$T$11)
    6705                      .dwattr DW$494, DW_AT_name("manappliedminsamples"), DW_AT_symbol_name("_manappliedminsamples")
    6706                      .dwattr DW$494, DW_AT_data_member_location[DW_OP_plus_uconst 0xf]
    6707                      .dwattr DW$494, DW_AT_accessibility(DW_ACCESS_public)
    6708              DW$495  .dwtag  DW_TAG_member, DW_AT_type(*DW$T$11)
    6709                      .dwattr DW$495, DW_AT_name("unused1"), DW_AT_symbol_name("_unused1")
    6710                      .dwattr DW$495, DW_AT_data_member_location[DW_OP_plus_uconst 0x10]
    6711                      .dwattr DW$495, DW_AT_accessibility(DW_ACCESS_public)
    6712              DW$496  .dwtag  DW_TAG_member, DW_AT_type(*DW$T$11)
    6713                      .dwattr DW$496, DW_AT_name("unused2"), DW_AT_symbol_name("_unused2")
    6714                      .dwattr DW$496, DW_AT_data_member_location[DW_OP_plus_uconst 0x11]
    6715                      .dwattr DW$496, DW_AT_accessibility(DW_ACCESS_public)
    6716              DW$497  .dwtag  DW_TAG_member, DW_AT_type(*DW$T$11)
    6717                      .dwattr DW$497, DW_AT_name("unused3"), DW_AT_symbol_name("_unused3")
    6718                      .dwattr DW$497, DW_AT_data_member_location[DW_OP_plus_uconst 0x12]
    6719                      .dwattr DW$497, DW_AT_accessibility(DW_ACCESS_public)
    6720              DW$498  .dwtag  DW_TAG_member, DW_AT_type(*DW$T$11)
    6721                      .dwattr DW$498, DW_AT_name("unused4"), DW_AT_symbol_name("_unused4")
    6722                      .dwattr DW$498, DW_AT_data_member_location[DW_OP_plus_uconst 0x13]
    6723                      .dwattr DW$498, DW_AT_accessibility(DW_ACCESS_public)
    6724              DW$499  .dwtag  DW_TAG_member, DW_AT_type(*DW$T$11)
    6725                      .dwattr DW$499, DW_AT_name("unused5"), DW_AT_symbol_name("_unused5")
    6726                      .dwattr DW$499, DW_AT_data_member_location[DW_OP_plus_uconst 0x14]
    6727                      .dwattr DW$499, DW_AT_accessibility(DW_ACCESS_public)
    6728              DW$500  .dwtag  DW_TAG_member, DW_AT_type(*DW$T$11)
    6729                      .dwattr DW$500, DW_AT_name("unused6"), DW_AT_symbol_name("_unused6")
    6730                      .dwattr DW$500, DW_AT_data_member_location[DW_OP_plus_uconst 0x15]
    6731                      .dwattr DW$500, DW_AT_accessibility(DW_ACCESS_public)
    6732              DW$501  .dwtag  DW_TAG_member, DW_AT_type(*DW$T$11)
    6733                      .dwattr DW$501, DW_AT_name("unused7"), DW_AT_symbol_name("_unused7")
    6734                      .dwattr DW$501, DW_AT_data_member_location[DW_OP_plus_uconst 0x16]
    6735                      .dwattr DW$501, DW_AT_accessibility(DW_ACCESS_public)
    6736              DW$502  .dwtag  DW_TAG_member, DW_AT_type(*DW$T$11)
    6737                      .dwattr DW$502, DW_AT_name("unused8"), DW_AT_symbol_name("_unused8")
    6738                      .dwattr DW$502, DW_AT_data_member_location[DW_OP_plus_uconst 0x17]
    6739                      .dwattr DW$502, DW_AT_accessibility(DW_ACCESS_public)
    6740              DW$503  .dwtag  DW_TAG_member, DW_AT_type(*DW$T$11)
TMS320C2000 COFF Assembler PC v4.1.3 Thu Aug 18 12:16:20 2016

Tools Copyright (c) 1996-2006 Texas Instruments Incorporated
mancal.asm                                                           PAGE  143

    6741                      .dwattr DW$503, DW_AT_name("unused9"), DW_AT_symbol_name("_unused9")
    6742                      .dwattr DW$503, DW_AT_data_member_location[DW_OP_plus_uconst 0x18]
    6743                      .dwattr DW$503, DW_AT_accessibility(DW_ACCESS_public)
    6744                      .dwendtag DW$T$54
    6745              
    6746              
    6747              DW$T$55 .dwtag  DW_TAG_structure_type
    6748                      .dwattr DW$T$55, DW_AT_name("tag_mancalstruct")
    6749                      .dwattr DW$T$55, DW_AT_byte_size(0x04)
    6750              DW$504  .dwtag  DW_TAG_member, DW_AT_type(*DW$T$11)
    6751                      .dwattr DW$504, DW_AT_name("learningleft"), DW_AT_symbol_name("_learningleft")
    6752                      .dwattr DW$504, DW_AT_data_member_location[DW_OP_plus_uconst 0x0]
    6753                      .dwattr DW$504, DW_AT_accessibility(DW_ACCESS_public)
    6754              DW$505  .dwtag  DW_TAG_member, DW_AT_type(*DW$T$11)
    6755                      .dwattr DW$505, DW_AT_name("intervalleft"), DW_AT_symbol_name("_intervalleft")
    6756                      .dwattr DW$505, DW_AT_data_member_location[DW_OP_plus_uconst 0x1]
    6757                      .dwattr DW$505, DW_AT_accessibility(DW_ACCESS_public)
    6758              DW$506  .dwtag  DW_TAG_member, DW_AT_type(*DW$T$11)
    6759                      .dwattr DW$506, DW_AT_name("percentleft"), DW_AT_symbol_name("_percentleft")
    6760                      .dwattr DW$506, DW_AT_data_member_location[DW_OP_plus_uconst 0x2]
    6761                      .dwattr DW$506, DW_AT_accessibility(DW_ACCESS_public)
    6762              DW$507  .dwtag  DW_TAG_member, DW_AT_type(*DW$T$11)
    6763                      .dwattr DW$507, DW_AT_name("manupdateflag"), DW_AT_symbol_name("_manupdateflag")
    6764                      .dwattr DW$507, DW_AT_data_member_location[DW_OP_plus_uconst 0x3]
    6765                      .dwattr DW$507, DW_AT_accessibility(DW_ACCESS_public)
    6766                      .dwendtag DW$T$55
    6767              
    6768              
    6769              DW$T$23 .dwtag  DW_TAG_array_type, DW_AT_type(*DW$T$10)
    6770                      .dwattr DW$T$23, DW_AT_language(DW_LANG_C)
    6771                      .dwattr DW$T$23, DW_AT_byte_size(0x02)
    6772              DW$508  .dwtag  DW_TAG_subrange_type
    6773                      .dwattr DW$508, DW_AT_upper_bound(0x01)
    6774                      .dwendtag DW$T$23
    6775              
    6776              
    6777              DW$T$52 .dwtag  DW_TAG_array_type, DW_AT_type(*DW$T$10)
    6778                      .dwattr DW$T$52, DW_AT_language(DW_LANG_C)
    6779                      .dwattr DW$T$52, DW_AT_byte_size(0x54)
    6780              DW$509  .dwtag  DW_TAG_subrange_type
    6781                      .dwattr DW$509, DW_AT_upper_bound(0x02)
    6782              DW$510  .dwtag  DW_TAG_subrange_type
    6783                      .dwattr DW$510, DW_AT_upper_bound(0x1b)
    6784                      .dwendtag DW$T$52
    6785              
    6786              
    6787              DW$T$25 .dwtag  DW_TAG_array_type, DW_AT_type(*DW$T$11)
    6788                      .dwattr DW$T$25, DW_AT_language(DW_LANG_C)
    6789                      .dwattr DW$T$25, DW_AT_byte_size(0x0e)
    6790              DW$511  .dwtag  DW_TAG_subrange_type
    6791                      .dwattr DW$511, DW_AT_upper_bound(0x0d)
    6792                      .dwendtag DW$T$25
    6793              
    6794              
    6795              DW$T$45 .dwtag  DW_TAG_array_type, DW_AT_type(*DW$T$11)
TMS320C2000 COFF Assembler PC v4.1.3 Thu Aug 18 12:16:20 2016

Tools Copyright (c) 1996-2006 Texas Instruments Incorporated
mancal.asm                                                           PAGE  144

    6796                      .dwattr DW$T$45, DW_AT_language(DW_LANG_C)
    6797                      .dwattr DW$T$45, DW_AT_byte_size(0x06)
    6798              DW$512  .dwtag  DW_TAG_subrange_type
    6799                      .dwattr DW$512, DW_AT_upper_bound(0x02)
    6800              DW$513  .dwtag  DW_TAG_subrange_type
    6801                      .dwattr DW$513, DW_AT_upper_bound(0x01)
    6802                      .dwendtag DW$T$45
    6803              
    6804              
    6805              DW$T$50 .dwtag  DW_TAG_array_type, DW_AT_type(*DW$T$11)
    6806                      .dwattr DW$T$50, DW_AT_language(DW_LANG_C)
    6807                      .dwattr DW$T$50, DW_AT_byte_size(0x03)
    6808              DW$514  .dwtag  DW_TAG_subrange_type
    6809                      .dwattr DW$514, DW_AT_upper_bound(0x02)
    6810                      .dwendtag DW$T$50
    6811              
    6812              DW$T$12 .dwtag  DW_TAG_base_type, DW_AT_name("long")
    6813                      .dwattr DW$T$12, DW_AT_encoding(DW_ATE_signed)
    6814                      .dwattr DW$T$12, DW_AT_byte_size(0x02)
    6815              
    6816              DW$T$49 .dwtag  DW_TAG_array_type, DW_AT_type(*DW$T$12)
    6817                      .dwattr DW$T$49, DW_AT_language(DW_LANG_C)
    6818                      .dwattr DW$T$49, DW_AT_byte_size(0xa8)
    6819              DW$515  .dwtag  DW_TAG_subrange_type
    6820                      .dwattr DW$515, DW_AT_upper_bound(0x02)
    6821              DW$516  .dwtag  DW_TAG_subrange_type
    6822                      .dwattr DW$516, DW_AT_upper_bound(0x1b)
    6823                      .dwendtag DW$T$49
    6824              
    6825              
    6826              DW$T$46 .dwtag  DW_TAG_array_type, DW_AT_type(*DW$T$13)
    6827                      .dwattr DW$T$46, DW_AT_language(DW_LANG_C)
    6828                      .dwattr DW$T$46, DW_AT_byte_size(0x06)
    6829              DW$517  .dwtag  DW_TAG_subrange_type
    6830                      .dwattr DW$517, DW_AT_upper_bound(0x02)
    6831                      .dwendtag DW$T$46
    6832              
    6833              
    6834              DW$T$47 .dwtag  DW_TAG_array_type, DW_AT_type(*DW$T$13)
    6835                      .dwattr DW$T$47, DW_AT_language(DW_LANG_C)
    6836                      .dwattr DW$T$47, DW_AT_byte_size(0x12c)
    6837              DW$518  .dwtag  DW_TAG_subrange_type
    6838                      .dwattr DW$518, DW_AT_upper_bound(0x95)
    6839                      .dwendtag DW$T$47
    6840              
    6841              
    6842              DW$T$19 .dwtag  DW_TAG_structure_type
    6843                      .dwattr DW$T$19, DW_AT_name("tag_status1struct")
    6844                      .dwattr DW$T$19, DW_AT_byte_size(0x01)
    6845              DW$519  .dwtag  DW_TAG_member, DW_AT_type(*DW$T$11)
    6846                      .dwattr DW$519, DW_AT_name("enabled"), DW_AT_symbol_name("_enabled")
    6847                      .dwattr DW$519, DW_AT_bit_offset(0x0f), DW_AT_bit_size(0x01)
    6848                      .dwattr DW$519, DW_AT_data_member_location[DW_OP_plus_uconst 0x0]
    6849                      .dwattr DW$519, DW_AT_accessibility(DW_ACCESS_public)
    6850              DW$520  .dwtag  DW_TAG_member, DW_AT_type(*DW$T$11)
TMS320C2000 COFF Assembler PC v4.1.3 Thu Aug 18 12:16:20 2016

Tools Copyright (c) 1996-2006 Texas Instruments Incorporated
mancal.asm                                                           PAGE  145

    6851                      .dwattr DW$520, DW_AT_name("calmode"), DW_AT_symbol_name("_calmode")
    6852                      .dwattr DW$520, DW_AT_bit_offset(0x0e), DW_AT_bit_size(0x01)
    6853                      .dwattr DW$520, DW_AT_data_member_location[DW_OP_plus_uconst 0x0]
    6854                      .dwattr DW$520, DW_AT_accessibility(DW_ACCESS_public)
    6855              DW$521  .dwtag  DW_TAG_member, DW_AT_type(*DW$T$11)
    6856                      .dwattr DW$521, DW_AT_name("alarmmask"), DW_AT_symbol_name("_alarmmask")
    6857                      .dwattr DW$521, DW_AT_bit_offset(0x0d), DW_AT_bit_size(0x01)
    6858                      .dwattr DW$521, DW_AT_data_member_location[DW_OP_plus_uconst 0x0]
    6859                      .dwattr DW$521, DW_AT_accessibility(DW_ACCESS_public)
    6860              DW$522  .dwtag  DW_TAG_member, DW_AT_type(*DW$T$11)
    6861                      .dwattr DW$522, DW_AT_name("dcmode"), DW_AT_symbol_name("_dcmode")
    6862                      .dwattr DW$522, DW_AT_bit_offset(0x0c), DW_AT_bit_size(0x01)
    6863                      .dwattr DW$522, DW_AT_data_member_location[DW_OP_plus_uconst 0x0]
    6864                      .dwattr DW$522, DW_AT_accessibility(DW_ACCESS_public)
    6865              DW$523  .dwtag  DW_TAG_member, DW_AT_type(*DW$T$11)
    6866                      .dwattr DW$523, DW_AT_name("replaced"), DW_AT_symbol_name("_replaced")
    6867                      .dwattr DW$523, DW_AT_bit_offset(0x0b), DW_AT_bit_size(0x01)
    6868                      .dwattr DW$523, DW_AT_data_member_location[DW_OP_plus_uconst 0x0]
    6869                      .dwattr DW$523, DW_AT_accessibility(DW_ACCESS_public)
    6870              DW$524  .dwtag  DW_TAG_member, DW_AT_type(*DW$T$11)
    6871                      .dwattr DW$524, DW_AT_name("excludeslowroll"), DW_AT_symbol_name("_excludeslowroll")
    6872                      .dwattr DW$524, DW_AT_bit_offset(0x0a), DW_AT_bit_size(0x01)
    6873                      .dwattr DW$524, DW_AT_data_member_location[DW_OP_plus_uconst 0x0]
    6874                      .dwattr DW$524, DW_AT_accessibility(DW_ACCESS_public)
    6875              DW$525  .dwtag  DW_TAG_member, DW_AT_type(*DW$T$11)
    6876                      .dwattr DW$525, DW_AT_name("unused7"), DW_AT_symbol_name("_unused7")
    6877                      .dwattr DW$525, DW_AT_bit_offset(0x09), DW_AT_bit_size(0x01)
    6878                      .dwattr DW$525, DW_AT_data_member_location[DW_OP_plus_uconst 0x0]
    6879                      .dwattr DW$525, DW_AT_accessibility(DW_ACCESS_public)
    6880              DW$526  .dwtag  DW_TAG_member, DW_AT_type(*DW$T$11)
    6881                      .dwattr DW$526, DW_AT_name("unused8"), DW_AT_symbol_name("_unused8")
    6882                      .dwattr DW$526, DW_AT_bit_offset(0x08), DW_AT_bit_size(0x01)
    6883                      .dwattr DW$526, DW_AT_data_member_location[DW_OP_plus_uconst 0x0]
    6884                      .dwattr DW$526, DW_AT_accessibility(DW_ACCESS_public)
    6885              DW$527  .dwtag  DW_TAG_member, DW_AT_type(*DW$T$11)
    6886                      .dwattr DW$527, DW_AT_name("unused9"), DW_AT_symbol_name("_unused9")
    6887                      .dwattr DW$527, DW_AT_bit_offset(0x07), DW_AT_bit_size(0x01)
    6888                      .dwattr DW$527, DW_AT_data_member_location[DW_OP_plus_uconst 0x0]
    6889                      .dwattr DW$527, DW_AT_accessibility(DW_ACCESS_public)
    6890              DW$528  .dwtag  DW_TAG_member, DW_AT_type(*DW$T$11)
    6891                      .dwattr DW$528, DW_AT_name("unused10"), DW_AT_symbol_name("_unused10")
    6892                      .dwattr DW$528, DW_AT_bit_offset(0x06), DW_AT_bit_size(0x01)
    6893                      .dwattr DW$528, DW_AT_data_member_location[DW_OP_plus_uconst 0x0]
    6894                      .dwattr DW$528, DW_AT_accessibility(DW_ACCESS_public)
    6895              DW$529  .dwtag  DW_TAG_member, DW_AT_type(*DW$T$11)
    6896                      .dwattr DW$529, DW_AT_name("unused11"), DW_AT_symbol_name("_unused11")
    6897                      .dwattr DW$529, DW_AT_bit_offset(0x05), DW_AT_bit_size(0x01)
    6898                      .dwattr DW$529, DW_AT_data_member_location[DW_OP_plus_uconst 0x0]
    6899                      .dwattr DW$529, DW_AT_accessibility(DW_ACCESS_public)
    6900              DW$530  .dwtag  DW_TAG_member, DW_AT_type(*DW$T$11)
    6901                      .dwattr DW$530, DW_AT_name("unused12"), DW_AT_symbol_name("_unused12")
    6902                      .dwattr DW$530, DW_AT_bit_offset(0x04), DW_AT_bit_size(0x01)
    6903                      .dwattr DW$530, DW_AT_data_member_location[DW_OP_plus_uconst 0x0]
    6904                      .dwattr DW$530, DW_AT_accessibility(DW_ACCESS_public)
    6905              DW$531  .dwtag  DW_TAG_member, DW_AT_type(*DW$T$11)
TMS320C2000 COFF Assembler PC v4.1.3 Thu Aug 18 12:16:20 2016

Tools Copyright (c) 1996-2006 Texas Instruments Incorporated
mancal.asm                                                           PAGE  146

    6906                      .dwattr DW$531, DW_AT_name("unused13"), DW_AT_symbol_name("_unused13")
    6907                      .dwattr DW$531, DW_AT_bit_offset(0x03), DW_AT_bit_size(0x01)
    6908                      .dwattr DW$531, DW_AT_data_member_location[DW_OP_plus_uconst 0x0]
    6909                      .dwattr DW$531, DW_AT_accessibility(DW_ACCESS_public)
    6910              DW$532  .dwtag  DW_TAG_member, DW_AT_type(*DW$T$11)
    6911                      .dwattr DW$532, DW_AT_name("unused14"), DW_AT_symbol_name("_unused14")
    6912                      .dwattr DW$532, DW_AT_bit_offset(0x02), DW_AT_bit_size(0x01)
    6913                      .dwattr DW$532, DW_AT_data_member_location[DW_OP_plus_uconst 0x0]
    6914                      .dwattr DW$532, DW_AT_accessibility(DW_ACCESS_public)
    6915              DW$533  .dwtag  DW_TAG_member, DW_AT_type(*DW$T$11)
    6916                      .dwattr DW$533, DW_AT_name("unused15"), DW_AT_symbol_name("_unused15")
    6917                      .dwattr DW$533, DW_AT_bit_offset(0x01), DW_AT_bit_size(0x01)
    6918                      .dwattr DW$533, DW_AT_data_member_location[DW_OP_plus_uconst 0x0]
    6919                      .dwattr DW$533, DW_AT_accessibility(DW_ACCESS_public)
    6920              DW$534  .dwtag  DW_TAG_member, DW_AT_type(*DW$T$11)
    6921                      .dwattr DW$534, DW_AT_name("unused16"), DW_AT_symbol_name("_unused16")
    6922                      .dwattr DW$534, DW_AT_bit_offset(0x00), DW_AT_bit_size(0x01)
    6923                      .dwattr DW$534, DW_AT_data_member_location[DW_OP_plus_uconst 0x0]
    6924                      .dwattr DW$534, DW_AT_accessibility(DW_ACCESS_public)
    6925                      .dwendtag DW$T$19
    6926              
    6927              
    6928              DW$T$20 .dwtag  DW_TAG_structure_type
    6929                      .dwattr DW$T$20, DW_AT_name("tag_sensoralarmstruct")
    6930                      .dwattr DW$T$20, DW_AT_byte_size(0x01)
    6931              DW$535  .dwtag  DW_TAG_member, DW_AT_type(*DW$T$11)
    6932                      .dwattr DW$535, DW_AT_name("failure"), DW_AT_symbol_name("_failure")
    6933                      .dwattr DW$535, DW_AT_bit_offset(0x0f), DW_AT_bit_size(0x01)
    6934                      .dwattr DW$535, DW_AT_data_member_location[DW_OP_plus_uconst 0x0]
    6935                      .dwattr DW$535, DW_AT_accessibility(DW_ACCESS_public)
    6936              DW$536  .dwtag  DW_TAG_member, DW_AT_type(*DW$T$11)
    6937                      .dwattr DW$536, DW_AT_name("failurelatched"), DW_AT_symbol_name("_failurelatched")
    6938                      .dwattr DW$536, DW_AT_bit_offset(0x0e), DW_AT_bit_size(0x01)
    6939                      .dwattr DW$536, DW_AT_data_member_location[DW_OP_plus_uconst 0x0]
    6940                      .dwattr DW$536, DW_AT_accessibility(DW_ACCESS_public)
    6941              DW$537  .dwtag  DW_TAG_member, DW_AT_type(*DW$T$11)
    6942                      .dwattr DW$537, DW_AT_name("slowdown"), DW_AT_symbol_name("_slowdown")
    6943                      .dwattr DW$537, DW_AT_bit_offset(0x0d), DW_AT_bit_size(0x01)
    6944                      .dwattr DW$537, DW_AT_data_member_location[DW_OP_plus_uconst 0x0]
    6945                      .dwattr DW$537, DW_AT_accessibility(DW_ACCESS_public)
    6946              DW$538  .dwtag  DW_TAG_member, DW_AT_type(*DW$T$11)
    6947                      .dwattr DW$538, DW_AT_name("slowdownlatched"), DW_AT_symbol_name("_slowdownlatched")
    6948                      .dwattr DW$538, DW_AT_bit_offset(0x0c), DW_AT_bit_size(0x01)
    6949                      .dwattr DW$538, DW_AT_data_member_location[DW_OP_plus_uconst 0x0]
    6950                      .dwattr DW$538, DW_AT_accessibility(DW_ACCESS_public)
    6951              DW$539  .dwtag  DW_TAG_member, DW_AT_type(*DW$T$11)
    6952                      .dwattr DW$539, DW_AT_name("alarm"), DW_AT_symbol_name("_alarm")
    6953                      .dwattr DW$539, DW_AT_bit_offset(0x0b), DW_AT_bit_size(0x01)
    6954                      .dwattr DW$539, DW_AT_data_member_location[DW_OP_plus_uconst 0x0]
    6955                      .dwattr DW$539, DW_AT_accessibility(DW_ACCESS_public)
    6956              DW$540  .dwtag  DW_TAG_member, DW_AT_type(*DW$T$11)
    6957                      .dwattr DW$540, DW_AT_name("alarmlatched"), DW_AT_symbol_name("_alarmlatched")
    6958                      .dwattr DW$540, DW_AT_bit_offset(0x0a), DW_AT_bit_size(0x01)
    6959                      .dwattr DW$540, DW_AT_data_member_location[DW_OP_plus_uconst 0x0]
    6960                      .dwattr DW$540, DW_AT_accessibility(DW_ACCESS_public)
TMS320C2000 COFF Assembler PC v4.1.3 Thu Aug 18 12:16:20 2016

Tools Copyright (c) 1996-2006 Texas Instruments Incorporated
mancal.asm                                                           PAGE  147

    6961              DW$541  .dwtag  DW_TAG_member, DW_AT_type(*DW$T$11)
    6962                      .dwattr DW$541, DW_AT_name("devalarm"), DW_AT_symbol_name("_devalarm")
    6963                      .dwattr DW$541, DW_AT_bit_offset(0x09), DW_AT_bit_size(0x01)
    6964                      .dwattr DW$541, DW_AT_data_member_location[DW_OP_plus_uconst 0x0]
    6965                      .dwattr DW$541, DW_AT_accessibility(DW_ACCESS_public)
    6966              DW$542  .dwtag  DW_TAG_member, DW_AT_type(*DW$T$11)
    6967                      .dwattr DW$542, DW_AT_name("devalarmlatched"), DW_AT_symbol_name("_devalarmlatched")
    6968                      .dwattr DW$542, DW_AT_bit_offset(0x08), DW_AT_bit_size(0x01)
    6969                      .dwattr DW$542, DW_AT_data_member_location[DW_OP_plus_uconst 0x0]
    6970                      .dwattr DW$542, DW_AT_accessibility(DW_ACCESS_public)
    6971              DW$543  .dwtag  DW_TAG_member, DW_AT_type(*DW$T$11)
    6972                      .dwattr DW$543, DW_AT_name("devslow"), DW_AT_symbol_name("_devslow")
    6973                      .dwattr DW$543, DW_AT_bit_offset(0x07), DW_AT_bit_size(0x01)
    6974                      .dwattr DW$543, DW_AT_data_member_location[DW_OP_plus_uconst 0x0]
    6975                      .dwattr DW$543, DW_AT_accessibility(DW_ACCESS_public)
    6976              DW$544  .dwtag  DW_TAG_member, DW_AT_type(*DW$T$11)
    6977                      .dwattr DW$544, DW_AT_name("devslowlatched"), DW_AT_symbol_name("_devslowlatched")
    6978                      .dwattr DW$544, DW_AT_bit_offset(0x06), DW_AT_bit_size(0x01)
    6979                      .dwattr DW$544, DW_AT_data_member_location[DW_OP_plus_uconst 0x0]
    6980                      .dwattr DW$544, DW_AT_accessibility(DW_ACCESS_public)
    6981              DW$545  .dwtag  DW_TAG_member, DW_AT_type(*DW$T$11)
    6982                      .dwattr DW$545, DW_AT_name("calibration"), DW_AT_symbol_name("_calibration")
    6983                      .dwattr DW$545, DW_AT_bit_offset(0x05), DW_AT_bit_size(0x01)
    6984                      .dwattr DW$545, DW_AT_data_member_location[DW_OP_plus_uconst 0x0]
    6985                      .dwattr DW$545, DW_AT_accessibility(DW_ACCESS_public)
    6986              DW$546  .dwtag  DW_TAG_member, DW_AT_type(*DW$T$11)
    6987                      .dwattr DW$546, DW_AT_name("calibrationlatched"), DW_AT_symbol_name("_calibrationlatched")
    6988                      .dwattr DW$546, DW_AT_bit_offset(0x04), DW_AT_bit_size(0x01)
    6989                      .dwattr DW$546, DW_AT_data_member_location[DW_OP_plus_uconst 0x0]
    6990                      .dwattr DW$546, DW_AT_accessibility(DW_ACCESS_public)
    6991              DW$547  .dwtag  DW_TAG_member, DW_AT_type(*DW$T$11)
    6992                      .dwattr DW$547, DW_AT_name("prewarning"), DW_AT_symbol_name("_prewarning")
    6993                      .dwattr DW$547, DW_AT_bit_offset(0x03), DW_AT_bit_size(0x01)
    6994                      .dwattr DW$547, DW_AT_data_member_location[DW_OP_plus_uconst 0x0]
    6995                      .dwattr DW$547, DW_AT_accessibility(DW_ACCESS_public)
    6996              DW$548  .dwtag  DW_TAG_member, DW_AT_type(*DW$T$11)
    6997                      .dwattr DW$548, DW_AT_name("prewarninglatched"), DW_AT_symbol_name("_prewarninglatched")
    6998                      .dwattr DW$548, DW_AT_bit_offset(0x02), DW_AT_bit_size(0x01)
    6999                      .dwattr DW$548, DW_AT_data_member_location[DW_OP_plus_uconst 0x0]
    7000                      .dwattr DW$548, DW_AT_accessibility(DW_ACCESS_public)
    7001              DW$549  .dwtag  DW_TAG_member, DW_AT_type(*DW$T$11)
    7002                      .dwattr DW$549, DW_AT_name("unused15"), DW_AT_symbol_name("_unused15")
    7003                      .dwattr DW$549, DW_AT_bit_offset(0x01), DW_AT_bit_size(0x01)
    7004                      .dwattr DW$549, DW_AT_data_member_location[DW_OP_plus_uconst 0x0]
    7005                      .dwattr DW$549, DW_AT_accessibility(DW_ACCESS_public)
    7006              DW$550  .dwtag  DW_TAG_member, DW_AT_type(*DW$T$11)
    7007                      .dwattr DW$550, DW_AT_name("unused16"), DW_AT_symbol_name("_unused16")
    7008                      .dwattr DW$550, DW_AT_bit_offset(0x00), DW_AT_bit_size(0x01)
    7009                      .dwattr DW$550, DW_AT_data_member_location[DW_OP_plus_uconst 0x0]
    7010                      .dwattr DW$550, DW_AT_accessibility(DW_ACCESS_public)
    7011                      .dwendtag DW$T$20
    7012              
    7013              
    7014              DW$T$21 .dwtag  DW_TAG_structure_type
    7015                      .dwattr DW$T$21, DW_AT_byte_size(0x02)
TMS320C2000 COFF Assembler PC v4.1.3 Thu Aug 18 12:16:20 2016

Tools Copyright (c) 1996-2006 Texas Instruments Incorporated
mancal.asm                                                           PAGE  148

    7016              DW$551  .dwtag  DW_TAG_member, DW_AT_type(*DW$T$11)
    7017                      .dwattr DW$551, DW_AT_name("enb"), DW_AT_symbol_name("_enb")
    7018                      .dwattr DW$551, DW_AT_data_member_location[DW_OP_plus_uconst 0x0]
    7019                      .dwattr DW$551, DW_AT_accessibility(DW_ACCESS_public)
    7020              DW$552  .dwtag  DW_TAG_member, DW_AT_type(*DW$T$11)
    7021                      .dwattr DW$552, DW_AT_name("chan"), DW_AT_symbol_name("_chan")
    7022                      .dwattr DW$552, DW_AT_data_member_location[DW_OP_plus_uconst 0x1]
    7023                      .dwattr DW$552, DW_AT_accessibility(DW_ACCESS_public)
    7024                      .dwendtag DW$T$21
    7025              
    7026              
    7027              DW$T$26 .dwtag  DW_TAG_structure_type
    7028                      .dwattr DW$T$26, DW_AT_name("tag_timers")
    7029                      .dwattr DW$T$26, DW_AT_byte_size(0x4c)
    7030              DW$553  .dwtag  DW_TAG_member, DW_AT_type(*DW$T$11)
    7031                      .dwattr DW$553, DW_AT_name("update"), DW_AT_symbol_name("_update")
    7032                      .dwattr DW$553, DW_AT_data_member_location[DW_OP_plus_uconst 0x0]
    7033                      .dwattr DW$553, DW_AT_accessibility(DW_ACCESS_public)
    7034              DW$554  .dwtag  DW_TAG_member, DW_AT_type(*DW$T$11)
    7035                      .dwattr DW$554, DW_AT_name("general"), DW_AT_symbol_name("_general")
    7036                      .dwattr DW$554, DW_AT_data_member_location[DW_OP_plus_uconst 0x1]
    7037                      .dwattr DW$554, DW_AT_accessibility(DW_ACCESS_public)
    7038              DW$555  .dwtag  DW_TAG_member, DW_AT_type(*DW$T$11)
    7039                      .dwattr DW$555, DW_AT_name("rxcharTimeout"), DW_AT_symbol_name("_rxcharTimeout")
    7040                      .dwattr DW$555, DW_AT_data_member_location[DW_OP_plus_uconst 0x2]
    7041                      .dwattr DW$555, DW_AT_accessibility(DW_ACCESS_public)
    7042              DW$556  .dwtag  DW_TAG_member, DW_AT_type(*DW$T$11)
    7043                      .dwattr DW$556, DW_AT_name("wiorxtimeout"), DW_AT_symbol_name("_wiorxtimeout")
    7044                      .dwattr DW$556, DW_AT_data_member_location[DW_OP_plus_uconst 0x3]
    7045                      .dwattr DW$556, DW_AT_accessibility(DW_ACCESS_public)
    7046              DW$557  .dwtag  DW_TAG_member, DW_AT_type(*DW$T$11)
    7047                      .dwattr DW$557, DW_AT_name("wiomasterrxtimeout"), DW_AT_symbol_name("_wiomasterrxtimeout")
    7048                      .dwattr DW$557, DW_AT_data_member_location[DW_OP_plus_uconst 0x4]
    7049                      .dwattr DW$557, DW_AT_accessibility(DW_ACCESS_public)
    7050              DW$558  .dwtag  DW_TAG_member, DW_AT_type(*DW$T$11)
    7051                      .dwattr DW$558, DW_AT_name("masterrxtimeout"), DW_AT_symbol_name("_masterrxtimeout")
    7052                      .dwattr DW$558, DW_AT_data_member_location[DW_OP_plus_uconst 0x5]
    7053                      .dwattr DW$558, DW_AT_accessibility(DW_ACCESS_public)
    7054              DW$559  .dwtag  DW_TAG_member, DW_AT_type(*DW$T$11)
    7055                      .dwattr DW$559, DW_AT_name("slaverxtimeout"), DW_AT_symbol_name("_slaverxtimeout")
    7056                      .dwattr DW$559, DW_AT_data_member_location[DW_OP_plus_uconst 0x6]
    7057                      .dwattr DW$559, DW_AT_accessibility(DW_ACCESS_public)
    7058              DW$560  .dwtag  DW_TAG_member, DW_AT_type(*DW$T$11)
    7059                      .dwattr DW$560, DW_AT_name("sectick"), DW_AT_symbol_name("_sectick")
    7060                      .dwattr DW$560, DW_AT_data_member_location[DW_OP_plus_uconst 0x7]
    7061                      .dwattr DW$560, DW_AT_accessibility(DW_ACCESS_public)
    7062              DW$561  .dwtag  DW_TAG_member, DW_AT_type(*DW$T$11)
    7063                      .dwattr DW$561, DW_AT_name("ledflash"), DW_AT_symbol_name("_ledflash")
    7064                      .dwattr DW$561, DW_AT_data_member_location[DW_OP_plus_uconst 0x8]
    7065                      .dwattr DW$561, DW_AT_accessibility(DW_ACCESS_public)
    7066              DW$562  .dwtag  DW_TAG_member, DW_AT_type(*DW$T$11)
    7067                      .dwattr DW$562, DW_AT_name("prtsettle"), DW_AT_symbol_name("_prtsettle")
    7068                      .dwattr DW$562, DW_AT_data_member_location[DW_OP_plus_uconst 0x9]
    7069                      .dwattr DW$562, DW_AT_accessibility(DW_ACCESS_public)
    7070              DW$563  .dwtag  DW_TAG_member, DW_AT_type(*DW$T$25)
TMS320C2000 COFF Assembler PC v4.1.3 Thu Aug 18 12:16:20 2016

Tools Copyright (c) 1996-2006 Texas Instruments Incorporated
mancal.asm                                                           PAGE  149

    7071                      .dwattr DW$563, DW_AT_name("chantimeout"), DW_AT_symbol_name("_chantimeout")
    7072                      .dwattr DW$563, DW_AT_data_member_location[DW_OP_plus_uconst 0xa]
    7073                      .dwattr DW$563, DW_AT_accessibility(DW_ACCESS_public)
    7074              DW$564  .dwtag  DW_TAG_member, DW_AT_type(*DW$T$25)
    7075                      .dwattr DW$564, DW_AT_name("chanwait"), DW_AT_symbol_name("_chanwait")
    7076                      .dwattr DW$564, DW_AT_data_member_location[DW_OP_plus_uconst 0x18]
    7077                      .dwattr DW$564, DW_AT_accessibility(DW_ACCESS_public)
    7078              DW$565  .dwtag  DW_TAG_member, DW_AT_type(*DW$T$11)
    7079                      .dwattr DW$565, DW_AT_name("pcrxtimeout"), DW_AT_symbol_name("_pcrxtimeout")
    7080                      .dwattr DW$565, DW_AT_data_member_location[DW_OP_plus_uconst 0x26]
    7081                      .dwattr DW$565, DW_AT_accessibility(DW_ACCESS_public)
    7082              DW$566  .dwtag  DW_TAG_member, DW_AT_type(*DW$T$11)
    7083                      .dwattr DW$566, DW_AT_name("pctxtimeout"), DW_AT_symbol_name("_pctxtimeout")
    7084                      .dwattr DW$566, DW_AT_data_member_location[DW_OP_plus_uconst 0x27]
    7085                      .dwattr DW$566, DW_AT_accessibility(DW_ACCESS_public)
    7086              DW$567  .dwtag  DW_TAG_member, DW_AT_type(*DW$T$11)
    7087                      .dwattr DW$567, DW_AT_name("spistatus"), DW_AT_symbol_name("_spistatus")
    7088                      .dwattr DW$567, DW_AT_data_member_location[DW_OP_plus_uconst 0x28]
    7089                      .dwattr DW$567, DW_AT_accessibility(DW_ACCESS_public)
    7090              DW$568  .dwtag  DW_TAG_member, DW_AT_type(*DW$T$11)
    7091                      .dwattr DW$568, DW_AT_name("rpm"), DW_AT_symbol_name("_rpm")
    7092                      .dwattr DW$568, DW_AT_data_member_location[DW_OP_plus_uconst 0x29]
    7093                      .dwattr DW$568, DW_AT_accessibility(DW_ACCESS_public)
    7094              DW$569  .dwtag  DW_TAG_member, DW_AT_type(*DW$T$11)
    7095                      .dwattr DW$569, DW_AT_name("slaverqst"), DW_AT_symbol_name("_slaverqst")
    7096                      .dwattr DW$569, DW_AT_data_member_location[DW_OP_plus_uconst 0x2a]
    7097                      .dwattr DW$569, DW_AT_accessibility(DW_ACCESS_public)
    7098              DW$570  .dwtag  DW_TAG_member, DW_AT_type(*DW$T$11)
    7099                      .dwattr DW$570, DW_AT_name("mastermodebutton"), DW_AT_symbol_name("_mastermodebutton")
    7100                      .dwattr DW$570, DW_AT_data_member_location[DW_OP_plus_uconst 0x2b]
    7101                      .dwattr DW$570, DW_AT_accessibility(DW_ACCESS_public)
    7102              DW$571  .dwtag  DW_TAG_member, DW_AT_type(*DW$T$11)
    7103                      .dwattr DW$571, DW_AT_name("dcmode"), DW_AT_symbol_name("_dcmode")
    7104                      .dwattr DW$571, DW_AT_data_member_location[DW_OP_plus_uconst 0x2c]
    7105                      .dwattr DW$571, DW_AT_accessibility(DW_ACCESS_public)
    7106              DW$572  .dwtag  DW_TAG_member, DW_AT_type(*DW$T$13)
    7107                      .dwattr DW$572, DW_AT_name("calibrate"), DW_AT_symbol_name("_calibrate")
    7108                      .dwattr DW$572, DW_AT_data_member_location[DW_OP_plus_uconst 0x2e]
    7109                      .dwattr DW$572, DW_AT_accessibility(DW_ACCESS_public)
    7110              DW$573  .dwtag  DW_TAG_member, DW_AT_type(*DW$T$13)
    7111                      .dwattr DW$573, DW_AT_name("calibrate2"), DW_AT_symbol_name("_calibrate2")
    7112                      .dwattr DW$573, DW_AT_data_member_location[DW_OP_plus_uconst 0x30]
    7113                      .dwattr DW$573, DW_AT_accessibility(DW_ACCESS_public)
    7114              DW$574  .dwtag  DW_TAG_member, DW_AT_type(*DW$T$11)
    7115                      .dwattr DW$574, DW_AT_name("alarmreflash"), DW_AT_symbol_name("_alarmreflash")
    7116                      .dwattr DW$574, DW_AT_data_member_location[DW_OP_plus_uconst 0x32]
    7117                      .dwattr DW$574, DW_AT_accessibility(DW_ACCESS_public)
    7118              DW$575  .dwtag  DW_TAG_member, DW_AT_type(*DW$T$11)
    7119                      .dwattr DW$575, DW_AT_name("slowdownreflash"), DW_AT_symbol_name("_slowdownreflash")
    7120                      .dwattr DW$575, DW_AT_data_member_location[DW_OP_plus_uconst 0x33]
    7121                      .dwattr DW$575, DW_AT_accessibility(DW_ACCESS_public)
    7122              DW$576  .dwtag  DW_TAG_member, DW_AT_type(*DW$T$11)
    7123                      .dwattr DW$576, DW_AT_name("wiorqst"), DW_AT_symbol_name("_wiorqst")
    7124                      .dwattr DW$576, DW_AT_data_member_location[DW_OP_plus_uconst 0x34]
    7125                      .dwattr DW$576, DW_AT_accessibility(DW_ACCESS_public)
TMS320C2000 COFF Assembler PC v4.1.3 Thu Aug 18 12:16:20 2016

Tools Copyright (c) 1996-2006 Texas Instruments Incorporated
mancal.asm                                                           PAGE  150

    7126              DW$577  .dwtag  DW_TAG_member, DW_AT_type(*DW$T$11)
    7127                      .dwattr DW$577, DW_AT_name("rpmtimeout"), DW_AT_symbol_name("_rpmtimeout")
    7128                      .dwattr DW$577, DW_AT_data_member_location[DW_OP_plus_uconst 0x35]
    7129                      .dwattr DW$577, DW_AT_accessibility(DW_ACCESS_public)
    7130              DW$578  .dwtag  DW_TAG_member, DW_AT_type(*DW$T$11)
    7131                      .dwattr DW$578, DW_AT_name("analogoor"), DW_AT_symbol_name("_analogoor")
    7132                      .dwattr DW$578, DW_AT_data_member_location[DW_OP_plus_uconst 0x36]
    7133                      .dwattr DW$578, DW_AT_accessibility(DW_ACCESS_public)
    7134              DW$579  .dwtag  DW_TAG_member, DW_AT_type(*DW$T$11)
    7135                      .dwattr DW$579, DW_AT_name("motioncal"), DW_AT_symbol_name("_motioncal")
    7136                      .dwattr DW$579, DW_AT_data_member_location[DW_OP_plus_uconst 0x37]
    7137                      .dwattr DW$579, DW_AT_accessibility(DW_ACCESS_public)
    7138              DW$580  .dwtag  DW_TAG_member, DW_AT_type(*DW$T$11)
    7139                      .dwattr DW$580, DW_AT_name("framcheck"), DW_AT_symbol_name("_framcheck")
    7140                      .dwattr DW$580, DW_AT_data_member_location[DW_OP_plus_uconst 0x38]
    7141                      .dwattr DW$580, DW_AT_accessibility(DW_ACCESS_public)
    7142              DW$581  .dwtag  DW_TAG_member, DW_AT_type(*DW$T$11)
    7143                      .dwattr DW$581, DW_AT_name("pcmodbus"), DW_AT_symbol_name("_pcmodbus")
    7144                      .dwattr DW$581, DW_AT_data_member_location[DW_OP_plus_uconst 0x39]
    7145                      .dwattr DW$581, DW_AT_accessibility(DW_ACCESS_public)
    7146              DW$582  .dwtag  DW_TAG_member, DW_AT_type(*DW$T$11)
    7147                      .dwattr DW$582, DW_AT_name("statusreflash"), DW_AT_symbol_name("_statusreflash")
    7148                      .dwattr DW$582, DW_AT_data_member_location[DW_OP_plus_uconst 0x3a]
    7149                      .dwattr DW$582, DW_AT_accessibility(DW_ACCESS_public)
    7150              DW$583  .dwtag  DW_TAG_member, DW_AT_type(*DW$T$13)
    7151                      .dwattr DW$583, DW_AT_name("prewarn"), DW_AT_symbol_name("_prewarn")
    7152                      .dwattr DW$583, DW_AT_data_member_location[DW_OP_plus_uconst 0x3c]
    7153                      .dwattr DW$583, DW_AT_accessibility(DW_ACCESS_public)
    7154              DW$584  .dwtag  DW_TAG_member, DW_AT_type(*DW$T$11)
    7155                      .dwattr DW$584, DW_AT_name("clocktofram"), DW_AT_symbol_name("_clocktofram")
    7156                      .dwattr DW$584, DW_AT_data_member_location[DW_OP_plus_uconst 0x3e]
    7157                      .dwattr DW$584, DW_AT_accessibility(DW_ACCESS_public)
    7158              DW$585  .dwtag  DW_TAG_member, DW_AT_type(*DW$T$11)
    7159                      .dwattr DW$585, DW_AT_name("debugrapidfast"), DW_AT_symbol_name("_debugrapidfast")
    7160                      .dwattr DW$585, DW_AT_data_member_location[DW_OP_plus_uconst 0x3f]
    7161                      .dwattr DW$585, DW_AT_accessibility(DW_ACCESS_public)
    7162              DW$586  .dwtag  DW_TAG_member, DW_AT_type(*DW$T$11)
    7163                      .dwattr DW$586, DW_AT_name("debugupdate"), DW_AT_symbol_name("_debugupdate")
    7164                      .dwattr DW$586, DW_AT_data_member_location[DW_OP_plus_uconst 0x40]
    7165                      .dwattr DW$586, DW_AT_accessibility(DW_ACCESS_public)
    7166              DW$587  .dwtag  DW_TAG_member, DW_AT_type(*DW$T$11)
    7167                      .dwattr DW$587, DW_AT_name("dircountdown"), DW_AT_symbol_name("_dircountdown")
    7168                      .dwattr DW$587, DW_AT_data_member_location[DW_OP_plus_uconst 0x41]
    7169                      .dwattr DW$587, DW_AT_accessibility(DW_ACCESS_public)
    7170              DW$588  .dwtag  DW_TAG_member, DW_AT_type(*DW$T$11)
    7171                      .dwattr DW$588, DW_AT_name("startup"), DW_AT_symbol_name("_startup")
    7172                      .dwattr DW$588, DW_AT_data_member_location[DW_OP_plus_uconst 0x42]
    7173                      .dwattr DW$588, DW_AT_accessibility(DW_ACCESS_public)
    7174              DW$589  .dwtag  DW_TAG_member, DW_AT_type(*DW$T$11)
    7175                      .dwattr DW$589, DW_AT_name("analogsettle"), DW_AT_symbol_name("_analogsettle")
    7176                      .dwattr DW$589, DW_AT_data_member_location[DW_OP_plus_uconst 0x43]
    7177                      .dwattr DW$589, DW_AT_accessibility(DW_ACCESS_public)
    7178              DW$590  .dwtag  DW_TAG_member, DW_AT_type(*DW$T$11)
    7179                      .dwattr DW$590, DW_AT_name("reprogram"), DW_AT_symbol_name("_reprogram")
    7180                      .dwattr DW$590, DW_AT_data_member_location[DW_OP_plus_uconst 0x44]
TMS320C2000 COFF Assembler PC v4.1.3 Thu Aug 18 12:16:20 2016

Tools Copyright (c) 1996-2006 Texas Instruments Incorporated
mancal.asm                                                           PAGE  151

    7181                      .dwattr DW$590, DW_AT_accessibility(DW_ACCESS_public)
    7182              DW$591  .dwtag  DW_TAG_member, DW_AT_type(*DW$T$11)
    7183                      .dwattr DW$591, DW_AT_name("reprogramtimeout"), DW_AT_symbol_name("_reprogramtimeout")
    7184                      .dwattr DW$591, DW_AT_data_member_location[DW_OP_plus_uconst 0x45]
    7185                      .dwattr DW$591, DW_AT_accessibility(DW_ACCESS_public)
    7186              DW$592  .dwtag  DW_TAG_member, DW_AT_type(*DW$T$11)
    7187                      .dwattr DW$592, DW_AT_name("dcmodestayalive"), DW_AT_symbol_name("_dcmodestayalive")
    7188                      .dwattr DW$592, DW_AT_data_member_location[DW_OP_plus_uconst 0x46]
    7189                      .dwattr DW$592, DW_AT_accessibility(DW_ACCESS_public)
    7190              DW$593  .dwtag  DW_TAG_member, DW_AT_type(*DW$T$11)
    7191                      .dwattr DW$593, DW_AT_name("biteventchange"), DW_AT_symbol_name("_biteventchange")
    7192                      .dwattr DW$593, DW_AT_data_member_location[DW_OP_plus_uconst 0x47]
    7193                      .dwattr DW$593, DW_AT_accessibility(DW_ACCESS_public)
    7194              DW$594  .dwtag  DW_TAG_member, DW_AT_type(*DW$T$11)
    7195                      .dwattr DW$594, DW_AT_name("iSensorReplace"), DW_AT_symbol_name("_iSensorReplace")
    7196                      .dwattr DW$594, DW_AT_data_member_location[DW_OP_plus_uconst 0x48]
    7197                      .dwattr DW$594, DW_AT_accessibility(DW_ACCESS_public)
    7198              DW$595  .dwtag  DW_TAG_member, DW_AT_type(*DW$T$13)
    7199                      .dwattr DW$595, DW_AT_name("deltarpm15Delay"), DW_AT_symbol_name("_deltarpm15Delay")
    7200                      .dwattr DW$595, DW_AT_data_member_location[DW_OP_plus_uconst 0x4a]
    7201                      .dwattr DW$595, DW_AT_accessibility(DW_ACCESS_public)
    7202                      .dwendtag DW$T$26
    7203              
    7204              
    7205              DW$T$27 .dwtag  DW_TAG_structure_type
    7206                      .dwattr DW$T$27, DW_AT_byte_size(0x01)
    7207              DW$596  .dwtag  DW_TAG_member, DW_AT_type(*DW$T$11)
    7208                      .dwattr DW$596, DW_AT_name("newval"), DW_AT_symbol_name("_newval")
    7209                      .dwattr DW$596, DW_AT_bit_offset(0x0f), DW_AT_bit_size(0x01)
    7210                      .dwattr DW$596, DW_AT_data_member_location[DW_OP_plus_uconst 0x0]
    7211                      .dwattr DW$596, DW_AT_accessibility(DW_ACCESS_public)
    7212              DW$597  .dwtag  DW_TAG_member, DW_AT_type(*DW$T$11)
    7213                      .dwattr DW$597, DW_AT_name("calmode"), DW_AT_symbol_name("_calmode")
    7214                      .dwattr DW$597, DW_AT_bit_offset(0x0e), DW_AT_bit_size(0x01)
    7215                      .dwattr DW$597, DW_AT_data_member_location[DW_OP_plus_uconst 0x0]
    7216                      .dwattr DW$597, DW_AT_accessibility(DW_ACCESS_public)
    7217              DW$598  .dwtag  DW_TAG_member, DW_AT_type(*DW$T$11)
    7218                      .dwattr DW$598, DW_AT_name("startcal"), DW_AT_symbol_name("_startcal")
    7219                      .dwattr DW$598, DW_AT_bit_offset(0x0d), DW_AT_bit_size(0x01)
    7220                      .dwattr DW$598, DW_AT_data_member_location[DW_OP_plus_uconst 0x0]
    7221                      .dwattr DW$598, DW_AT_accessibility(DW_ACCESS_public)
    7222              DW$599  .dwtag  DW_TAG_member, DW_AT_type(*DW$T$11)
    7223                      .dwattr DW$599, DW_AT_name("newvalspu2"), DW_AT_symbol_name("_newvalspu2")
    7224                      .dwattr DW$599, DW_AT_bit_offset(0x0c), DW_AT_bit_size(0x01)
    7225                      .dwattr DW$599, DW_AT_data_member_location[DW_OP_plus_uconst 0x0]
    7226                      .dwattr DW$599, DW_AT_accessibility(DW_ACCESS_public)
    7227              DW$600  .dwtag  DW_TAG_member, DW_AT_type(*DW$T$11)
    7228                      .dwattr DW$600, DW_AT_name("unused"), DW_AT_symbol_name("_unused")
    7229                      .dwattr DW$600, DW_AT_bit_offset(0x00), DW_AT_bit_size(0x0c)
    7230                      .dwattr DW$600, DW_AT_data_member_location[DW_OP_plus_uconst 0x0]
    7231                      .dwattr DW$600, DW_AT_accessibility(DW_ACCESS_public)
    7232                      .dwendtag DW$T$27
    7233              
    7234              
    7235              DW$T$28 .dwtag  DW_TAG_structure_type
TMS320C2000 COFF Assembler PC v4.1.3 Thu Aug 18 12:16:20 2016

Tools Copyright (c) 1996-2006 Texas Instruments Incorporated
mancal.asm                                                           PAGE  152

    7236                      .dwattr DW$T$28, DW_AT_byte_size(0x01)
    7237              DW$601  .dwtag  DW_TAG_member, DW_AT_type(*DW$T$11)
    7238                      .dwattr DW$601, DW_AT_name("slowdowncntrl"), DW_AT_symbol_name("_slowdowncntrl")
    7239                      .dwattr DW$601, DW_AT_bit_offset(0x0f), DW_AT_bit_size(0x01)
    7240                      .dwattr DW$601, DW_AT_data_member_location[DW_OP_plus_uconst 0x0]
    7241                      .dwattr DW$601, DW_AT_accessibility(DW_ACCESS_public)
    7242              DW$602  .dwtag  DW_TAG_member, DW_AT_type(*DW$T$11)
    7243                      .dwattr DW$602, DW_AT_name("unused"), DW_AT_symbol_name("_unused")
    7244                      .dwattr DW$602, DW_AT_bit_offset(0x00), DW_AT_bit_size(0x0f)
    7245                      .dwattr DW$602, DW_AT_data_member_location[DW_OP_plus_uconst 0x0]
    7246                      .dwattr DW$602, DW_AT_accessibility(DW_ACCESS_public)
    7247                      .dwendtag DW$T$28
    7248              
    7249              
    7250              DW$T$32 .dwtag  DW_TAG_structure_type
    7251                      .dwattr DW$T$32, DW_AT_name("tag_sensorstruct")
    7252                      .dwattr DW$T$32, DW_AT_byte_size(0x12)
    7253              DW$603  .dwtag  DW_TAG_member, DW_AT_type(*DW$T$30)
    7254                      .dwattr DW$603, DW_AT_name("status1"), DW_AT_symbol_name("_status1")
    7255                      .dwattr DW$603, DW_AT_data_member_location[DW_OP_plus_uconst 0x0]
    7256                      .dwattr DW$603, DW_AT_accessibility(DW_ACCESS_public)
    7257              DW$604  .dwtag  DW_TAG_member, DW_AT_type(*DW$T$31)
    7258                      .dwattr DW$604, DW_AT_name("status2"), DW_AT_symbol_name("_status2")
    7259                      .dwattr DW$604, DW_AT_data_member_location[DW_OP_plus_uconst 0x1]
    7260                      .dwattr DW$604, DW_AT_accessibility(DW_ACCESS_public)
    7261              DW$605  .dwtag  DW_TAG_member, DW_AT_type(*DW$T$11)
    7262                      .dwattr DW$605, DW_AT_name("newval"), DW_AT_symbol_name("_newval")
    7263                      .dwattr DW$605, DW_AT_data_member_location[DW_OP_plus_uconst 0x2]
    7264                      .dwattr DW$605, DW_AT_accessibility(DW_ACCESS_public)
    7265              DW$606  .dwtag  DW_TAG_member, DW_AT_type(*DW$T$10)
    7266                      .dwattr DW$606, DW_AT_name("val"), DW_AT_symbol_name("_val")
    7267                      .dwattr DW$606, DW_AT_data_member_location[DW_OP_plus_uconst 0x3]
    7268                      .dwattr DW$606, DW_AT_accessibility(DW_ACCESS_public)
    7269              DW$607  .dwtag  DW_TAG_member, DW_AT_type(*DW$T$10)
    7270                      .dwattr DW$607, DW_AT_name("immediateval"), DW_AT_symbol_name("_immediateval")
    7271                      .dwattr DW$607, DW_AT_data_member_location[DW_OP_plus_uconst 0x4]
    7272                      .dwattr DW$607, DW_AT_accessibility(DW_ACCESS_public)
    7273              DW$608  .dwtag  DW_TAG_member, DW_AT_type(*DW$T$10)
    7274                      .dwattr DW$608, DW_AT_name("initialval"), DW_AT_symbol_name("_initialval")
    7275                      .dwattr DW$608, DW_AT_data_member_location[DW_OP_plus_uconst 0x5]
    7276                      .dwattr DW$608, DW_AT_accessibility(DW_ACCESS_public)
    7277              DW$609  .dwtag  DW_TAG_member, DW_AT_type(*DW$T$10)
    7278                      .dwattr DW$609, DW_AT_name("precomp"), DW_AT_symbol_name("_precomp")
    7279                      .dwattr DW$609, DW_AT_data_member_location[DW_OP_plus_uconst 0x6]
    7280                      .dwattr DW$609, DW_AT_accessibility(DW_ACCESS_public)
    7281              DW$610  .dwtag  DW_TAG_member, DW_AT_type(*DW$T$10)
    7282                      .dwattr DW$610, DW_AT_name("postcomp"), DW_AT_symbol_name("_postcomp")
    7283                      .dwattr DW$610, DW_AT_data_member_location[DW_OP_plus_uconst 0x7]
    7284                      .dwattr DW$610, DW_AT_accessibility(DW_ACCESS_public)
    7285              DW$611  .dwtag  DW_TAG_member, DW_AT_type(*DW$T$16)
    7286                      .dwattr DW$611, DW_AT_name("postfilter"), DW_AT_symbol_name("_postfilter")
    7287                      .dwattr DW$611, DW_AT_data_member_location[DW_OP_plus_uconst 0x8]
    7288                      .dwattr DW$611, DW_AT_accessibility(DW_ACCESS_public)
    7289              DW$612  .dwtag  DW_TAG_member, DW_AT_type(*DW$T$10)
    7290                      .dwattr DW$612, DW_AT_name("endresult"), DW_AT_symbol_name("_endresult")
TMS320C2000 COFF Assembler PC v4.1.3 Thu Aug 18 12:16:20 2016

Tools Copyright (c) 1996-2006 Texas Instruments Incorporated
mancal.asm                                                           PAGE  153

    7291                      .dwattr DW$612, DW_AT_data_member_location[DW_OP_plus_uconst 0xa]
    7292                      .dwattr DW$612, DW_AT_accessibility(DW_ACCESS_public)
    7293              DW$613  .dwtag  DW_TAG_member, DW_AT_type(*DW$T$10)
    7294                      .dwattr DW$613, DW_AT_name("deviation"), DW_AT_symbol_name("_deviation")
    7295                      .dwattr DW$613, DW_AT_data_member_location[DW_OP_plus_uconst 0xb]
    7296                      .dwattr DW$613, DW_AT_accessibility(DW_ACCESS_public)
    7297              DW$614  .dwtag  DW_TAG_member, DW_AT_type(*DW$T$10)
    7298                      .dwattr DW$614, DW_AT_name("min"), DW_AT_symbol_name("_min")
    7299                      .dwattr DW$614, DW_AT_data_member_location[DW_OP_plus_uconst 0xc]
    7300                      .dwattr DW$614, DW_AT_accessibility(DW_ACCESS_public)
    7301              DW$615  .dwtag  DW_TAG_member, DW_AT_type(*DW$T$10)
    7302                      .dwattr DW$615, DW_AT_name("max"), DW_AT_symbol_name("_max")
    7303                      .dwattr DW$615, DW_AT_data_member_location[DW_OP_plus_uconst 0xd]
    7304                      .dwattr DW$615, DW_AT_accessibility(DW_ACCESS_public)
    7305              DW$616  .dwtag  DW_TAG_member, DW_AT_type(*DW$T$10)
    7306                      .dwattr DW$616, DW_AT_name("devmin"), DW_AT_symbol_name("_devmin")
    7307                      .dwattr DW$616, DW_AT_data_member_location[DW_OP_plus_uconst 0xe]
    7308                      .dwattr DW$616, DW_AT_accessibility(DW_ACCESS_public)
    7309              DW$617  .dwtag  DW_TAG_member, DW_AT_type(*DW$T$10)
    7310                      .dwattr DW$617, DW_AT_name("devmax"), DW_AT_symbol_name("_devmax")
    7311                      .dwattr DW$617, DW_AT_data_member_location[DW_OP_plus_uconst 0xf]
    7312                      .dwattr DW$617, DW_AT_accessibility(DW_ACCESS_public)
    7313              DW$618  .dwtag  DW_TAG_member, DW_AT_type(*DW$T$11)
    7314                      .dwattr DW$618, DW_AT_name("rpm"), DW_AT_symbol_name("_rpm")
    7315                      .dwattr DW$618, DW_AT_data_member_location[DW_OP_plus_uconst 0x10]
    7316                      .dwattr DW$618, DW_AT_accessibility(DW_ACCESS_public)
    7317              DW$619  .dwtag  DW_TAG_member, DW_AT_type(*DW$T$10)
    7318                      .dwattr DW$619, DW_AT_name("prt"), DW_AT_symbol_name("_prt")
    7319                      .dwattr DW$619, DW_AT_data_member_location[DW_OP_plus_uconst 0x11]
    7320                      .dwattr DW$619, DW_AT_accessibility(DW_ACCESS_public)
    7321                      .dwendtag DW$T$32
    7322              
    7323              
    7324              DW$T$33 .dwtag  DW_TAG_structure_type
    7325                      .dwattr DW$T$33, DW_AT_byte_size(0x08)
    7326              DW$620  .dwtag  DW_TAG_member, DW_AT_type(*DW$T$11)
    7327                      .dwattr DW$620, DW_AT_name("applyoffset"), DW_AT_symbol_name("_applyoffset")
    7328                      .dwattr DW$620, DW_AT_data_member_location[DW_OP_plus_uconst 0x0]
    7329                      .dwattr DW$620, DW_AT_accessibility(DW_ACCESS_public)
    7330              DW$621  .dwtag  DW_TAG_member, DW_AT_type(*DW$T$11)
    7331                      .dwattr DW$621, DW_AT_name("sensorcompensation"), DW_AT_symbol_name("_sensorcompensation")
    7332                      .dwattr DW$621, DW_AT_data_member_location[DW_OP_plus_uconst 0x1]
    7333                      .dwattr DW$621, DW_AT_accessibility(DW_ACCESS_public)
    7334              DW$622  .dwtag  DW_TAG_member, DW_AT_type(*DW$T$11)
    7335                      .dwattr DW$622, DW_AT_name("sensornoiseremoval"), DW_AT_symbol_name("_sensornoiseremoval")
    7336                      .dwattr DW$622, DW_AT_data_member_location[DW_OP_plus_uconst 0x2]
    7337                      .dwattr DW$622, DW_AT_accessibility(DW_ACCESS_public)
    7338              DW$623  .dwtag  DW_TAG_member, DW_AT_type(*DW$T$11)
    7339                      .dwattr DW$623, DW_AT_name("sensordeviation"), DW_AT_symbol_name("_sensordeviation")
    7340                      .dwattr DW$623, DW_AT_data_member_location[DW_OP_plus_uconst 0x3]
    7341                      .dwattr DW$623, DW_AT_accessibility(DW_ACCESS_public)
    7342              DW$624  .dwtag  DW_TAG_member, DW_AT_type(*DW$T$11)
    7343                      .dwattr DW$624, DW_AT_name("cylinderaverage"), DW_AT_symbol_name("_cylinderaverage")
    7344                      .dwattr DW$624, DW_AT_data_member_location[DW_OP_plus_uconst 0x4]
    7345                      .dwattr DW$624, DW_AT_accessibility(DW_ACCESS_public)
TMS320C2000 COFF Assembler PC v4.1.3 Thu Aug 18 12:16:20 2016

Tools Copyright (c) 1996-2006 Texas Instruments Incorporated
mancal.asm                                                           PAGE  154

    7346              DW$625  .dwtag  DW_TAG_member, DW_AT_type(*DW$T$11)
    7347                      .dwattr DW$625, DW_AT_name("cylinderdeviation"), DW_AT_symbol_name("_cylinderdeviation")
    7348                      .dwattr DW$625, DW_AT_data_member_location[DW_OP_plus_uconst 0x5]
    7349                      .dwattr DW$625, DW_AT_accessibility(DW_ACCESS_public)
    7350              DW$626  .dwtag  DW_TAG_member, DW_AT_type(*DW$T$11)
    7351                      .dwattr DW$626, DW_AT_name("useroughcal"), DW_AT_symbol_name("_useroughcal")
    7352                      .dwattr DW$626, DW_AT_data_member_location[DW_OP_plus_uconst 0x6]
    7353                      .dwattr DW$626, DW_AT_accessibility(DW_ACCESS_public)
    7354              DW$627  .dwtag  DW_TAG_member, DW_AT_type(*DW$T$11)
    7355                      .dwattr DW$627, DW_AT_name("vincheckenabled"), DW_AT_symbol_name("_vincheckenabled")
    7356                      .dwattr DW$627, DW_AT_data_member_location[DW_OP_plus_uconst 0x7]
    7357                      .dwattr DW$627, DW_AT_accessibility(DW_ACCESS_public)
    7358                      .dwendtag DW$T$33
    7359              
    7360              
    7361              DW$T$35 .dwtag  DW_TAG_structure_type
    7362                      .dwattr DW$T$35, DW_AT_name("tag_manrefstruct")
    7363                      .dwattr DW$T$35, DW_AT_byte_size(0x0a)
    7364              DW$628  .dwtag  DW_TAG_member, DW_AT_type(*DW$T$16)
    7365                      .dwattr DW$628, DW_AT_name("reflevel"), DW_AT_symbol_name("_reflevel")
    7366                      .dwattr DW$628, DW_AT_data_member_location[DW_OP_plus_uconst 0x0]
    7367                      .dwattr DW$628, DW_AT_accessibility(DW_ACCESS_public)
    7368              DW$629  .dwtag  DW_TAG_member, DW_AT_type(*DW$T$16)
    7369                      .dwattr DW$629, DW_AT_name("presentstate"), DW_AT_symbol_name("_presentstate")
    7370                      .dwattr DW$629, DW_AT_data_member_location[DW_OP_plus_uconst 0x2]
    7371                      .dwattr DW$629, DW_AT_accessibility(DW_ACCESS_public)
    7372              DW$630  .dwtag  DW_TAG_member, DW_AT_type(*DW$T$16)
    7373                      .dwattr DW$630, DW_AT_name("refvalue"), DW_AT_symbol_name("_refvalue")
    7374                      .dwattr DW$630, DW_AT_data_member_location[DW_OP_plus_uconst 0x4]
    7375                      .dwattr DW$630, DW_AT_accessibility(DW_ACCESS_public)
    7376              DW$631  .dwtag  DW_TAG_member, DW_AT_type(*DW$T$10)
    7377                      .dwattr DW$631, DW_AT_name("reflevel_int"), DW_AT_symbol_name("_reflevel_int")
    7378                      .dwattr DW$631, DW_AT_data_member_location[DW_OP_plus_uconst 0x6]
    7379                      .dwattr DW$631, DW_AT_accessibility(DW_ACCESS_public)
    7380              DW$632  .dwtag  DW_TAG_member, DW_AT_type(*DW$T$10)
    7381                      .dwattr DW$632, DW_AT_name("presentstate_int"), DW_AT_symbol_name("_presentstate_int")
    7382                      .dwattr DW$632, DW_AT_data_member_location[DW_OP_plus_uconst 0x7]
    7383                      .dwattr DW$632, DW_AT_accessibility(DW_ACCESS_public)
    7384              DW$633  .dwtag  DW_TAG_member, DW_AT_type(*DW$T$10)
    7385                      .dwattr DW$633, DW_AT_name("refvalue_int"), DW_AT_symbol_name("_refvalue_int")
    7386                      .dwattr DW$633, DW_AT_data_member_location[DW_OP_plus_uconst 0x8]
    7387                      .dwattr DW$633, DW_AT_accessibility(DW_ACCESS_public)
    7388                      .dwendtag DW$T$35
    7389              
    7390              
    7391              DW$T$36 .dwtag  DW_TAG_structure_type
    7392                      .dwattr DW$T$36, DW_AT_name("tag_manrefsumstruct")
    7393                      .dwattr DW$T$36, DW_AT_byte_size(0x02)
    7394              DW$634  .dwtag  DW_TAG_member, DW_AT_type(*DW$T$10)
    7395                      .dwattr DW$634, DW_AT_name("cylsum"), DW_AT_symbol_name("_cylsum")
    7396                      .dwattr DW$634, DW_AT_data_member_location[DW_OP_plus_uconst 0x0]
    7397                      .dwattr DW$634, DW_AT_accessibility(DW_ACCESS_public)
    7398              DW$635  .dwtag  DW_TAG_member, DW_AT_type(*DW$T$10)
    7399                      .dwattr DW$635, DW_AT_name("mbnsum"), DW_AT_symbol_name("_mbnsum")
    7400                      .dwattr DW$635, DW_AT_data_member_location[DW_OP_plus_uconst 0x1]
TMS320C2000 COFF Assembler PC v4.1.3 Thu Aug 18 12:16:20 2016

Tools Copyright (c) 1996-2006 Texas Instruments Incorporated
mancal.asm                                                           PAGE  155

    7401                      .dwattr DW$635, DW_AT_accessibility(DW_ACCESS_public)
    7402                      .dwendtag DW$T$36
    7403              
    7404              
    7405              DW$T$40 .dwtag  DW_TAG_structure_type
    7406                      .dwattr DW$T$40, DW_AT_name("tag_sdcarddirstruct")
    7407                      .dwattr DW$T$40, DW_AT_byte_size(0x36)
    7408              DW$636  .dwtag  DW_TAG_member, DW_AT_type(*DW$T$39)
    7409                      .dwattr DW$636, DW_AT_name("firstcaldir"), DW_AT_symbol_name("_firstcaldir")
    7410                      .dwattr DW$636, DW_AT_data_member_location[DW_OP_plus_uconst 0x0]
    7411                      .dwattr DW$636, DW_AT_accessibility(DW_ACCESS_public)
    7412              DW$637  .dwtag  DW_TAG_member, DW_AT_type(*DW$T$39)
    7413                      .dwattr DW$637, DW_AT_name("roughcaldir"), DW_AT_symbol_name("_roughcaldir")
    7414                      .dwattr DW$637, DW_AT_data_member_location[DW_OP_plus_uconst 0x9]
    7415                      .dwattr DW$637, DW_AT_accessibility(DW_ACCESS_public)
    7416              DW$638  .dwtag  DW_TAG_member, DW_AT_type(*DW$T$39)
    7417                      .dwattr DW$638, DW_AT_name("finecaldir"), DW_AT_symbol_name("_finecaldir")
    7418                      .dwattr DW$638, DW_AT_data_member_location[DW_OP_plus_uconst 0x12]
    7419                      .dwattr DW$638, DW_AT_accessibility(DW_ACCESS_public)
    7420              DW$639  .dwtag  DW_TAG_member, DW_AT_type(*DW$T$39)
    7421                      .dwattr DW$639, DW_AT_name("configdir"), DW_AT_symbol_name("_configdir")
    7422                      .dwattr DW$639, DW_AT_data_member_location[DW_OP_plus_uconst 0x1b]
    7423                      .dwattr DW$639, DW_AT_accessibility(DW_ACCESS_public)
    7424              DW$640  .dwtag  DW_TAG_member, DW_AT_type(*DW$T$39)
    7425                      .dwattr DW$640, DW_AT_name("sterm"), DW_AT_symbol_name("_sterm")
    7426                      .dwattr DW$640, DW_AT_data_member_location[DW_OP_plus_uconst 0x24]
    7427                      .dwattr DW$640, DW_AT_accessibility(DW_ACCESS_public)
    7428              DW$641  .dwtag  DW_TAG_member, DW_AT_type(*DW$T$39)
    7429                      .dwattr DW$641, DW_AT_name("lterm"), DW_AT_symbol_name("_lterm")
    7430                      .dwattr DW$641, DW_AT_data_member_location[DW_OP_plus_uconst 0x2d]
    7431                      .dwattr DW$641, DW_AT_accessibility(DW_ACCESS_public)
    7432                      .dwendtag DW$T$40
    7433              
    7434              
    7435              DW$T$41 .dwtag  DW_TAG_structure_type
    7436                      .dwattr DW$T$41, DW_AT_byte_size(0x01)
    7437              DW$642  .dwtag  DW_TAG_member, DW_AT_type(*DW$T$10)
    7438                      .dwattr DW$642, DW_AT_name("settings"), DW_AT_symbol_name("_settings")
    7439                      .dwattr DW$642, DW_AT_bit_offset(0x0f), DW_AT_bit_size(0x01)
    7440                      .dwattr DW$642, DW_AT_data_member_location[DW_OP_plus_uconst 0x0]
    7441                      .dwattr DW$642, DW_AT_accessibility(DW_ACCESS_public)
    7442              DW$643  .dwtag  DW_TAG_member, DW_AT_type(*DW$T$10)
    7443                      .dwattr DW$643, DW_AT_name("sensorstatus"), DW_AT_symbol_name("_sensorstatus")
    7444                      .dwattr DW$643, DW_AT_bit_offset(0x0e), DW_AT_bit_size(0x01)
    7445                      .dwattr DW$643, DW_AT_data_member_location[DW_OP_plus_uconst 0x0]
    7446                      .dwattr DW$643, DW_AT_accessibility(DW_ACCESS_public)
    7447              DW$644  .dwtag  DW_TAG_member, DW_AT_type(*DW$T$10)
    7448                      .dwattr DW$644, DW_AT_name("offsets"), DW_AT_symbol_name("_offsets")
    7449                      .dwattr DW$644, DW_AT_bit_offset(0x0d), DW_AT_bit_size(0x01)
    7450                      .dwattr DW$644, DW_AT_data_member_location[DW_OP_plus_uconst 0x0]
    7451                      .dwattr DW$644, DW_AT_accessibility(DW_ACCESS_public)
    7452              DW$645  .dwtag  DW_TAG_member, DW_AT_type(*DW$T$10)
    7453                      .dwattr DW$645, DW_AT_name("mantable"), DW_AT_symbol_name("_mantable")
    7454                      .dwattr DW$645, DW_AT_bit_offset(0x0c), DW_AT_bit_size(0x01)
    7455                      .dwattr DW$645, DW_AT_data_member_location[DW_OP_plus_uconst 0x0]
TMS320C2000 COFF Assembler PC v4.1.3 Thu Aug 18 12:16:20 2016

Tools Copyright (c) 1996-2006 Texas Instruments Incorporated
mancal.asm                                                           PAGE  156

    7456                      .dwattr DW$645, DW_AT_accessibility(DW_ACCESS_public)
    7457              DW$646  .dwtag  DW_TAG_member, DW_AT_type(*DW$T$10)
    7458                      .dwattr DW$646, DW_AT_name("calibtd"), DW_AT_symbol_name("_calibtd")
    7459                      .dwattr DW$646, DW_AT_bit_offset(0x0b), DW_AT_bit_size(0x01)
    7460                      .dwattr DW$646, DW_AT_data_member_location[DW_OP_plus_uconst 0x0]
    7461                      .dwattr DW$646, DW_AT_accessibility(DW_ACCESS_public)
    7462              DW$647  .dwtag  DW_TAG_member, DW_AT_type(*DW$T$10)
    7463                      .dwattr DW$647, DW_AT_name("unused6"), DW_AT_symbol_name("_unused6")
    7464                      .dwattr DW$647, DW_AT_bit_offset(0x0a), DW_AT_bit_size(0x01)
    7465                      .dwattr DW$647, DW_AT_data_member_location[DW_OP_plus_uconst 0x0]
    7466                      .dwattr DW$647, DW_AT_accessibility(DW_ACCESS_public)
    7467              DW$648  .dwtag  DW_TAG_member, DW_AT_type(*DW$T$10)
    7468                      .dwattr DW$648, DW_AT_name("unused7"), DW_AT_symbol_name("_unused7")
    7469                      .dwattr DW$648, DW_AT_bit_offset(0x09), DW_AT_bit_size(0x01)
    7470                      .dwattr DW$648, DW_AT_data_member_location[DW_OP_plus_uconst 0x0]
    7471                      .dwattr DW$648, DW_AT_accessibility(DW_ACCESS_public)
    7472              DW$649  .dwtag  DW_TAG_member, DW_AT_type(*DW$T$10)
    7473                      .dwattr DW$649, DW_AT_name("unused8"), DW_AT_symbol_name("_unused8")
    7474                      .dwattr DW$649, DW_AT_bit_offset(0x08), DW_AT_bit_size(0x01)
    7475                      .dwattr DW$649, DW_AT_data_member_location[DW_OP_plus_uconst 0x0]
    7476                      .dwattr DW$649, DW_AT_accessibility(DW_ACCESS_public)
    7477              DW$650  .dwtag  DW_TAG_member, DW_AT_type(*DW$T$10)
    7478                      .dwattr DW$650, DW_AT_name("unused9"), DW_AT_symbol_name("_unused9")
    7479                      .dwattr DW$650, DW_AT_bit_offset(0x07), DW_AT_bit_size(0x01)
    7480                      .dwattr DW$650, DW_AT_data_member_location[DW_OP_plus_uconst 0x0]
    7481                      .dwattr DW$650, DW_AT_accessibility(DW_ACCESS_public)
    7482              DW$651  .dwtag  DW_TAG_member, DW_AT_type(*DW$T$10)
    7483                      .dwattr DW$651, DW_AT_name("unused10"), DW_AT_symbol_name("_unused10")
    7484                      .dwattr DW$651, DW_AT_bit_offset(0x06), DW_AT_bit_size(0x01)
    7485                      .dwattr DW$651, DW_AT_data_member_location[DW_OP_plus_uconst 0x0]
    7486                      .dwattr DW$651, DW_AT_accessibility(DW_ACCESS_public)
    7487              DW$652  .dwtag  DW_TAG_member, DW_AT_type(*DW$T$10)
    7488                      .dwattr DW$652, DW_AT_name("unused11"), DW_AT_symbol_name("_unused11")
    7489                      .dwattr DW$652, DW_AT_bit_offset(0x05), DW_AT_bit_size(0x01)
    7490                      .dwattr DW$652, DW_AT_data_member_location[DW_OP_plus_uconst 0x0]
    7491                      .dwattr DW$652, DW_AT_accessibility(DW_ACCESS_public)
    7492              DW$653  .dwtag  DW_TAG_member, DW_AT_type(*DW$T$10)
    7493                      .dwattr DW$653, DW_AT_name("unused12"), DW_AT_symbol_name("_unused12")
    7494                      .dwattr DW$653, DW_AT_bit_offset(0x04), DW_AT_bit_size(0x01)
    7495                      .dwattr DW$653, DW_AT_data_member_location[DW_OP_plus_uconst 0x0]
    7496                      .dwattr DW$653, DW_AT_accessibility(DW_ACCESS_public)
    7497              DW$654  .dwtag  DW_TAG_member, DW_AT_type(*DW$T$10)
    7498                      .dwattr DW$654, DW_AT_name("unused13"), DW_AT_symbol_name("_unused13")
    7499                      .dwattr DW$654, DW_AT_bit_offset(0x03), DW_AT_bit_size(0x01)
    7500                      .dwattr DW$654, DW_AT_data_member_location[DW_OP_plus_uconst 0x0]
    7501                      .dwattr DW$654, DW_AT_accessibility(DW_ACCESS_public)
    7502              DW$655  .dwtag  DW_TAG_member, DW_AT_type(*DW$T$10)
    7503                      .dwattr DW$655, DW_AT_name("unused14"), DW_AT_symbol_name("_unused14")
    7504                      .dwattr DW$655, DW_AT_bit_offset(0x02), DW_AT_bit_size(0x01)
    7505                      .dwattr DW$655, DW_AT_data_member_location[DW_OP_plus_uconst 0x0]
    7506                      .dwattr DW$655, DW_AT_accessibility(DW_ACCESS_public)
    7507              DW$656  .dwtag  DW_TAG_member, DW_AT_type(*DW$T$10)
    7508                      .dwattr DW$656, DW_AT_name("unused15"), DW_AT_symbol_name("_unused15")
    7509                      .dwattr DW$656, DW_AT_bit_offset(0x01), DW_AT_bit_size(0x01)
    7510                      .dwattr DW$656, DW_AT_data_member_location[DW_OP_plus_uconst 0x0]
TMS320C2000 COFF Assembler PC v4.1.3 Thu Aug 18 12:16:20 2016

Tools Copyright (c) 1996-2006 Texas Instruments Incorporated
mancal.asm                                                           PAGE  157

    7511                      .dwattr DW$656, DW_AT_accessibility(DW_ACCESS_public)
    7512              DW$657  .dwtag  DW_TAG_member, DW_AT_type(*DW$T$10)
    7513                      .dwattr DW$657, DW_AT_name("unused16"), DW_AT_symbol_name("_unused16")
    7514                      .dwattr DW$657, DW_AT_bit_offset(0x00), DW_AT_bit_size(0x01)
    7515                      .dwattr DW$657, DW_AT_data_member_location[DW_OP_plus_uconst 0x0]
    7516                      .dwattr DW$657, DW_AT_accessibility(DW_ACCESS_public)
    7517                      .dwendtag DW$T$41
    7518              
    7519              
    7520              DW$T$39 .dwtag  DW_TAG_array_type, DW_AT_type(*DW$T$38)
    7521                      .dwattr DW$T$39, DW_AT_language(DW_LANG_C)
    7522                      .dwattr DW$T$39, DW_AT_byte_size(0x09)
    7523              DW$658  .dwtag  DW_TAG_subrange_type
    7524                      .dwattr DW$658, DW_AT_upper_bound(0x08)
    7525                      .dwendtag DW$T$39
    7526              
    7527              
    7528                      .dwattr DW$141, DW_AT_external(0x01)
    7529                      .dwattr DW$87, DW_AT_external(0x01)
    7530                      .dwattr DW$156, DW_AT_external(0x01)
    7531                      .dwattr DW$207, DW_AT_external(0x01)
    7532                      .dwattr DW$256, DW_AT_external(0x01)
    7533                      .dwattr DW$259, DW_AT_external(0x01)
    7534                      .dwattr DW$194, DW_AT_external(0x01)
    7535                      .dwattr DW$237, DW_AT_external(0x01)
    7536                      .dwattr DW$262, DW_AT_external(0x01)
    7537                      .dwattr DW$161, DW_AT_external(0x01)
    7538                      .dwattr DW$118, DW_AT_external(0x01)
    7539                      .dwattr DW$118, DW_AT_type(*DW$T$11)
    7540                      .dwattr DW$117, DW_AT_external(0x01)
    7541                      .dwattr DW$117, DW_AT_type(*DW$T$11)
    7542                      .dwattr DW$116, DW_AT_external(0x01)
    7543                      .dwattr DW$116, DW_AT_type(*DW$T$11)
    7544                      .dwattr DW$123, DW_AT_external(0x01)
    7545                      .dwattr DW$186, DW_AT_external(0x01)
    7546                      .dwattr DW$251, DW_AT_external(0x01)
    7547                      .dwattr DW$140, DW_AT_external(0x01)
    7548                      .dwattr DW$119, DW_AT_external(0x01)
    7549                      .dwattr DW$90, DW_AT_external(0x01)
    7550                      .dwattr DW$91, DW_AT_external(0x01)
    7551                      .dwattr DW$91, DW_AT_type(*DW$T$116)
    7552                      .dwattr DW$103, DW_AT_external(0x01)
    7553                      .dwattr DW$94, DW_AT_external(0x01)
    7554                      .dwattr DW$94, DW_AT_type(*DW$T$116)
    7555                      .dwattr DW$113, DW_AT_external(0x01)
    7556                      .dwattr DW$109, DW_AT_external(0x01)
    7557                      .dwattr DW$109, DW_AT_type(*DW$T$10)
    7558                      .dwattr DW$115, DW_AT_external(0x01)
    7559                      .dwattr DW$97, DW_AT_external(0x01)
    7560                      .dwattr DW$97, DW_AT_type(*DW$T$118)
    7561                      .dwattr DW$100, DW_AT_external(0x01)
    7562                      .dwattr DW$152, DW_AT_external(0x01)
    7563                      .dwattr DW$155, DW_AT_external(0x01)
    7564                      .dwattr DW$168, DW_AT_external(0x01)
    7565                      .dwattr DW$122, DW_AT_external(0x01)
TMS320C2000 COFF Assembler PC v4.1.3 Thu Aug 18 12:16:20 2016

Tools Copyright (c) 1996-2006 Texas Instruments Incorporated
mancal.asm                                                           PAGE  158

    7566                      .dwattr DW$177, DW_AT_external(0x01)
    7567                      .dwattr DW$101, DW_AT_external(0x01)
    7568                      .dwattr DW$112, DW_AT_external(0x01)
    7569                      .dwattr DW$105, DW_AT_external(0x01)
    7570                      .dwattr DW$114, DW_AT_external(0x01)
    7571                      .dwattr DW$99, DW_AT_external(0x01)
    7572                      .dwattr DW$CU, DW_AT_language(DW_LANG_C)
    7573              
    7574              ;***************************************************************
    7575              ;* DWARF REGISTER MAP                                          *
    7576              ;***************************************************************
    7577              
    7578              DW$659  .dwtag  DW_TAG_assign_register, DW_AT_name("AL")
    7579                      .dwattr DW$659, DW_AT_location[DW_OP_reg0]
    7580              DW$660  .dwtag  DW_TAG_assign_register, DW_AT_name("AH")
    7581                      .dwattr DW$660, DW_AT_location[DW_OP_reg1]
    7582              DW$661  .dwtag  DW_TAG_assign_register, DW_AT_name("PL")
    7583                      .dwattr DW$661, DW_AT_location[DW_OP_reg2]
    7584              DW$662  .dwtag  DW_TAG_assign_register, DW_AT_name("PH")
    7585                      .dwattr DW$662, DW_AT_location[DW_OP_reg3]
    7586              DW$663  .dwtag  DW_TAG_assign_register, DW_AT_name("AR0")
    7587                      .dwattr DW$663, DW_AT_location[DW_OP_reg4]
    7588              DW$664  .dwtag  DW_TAG_assign_register, DW_AT_name("XAR0")
    7589                      .dwattr DW$664, DW_AT_location[DW_OP_reg5]
    7590              DW$665  .dwtag  DW_TAG_assign_register, DW_AT_name("AR1")
    7591                      .dwattr DW$665, DW_AT_location[DW_OP_reg6]
    7592              DW$666  .dwtag  DW_TAG_assign_register, DW_AT_name("XAR1")
    7593                      .dwattr DW$666, DW_AT_location[DW_OP_reg7]
    7594              DW$667  .dwtag  DW_TAG_assign_register, DW_AT_name("AR2")
    7595                      .dwattr DW$667, DW_AT_location[DW_OP_reg8]
    7596              DW$668  .dwtag  DW_TAG_assign_register, DW_AT_name("XAR2")
    7597                      .dwattr DW$668, DW_AT_location[DW_OP_reg9]
    7598              DW$669  .dwtag  DW_TAG_assign_register, DW_AT_name("AR3")
    7599                      .dwattr DW$669, DW_AT_location[DW_OP_reg10]
    7600              DW$670  .dwtag  DW_TAG_assign_register, DW_AT_name("XAR3")
    7601                      .dwattr DW$670, DW_AT_location[DW_OP_reg11]
    7602              DW$671  .dwtag  DW_TAG_assign_register, DW_AT_name("AR4")
    7603                      .dwattr DW$671, DW_AT_location[DW_OP_reg12]
    7604              DW$672  .dwtag  DW_TAG_assign_register, DW_AT_name("XAR4")
    7605                      .dwattr DW$672, DW_AT_location[DW_OP_reg13]
    7606              DW$673  .dwtag  DW_TAG_assign_register, DW_AT_name("AR5")
    7607                      .dwattr DW$673, DW_AT_location[DW_OP_reg14]
    7608              DW$674  .dwtag  DW_TAG_assign_register, DW_AT_name("XAR5")
    7609                      .dwattr DW$674, DW_AT_location[DW_OP_reg15]
    7610              DW$675  .dwtag  DW_TAG_assign_register, DW_AT_name("AR6")
    7611                      .dwattr DW$675, DW_AT_location[DW_OP_reg16]
    7612              DW$676  .dwtag  DW_TAG_assign_register, DW_AT_name("XAR6")
    7613                      .dwattr DW$676, DW_AT_location[DW_OP_reg17]
    7614              DW$677  .dwtag  DW_TAG_assign_register, DW_AT_name("AR7")
    7615                      .dwattr DW$677, DW_AT_location[DW_OP_reg18]
    7616              DW$678  .dwtag  DW_TAG_assign_register, DW_AT_name("XAR7")
    7617                      .dwattr DW$678, DW_AT_location[DW_OP_reg19]
    7618              DW$679  .dwtag  DW_TAG_assign_register, DW_AT_name("SP")
    7619                      .dwattr DW$679, DW_AT_location[DW_OP_reg20]
    7620              DW$680  .dwtag  DW_TAG_assign_register, DW_AT_name("XT")
TMS320C2000 COFF Assembler PC v4.1.3 Thu Aug 18 12:16:20 2016

Tools Copyright (c) 1996-2006 Texas Instruments Incorporated
mancal.asm                                                           PAGE  159

    7621                      .dwattr DW$680, DW_AT_location[DW_OP_reg21]
    7622              DW$681  .dwtag  DW_TAG_assign_register, DW_AT_name("T")
    7623                      .dwattr DW$681, DW_AT_location[DW_OP_reg22]
    7624              DW$682  .dwtag  DW_TAG_assign_register, DW_AT_name("ST0")
    7625                      .dwattr DW$682, DW_AT_location[DW_OP_reg23]
    7626              DW$683  .dwtag  DW_TAG_assign_register, DW_AT_name("ST1")
    7627                      .dwattr DW$683, DW_AT_location[DW_OP_reg24]
    7628              DW$684  .dwtag  DW_TAG_assign_register, DW_AT_name("PC")
    7629                      .dwattr DW$684, DW_AT_location[DW_OP_reg25]
    7630              DW$685  .dwtag  DW_TAG_assign_register, DW_AT_name("RPC")
    7631                      .dwattr DW$685, DW_AT_location[DW_OP_reg26]
    7632              DW$686  .dwtag  DW_TAG_assign_register, DW_AT_name("FP")
    7633                      .dwattr DW$686, DW_AT_location[DW_OP_reg27]
    7634              DW$687  .dwtag  DW_TAG_assign_register, DW_AT_name("DP")
    7635                      .dwattr DW$687, DW_AT_location[DW_OP_reg28]
    7636              DW$688  .dwtag  DW_TAG_assign_register, DW_AT_name("SXM")
    7637                      .dwattr DW$688, DW_AT_location[DW_OP_reg29]
    7638              DW$689  .dwtag  DW_TAG_assign_register, DW_AT_name("PM")
    7639                      .dwattr DW$689, DW_AT_location[DW_OP_reg30]
    7640              DW$690  .dwtag  DW_TAG_assign_register, DW_AT_name("OVM")
    7641                      .dwattr DW$690, DW_AT_location[DW_OP_reg31]
    7642              DW$691  .dwtag  DW_TAG_assign_register, DW_AT_name("PAGE0")
    7643                      .dwattr DW$691, DW_AT_location[DW_OP_regx 0x20]
    7644              DW$692  .dwtag  DW_TAG_assign_register, DW_AT_name("AMODE")
    7645                      .dwattr DW$692, DW_AT_location[DW_OP_regx 0x21]
    7646              DW$693  .dwtag  DW_TAG_assign_register, DW_AT_name("IFR")
    7647                      .dwattr DW$693, DW_AT_location[DW_OP_regx 0x22]
    7648              DW$694  .dwtag  DW_TAG_assign_register, DW_AT_name("IER")
    7649                      .dwattr DW$694, DW_AT_location[DW_OP_regx 0x23]
    7650              DW$695  .dwtag  DW_TAG_assign_register, DW_AT_name("IER")
    7651                      .dwattr DW$695, DW_AT_location[DW_OP_regx 0x24]
    7652              DW$696  .dwtag  DW_TAG_assign_register, DW_AT_name("PSEUDO")
    7653                      .dwattr DW$696, DW_AT_location[DW_OP_regx 0x25]
    7654              DW$697  .dwtag  DW_TAG_assign_register, DW_AT_name("PSEUDOH")
    7655                      .dwattr DW$697, DW_AT_location[DW_OP_regx 0x26]
    7656              DW$698  .dwtag  DW_TAG_assign_register, DW_AT_name("VOL")
    7657                      .dwattr DW$698, DW_AT_location[DW_OP_regx 0x27]
    7658              DW$699  .dwtag  DW_TAG_assign_register, DW_AT_name("CIE_RETA")
    7659                      .dwattr DW$699, DW_AT_location[DW_OP_regx 0x28]
    7660                      .dwendtag DW$CU
    7661              

No Assembly Errors, No Assembly Warnings
