TMS320C2000 COFF Assembler PC v4.1.3 Thu Aug 18 12:16:22 2016

Tools Copyright (c) 1996-2006 Texas Instruments Incorporated
mmc_mcf.asm                                                          PAGE    1

       1              ;***************************************************************
       2              ;* TMS320C2000 C/C++ Codegen                         PC v4.1.3 *
       3              ;* Date/Time created: Thu Aug 18 12:16:21 2016                 *
       4              ;***************************************************************
       5                      .compiler_opts --mem_model:code=flat --mem_model:data=large --quiet --silicon_version=28 
       6        0002  FP      .set    XAR2
       7              
       8              DW$CU   .dwtag  DW_TAG_compile_unit
       9                      .dwattr DW$CU, DW_AT_name("mmc_mcf.c")
      10                      .dwattr DW$CU, DW_AT_producer("TMS320C2000 C/C++ Codegen PC v4.1.3 Copyright (c) 1996-2006 Texas Inst
      11                      .dwattr DW$CU, DW_AT_stmt_list(0x00)
      12                      .dwattr DW$CU, DW_AT_TI_VERSION(0x01)
      13              ;**************************************************************
      14              ;* CINIT RECORDS                                              *
      15              ;**************************************************************
      16 00000000               .sect   ".cinit"
      17                      .align  1
      18 00000000 FFF0          .field          -IR_1,16
      19 00000001 0002-         .field          _MmcDrv+0,32
         00000002 0000 
      20 00000003 0000          .field          0,16                    ; _MmcDrv[0]._cs @ 0
      21 00000004 0000          .field          0,16                    ; _MmcDrv[0]._use @ 16
      22 00000005 0000          .field          0,16                    ; _MmcDrv[0]._active @ 32
      23 00000006 0000          .field          0,16                    ; _MmcDrv[0]._initok @ 48
      24 00000007 0000          .field          0,16                    ; _MmcDrv[0]._sd @ 64
      25 00000008               .space  16
      26 00000009 0000          .field          0,32                    ; _MmcDrv[0]._speed @ 96
         0000000a 0000 
      27 0000000b 0000-         .field          _carddetectport,32              ; _MmcDrv[0]._cd_port @ 128
         0000000c 0000 
      28 0000000d 0001          .field          1,32                    ; _MmcDrv[0]._cd_bit @ 160
         0000000e 0000 
      29 0000000f 0001-         .field          _wpport,32              ; _MmcDrv[0]._wp_port @ 192
         00000010 0000 
      30 00000011 0001          .field          1,32                    ; _MmcDrv[0]._wp_bit @ 224
         00000012 0000 
      31        0010  IR_1:   .set    16
      32              
      33 00000013               .sect   ".cinit"
      34                      .align  1
      35 00000013 FFFE          .field          -2,16
      36 00000014 0012-         .field          _rxdata+0,32
         00000015 0000 
      37 00000016 0000          .field          0,32                    ; _rxdata @ 0
         00000017 0000 
      38              
      39 00000018               .sect   ".cinit"
      40                      .align  1
      41 00000018 FFFE          .field          -2,16
      42 00000019 0014-         .field          _bitcou+0,32
         0000001a 0000 
      43 0000001b 0000          .field          0,32                    ; _bitcou @ 0
         0000001c 0000 
      44              
      45              
TMS320C2000 COFF Assembler PC v4.1.3 Thu Aug 18 12:16:22 2016

Tools Copyright (c) 1996-2006 Texas Instruments Incorporated
mmc_mcf.asm                                                          PAGE    2

      46              DW$1    .dwtag  DW_TAG_subprogram, DW_AT_name("memset"), DW_AT_symbol_name("_memset")
      47                      .dwattr DW$1, DW_AT_type(*DW$T$3)
      48                      .dwattr DW$1, DW_AT_declaration(0x01)
      49                      .dwattr DW$1, DW_AT_external(0x01)
      50              DW$2    .dwtag  DW_TAG_formal_parameter, DW_AT_type(*DW$T$3)
      51              DW$3    .dwtag  DW_TAG_formal_parameter, DW_AT_type(*DW$T$10)
      52              DW$4    .dwtag  DW_TAG_formal_parameter, DW_AT_type(*DW$T$80)
      53                      .dwendtag DW$1
      54              
      55              
      56              DW$5    .dwtag  DW_TAG_subprogram, DW_AT_name("TransmitByte"), DW_AT_symbol_name("_TransmitByte")
      57                      .dwattr DW$5, DW_AT_declaration(0x01)
      58                      .dwattr DW$5, DW_AT_external(0x01)
      59              DW$6    .dwtag  DW_TAG_formal_parameter, DW_AT_type(*DW$T$11)
      60                      .dwendtag DW$5
      61              
      62              
      63              DW$7    .dwtag  DW_TAG_subprogram, DW_AT_name("ReceiveByte"), DW_AT_symbol_name("_ReceiveByte")
      64                      .dwattr DW$7, DW_AT_type(*DW$T$11)
      65                      .dwattr DW$7, DW_AT_declaration(0x01)
      66                      .dwattr DW$7, DW_AT_external(0x01)
      67              
      68              DW$8    .dwtag  DW_TAG_subprogram, DW_AT_name("ReadDataFromUart_C"), DW_AT_symbol_name("_ReadDataFromUart_C")
      69                      .dwattr DW$8, DW_AT_type(*DW$T$11)
      70                      .dwattr DW$8, DW_AT_declaration(0x01)
      71                      .dwattr DW$8, DW_AT_external(0x01)
      72              
      73              DW$9    .dwtag  DW_TAG_subprogram, DW_AT_name("NOPDelay"), DW_AT_symbol_name("_NOPDelay")
      74                      .dwattr DW$9, DW_AT_declaration(0x01)
      75                      .dwattr DW$9, DW_AT_external(0x01)
      76              DW$10   .dwtag  DW_TAG_formal_parameter, DW_AT_type(*DW$T$11)
      77                      .dwendtag DW$9
      78              
      79              DW$11   .dwtag  DW_TAG_variable, DW_AT_name("gpb"), DW_AT_symbol_name("_gpb")
      80                      .dwattr DW$11, DW_AT_type(*DW$T$135)
      81                      .dwattr DW$11, DW_AT_declaration(0x01)
      82                      .dwattr DW$11, DW_AT_external(0x01)
      83              DW$12   .dwtag  DW_TAG_variable, DW_AT_name("gpf"), DW_AT_symbol_name("_gpf")
      84                      .dwattr DW$12, DW_AT_type(*DW$T$139)
      85                      .dwattr DW$12, DW_AT_declaration(0x01)
      86                      .dwattr DW$12, DW_AT_external(0x01)
      87              DW$13   .dwtag  DW_TAG_variable, DW_AT_name("settings"), DW_AT_symbol_name("_settings")
      88                      .dwattr DW$13, DW_AT_type(*DW$T$142)
      89                      .dwattr DW$13, DW_AT_declaration(0x01)
      90                      .dwattr DW$13, DW_AT_external(0x01)
      91              DW$14   .dwtag  DW_TAG_variable, DW_AT_name("timers"), DW_AT_symbol_name("_timers")
      92                      .dwattr DW$14, DW_AT_type(*DW$T$144)
      93                      .dwattr DW$14, DW_AT_declaration(0x01)
      94                      .dwattr DW$14, DW_AT_external(0x01)
      95              DW$15   .dwtag  DW_TAG_variable, DW_AT_name("config"), DW_AT_symbol_name("_config")
      96                      .dwattr DW$15, DW_AT_type(*DW$T$146)
      97                      .dwattr DW$15, DW_AT_declaration(0x01)
      98                      .dwattr DW$15, DW_AT_external(0x01)
      99              DW$16   .dwtag  DW_TAG_variable, DW_AT_name("spiregs"), DW_AT_symbol_name("_spiregs")
     100                      .dwattr DW$16, DW_AT_type(*DW$T$147)
TMS320C2000 COFF Assembler PC v4.1.3 Thu Aug 18 12:16:22 2016

Tools Copyright (c) 1996-2006 Texas Instruments Incorporated
mmc_mcf.asm                                                          PAGE    3

     101                      .dwattr DW$16, DW_AT_declaration(0x01)
     102                      .dwattr DW$16, DW_AT_external(0x01)
     103              DW$17   .dwtag  DW_TAG_variable, DW_AT_name("receiveC"), DW_AT_symbol_name("_receiveC")
     104                      .dwattr DW$17, DW_AT_type(*DW$T$149)
     105                      .dwattr DW$17, DW_AT_declaration(0x01)
     106                      .dwattr DW$17, DW_AT_external(0x01)
     107 00000000       _carddetectport:        .usect  ".ebss",1,1,0
     108              DW$18   .dwtag  DW_TAG_variable, DW_AT_name("carddetectport"), DW_AT_symbol_name("_carddetectport")
     109                      .dwattr DW$18, DW_AT_type(*DW$T$6)
     110                      .dwattr DW$18, DW_AT_location[DW_OP_addr _carddetectport]
     111 00000001       _wpport:        .usect  ".ebss",1,1,0
     112              DW$19   .dwtag  DW_TAG_variable, DW_AT_name("wpport"), DW_AT_symbol_name("_wpport")
     113                      .dwattr DW$19, DW_AT_type(*DW$T$6)
     114                      .dwattr DW$19, DW_AT_location[DW_OP_addr _wpport]
     115                      .global _MmcDrv
     116 00000002       _MmcDrv:        .usect  ".ebss",16,1,1
     117              DW$20   .dwtag  DW_TAG_variable, DW_AT_name("MmcDrv"), DW_AT_symbol_name("_MmcDrv")
     118                      .dwattr DW$20, DW_AT_location[DW_OP_addr _MmcDrv]
     119                      .dwattr DW$20, DW_AT_type(*DW$T$151)
     120                      .dwattr DW$20, DW_AT_external(0x01)
     121 00000040       _g_mmc_type:    .usect  ".ebss",66,1,1
     122              DW$21   .dwtag  DW_TAG_variable, DW_AT_name("g_mmc_type"), DW_AT_symbol_name("_g_mmc_type")
     123                      .dwattr DW$21, DW_AT_type(*DW$T$155)
     124                      .dwattr DW$21, DW_AT_location[DW_OP_addr _g_mmc_type]
     125                      .global _CRCtbl
     126 000000c0       _CRCtbl:        .usect  ".ebss",512,1,1
     127              DW$22   .dwtag  DW_TAG_variable, DW_AT_name("CRCtbl"), DW_AT_symbol_name("_CRCtbl")
     128                      .dwattr DW$22, DW_AT_location[DW_OP_addr _CRCtbl]
     129                      .dwattr DW$22, DW_AT_type(*DW$T$126)
     130                      .dwattr DW$22, DW_AT_external(0x01)
     131 00000012       _rxdata:        .usect  ".ebss",2,1,1
     132              DW$23   .dwtag  DW_TAG_variable, DW_AT_name("rxdata"), DW_AT_symbol_name("_rxdata")
     133                      .dwattr DW$23, DW_AT_type(*DW$T$13)
     134                      .dwattr DW$23, DW_AT_location[DW_OP_addr _rxdata]
     135 00000014       _bitcou:        .usect  ".ebss",2,1,1
     136              DW$24   .dwtag  DW_TAG_variable, DW_AT_name("bitcou"), DW_AT_symbol_name("_bitcou")
     137                      .dwattr DW$24, DW_AT_type(*DW$T$13)
     138                      .dwattr DW$24, DW_AT_location[DW_OP_addr _bitcou]
     139              ;       C:\CCStudio_v3.3\C2000\cgtools\bin\opt2000.exe C:\Users\Andrew\AppData\Local\Temp\TI3442 C:\Users\And
     140              ;       C:\CCStudio_v3.3\C2000\cgtools\bin\ac2000.exe -q -D_INLINE -DLARGE_MODEL -IC:/CCStudio_v3.3/C2000/xda
     141 00000000               .sect   ".text"
     142                      .global _TestSD
     143              
     144              DW$25   .dwtag  DW_TAG_subprogram, DW_AT_name("TestSD"), DW_AT_symbol_name("_TestSD")
     145                      .dwattr DW$25, DW_AT_low_pc(_TestSD)
     146                      .dwattr DW$25, DW_AT_high_pc(0x00)
     147                      .dwattr DW$25, DW_AT_begin_file("mmc_mcf.c")
     148                      .dwattr DW$25, DW_AT_begin_line(0xc7)
     149                      .dwattr DW$25, DW_AT_begin_column(0x05)
     150                      .dwattr DW$25, DW_AT_frame_base[DW_OP_breg20 -2]
     151                      .dwattr DW$25, DW_AT_skeletal(0x01)
     152                      .dwpsn  "mmc_mcf.c",200,1
     153              
     154              ;***************************************************************
     155              ;* FNAME: _TestSD                       FR SIZE:   0           *
TMS320C2000 COFF Assembler PC v4.1.3 Thu Aug 18 12:16:22 2016

Tools Copyright (c) 1996-2006 Texas Instruments Incorporated
mmc_mcf.asm                                                          PAGE    4

     156              ;*                                                             *
     157              ;* FUNCTION ENVIRONMENT                                        *
     158              ;*                                                             *
     159              ;* FUNCTION PROPERTIES                                         *
     160              ;*                            0 Parameter,  0 Auto,  0 SOE     *
     161              ;***************************************************************
     162              
     163 00000000       _TestSD:
     164 00000000 761F!         MOVW      DP,#_spiregs
         00000001 0000 
     165 00000002 1A00!         OR        @_spiregs,#0x0040     ; |201| 
         00000003 0040 
     166 00000004 9A77          MOVB      AL,#119               ; |202| 
     167 00000005 F4A9          MOV       *(0:0x7044),AL        ; |202| 
         00000006 7044 
     168 00000007 7640!         LCR       #_ReceiveByte         ; |203| 
         00000008 0000 
     169                      ; call occurs [#_ReceiveByte] ; |203| 
     170 00000009 7640'         LCR       #_spiInit             ; |204| 
         0000000a 00F6 
     171                      ; call occurs [#_spiInit] ; |204| 
     172 0000000b 8F00-         MOVL      XAR4,#_MmcDrv         ; |205| 
         0000000c 0002 
     173 0000000d 7640'         LCR       #_spiSDinit           ; |205| 
         0000000e 05D7 
     174                      ; call occurs [#_spiSDinit] ; |205| 
     175                      .dwpsn  "mmc_mcf.c",206,1
     176 0000000f 0006          LRETR
     177                      ; return occurs
     178                      .dwattr DW$25, DW_AT_end_file("mmc_mcf.c")
     179                      .dwattr DW$25, DW_AT_end_line(0xce)
     180                      .dwattr DW$25, DW_AT_end_column(0x01)
     181                      .dwendtag DW$25
     182              
     183 00000010               .sect   ".text"
     184              
     185              DW$26   .dwtag  DW_TAG_subprogram, DW_AT_name("spiCSlow"), DW_AT_symbol_name("_spiCSlow")
     186                      .dwattr DW$26, DW_AT_low_pc(_spiCSlow)
     187                      .dwattr DW$26, DW_AT_high_pc(0x00)
     188                      .dwattr DW$26, DW_AT_begin_file("mmc_mcf.c")
     189                      .dwattr DW$26, DW_AT_begin_line(0xd8)
     190                      .dwattr DW$26, DW_AT_begin_column(0x0d)
     191                      .dwattr DW$26, DW_AT_frame_base[DW_OP_breg20 -2]
     192                      .dwattr DW$26, DW_AT_skeletal(0x01)
     193                      .dwpsn  "mmc_mcf.c",217,1
     194              
     195              ;***************************************************************
     196              ;* FNAME: _spiCSlow                     FR SIZE:   0           *
     197              ;*                                                             *
     198              ;* FUNCTION ENVIRONMENT                                        *
     199              ;*                                                             *
     200              ;* FUNCTION PROPERTIES                                         *
     201              ;*                            0 Parameter,  0 Auto,  0 SOE     *
     202              ;***************************************************************
     203              
TMS320C2000 COFF Assembler PC v4.1.3 Thu Aug 18 12:16:22 2016

Tools Copyright (c) 1996-2006 Texas Instruments Incorporated
mmc_mcf.asm                                                          PAGE    5

     204 00000010       _spiCSlow:
     205 00000010 761F!         MOVW      DP,#_settings+14
         00000011 0000 
     206 00000012 280E!         MOV       @_settings+14,#1      ; |226| 
         00000013 0001 
     207 00000014 761F!         MOVW      DP,#_gpf
         00000015 0000 
     208 00000016 1800!         AND       @_gpf,#0xfcff         ; |229| 
         00000017 FCFF 
     209                      .dwpsn  "mmc_mcf.c",230,1
     210 00000018 0006          LRETR
     211                      ; return occurs
     212                      .dwattr DW$26, DW_AT_end_file("mmc_mcf.c")
     213                      .dwattr DW$26, DW_AT_end_line(0xe6)
     214                      .dwattr DW$26, DW_AT_end_column(0x01)
     215                      .dwendtag DW$26
     216              
     217 00000019               .sect   ".text"
     218              
     219              DW$27   .dwtag  DW_TAG_subprogram, DW_AT_name("spiCShi"), DW_AT_symbol_name("_spiCShi")
     220                      .dwattr DW$27, DW_AT_low_pc(_spiCShi)
     221                      .dwattr DW$27, DW_AT_high_pc(0x00)
     222                      .dwattr DW$27, DW_AT_begin_file("mmc_mcf.c")
     223                      .dwattr DW$27, DW_AT_begin_line(0xef)
     224                      .dwattr DW$27, DW_AT_begin_column(0x0d)
     225                      .dwattr DW$27, DW_AT_frame_base[DW_OP_breg20 -2]
     226                      .dwattr DW$27, DW_AT_skeletal(0x01)
     227                      .dwpsn  "mmc_mcf.c",240,1
     228              
     229              ;***************************************************************
     230              ;* FNAME: _spiCShi                      FR SIZE:   0           *
     231              ;*                                                             *
     232              ;* FUNCTION ENVIRONMENT                                        *
     233              ;*                                                             *
     234              ;* FUNCTION PROPERTIES                                         *
     235              ;*                            0 Parameter,  0 Auto,  0 SOE     *
     236              ;***************************************************************
     237              
     238 00000019       _spiCShi:
     239 00000019 761F!         MOVW      DP,#_gpb
         0000001a 0000 
     240 0000001b 1800!         AND       @_gpb,#0xbfff         ; |242| 
         0000001c BFFF 
     241 0000001d 761F!         MOVW      DP,#_gpf
         0000001e 0000 
     242 0000001f 1A00!         OR        @_gpf,#0x0700         ; |243| 
         00000020 0700 
     243 00000021 761F!         MOVW      DP,#_receiveC
         00000022 0000 
     244 00000023 9200!         MOV       AL,@_receiveC         ; |251| 
     245 00000024 5201          CMPB      AL,#1                 ; |251| 
     246 00000025 ED0D          BF        L1,NEQ                ; |251| 
     247                      ; branchcc occurs ; |251| 
     248 00000026 0201          MOVB      ACC,#1
     249 00000027 761F!         MOVW      DP,#_config+10
TMS320C2000 COFF Assembler PC v4.1.3 Thu Aug 18 12:16:22 2016

Tools Copyright (c) 1996-2006 Texas Instruments Incorporated
mmc_mcf.asm                                                          PAGE    6

         00000028 0000 
     250 00000029 5601!         ADDL      @_config+10,ACC       ; |254| 
         0000002a 000A 
     251 0000002b 7640!         LCR       #_ReadDataFromUart_C  ; |255| 
         0000002c 0000 
     252                      ; call occurs [#_ReadDataFromUart_C] ; |255| 
     253 0000002d 7640!         LCR       #_ReadDataFromUart_C  ; |256| 
         0000002e 0000 
     254                      ; call occurs [#_ReadDataFromUart_C] ; |256| 
     255 0000002f 761F!         MOVW      DP,#_receiveC
         00000030 0000 
     256 00000031 2B00!         MOV       @_receiveC,#0         ; |257| 
     257 00000032       L1:    
     258 00000032 761F!         MOVW      DP,#_settings+14
         00000033 0000 
     259 00000034 2B0E!         MOV       @_settings+14,#0      ; |259| 
     260                      .dwpsn  "mmc_mcf.c",260,1
     261 00000035 0006          LRETR
     262                      ; return occurs
     263                      .dwattr DW$27, DW_AT_end_file("mmc_mcf.c")
     264                      .dwattr DW$27, DW_AT_end_line(0x104)
     265                      .dwattr DW$27, DW_AT_end_column(0x01)
     266                      .dwendtag DW$27
     267              
     268 00000036               .sect   ".text"
     269                      .global _crc16
     270              
     271              DW$28   .dwtag  DW_TAG_subprogram, DW_AT_name("crc16"), DW_AT_symbol_name("_crc16")
     272                      .dwattr DW$28, DW_AT_low_pc(_crc16)
     273                      .dwattr DW$28, DW_AT_high_pc(0x00)
     274                      .dwattr DW$28, DW_AT_begin_file("mmc_mcf.c")
     275                      .dwattr DW$28, DW_AT_begin_line(0x108)
     276                      .dwattr DW$28, DW_AT_begin_column(0x0f)
     277                      .dwattr DW$28, DW_AT_frame_base[DW_OP_breg20 -4]
     278                      .dwattr DW$28, DW_AT_skeletal(0x01)
     279                      .dwpsn  "mmc_mcf.c",265,1
     280              
     281              ;***************************************************************
     282              ;* FNAME: _crc16                        FR SIZE:   2           *
     283              ;*                                                             *
     284              ;* FUNCTION ENVIRONMENT                                        *
     285              ;*                                                             *
     286              ;* FUNCTION PROPERTIES                                         *
     287              ;*                            0 Parameter,  2 Auto,  0 SOE     *
     288              ;***************************************************************
     289              
     290              _crc16:
     291              ;* AL    assigned to _crc
     292              DW$29   .dwtag  DW_TAG_formal_parameter, DW_AT_name("crc"), DW_AT_symbol_name("_crc")
     293                      .dwattr DW$29, DW_AT_type(*DW$T$13)
     294                      .dwattr DW$29, DW_AT_location[DW_OP_reg0]
     295              ;* AR4   assigned to _c
     296              DW$30   .dwtag  DW_TAG_formal_parameter, DW_AT_name("c"), DW_AT_symbol_name("_c")
     297                      .dwattr DW$30, DW_AT_type(*DW$T$6)
     298                      .dwattr DW$30, DW_AT_location[DW_OP_reg12]
TMS320C2000 COFF Assembler PC v4.1.3 Thu Aug 18 12:16:22 2016

Tools Copyright (c) 1996-2006 Texas Instruments Incorporated
mmc_mcf.asm                                                          PAGE    7

     299 00000036 FF5A          MOVL      P,ACC                 ; |265| 
     300 00000037 2901          CLRC      SXM
     301 00000038 FE02          ADDB      SP,#2
     302 00000039 CCA4          AND       AL,AR4,#0x00ff        ; |270| 
         0000003a 00FF 
     303 0000003b 5603          MOV       ACC,AL << 8           ; |270| 
         0000003c 08A9 
     304 0000003d BE00          MOVB      XAR6,#0
     305 0000003e 1E42          MOVL      *-SP[2],ACC           ; |270| 
     306 0000003f 92AB          MOV       AL,PL                 ; |270| 
     307 00000040 93AA          MOV       AH,PH                 ; |270| 
     308 00000041 2742          MOV       PL,*-SP[2]            ; |270| 
     309 00000042 2F41          MOV       PH,*-SP[1]            ; |270| 
     310 00000043 70AB          XOR       AL,PL                 ; |270| 
     311 00000044 71AA          XOR       AH,PH                 ; |270| 
     312 00000045 27A9          MOV       PL,AL                 ; |270| 
     313 00000046 2FA8          MOV       PH,AH                 ; |270| 
     314                      .dwpsn  "mmc_mcf.c",272,0
     315 00000047 8F00          MOVL      XAR4,#32768           ; |274| 
         00000048 8000 
     316 00000049       L2:    
     317 00000049       DW$L$_crc16$2$B:
     318 00000049 A842          MOVL      *-SP[2],XAR4          ; |274| 
     319 0000004a 9242          MOV       AL,*-SP[2]            ; |274| 
     320 0000004b CEAB          AND       AL,PL                 ; |274| 
     321 0000004c 9642          MOV       *-SP[2],AL            ; |274| 
     322 0000004d 9241          MOV       AL,*-SP[1]            ; |274| 
     323 0000004e CEAA          AND       AL,PH                 ; |274| 
     324 0000004f 9641          MOV       *-SP[1],AL            ; |274| 
     325 00000050 0642          MOVL      ACC,*-SP[2]           ; |274| 
     326 00000051 ED05          BF        L3,NEQ                ; |274| 
     327                      ; branchcc occurs ; |274| 
     328 00000052       DW$L$_crc16$2$E:
     329 00000052       DW$L$_crc16$3$B:
     330 00000052 A9A9          MOVL      ACC,P
     331 00000053 FF30          LSL       ACC,1                 ; |277| 
     332 00000054 56CF          BF        L4,UNC                ; |277| 
         00000055 0006 
     333                      ; branch occurs ; |277| 
     334 00000056       DW$L$_crc16$3$E:
     335 00000056       L3:    
     336 00000056       DW$L$_crc16$4$B:
     337 00000056 A9A9          MOVL      ACC,P
     338 00000057 FF30          LSL       ACC,1                 ; |275| 
     339 00000058 1CA9          XOR       AL,#0x1021            ; |275| 
         00000059 1021 
     340 0000005a       DW$L$_crc16$4$E:
     341 0000005a       L4:    
     342 0000005a       DW$L$_crc16$5$B:
     343 0000005a FF5A          MOVL      P,ACC                 ; |275| 
     344 0000005b 06A6          MOVL      ACC,XAR6
     345 0000005c 0901          ADDB      ACC,#1                ; |272| 
     346 0000005d 1EA6          MOVL      XAR6,ACC              ; |272| 
     347 0000005e 0208          MOVB      ACC,#8
     348 0000005f 0FA6          CMPL      ACC,XAR6              ; |272| 
TMS320C2000 COFF Assembler PC v4.1.3 Thu Aug 18 12:16:22 2016

Tools Copyright (c) 1996-2006 Texas Instruments Incorporated
mmc_mcf.asm                                                          PAGE    8

     349                      .dwpsn  "mmc_mcf.c",278,0
     350 00000060 56C2          BF        L2,GT                 ; |272| 
         00000061 FFE9 
     351                      ; branchcc occurs ; |272| 
     352 00000062       DW$L$_crc16$5$E:
     353 00000062 A9A9          MOVL      ACC,P                 ; |279| 
     354 00000063 FE82          SUBB      SP,#2                 ; |279| 
     355                      .dwpsn  "mmc_mcf.c",280,1
     356 00000064 0006          LRETR
     357                      ; return occurs
     358              
     359              DW$31   .dwtag  DW_TAG_loop
     360                      .dwattr DW$31, DW_AT_name("D:\DEV\Amot\BearingWear\XTSW_V6_20\mmc_mcf.asm:L2:1:1471518981")
     361                      .dwattr DW$31, DW_AT_begin_file("mmc_mcf.c")
     362                      .dwattr DW$31, DW_AT_begin_line(0x110)
     363                      .dwattr DW$31, DW_AT_end_line(0x116)
     364              DW$32   .dwtag  DW_TAG_loop_range
     365                      .dwattr DW$32, DW_AT_low_pc(DW$L$_crc16$2$B)
     366                      .dwattr DW$32, DW_AT_high_pc(DW$L$_crc16$2$E)
     367              DW$33   .dwtag  DW_TAG_loop_range
     368                      .dwattr DW$33, DW_AT_low_pc(DW$L$_crc16$3$B)
     369                      .dwattr DW$33, DW_AT_high_pc(DW$L$_crc16$3$E)
     370              DW$34   .dwtag  DW_TAG_loop_range
     371                      .dwattr DW$34, DW_AT_low_pc(DW$L$_crc16$4$B)
     372                      .dwattr DW$34, DW_AT_high_pc(DW$L$_crc16$4$E)
     373              DW$35   .dwtag  DW_TAG_loop_range
     374                      .dwattr DW$35, DW_AT_low_pc(DW$L$_crc16$5$B)
     375                      .dwattr DW$35, DW_AT_high_pc(DW$L$_crc16$5$E)
     376                      .dwendtag DW$31
     377              
     378                      .dwattr DW$28, DW_AT_end_file("mmc_mcf.c")
     379                      .dwattr DW$28, DW_AT_end_line(0x118)
     380                      .dwattr DW$28, DW_AT_end_column(0x01)
     381                      .dwendtag DW$28
     382              
     383 00000065               .sect   ".text"
     384                      .global _spitxbyte
     385              
     386              DW$36   .dwtag  DW_TAG_subprogram, DW_AT_name("spitxbyte"), DW_AT_symbol_name("_spitxbyte")
     387                      .dwattr DW$36, DW_AT_low_pc(_spitxbyte)
     388                      .dwattr DW$36, DW_AT_high_pc(0x00)
     389                      .dwattr DW$36, DW_AT_begin_file("mmc_mcf.c")
     390                      .dwattr DW$36, DW_AT_begin_line(0x11a)
     391                      .dwattr DW$36, DW_AT_begin_column(0x06)
     392                      .dwattr DW$36, DW_AT_frame_base[DW_OP_breg20 -2]
     393                      .dwattr DW$36, DW_AT_skeletal(0x01)
     394                      .dwpsn  "mmc_mcf.c",283,1
     395              
     396              ;***************************************************************
     397              ;* FNAME: _spitxbyte                    FR SIZE:   0           *
     398              ;*                                                             *
     399              ;* FUNCTION ENVIRONMENT                                        *
     400              ;*                                                             *
     401              ;* FUNCTION PROPERTIES                                         *
     402              ;*                            0 Parameter,  0 Auto,  0 SOE     *
TMS320C2000 COFF Assembler PC v4.1.3 Thu Aug 18 12:16:22 2016

Tools Copyright (c) 1996-2006 Texas Instruments Incorporated
mmc_mcf.asm                                                          PAGE    9

     403              ;***************************************************************
     404              
     405              _spitxbyte:
     406              ;* AL    assigned to _ch
     407              DW$37   .dwtag  DW_TAG_formal_parameter, DW_AT_name("ch"), DW_AT_symbol_name("_ch")
     408                      .dwattr DW$37, DW_AT_type(*DW$T$6)
     409                      .dwattr DW$37, DW_AT_location[DW_OP_reg0]
     410 00000065 90FF          ANDB      AL,#255               ; |287| 
     411 00000066 7640!         LCR       #_TransmitByte        ; |287| 
         00000067 0000 
     412                      ; call occurs [#_TransmitByte] ; |287| 
     413                      .dwpsn  "mmc_mcf.c",288,1
     414 00000068 0006          LRETR
     415                      ; return occurs
     416                      .dwattr DW$36, DW_AT_end_file("mmc_mcf.c")
     417                      .dwattr DW$36, DW_AT_end_line(0x120)
     418                      .dwattr DW$36, DW_AT_end_column(0x01)
     419                      .dwendtag DW$36
     420              
     421 00000069               .sect   ".text"
     422                      .global _spitxword
     423              
     424              DW$38   .dwtag  DW_TAG_subprogram, DW_AT_name("spitxword"), DW_AT_symbol_name("_spitxword")
     425                      .dwattr DW$38, DW_AT_low_pc(_spitxword)
     426                      .dwattr DW$38, DW_AT_high_pc(0x00)
     427                      .dwattr DW$38, DW_AT_begin_file("mmc_mcf.c")
     428                      .dwattr DW$38, DW_AT_begin_line(0x123)
     429                      .dwattr DW$38, DW_AT_begin_column(0x06)
     430                      .dwattr DW$38, DW_AT_frame_base[DW_OP_breg20 -4]
     431                      .dwattr DW$38, DW_AT_skeletal(0x01)
     432                      .dwpsn  "mmc_mcf.c",292,1
     433              
     434              ;***************************************************************
     435              ;* FNAME: _spitxword                    FR SIZE:   2           *
     436              ;*                                                             *
     437              ;* FUNCTION ENVIRONMENT                                        *
     438              ;*                                                             *
     439              ;* FUNCTION PROPERTIES                                         *
     440              ;*                            0 Parameter,  0 Auto,  2 SOE     *
     441              ;***************************************************************
     442              
     443              _spitxword:
     444              ;* AL    assigned to _data16
     445              DW$39   .dwtag  DW_TAG_formal_parameter, DW_AT_name("data16"), DW_AT_symbol_name("_data16")
     446                      .dwattr DW$39, DW_AT_type(*DW$T$9)
     447                      .dwattr DW$39, DW_AT_location[DW_OP_reg0]
     448 00000069 B2BD          MOVL      *SP++,XAR1
     449 0000006a 59A9          MOVZ      AR1,AL                ; |292| 
     450 0000006b FFC7          LSR       AL,8                  ; |297| 
     451 0000006c 90FF          ANDB      AL,#0xff              ; |299| 
     452 0000006d 7640!         LCR       #_TransmitByte        ; |299| 
         0000006e 0000 
     453                      ; call occurs [#_TransmitByte] ; |299| 
     454 0000006f CCA1          AND       AL,AR1,#0x00ff        ; |302| 
         00000070 00FF 
TMS320C2000 COFF Assembler PC v4.1.3 Thu Aug 18 12:16:22 2016

Tools Copyright (c) 1996-2006 Texas Instruments Incorporated
mmc_mcf.asm                                                          PAGE   10

     455 00000071 7640!         LCR       #_TransmitByte        ; |302| 
         00000072 0000 
     456                      ; call occurs [#_TransmitByte] ; |302| 
     457 00000073 8BBE          MOVL      XAR1,*--SP
     458                      .dwpsn  "mmc_mcf.c",303,1
     459 00000074 0006          LRETR
     460                      ; return occurs
     461                      .dwattr DW$38, DW_AT_end_file("mmc_mcf.c")
     462                      .dwattr DW$38, DW_AT_end_line(0x12f)
     463                      .dwattr DW$38, DW_AT_end_column(0x01)
     464                      .dwendtag DW$38
     465              
     466 00000075               .sect   ".text"
     467                      .global _spitxlong
     468              
     469              DW$40   .dwtag  DW_TAG_subprogram, DW_AT_name("spitxlong"), DW_AT_symbol_name("_spitxlong")
     470                      .dwattr DW$40, DW_AT_low_pc(_spitxlong)
     471                      .dwattr DW$40, DW_AT_high_pc(0x00)
     472                      .dwattr DW$40, DW_AT_begin_file("mmc_mcf.c")
     473                      .dwattr DW$40, DW_AT_begin_line(0x131)
     474                      .dwattr DW$40, DW_AT_begin_column(0x06)
     475                      .dwattr DW$40, DW_AT_frame_base[DW_OP_breg20 -4]
     476                      .dwattr DW$40, DW_AT_skeletal(0x01)
     477                      .dwpsn  "mmc_mcf.c",306,1
     478              
     479              ;***************************************************************
     480              ;* FNAME: _spitxlong                    FR SIZE:   2           *
     481              ;*                                                             *
     482              ;* FUNCTION ENVIRONMENT                                        *
     483              ;*                                                             *
     484              ;* FUNCTION PROPERTIES                                         *
     485              ;*                            0 Parameter,  0 Auto,  2 SOE     *
     486              ;***************************************************************
     487              
     488              _spitxlong:
     489              ;* AL    assigned to _data32
     490              DW$41   .dwtag  DW_TAG_formal_parameter, DW_AT_name("data32"), DW_AT_symbol_name("_data32")
     491                      .dwattr DW$41, DW_AT_type(*DW$T$13)
     492                      .dwattr DW$41, DW_AT_location[DW_OP_reg0]
     493 00000075 B2BD          MOVL      *SP++,XAR1
     494 00000076 28AC          MOV       T,#24                 ; |310| 
         00000077 0018 
     495 00000078 8BA9          MOVL      XAR1,ACC              ; |306| 
     496 00000079 5622          LSRL      ACC,T                 ; |310| 
     497 0000007a 90FF          ANDB      AL,#0xff              ; |315| 
     498 0000007b 7640!         LCR       #_TransmitByte        ; |315| 
         0000007c 0000 
     499                      ; call occurs [#_TransmitByte] ; |315| 
     500 0000007d B2A9          MOVL      ACC,XAR1              ; |317| 
     501 0000007e 0EA8          MOVU      ACC,AH                ; |317| 
     502 0000007f 90FF          ANDB      AL,#0xff              ; |321| 
     503 00000080 7640!         LCR       #_TransmitByte        ; |321| 
         00000081 0000 
     504                      ; call occurs [#_TransmitByte] ; |321| 
     505 00000082 2901          CLRC      SXM
TMS320C2000 COFF Assembler PC v4.1.3 Thu Aug 18 12:16:22 2016

Tools Copyright (c) 1996-2006 Texas Instruments Incorporated
mmc_mcf.asm                                                          PAGE   11

     506 00000083 B2A9          MOVL      ACC,XAR1              ; |323| 
     507 00000084 FF47          SFR       ACC,8                 ; |323| 
     508 00000085 90FF          ANDB      AL,#0xff              ; |327| 
     509 00000086 7640!         LCR       #_TransmitByte        ; |327| 
         00000087 0000 
     510                      ; call occurs [#_TransmitByte] ; |327| 
     511 00000088 B2A9          MOVL      ACC,XAR1              ; |331| 
     512 00000089 90FF          ANDB      AL,#0xff              ; |331| 
     513 0000008a 7640!         LCR       #_TransmitByte        ; |331| 
         0000008b 0000 
     514                      ; call occurs [#_TransmitByte] ; |331| 
     515 0000008c 8BBE          MOVL      XAR1,*--SP
     516                      .dwpsn  "mmc_mcf.c",332,1
     517 0000008d 0006          LRETR
     518                      ; return occurs
     519                      .dwattr DW$40, DW_AT_end_file("mmc_mcf.c")
     520                      .dwattr DW$40, DW_AT_end_line(0x14c)
     521                      .dwattr DW$40, DW_AT_end_column(0x01)
     522                      .dwendtag DW$40
     523              
     524 0000008e               .sect   ".text"
     525                      .global _spigetbit
     526              
     527              DW$42   .dwtag  DW_TAG_subprogram, DW_AT_name("spigetbit"), DW_AT_symbol_name("_spigetbit")
     528                      .dwattr DW$42, DW_AT_low_pc(_spigetbit)
     529                      .dwattr DW$42, DW_AT_high_pc(0x00)
     530                      .dwattr DW$42, DW_AT_begin_file("mmc_mcf.c")
     531                      .dwattr DW$42, DW_AT_begin_line(0x152)
     532                      .dwattr DW$42, DW_AT_begin_column(0x06)
     533                      .dwattr DW$42, DW_AT_frame_base[DW_OP_breg20 -2]
     534                      .dwattr DW$42, DW_AT_skeletal(0x01)
     535                      .dwpsn  "mmc_mcf.c",338,22
     536              
     537              ;***************************************************************
     538              ;* FNAME: _spigetbit                    FR SIZE:   0           *
     539              ;*                                                             *
     540              ;* FUNCTION ENVIRONMENT                                        *
     541              ;*                                                             *
     542              ;* FUNCTION PROPERTIES                                         *
     543              ;*                            0 Parameter,  0 Auto,  0 SOE     *
     544              ;***************************************************************
     545              
     546 0000008e       _spigetbit:
     547 0000008e 761F-         MOVW      DP,#_bitcou
         0000008f 0000 
     548 00000090 0614-         MOVL      ACC,@_bitcou          ; |340| 
     549 00000091 EC07          BF        L5,EQ                 ; |340| 
     550                      ; branchcc occurs ; |340| 
     551 00000092 761F-         MOVW      DP,#_bitcou
         00000093 0000 
     552 00000094 0614-         MOVL      ACC,@_bitcou          ; |347| 
     553 00000095 ED10          BF        L6,NEQ                ; |347| 
     554                      ; branchcc occurs ; |347| 
     555 00000096 56CF          BF        L7,UNC                ; |356| 
         00000097 0021 
TMS320C2000 COFF Assembler PC v4.1.3 Thu Aug 18 12:16:22 2016

Tools Copyright (c) 1996-2006 Texas Instruments Incorporated
mmc_mcf.asm                                                          PAGE   12

     556                      ; branch occurs ; |356| 
     557 00000098       L5:    
     558 00000098 7640!         LCR       #_ReceiveByte         ; |342| 
         00000099 0000 
     559                      ; call occurs [#_ReceiveByte] ; |342| 
     560 0000009a BE08          MOVB      XAR6,#8
     561 0000009b 761F-         MOVW      DP,#_bitcou
         0000009c 0000 
     562 0000009d 28AC          MOV       T,#24                 ; |345| 
         0000009e 0018 
     563 0000009f 0EA9          MOVU      ACC,AL
     564 000000a0 C214-         MOVL      @_bitcou,XAR6         ; |344| 
     565 000000a1 563B          LSLL      ACC,T                 ; |345| 
     566 000000a2 761F-         MOVW      DP,#_rxdata
         000000a3 0000 
     567 000000a4 1E12-         MOVL      @_rxdata,ACC          ; |345| 
     568 000000a5       L6:    
     569 000000a5 0201          MOVB      ACC,#1
     570 000000a6 761F-         MOVW      DP,#_bitcou
         000000a7 0000 
     571 000000a8 5641-         SUBL      @_bitcou,ACC          ; |348| 
         000000a9 0014 
     572 000000aa 761F-         MOVW      DP,#_rxdata
         000000ab 0000 
     573 000000ac 0612-         MOVL      ACC,@_rxdata          ; |349| 
     574 000000ad 5608          AND       ACC,#32768 << 16      ; |349| 
         000000ae 8000 
     575 000000af EC0B          BF        L8,EQ                 ; |349| 
     576                      ; branchcc occurs ; |349| 
     577 000000b0 761F-         MOVW      DP,#_rxdata
         000000b1 0000 
     578 000000b2 0612-         MOVL      ACC,@_rxdata          ; |350| 
     579 000000b3 FF30          LSL       ACC,1                 ; |350| 
     580 000000b4 761F-         MOVW      DP,#_rxdata
         000000b5 0000 
     581 000000b6 1E12-         MOVL      @_rxdata,ACC          ; |350| 
     582 000000b7       L7:    
     583 000000b7 0201          MOVB      ACC,#1
     584 000000b8 56CF          BF        L9,UNC                ; |351| 
         000000b9 000A 
     585                      ; branch occurs ; |351| 
     586 000000ba       L8:    
     587 000000ba 761F-         MOVW      DP,#_rxdata
         000000bb 0000 
     588 000000bc 0612-         MOVL      ACC,@_rxdata          ; |353| 
     589 000000bd 761F-         MOVW      DP,#_rxdata
         000000be 0000 
     590 000000bf FF30          LSL       ACC,1                 ; |353| 
     591 000000c0 1E12-         MOVL      @_rxdata,ACC          ; |353| 
     592 000000c1 0200          MOVB      ACC,#0
     593              L9:    
     594                      .dwpsn  "mmc_mcf.c",357,1
     595 000000c2 0006          LRETR
     596                      ; return occurs
     597                      .dwattr DW$42, DW_AT_end_file("mmc_mcf.c")
TMS320C2000 COFF Assembler PC v4.1.3 Thu Aug 18 12:16:22 2016

Tools Copyright (c) 1996-2006 Texas Instruments Incorporated
mmc_mcf.asm                                                          PAGE   13

     598                      .dwattr DW$42, DW_AT_end_line(0x165)
     599                      .dwattr DW$42, DW_AT_end_column(0x01)
     600                      .dwendtag DW$42
     601              
     602 000000c3               .sect   ".text"
     603                      .global _spigetbit32
     604              
     605              DW$43   .dwtag  DW_TAG_subprogram, DW_AT_name("spigetbit32"), DW_AT_symbol_name("_spigetbit32")
     606                      .dwattr DW$43, DW_AT_low_pc(_spigetbit32)
     607                      .dwattr DW$43, DW_AT_high_pc(0x00)
     608                      .dwattr DW$43, DW_AT_begin_file("mmc_mcf.c")
     609                      .dwattr DW$43, DW_AT_begin_line(0x168)
     610                      .dwattr DW$43, DW_AT_begin_column(0x0f)
     611                      .dwattr DW$43, DW_AT_frame_base[DW_OP_breg20 -8]
     612                      .dwattr DW$43, DW_AT_skeletal(0x01)
     613                      .dwpsn  "mmc_mcf.c",360,33
     614              
     615              ;***************************************************************
     616              ;* FNAME: _spigetbit32                  FR SIZE:   6           *
     617              ;*                                                             *
     618              ;* FUNCTION ENVIRONMENT                                        *
     619              ;*                                                             *
     620              ;* FUNCTION PROPERTIES                                         *
     621              ;*                            0 Parameter,  6 Auto,  0 SOE     *
     622              ;***************************************************************
     623              
     624 000000c3       _spigetbit32:
     625 000000c3 FE06          ADDB      SP,#6
     626 000000c4 7640!         LCR       #_ReceiveByte         ; |368| 
         000000c5 0000 
     627                      ; call occurs [#_ReceiveByte] ; |368| 
     628 000000c6 0EA9          MOVU      ACC,AL
     629 000000c7 1E42          MOVL      *-SP[2],ACC           ; |368| 
     630 000000c8 7640!         LCR       #_ReceiveByte         ; |370| 
         000000c9 0000 
     631                      ; call occurs [#_ReceiveByte] ; |370| 
     632 000000ca 0EA9          MOVU      ACC,AL
     633 000000cb 1E44          MOVL      *-SP[4],ACC           ; |370| 
     634 000000cc 7640!         LCR       #_ReceiveByte         ; |372| 
         000000cd 0000 
     635                      ; call occurs [#_ReceiveByte] ; |372| 
     636 000000ce 0EA9          MOVU      ACC,AL
     637 000000cf 1E46          MOVL      *-SP[6],ACC           ; |372| 
     638 000000d0 7640!         LCR       #_ReceiveByte         ; |374| 
         000000d1 0000 
     639                      ; call occurs [#_ReceiveByte] ; |374| 
     640 000000d2 27A9          MOV       PL,AL
     641 000000d3 9244          MOV       AL,*-SP[4]            ; |374| 
     642 000000d4 90FF          ANDB      AL,#0xff              ; |377| 
     643 000000d5 9644          MOV       *-SP[4],AL            ; |377| 
     644 000000d6 9242          MOV       AL,*-SP[2]            ; |377| 
     645 000000d7 90FF          ANDB      AL,#0xff              ; |377| 
     646 000000d8 2B43          MOV       *-SP[3],#0            ; |377| 
     647 000000d9 9642          MOV       *-SP[2],AL            ; |377| 
     648 000000da C544          MOVL      XAR7,*-SP[4]          ; |377| 
TMS320C2000 COFF Assembler PC v4.1.3 Thu Aug 18 12:16:22 2016

Tools Copyright (c) 1996-2006 Texas Instruments Incorporated
mmc_mcf.asm                                                          PAGE   14

     649 000000db 2B41          MOV       *-SP[1],#0            ; |377| 
     650 000000dc 0642          MOVL      ACC,*-SP[2]           ; |377| 
     651 000000dd FF37          LSL       ACC,8                 ; |377| 
     652 000000de 07A7          ADDL      ACC,XAR7
     653 000000df FF37          LSL       ACC,8                 ; |377| 
     654 000000e0 1EA6          MOVL      XAR6,ACC              ; |377| 
     655 000000e1 9246          MOV       AL,*-SP[6]            ; |377| 
     656 000000e2 90FF          ANDB      AL,#0xff              ; |377| 
     657 000000e3 9646          MOV       *-SP[6],AL            ; |377| 
     658 000000e4 2B45          MOV       *-SP[5],#0            ; |377| 
     659 000000e5 C546          MOVL      XAR7,*-SP[6]          ; |377| 
     660 000000e6 06A6          MOVL      ACC,XAR6              ; |377| 
     661 000000e7 07A7          ADDL      ACC,XAR7
     662 000000e8 FF37          LSL       ACC,8                 ; |377| 
     663 000000e9 1EA6          MOVL      XAR6,ACC              ; |377| 
     664 000000ea 92AB          MOV       AL,PL                 ; |377| 
     665 000000eb 90FF          ANDB      AL,#0xff              ; |377| 
     666 000000ec 27A9          MOV       PL,AL                 ; |377| 
     667 000000ed 9A00          MOVB      AL,#0
     668 000000ee 2FA9          MOV       PH,AL                 ; |377| 
     669 000000ef 06A6          MOVL      ACC,XAR6              ; |377| 
     670 000000f0 07AB          ADDL      ACC,P
     671 000000f1 761F-         MOVW      DP,#_rxdata
         000000f2 0000 
     672 000000f3 1E12-         MOVL      @_rxdata,ACC          ; |377| 
     673 000000f4 FE86          SUBB      SP,#6                 ; |386| 
     674                      .dwpsn  "mmc_mcf.c",387,1
     675 000000f5 0006          LRETR
     676                      ; return occurs
     677                      .dwattr DW$43, DW_AT_end_file("mmc_mcf.c")
     678                      .dwattr DW$43, DW_AT_end_line(0x183)
     679                      .dwattr DW$43, DW_AT_end_column(0x01)
     680                      .dwendtag DW$43
     681              
     682 000000f6               .sect   ".text"
     683              
     684              DW$44   .dwtag  DW_TAG_subprogram, DW_AT_name("spiInit"), DW_AT_symbol_name("_spiInit")
     685                      .dwattr DW$44, DW_AT_low_pc(_spiInit)
     686                      .dwattr DW$44, DW_AT_high_pc(0x00)
     687                      .dwattr DW$44, DW_AT_begin_file("mmc_mcf.c")
     688                      .dwattr DW$44, DW_AT_begin_line(0x18c)
     689                      .dwattr DW$44, DW_AT_begin_column(0x0d)
     690                      .dwattr DW$44, DW_AT_frame_base[DW_OP_breg20 -2]
     691                      .dwattr DW$44, DW_AT_skeletal(0x01)
     692                      .dwpsn  "mmc_mcf.c",397,1
     693              
     694              ;***************************************************************
     695              ;* FNAME: _spiInit                      FR SIZE:   0           *
     696              ;*                                                             *
     697              ;* FUNCTION ENVIRONMENT                                        *
     698              ;*                                                             *
     699              ;* FUNCTION PROPERTIES                                         *
     700              ;*                            0 Parameter,  0 Auto,  0 SOE     *
     701              ;***************************************************************
     702              
TMS320C2000 COFF Assembler PC v4.1.3 Thu Aug 18 12:16:22 2016

Tools Copyright (c) 1996-2006 Texas Instruments Incorporated
mmc_mcf.asm                                                          PAGE   15

     703              _spiInit:
     704                      .dwpsn  "mmc_mcf.c",400,0
     705 000000f6 D500          MOVB      XAR5,#0
     706              L10:    
     707              DW$L$_spiInit$2$B:
     708                      .dwpsn  "mmc_mcf.c",401,0
     709 000000f7 5CA5          MOVZ      AR4,AR5
     710 000000f8 0200          MOVB      ACC,#0
     711 000000f9 7640'         LCR       #_crc16               ; |402| 
         000000fa 0036 
     712                      ; call occurs [#_crc16] ; |402| 
     713 000000fb 1EA6          MOVL      XAR6,ACC              ; |402| 
     714 000000fc A0A9          MOVL      ACC,XAR5              ; |402| 
     715 000000fd 8F00-         MOVL      XAR4,#_CRCtbl         ; |402| 
         000000fe 00C0 
     716 000000ff FF30          LSL       ACC,1                 ; |402| 
     717 00000100 5601          ADDL      XAR4,ACC
         00000101 00A4 
     718 00000102 A0A9          MOVL      ACC,XAR5              ; |402| 
     719 00000103 0901          ADDB      ACC,#1                ; |400| 
     720 00000104 83A9          MOVL      XAR5,ACC              ; |400| 
     721 00000105 FF20          MOV       ACC,#256              ; |400| 
         00000106 0100 
     722 00000107 0FA5          CMPL      ACC,XAR5              ; |400| 
     723 00000108 C2C4          MOVL      *+XAR4[0],XAR6        ; |402| 
     724                      .dwpsn  "mmc_mcf.c",403,0
     725 00000109 56C2          BF        L10,GT                ; |400| 
         0000010a FFEE 
     726                      ; branchcc occurs ; |400| 
     727 0000010b       DW$L$_spiInit$2$E:
     728 0000010b 0242          MOVB      ACC,#66
     729 0000010c D500          MOVB      XAR5,#0
     730 0000010d 8F00-         MOVL      XAR4,#_g_mmc_type     ; |405| 
         0000010e 0040 
     731 0000010f 7640!         LCR       #_memset              ; |405| 
         00000110 0000 
     732                      ; call occurs [#_memset] ; |405| 
     733 00000111 761F-         MOVW      DP,#_rxdata
         00000112 0000 
     734 00000113 0200          MOVB      ACC,#0
     735 00000114 1E12-         MOVL      @_rxdata,ACC          ; |407| 
     736 00000115 761F-         MOVW      DP,#_bitcou
         00000116 0000 
     737 00000117 1E14-         MOVL      @_bitcou,ACC          ; |408| 
     738 00000118 761F-         MOVW      DP,#_carddetectport
         00000119 0000 
     739 0000011a 2B00-         MOV       @_carddetectport,#0   ; |409| 
     740 0000011b 761F-         MOVW      DP,#_wpport
         0000011c 0000 
     741 0000011d 2B01-         MOV       @_wpport,#0           ; |410| 
     742                      .dwpsn  "mmc_mcf.c",411,1
     743 0000011e 0006          LRETR
     744                      ; return occurs
     745              
     746              DW$45   .dwtag  DW_TAG_loop
TMS320C2000 COFF Assembler PC v4.1.3 Thu Aug 18 12:16:22 2016

Tools Copyright (c) 1996-2006 Texas Instruments Incorporated
mmc_mcf.asm                                                          PAGE   16

     747                      .dwattr DW$45, DW_AT_name("D:\DEV\Amot\BearingWear\XTSW_V6_20\mmc_mcf.asm:L10:1:1471518981")
     748                      .dwattr DW$45, DW_AT_begin_file("mmc_mcf.c")
     749                      .dwattr DW$45, DW_AT_begin_line(0x190)
     750                      .dwattr DW$45, DW_AT_end_line(0x193)
     751              DW$46   .dwtag  DW_TAG_loop_range
     752                      .dwattr DW$46, DW_AT_low_pc(DW$L$_spiInit$2$B)
     753                      .dwattr DW$46, DW_AT_high_pc(DW$L$_spiInit$2$E)
     754                      .dwendtag DW$45
     755              
     756                      .dwattr DW$44, DW_AT_end_file("mmc_mcf.c")
     757                      .dwattr DW$44, DW_AT_end_line(0x19b)
     758                      .dwattr DW$44, DW_AT_end_column(0x01)
     759                      .dwendtag DW$44
     760              
     761 0000011f               .sect   ".text"
     762                      .global _spi_drv_change
     763              
     764              DW$47   .dwtag  DW_TAG_subprogram, DW_AT_name("spi_drv_change"), DW_AT_symbol_name("_spi_drv_change")
     765                      .dwattr DW$47, DW_AT_low_pc(_spi_drv_change)
     766                      .dwattr DW$47, DW_AT_high_pc(0x00)
     767                      .dwattr DW$47, DW_AT_begin_file("mmc_mcf.c")
     768                      .dwattr DW$47, DW_AT_begin_line(0x1a1)
     769                      .dwattr DW$47, DW_AT_begin_column(0x06)
     770                      .dwattr DW$47, DW_AT_frame_base[DW_OP_breg20 -2]
     771                      .dwattr DW$47, DW_AT_skeletal(0x01)
     772                      .dwpsn  "mmc_mcf.c",418,1
     773              
     774              ;***************************************************************
     775              ;* FNAME: _spi_drv_change               FR SIZE:   0           *
     776              ;*                                                             *
     777              ;* FUNCTION ENVIRONMENT                                        *
     778              ;*                                                             *
     779              ;* FUNCTION PROPERTIES                                         *
     780              ;*                            0 Parameter,  0 Auto,  0 SOE     *
     781              ;***************************************************************
     782              
     783              _spi_drv_change:
     784              ;* AR4   assigned to _user_ptr
     785              DW$48   .dwtag  DW_TAG_formal_parameter, DW_AT_name("user_ptr"), DW_AT_symbol_name("_user_ptr")
     786                      .dwattr DW$48, DW_AT_type(*DW$T$3)
     787                      .dwattr DW$48, DW_AT_location[DW_OP_reg12]
     788 0000011f 28D4          MOV       *+XAR4[2],#1          ; |437| 
         00000120 0001 
     789                      .dwpsn  "mmc_mcf.c",438,1
     790 00000121 0006          LRETR
     791                      ; return occurs
     792                      .dwattr DW$47, DW_AT_end_file("mmc_mcf.c")
     793                      .dwattr DW$47, DW_AT_end_line(0x1b6)
     794                      .dwattr DW$47, DW_AT_end_column(0x01)
     795                      .dwendtag DW$47
     796              
     797 00000122               .sect   ".text"
     798              
     799              DW$49   .dwtag  DW_TAG_subprogram, DW_AT_name("spiDataBits"), DW_AT_symbol_name("_spiDataBits")
     800                      .dwattr DW$49, DW_AT_low_pc(_spiDataBits)
TMS320C2000 COFF Assembler PC v4.1.3 Thu Aug 18 12:16:22 2016

Tools Copyright (c) 1996-2006 Texas Instruments Incorporated
mmc_mcf.asm                                                          PAGE   17

     801                      .dwattr DW$49, DW_AT_high_pc(0x00)
     802                      .dwattr DW$49, DW_AT_begin_file("mmc_mcf.c")
     803                      .dwattr DW$49, DW_AT_begin_line(0x1ca)
     804                      .dwattr DW$49, DW_AT_begin_column(0x0d)
     805                      .dwattr DW$49, DW_AT_frame_base[DW_OP_breg20 -12]
     806                      .dwattr DW$49, DW_AT_skeletal(0x01)
     807                      .dwpsn  "mmc_mcf.c",458,56
     808              
     809              ;***************************************************************
     810              ;* FNAME: _spiDataBits                  FR SIZE:  10           *
     811              ;*                                                             *
     812              ;* FUNCTION ENVIRONMENT                                        *
     813              ;*                                                             *
     814              ;* FUNCTION PROPERTIES                                         *
     815              ;*                            0 Parameter,  4 Auto,  6 SOE     *
     816              ;***************************************************************
     817              
     818              _spiDataBits:
     819              ;* AL    assigned to _bits
     820              DW$50   .dwtag  DW_TAG_formal_parameter, DW_AT_name("bits"), DW_AT_symbol_name("_bits")
     821                      .dwattr DW$50, DW_AT_type(*DW$T$12)
     822                      .dwattr DW$50, DW_AT_location[DW_OP_reg0]
     823              ;* AR4   assigned to _pcrc
     824              DW$51   .dwtag  DW_TAG_formal_parameter, DW_AT_name("pcrc"), DW_AT_symbol_name("_pcrc")
     825                      .dwattr DW$51, DW_AT_type(*DW$T$115)
     826                      .dwattr DW$51, DW_AT_location[DW_OP_reg12]
     827 00000122 B2BD          MOVL      *SP++,XAR1
     828 00000123 AABD          MOVL      *SP++,XAR2
     829 00000124 A2BD          MOVL      *SP++,XAR3
     830 00000125 86A9          MOVL      XAR2,ACC              ; |458| 
     831 00000126 FE04          ADDB      SP,#4
     832 00000127 82A4          MOVL      XAR3,XAR4             ; |458| 
     833 00000128 0200          MOVB      ACC,#0
     834 00000129 D100          MOVB      XAR1,#0
     835 0000012a 1E42          MOVL      *-SP[2],ACC           ; |460| 
     836 0000012b 06C3          MOVL      ACC,*+XAR3[0]         ; |461| 
     837 0000012c 1E44          MOVL      *-SP[4],ACC           ; |461| 
     838 0000012d AAA9          MOVL      ACC,XAR2              ; |462| 
     839 0000012e 56C5          BF        L15,LEQ               ; |462| 
         0000012f 0025 
     840                      ; branchcc occurs ; |462| 
     841              L11:    
     842              DW$L$_spiDataBits$2$B:
     843                      .dwpsn  "mmc_mcf.c",462,0
     844 00000130 0642          MOVL      ACC,*-SP[2]
     845 00000131 FF30          LSL       ACC,1                 ; |463| 
     846 00000132 1E42          MOVL      *-SP[2],ACC           ; |463| 
     847 00000133 7640'         LCR       #_spigetbit           ; |465| 
         00000134 008E 
     848                      ; call occurs [#_spigetbit] ; |465| 
     849 00000135 FF58          TEST      ACC                   ; |465| 
     850 00000136 EC06          BF        L12,EQ                ; |465| 
     851                      ; branchcc occurs ; |465| 
     852 00000137       DW$L$_spiDataBits$2$E:
     853 00000137       DW$L$_spiDataBits$3$B:
TMS320C2000 COFF Assembler PC v4.1.3 Thu Aug 18 12:16:22 2016

Tools Copyright (c) 1996-2006 Texas Instruments Incorporated
mmc_mcf.asm                                                          PAGE   18

     854 00000137 9242          MOV       AL,*-SP[2]            ; |466| 
     855 00000138 1C44          XOR       *-SP[4],#0x8000       ; |466| 
         00000139 8000 
     856 0000013a 5001          ORB       AL,#0x01              ; |467| 
     857 0000013b 9642          MOV       *-SP[2],AL            ; |467| 
     858 0000013c       DW$L$_spiDataBits$3$E:
     859 0000013c       L12:    
     860 0000013c       DW$L$_spiDataBits$4$B:
     861 0000013c 2901          CLRC      SXM
     862 0000013d FF20          MOV       ACC,#32768            ; |470| 
         0000013e 8000 
     863 0000013f CE44          AND       AL,*-SP[4]            ; |470| 
     864 00000140 CF43          AND       AH,*-SP[3]            ; |470| 
     865 00000141 FF58          TEST      ACC                   ; |470| 
     866 00000142 ED05          BF        L13,NEQ               ; |470| 
     867                      ; branchcc occurs ; |470| 
     868 00000143       DW$L$_spiDataBits$4$E:
     869 00000143       DW$L$_spiDataBits$5$B:
     870 00000143 0644          MOVL      ACC,*-SP[4]
     871 00000144 FF30          LSL       ACC,1                 ; |471| 
     872 00000145 56CF          BF        L14,UNC               ; |471| 
         00000146 0006 
     873                      ; branch occurs ; |471| 
     874 00000147       DW$L$_spiDataBits$5$E:
     875 00000147       L13:    
     876 00000147       DW$L$_spiDataBits$6$B:
     877 00000147 0644          MOVL      ACC,*-SP[4]
     878 00000148 FF30          LSL       ACC,1                 ; |470| 
     879 00000149 1CA9          XOR       AL,#0x1021            ; |470| 
         0000014a 1021 
     880 0000014b       DW$L$_spiDataBits$6$E:
     881 0000014b       L14:    
     882 0000014b       DW$L$_spiDataBits$7$B:
     883 0000014b 1E44          MOVL      *-SP[4],ACC           ; |470| 
     884 0000014c B2A9          MOVL      ACC,XAR1
     885 0000014d 0901          ADDB      ACC,#1                ; |462| 
     886 0000014e 8BA9          MOVL      XAR1,ACC              ; |462| 
     887 0000014f AAA9          MOVL      ACC,XAR2              ; |462| 
     888 00000150 0FA1          CMPL      ACC,XAR1              ; |462| 
     889                      .dwpsn  "mmc_mcf.c",473,0
     890 00000151 56C2          BF        L11,GT                ; |462| 
         00000152 FFDF 
     891                      ; branchcc occurs ; |462| 
     892 00000153       DW$L$_spiDataBits$7$E:
     893 00000153       L15:    
     894 00000153 0644          MOVL      ACC,*-SP[4]
     895 00000154 1EC3          MOVL      *+XAR3[0],ACC         ; |475| 
     896 00000155 0642          MOVL      ACC,*-SP[2]           ; |475| 
     897 00000156 FE84          SUBB      SP,#4                 ; |477| 
     898 00000157 82BE          MOVL      XAR3,*--SP            ; |477| 
     899 00000158 86BE          MOVL      XAR2,*--SP            ; |477| 
     900 00000159 8BBE          MOVL      XAR1,*--SP            ; |477| 
     901                      .dwpsn  "mmc_mcf.c",478,1
     902 0000015a 0006          LRETR
     903                      ; return occurs
TMS320C2000 COFF Assembler PC v4.1.3 Thu Aug 18 12:16:22 2016

Tools Copyright (c) 1996-2006 Texas Instruments Incorporated
mmc_mcf.asm                                                          PAGE   19

     904              
     905              DW$52   .dwtag  DW_TAG_loop
     906                      .dwattr DW$52, DW_AT_name("D:\DEV\Amot\BearingWear\XTSW_V6_20\mmc_mcf.asm:L11:1:1471518981")
     907                      .dwattr DW$52, DW_AT_begin_file("mmc_mcf.c")
     908                      .dwattr DW$52, DW_AT_begin_line(0x1ce)
     909                      .dwattr DW$52, DW_AT_end_line(0x1d9)
     910              DW$53   .dwtag  DW_TAG_loop_range
     911                      .dwattr DW$53, DW_AT_low_pc(DW$L$_spiDataBits$2$B)
     912                      .dwattr DW$53, DW_AT_high_pc(DW$L$_spiDataBits$2$E)
     913              DW$54   .dwtag  DW_TAG_loop_range
     914                      .dwattr DW$54, DW_AT_low_pc(DW$L$_spiDataBits$3$B)
     915                      .dwattr DW$54, DW_AT_high_pc(DW$L$_spiDataBits$3$E)
     916              DW$55   .dwtag  DW_TAG_loop_range
     917                      .dwattr DW$55, DW_AT_low_pc(DW$L$_spiDataBits$4$B)
     918                      .dwattr DW$55, DW_AT_high_pc(DW$L$_spiDataBits$4$E)
     919              DW$56   .dwtag  DW_TAG_loop_range
     920                      .dwattr DW$56, DW_AT_low_pc(DW$L$_spiDataBits$5$B)
     921                      .dwattr DW$56, DW_AT_high_pc(DW$L$_spiDataBits$5$E)
     922              DW$57   .dwtag  DW_TAG_loop_range
     923                      .dwattr DW$57, DW_AT_low_pc(DW$L$_spiDataBits$6$B)
     924                      .dwattr DW$57, DW_AT_high_pc(DW$L$_spiDataBits$6$E)
     925              DW$58   .dwtag  DW_TAG_loop_range
     926                      .dwattr DW$58, DW_AT_low_pc(DW$L$_spiDataBits$7$B)
     927                      .dwattr DW$58, DW_AT_high_pc(DW$L$_spiDataBits$7$E)
     928                      .dwendtag DW$52
     929              
     930                      .dwattr DW$49, DW_AT_end_file("mmc_mcf.c")
     931                      .dwattr DW$49, DW_AT_end_line(0x1de)
     932                      .dwattr DW$49, DW_AT_end_column(0x01)
     933                      .dwendtag DW$49
     934              
     935 0000015b               .sect   ".text"
     936              
     937              DW$59   .dwtag  DW_TAG_subprogram, DW_AT_name("spiWaitStartBit"), DW_AT_symbol_name("_spiWaitStartBit")
     938                      .dwattr DW$59, DW_AT_low_pc(_spiWaitStartBit)
     939                      .dwattr DW$59, DW_AT_high_pc(0x00)
     940                      .dwattr DW$59, DW_AT_begin_file("mmc_mcf.c")
     941                      .dwattr DW$59, DW_AT_begin_line(0x1ec)
     942                      .dwattr DW$59, DW_AT_begin_column(0x0c)
     943                      .dwattr DW$59, DW_AT_frame_base[DW_OP_breg20 -2]
     944                      .dwattr DW$59, DW_AT_skeletal(0x01)
     945                      .dwpsn  "mmc_mcf.c",492,34
     946              
     947              ;***************************************************************
     948              ;* FNAME: _spiWaitStartBit              FR SIZE:   0           *
     949              ;*                                                             *
     950              ;* FUNCTION ENVIRONMENT                                        *
     951              ;*                                                             *
     952              ;* FUNCTION PROPERTIES                                         *
     953              ;*                            0 Parameter,  0 Auto,  0 SOE     *
     954              ;***************************************************************
     955              
     956 0000015b       _spiWaitStartBit:
     957 0000015b 761F!         MOVW      DP,#_timers+40
         0000015c 0000 
TMS320C2000 COFF Assembler PC v4.1.3 Thu Aug 18 12:16:22 2016

Tools Copyright (c) 1996-2006 Texas Instruments Incorporated
mmc_mcf.asm                                                          PAGE   20

     958 0000015d 2828!         MOV       @_timers+40,#51       ; |500| 
         0000015e 0033 
     959 0000015f 7700          NOP
     960 00000160 761F!         MOVW      DP,#_timers+40
         00000161 0000 
     961 00000162 9228!         MOV       AL,@_timers+40        ; |501| 
     962 00000163 EC10          BF        L18,EQ                ; |501| 
     963                      ; branchcc occurs ; |501| 
     964              L16:    
     965              DW$L$_spiWaitStartBit$2$B:
     966                      .dwpsn  "mmc_mcf.c",502,0
     967 00000164 7640'         LCR       #_spigetbit           ; |503| 
         00000165 008E 
     968                      ; call occurs [#_spigetbit] ; |503| 
     969 00000166 FF58          TEST      ACC                   ; |503| 
     970 00000167 ED04          BF        L17,NEQ               ; |503| 
     971                      ; branchcc occurs ; |503| 
     972 00000168       DW$L$_spiWaitStartBit$2$E:
     973 00000168 9A00          MOVB      AL,#0
     974 00000169 56CF          BF        L19,UNC               ; |503| 
         0000016a 000B 
     975                      ; branch occurs ; |503| 
     976 0000016b       L17:    
     977 0000016b       DW$L$_spiWaitStartBit$4$B:
     978 0000016b 761F!         MOVW      DP,#_settings
         0000016c 0000 
     979 0000016d 2800!         MOV       @_settings,#1         ; |505| 
         0000016e 0001 
     980 0000016f 761F!         MOVW      DP,#_timers+40
         00000170 0000 
     981 00000171 9228!         MOV       AL,@_timers+40        ; |505| 
     982                      .dwpsn  "mmc_mcf.c",506,0
     983 00000172 EDF2          BF        L16,NEQ               ; |505| 
     984                      ; branchcc occurs ; |505| 
     985 00000173       DW$L$_spiWaitStartBit$4$E:
     986 00000173       L18:    
     987 00000173 9A01          MOVB      AL,#1                 ; |507| 
     988              L19:    
     989                      .dwpsn  "mmc_mcf.c",508,1
     990 00000174 0006          LRETR
     991                      ; return occurs
     992              
     993              DW$60   .dwtag  DW_TAG_loop
     994                      .dwattr DW$60, DW_AT_name("D:\DEV\Amot\BearingWear\XTSW_V6_20\mmc_mcf.asm:L16:1:1471518981")
     995                      .dwattr DW$60, DW_AT_begin_file("mmc_mcf.c")
     996                      .dwattr DW$60, DW_AT_begin_line(0x1f5)
     997                      .dwattr DW$60, DW_AT_end_line(0x1fa)
     998              DW$61   .dwtag  DW_TAG_loop_range
     999                      .dwattr DW$61, DW_AT_low_pc(DW$L$_spiWaitStartBit$2$B)
    1000                      .dwattr DW$61, DW_AT_high_pc(DW$L$_spiWaitStartBit$2$E)
    1001              DW$62   .dwtag  DW_TAG_loop_range
    1002                      .dwattr DW$62, DW_AT_low_pc(DW$L$_spiWaitStartBit$4$B)
    1003                      .dwattr DW$62, DW_AT_high_pc(DW$L$_spiWaitStartBit$4$E)
    1004                      .dwendtag DW$60
    1005              
TMS320C2000 COFF Assembler PC v4.1.3 Thu Aug 18 12:16:22 2016

Tools Copyright (c) 1996-2006 Texas Instruments Incorporated
mmc_mcf.asm                                                          PAGE   21

    1006                      .dwattr DW$59, DW_AT_end_file("mmc_mcf.c")
    1007                      .dwattr DW$59, DW_AT_end_line(0x1fc)
    1008                      .dwattr DW$59, DW_AT_end_column(0x01)
    1009                      .dwendtag DW$59
    1010              
    1011 00000175               .sect   ".text"
    1012              
    1013              DW$63   .dwtag  DW_TAG_subprogram, DW_AT_name("spiWaitBusy"), DW_AT_symbol_name("_spiWaitBusy")
    1014                      .dwattr DW$63, DW_AT_low_pc(_spiWaitBusy)
    1015                      .dwattr DW$63, DW_AT_high_pc(0x00)
    1016                      .dwattr DW$63, DW_AT_begin_file("mmc_mcf.c")
    1017                      .dwattr DW$63, DW_AT_begin_line(0x20a)
    1018                      .dwattr DW$63, DW_AT_begin_column(0x0c)
    1019                      .dwattr DW$63, DW_AT_frame_base[DW_OP_breg20 -2]
    1020                      .dwattr DW$63, DW_AT_skeletal(0x01)
    1021                      .dwpsn  "mmc_mcf.c",522,30
    1022              
    1023              ;***************************************************************
    1024              ;* FNAME: _spiWaitBusy                  FR SIZE:   0           *
    1025              ;*                                                             *
    1026              ;* FUNCTION ENVIRONMENT                                        *
    1027              ;*                                                             *
    1028              ;* FUNCTION PROPERTIES                                         *
    1029              ;*                            0 Parameter,  0 Auto,  0 SOE     *
    1030              ;***************************************************************
    1031              
    1032 00000175       _spiWaitBusy:
    1033 00000175 761F!         MOVW      DP,#_timers+40
         00000176 0000 
    1034 00000177 2828!         MOV       @_timers+40,#51       ; |534| 
         00000178 0033 
    1035 00000179 7700          NOP
    1036 0000017a 761F!         MOVW      DP,#_timers+40
         0000017b 0000 
    1037 0000017c 9228!         MOV       AL,@_timers+40        ; |535| 
    1038 0000017d EC10          BF        L22,EQ                ; |535| 
    1039                      ; branchcc occurs ; |535| 
    1040              L20:    
    1041              DW$L$_spiWaitBusy$2$B:
    1042                      .dwpsn  "mmc_mcf.c",536,0
    1043 0000017e 7640'         LCR       #_spigetbit           ; |537| 
         0000017f 008E 
    1044                      ; call occurs [#_spigetbit] ; |537| 
    1045 00000180 FF58          TEST      ACC                   ; |537| 
    1046 00000181 EC04          BF        L21,EQ                ; |537| 
    1047                      ; branchcc occurs ; |537| 
    1048 00000182       DW$L$_spiWaitBusy$2$E:
    1049 00000182 9A00          MOVB      AL,#0
    1050 00000183 56CF          BF        L23,UNC               ; |537| 
         00000184 000B 
    1051                      ; branch occurs ; |537| 
    1052 00000185       L21:    
    1053 00000185       DW$L$_spiWaitBusy$4$B:
    1054 00000185 761F!         MOVW      DP,#_settings
         00000186 0000 
TMS320C2000 COFF Assembler PC v4.1.3 Thu Aug 18 12:16:22 2016

Tools Copyright (c) 1996-2006 Texas Instruments Incorporated
mmc_mcf.asm                                                          PAGE   22

    1055 00000187 2800!         MOV       @_settings,#1         ; |538| 
         00000188 0001 
    1056 00000189 761F!         MOVW      DP,#_timers+40
         0000018a 0000 
    1057 0000018b 9228!         MOV       AL,@_timers+40        ; |538| 
    1058                      .dwpsn  "mmc_mcf.c",539,0
    1059 0000018c EDF2          BF        L20,NEQ               ; |538| 
    1060                      ; branchcc occurs ; |538| 
    1061 0000018d       DW$L$_spiWaitBusy$4$E:
    1062 0000018d       L22:    
    1063 0000018d 9A01          MOVB      AL,#1                 ; |540| 
    1064              L23:    
    1065                      .dwpsn  "mmc_mcf.c",541,1
    1066 0000018e 0006          LRETR
    1067                      ; return occurs
    1068              
    1069              DW$64   .dwtag  DW_TAG_loop
    1070                      .dwattr DW$64, DW_AT_name("D:\DEV\Amot\BearingWear\XTSW_V6_20\mmc_mcf.asm:L20:1:1471518981")
    1071                      .dwattr DW$64, DW_AT_begin_file("mmc_mcf.c")
    1072                      .dwattr DW$64, DW_AT_begin_line(0x217)
    1073                      .dwattr DW$64, DW_AT_end_line(0x21b)
    1074              DW$65   .dwtag  DW_TAG_loop_range
    1075                      .dwattr DW$65, DW_AT_low_pc(DW$L$_spiWaitBusy$2$B)
    1076                      .dwattr DW$65, DW_AT_high_pc(DW$L$_spiWaitBusy$2$E)
    1077              DW$66   .dwtag  DW_TAG_loop_range
    1078                      .dwattr DW$66, DW_AT_low_pc(DW$L$_spiWaitBusy$4$B)
    1079                      .dwattr DW$66, DW_AT_high_pc(DW$L$_spiWaitBusy$4$E)
    1080                      .dwendtag DW$64
    1081              
    1082                      .dwattr DW$63, DW_AT_end_file("mmc_mcf.c")
    1083                      .dwattr DW$63, DW_AT_end_line(0x21d)
    1084                      .dwattr DW$63, DW_AT_end_column(0x01)
    1085                      .dwendtag DW$63
    1086              
    1087 0000018f               .sect   ".text"
    1088              
    1089              DW$67   .dwtag  DW_TAG_subprogram, DW_AT_name("spiCmd"), DW_AT_symbol_name("_spiCmd")
    1090                      .dwattr DW$67, DW_AT_low_pc(_spiCmd)
    1091                      .dwattr DW$67, DW_AT_high_pc(0x00)
    1092                      .dwattr DW$67, DW_AT_begin_file("mmc_mcf.c")
    1093                      .dwattr DW$67, DW_AT_begin_line(0x231)
    1094                      .dwattr DW$67, DW_AT_begin_column(0x0d)
    1095                      .dwattr DW$67, DW_AT_frame_base[DW_OP_breg20 -10]
    1096                      .dwattr DW$67, DW_AT_skeletal(0x01)
    1097                      .dwpsn  "mmc_mcf.c",561,58
    1098              
    1099              ;***************************************************************
    1100              ;* FNAME: _spiCmd                       FR SIZE:   8           *
    1101              ;*                                                             *
    1102              ;* FUNCTION ENVIRONMENT                                        *
    1103              ;*                                                             *
    1104              ;* FUNCTION PROPERTIES                                         *
    1105              ;*                            0 Parameter,  6 Auto,  2 SOE     *
    1106              ;***************************************************************
    1107              
TMS320C2000 COFF Assembler PC v4.1.3 Thu Aug 18 12:16:22 2016

Tools Copyright (c) 1996-2006 Texas Instruments Incorporated
mmc_mcf.asm                                                          PAGE   23

    1108              _spiCmd:
    1109              ;* AL    assigned to _cmd
    1110              DW$68   .dwtag  DW_TAG_formal_parameter, DW_AT_name("cmd"), DW_AT_symbol_name("_cmd")
    1111                      .dwattr DW$68, DW_AT_type(*DW$T$13)
    1112                      .dwattr DW$68, DW_AT_location[DW_OP_reg0]
    1113              DW$69   .dwtag  DW_TAG_formal_parameter, DW_AT_name("data"), DW_AT_symbol_name("_data")
    1114                      .dwattr DW$69, DW_AT_type(*DW$T$13)
    1115                      .dwattr DW$69, DW_AT_location[DW_OP_breg20 -12]
    1116 0000018f B2BD          MOVL      *SP++,XAR1
    1117 00000190 FE06          ADDB      SP,#6
    1118 00000191 1E42          MOVL      *-SP[2],ACC           ; |561| 
    1119 00000192 064C          MOVL      ACC,*-SP[12]          ; |561| 
    1120 00000193 1E44          MOVL      *-SP[4],ACC           ; |561| 
    1121 00000194 0200          MOVB      ACC,#0
    1122 00000195 1E46          MOVL      *-SP[6],ACC           ; |563| 
    1123 00000196 7640'         LCR       #_spiWaitBusy         ; |565| 
         00000197 0175 
    1124                      ; call occurs [#_spiWaitBusy] ; |565| 
    1125 00000198 5200          CMPB      AL,#0                 ; |565| 
    1126 00000199 ED56          BF        L32,NEQ               ; |565| 
    1127                      ; branchcc occurs ; |565| 
    1128 0000019a 1A42          OR        *-SP[2],#65344        ; |574| 
         0000019b FF40 
    1129 0000019c 1A41          OR        *-SP[1],#65535        ; |574| 
         0000019d FFFF 
    1130 0000019e 0642          MOVL      ACC,*-SP[2]           ; |574| 
    1131 0000019f 7640'         LCR       #_spitxlong           ; |574| 
         000001a0 0075 
    1132                      ; call occurs [#_spitxlong] ; |574| 
    1133                      .dwpsn  "mmc_mcf.c",576,0
    1134 000001a1 BE00          MOVB      XAR6,#0
    1135 000001a2       L24:    
    1136 000001a2       DW$L$_spiCmd$3$B:
    1137 000001a2 0642          MOVL      ACC,*-SP[2]
    1138 000001a3 9080          ANDB      AL,#0x80              ; |578| 
    1139 000001a4 9B00          MOVB      AH,#0
    1140 000001a5 FF58          TEST      ACC                   ; |578| 
    1141 000001a6 EC04          BF        L25,EQ                ; |578| 
    1142                      ; branchcc occurs ; |578| 
    1143 000001a7       DW$L$_spiCmd$3$E:
    1144 000001a7       DW$L$_spiCmd$4$B:
    1145 000001a7 9246          MOV       AL,*-SP[6]
    1146 000001a8 F040          XORB      AL,#0x40              ; |579| 
    1147 000001a9 9646          MOV       *-SP[6],AL            ; |579| 
    1148 000001aa       DW$L$_spiCmd$4$E:
    1149 000001aa       L25:    
    1150 000001aa       DW$L$_spiCmd$5$B:
    1151 000001aa 0642          MOVL      ACC,*-SP[2]
    1152 000001ab FF30          LSL       ACC,1                 ; |582| 
    1153 000001ac 1E42          MOVL      *-SP[2],ACC           ; |582| 
    1154 000001ad 0646          MOVL      ACC,*-SP[6]           ; |582| 
    1155 000001ae 9040          ANDB      AL,#0x40              ; |584| 
    1156 000001af 9B00          MOVB      AH,#0
    1157 000001b0 FF58          TEST      ACC                   ; |584| 
    1158 000001b1 ED05          BF        L26,NEQ               ; |584| 
TMS320C2000 COFF Assembler PC v4.1.3 Thu Aug 18 12:16:22 2016

Tools Copyright (c) 1996-2006 Texas Instruments Incorporated
mmc_mcf.asm                                                          PAGE   24

    1159                      ; branchcc occurs ; |584| 
    1160 000001b2       DW$L$_spiCmd$5$E:
    1161 000001b2       DW$L$_spiCmd$6$B:
    1162 000001b2 0646          MOVL      ACC,*-SP[6]
    1163 000001b3 FF30          LSL       ACC,1                 ; |585| 
    1164 000001b4 56CF          BF        L27,UNC               ; |585| 
         000001b5 0005 
    1165                      ; branch occurs ; |585| 
    1166 000001b6       DW$L$_spiCmd$6$E:
    1167 000001b6       L26:    
    1168 000001b6       DW$L$_spiCmd$7$B:
    1169 000001b6 0646          MOVL      ACC,*-SP[6]
    1170 000001b7 FF30          LSL       ACC,1                 ; |584| 
    1171 000001b8 F009          XORB      AL,#0x09              ; |584| 
    1172 000001b9       DW$L$_spiCmd$7$E:
    1173 000001b9       L27:    
    1174 000001b9       DW$L$_spiCmd$8$B:
    1175 000001b9 1E46          MOVL      *-SP[6],ACC           ; |584| 
    1176 000001ba 06A6          MOVL      ACC,XAR6
    1177 000001bb 0901          ADDB      ACC,#1                ; |576| 
    1178 000001bc 1EA6          MOVL      XAR6,ACC              ; |576| 
    1179 000001bd 0208          MOVB      ACC,#8
    1180 000001be 0FA6          CMPL      ACC,XAR6              ; |576| 
    1181                      .dwpsn  "mmc_mcf.c",586,0
    1182 000001bf 56C2          BF        L24,GT                ; |576| 
         000001c0 FFE3 
    1183                      ; branchcc occurs ; |576| 
    1184 000001c1       DW$L$_spiCmd$8$E:
    1185 000001c1 0644          MOVL      ACC,*-SP[4]
    1186 000001c2 7640'         LCR       #_spitxlong           ; |588| 
         000001c3 0075 
    1187                      ; call occurs [#_spitxlong] ; |588| 
    1188                      .dwpsn  "mmc_mcf.c",589,0
    1189 000001c4 BE00          MOVB      XAR6,#0
    1190 000001c5       L28:    
    1191 000001c5       DW$L$_spiCmd$10$B:
    1192 000001c5 0644          MOVL      ACC,*-SP[4]
    1193 000001c6 5608          AND       ACC,#32768 << 16      ; |590| 
         000001c7 8000 
    1194 000001c8 EC04          BF        L29,EQ                ; |590| 
    1195                      ; branchcc occurs ; |590| 
    1196 000001c9       DW$L$_spiCmd$10$E:
    1197 000001c9       DW$L$_spiCmd$11$B:
    1198 000001c9 9246          MOV       AL,*-SP[6]
    1199 000001ca F040          XORB      AL,#0x40              ; |591| 
    1200 000001cb 9646          MOV       *-SP[6],AL            ; |591| 
    1201 000001cc       DW$L$_spiCmd$11$E:
    1202 000001cc       L29:    
    1203 000001cc       DW$L$_spiCmd$12$B:
    1204 000001cc 0644          MOVL      ACC,*-SP[4]
    1205 000001cd FF30          LSL       ACC,1                 ; |594| 
    1206 000001ce 1E44          MOVL      *-SP[4],ACC           ; |594| 
    1207 000001cf 0646          MOVL      ACC,*-SP[6]           ; |594| 
    1208 000001d0 9040          ANDB      AL,#0x40              ; |596| 
    1209 000001d1 9B00          MOVB      AH,#0
TMS320C2000 COFF Assembler PC v4.1.3 Thu Aug 18 12:16:22 2016

Tools Copyright (c) 1996-2006 Texas Instruments Incorporated
mmc_mcf.asm                                                          PAGE   25

    1210 000001d2 FF58          TEST      ACC                   ; |596| 
    1211 000001d3 ED05          BF        L30,NEQ               ; |596| 
    1212                      ; branchcc occurs ; |596| 
    1213 000001d4       DW$L$_spiCmd$12$E:
    1214 000001d4       DW$L$_spiCmd$13$B:
    1215 000001d4 0646          MOVL      ACC,*-SP[6]
    1216 000001d5 FF30          LSL       ACC,1                 ; |597| 
    1217 000001d6 56CF          BF        L31,UNC               ; |597| 
         000001d7 0005 
    1218                      ; branch occurs ; |597| 
    1219 000001d8       DW$L$_spiCmd$13$E:
    1220 000001d8       L30:    
    1221 000001d8       DW$L$_spiCmd$14$B:
    1222 000001d8 0646          MOVL      ACC,*-SP[6]
    1223 000001d9 FF30          LSL       ACC,1                 ; |596| 
    1224 000001da F009          XORB      AL,#0x09              ; |596| 
    1225 000001db       DW$L$_spiCmd$14$E:
    1226 000001db       L31:    
    1227 000001db       DW$L$_spiCmd$15$B:
    1228 000001db 1E46          MOVL      *-SP[6],ACC           ; |596| 
    1229 000001dc 06A6          MOVL      ACC,XAR6
    1230 000001dd 0901          ADDB      ACC,#1                ; |589| 
    1231 000001de 1EA6          MOVL      XAR6,ACC              ; |589| 
    1232 000001df 0220          MOVB      ACC,#32
    1233 000001e0 0FA6          CMPL      ACC,XAR6              ; |589| 
    1234                      .dwpsn  "mmc_mcf.c",598,0
    1235 000001e1 56C2          BF        L28,GT                ; |589| 
         000001e2 FFE4 
    1236                      ; branchcc occurs ; |589| 
    1237 000001e3       DW$L$_spiCmd$15$E:
    1238 000001e3 0646          MOVL      ACC,*-SP[6]
    1239 000001e4 FF30          LSL       ACC,1                 ; |600| 
    1240 000001e5 1E46          MOVL      *-SP[6],ACC           ; |600| 
    1241 000001e6 9246          MOV       AL,*-SP[6]            ; |600| 
    1242 000001e7 5001          ORB       AL,#0x01              ; |605| 
    1243 000001e8 9646          MOV       *-SP[6],AL            ; |605| 
    1244 000001e9 7640'         LCR       #_spitxbyte           ; |605| 
         000001ea 0065 
    1245                      ; call occurs [#_spitxbyte] ; |605| 
    1246 000001eb 7640'         LCR       #_spiWaitStartBit     ; |607| 
         000001ec 015B 
    1247                      ; call occurs [#_spiWaitStartBit] ; |607| 
    1248 000001ed 5200          CMPB      AL,#0                 ; |607| 
    1249 000001ee EC04          BF        L33,EQ                ; |607| 
    1250                      ; branchcc occurs ; |607| 
    1251 000001ef       L32:    
    1252 000001ef 02FF          MOVB      ACC,#255
    1253 000001f0 56CF          BF        L35,UNC               ; |618| 
         000001f1 0017 
    1254                      ; branch occurs ; |618| 
    1255              L33:    
    1256                      .dwpsn  "mmc_mcf.c",609,0
    1257 000001f2 D100          MOVB      XAR1,#0
    1258              L34:    
    1259              DW$L$_spiCmd$19$B:
TMS320C2000 COFF Assembler PC v4.1.3 Thu Aug 18 12:16:22 2016

Tools Copyright (c) 1996-2006 Texas Instruments Incorporated
mmc_mcf.asm                                                          PAGE   26

    1260                      .dwpsn  "mmc_mcf.c",610,0
    1261 000001f3 0644          MOVL      ACC,*-SP[4]
    1262 000001f4 FF30          LSL       ACC,1                 ; |611| 
    1263 000001f5 1E44          MOVL      *-SP[4],ACC           ; |611| 
    1264 000001f6 7640'         LCR       #_spigetbit           ; |612| 
         000001f7 008E 
    1265                      ; call occurs [#_spigetbit] ; |612| 
    1266 000001f8 FF5A          MOVL      P,ACC                 ; |612| 
    1267 000001f9 9244          MOV       AL,*-SP[4]            ; |612| 
    1268 000001fa CAAB          OR        AL,PL                 ; |612| 
    1269 000001fb 9644          MOV       *-SP[4],AL            ; |612| 
    1270 000001fc 9243          MOV       AL,*-SP[3]            ; |612| 
    1271 000001fd CAAA          OR        AL,PH                 ; |612| 
    1272 000001fe 9643          MOV       *-SP[3],AL            ; |612| 
    1273 000001ff B2A9          MOVL      ACC,XAR1              ; |612| 
    1274 00000200 0901          ADDB      ACC,#1                ; |609| 
    1275 00000201 8BA9          MOVL      XAR1,ACC              ; |609| 
    1276 00000202 0207          MOVB      ACC,#7
    1277 00000203 0FA1          CMPL      ACC,XAR1              ; |609| 
    1278                      .dwpsn  "mmc_mcf.c",613,0
    1279 00000204 56C2          BF        L34,GT                ; |609| 
         00000205 FFEF 
    1280                      ; branchcc occurs ; |609| 
    1281 00000206       DW$L$_spiCmd$19$E:
    1282 00000206 0644          MOVL      ACC,*-SP[4]
    1283 00000207       L35:    
    1284 00000207 FE86          SUBB      SP,#6                 ; |616| 
    1285 00000208 8BBE          MOVL      XAR1,*--SP            ; |616| 
    1286                      .dwpsn  "mmc_mcf.c",619,1
    1287 00000209 0006          LRETR
    1288                      ; return occurs
    1289              
    1290              DW$70   .dwtag  DW_TAG_loop
    1291                      .dwattr DW$70, DW_AT_name("D:\DEV\Amot\BearingWear\XTSW_V6_20\mmc_mcf.asm:L34:1:1471518981")
    1292                      .dwattr DW$70, DW_AT_begin_file("mmc_mcf.c")
    1293                      .dwattr DW$70, DW_AT_begin_line(0x261)
    1294                      .dwattr DW$70, DW_AT_end_line(0x265)
    1295              DW$71   .dwtag  DW_TAG_loop_range
    1296                      .dwattr DW$71, DW_AT_low_pc(DW$L$_spiCmd$19$B)
    1297                      .dwattr DW$71, DW_AT_high_pc(DW$L$_spiCmd$19$E)
    1298                      .dwendtag DW$70
    1299              
    1300              
    1301              DW$72   .dwtag  DW_TAG_loop
    1302                      .dwattr DW$72, DW_AT_name("D:\DEV\Amot\BearingWear\XTSW_V6_20\mmc_mcf.asm:L28:1:1471518981")
    1303                      .dwattr DW$72, DW_AT_begin_file("mmc_mcf.c")
    1304                      .dwattr DW$72, DW_AT_begin_line(0x24d)
    1305                      .dwattr DW$72, DW_AT_end_line(0x256)
    1306              DW$73   .dwtag  DW_TAG_loop_range
    1307                      .dwattr DW$73, DW_AT_low_pc(DW$L$_spiCmd$10$B)
    1308                      .dwattr DW$73, DW_AT_high_pc(DW$L$_spiCmd$10$E)
    1309              DW$74   .dwtag  DW_TAG_loop_range
    1310                      .dwattr DW$74, DW_AT_low_pc(DW$L$_spiCmd$11$B)
    1311                      .dwattr DW$74, DW_AT_high_pc(DW$L$_spiCmd$11$E)
    1312              DW$75   .dwtag  DW_TAG_loop_range
TMS320C2000 COFF Assembler PC v4.1.3 Thu Aug 18 12:16:22 2016

Tools Copyright (c) 1996-2006 Texas Instruments Incorporated
mmc_mcf.asm                                                          PAGE   27

    1313                      .dwattr DW$75, DW_AT_low_pc(DW$L$_spiCmd$12$B)
    1314                      .dwattr DW$75, DW_AT_high_pc(DW$L$_spiCmd$12$E)
    1315              DW$76   .dwtag  DW_TAG_loop_range
    1316                      .dwattr DW$76, DW_AT_low_pc(DW$L$_spiCmd$13$B)
    1317                      .dwattr DW$76, DW_AT_high_pc(DW$L$_spiCmd$13$E)
    1318              DW$77   .dwtag  DW_TAG_loop_range
    1319                      .dwattr DW$77, DW_AT_low_pc(DW$L$_spiCmd$14$B)
    1320                      .dwattr DW$77, DW_AT_high_pc(DW$L$_spiCmd$14$E)
    1321              DW$78   .dwtag  DW_TAG_loop_range
    1322                      .dwattr DW$78, DW_AT_low_pc(DW$L$_spiCmd$15$B)
    1323                      .dwattr DW$78, DW_AT_high_pc(DW$L$_spiCmd$15$E)
    1324                      .dwendtag DW$72
    1325              
    1326              
    1327              DW$79   .dwtag  DW_TAG_loop
    1328                      .dwattr DW$79, DW_AT_name("D:\DEV\Amot\BearingWear\XTSW_V6_20\mmc_mcf.asm:L24:1:1471518981")
    1329                      .dwattr DW$79, DW_AT_begin_file("mmc_mcf.c")
    1330                      .dwattr DW$79, DW_AT_begin_line(0x240)
    1331                      .dwattr DW$79, DW_AT_end_line(0x24a)
    1332              DW$80   .dwtag  DW_TAG_loop_range
    1333                      .dwattr DW$80, DW_AT_low_pc(DW$L$_spiCmd$3$B)
    1334                      .dwattr DW$80, DW_AT_high_pc(DW$L$_spiCmd$3$E)
    1335              DW$81   .dwtag  DW_TAG_loop_range
    1336                      .dwattr DW$81, DW_AT_low_pc(DW$L$_spiCmd$4$B)
    1337                      .dwattr DW$81, DW_AT_high_pc(DW$L$_spiCmd$4$E)
    1338              DW$82   .dwtag  DW_TAG_loop_range
    1339                      .dwattr DW$82, DW_AT_low_pc(DW$L$_spiCmd$5$B)
    1340                      .dwattr DW$82, DW_AT_high_pc(DW$L$_spiCmd$5$E)
    1341              DW$83   .dwtag  DW_TAG_loop_range
    1342                      .dwattr DW$83, DW_AT_low_pc(DW$L$_spiCmd$6$B)
    1343                      .dwattr DW$83, DW_AT_high_pc(DW$L$_spiCmd$6$E)
    1344              DW$84   .dwtag  DW_TAG_loop_range
    1345                      .dwattr DW$84, DW_AT_low_pc(DW$L$_spiCmd$7$B)
    1346                      .dwattr DW$84, DW_AT_high_pc(DW$L$_spiCmd$7$E)
    1347              DW$85   .dwtag  DW_TAG_loop_range
    1348                      .dwattr DW$85, DW_AT_low_pc(DW$L$_spiCmd$8$B)
    1349                      .dwattr DW$85, DW_AT_high_pc(DW$L$_spiCmd$8$E)
    1350                      .dwendtag DW$79
    1351              
    1352                      .dwattr DW$67, DW_AT_end_file("mmc_mcf.c")
    1353                      .dwattr DW$67, DW_AT_end_line(0x26b)
    1354                      .dwattr DW$67, DW_AT_end_column(0x01)
    1355                      .dwendtag DW$67
    1356              
    1357 0000020a               .sect   ".text"
    1358              
    1359              DW$86   .dwtag  DW_TAG_subprogram, DW_AT_name("spiGetDataBlock"), DW_AT_symbol_name("_spiGetDataBlock")
    1360                      .dwattr DW$86, DW_AT_low_pc(_spiGetDataBlock)
    1361                      .dwattr DW$86, DW_AT_high_pc(0x00)
    1362                      .dwattr DW$86, DW_AT_begin_file("mmc_mcf.c")
    1363                      .dwattr DW$86, DW_AT_begin_line(0x27f)
    1364                      .dwattr DW$86, DW_AT_begin_column(0x0c)
    1365                      .dwattr DW$86, DW_AT_frame_base[DW_OP_breg20 -14]
    1366                      .dwattr DW$86, DW_AT_skeletal(0x01)
    1367                      .dwpsn  "mmc_mcf.c",639,93
TMS320C2000 COFF Assembler PC v4.1.3 Thu Aug 18 12:16:22 2016

Tools Copyright (c) 1996-2006 Texas Instruments Incorporated
mmc_mcf.asm                                                          PAGE   28

    1368              
    1369              ;***************************************************************
    1370              ;* FNAME: _spiGetDataBlock              FR SIZE:  12           *
    1371              ;*                                                             *
    1372              ;* FUNCTION ENVIRONMENT                                        *
    1373              ;*                                                             *
    1374              ;* FUNCTION PROPERTIES                                         *
    1375              ;*                            2 Parameter,  4 Auto,  6 SOE     *
    1376              ;***************************************************************
    1377              
    1378              _spiGetDataBlock:
    1379              ;* AR4   assigned to _dwaddr
    1380              DW$87   .dwtag  DW_TAG_formal_parameter, DW_AT_name("dwaddr"), DW_AT_symbol_name("_dwaddr")
    1381                      .dwattr DW$87, DW_AT_type(*DW$T$96)
    1382                      .dwattr DW$87, DW_AT_location[DW_OP_reg12]
    1383              ;* AL    assigned to _addr
    1384              DW$88   .dwtag  DW_TAG_formal_parameter, DW_AT_name("addr"), DW_AT_symbol_name("_addr")
    1385                      .dwattr DW$88, DW_AT_type(*DW$T$13)
    1386                      .dwattr DW$88, DW_AT_location[DW_OP_reg0]
    1387              DW$89   .dwtag  DW_TAG_formal_parameter, DW_AT_name("cnt"), DW_AT_symbol_name("_cnt")
    1388                      .dwattr DW$89, DW_AT_type(*DW$T$10)
    1389                      .dwattr DW$89, DW_AT_location[DW_OP_breg20 -15]
    1390              ;* AR5   assigned to _user_ptr
    1391              DW$90   .dwtag  DW_TAG_formal_parameter, DW_AT_name("user_ptr"), DW_AT_symbol_name("_user_ptr")
    1392                      .dwattr DW$90, DW_AT_type(*DW$T$3)
    1393                      .dwattr DW$90, DW_AT_location[DW_OP_reg14]
    1394 0000020a B2BD          MOVL      *SP++,XAR1
    1395 0000020b AABD          MOVL      *SP++,XAR2
    1396 0000020c A2BD          MOVL      *SP++,XAR3
    1397 0000020d FE06          ADDB      SP,#6
    1398 0000020e 82A9          MOVL      XAR3,ACC              ; |639| 
    1399 0000020f 924F          MOV       AL,*-SP[15]           ; |639| 
    1400 00000210 9643          MOV       *-SP[3],AL            ; |639| 
    1401 00000211 7640'         LCR       #_spiCSlow            ; |654| 
         00000212 0010 
    1402                      ; call occurs [#_spiCSlow] ; |654| 
    1403 00000213 8BA4          MOVL      XAR1,XAR4             ; |639| 
    1404 00000214 86A5          MOVL      XAR2,XAR5             ; |642| 
    1405 00000215 9B00          MOVB      AH,#0
    1406 00000216 5202          CMPB      AL,#2                 ; |656| 
    1407 00000217 56C4          BF        L36,LT                ; |656| 
         00000218 0003 
    1408                      ; branchcc occurs ; |656| 
    1409 00000219 9B01          MOVB      AH,#1                 ; |656| 
    1410 0000021a       L36:    
    1411 0000021a 9744          MOV       *-SP[4],AH            ; |656| 
    1412 0000021b 7640'         LCR       #_spiWaitBusy         ; |656| 
         0000021c 0175 
    1413                      ; call occurs [#_spiWaitBusy] ; |656| 
    1414 0000021d 5200          CMPB      AL,#0                 ; |656| 
    1415 0000021e EC06          BF        L37,EQ                ; |656| 
    1416                      ; branchcc occurs ; |656| 
    1417 0000021f 7640'         LCR       #_spiCShi             ; |660| 
         00000220 0019 
    1418                      ; call occurs [#_spiCShi] ; |660| 
TMS320C2000 COFF Assembler PC v4.1.3 Thu Aug 18 12:16:22 2016

Tools Copyright (c) 1996-2006 Texas Instruments Incorporated
mmc_mcf.asm                                                          PAGE   29

    1419 00000221 9A69          MOVB      AL,#105               ; |663| 
    1420 00000222 56CF          BF        L52,UNC               ; |663| 
         00000223 00B6 
    1421                      ; branch occurs ; |663| 
    1422 00000224       L37:    
    1423 00000224 9244          MOV       AL,*-SP[4]
    1424 00000225 EC11          BF        L39,EQ                ; |666| 
    1425                      ; branchcc occurs ; |666| 
    1426 00000226 92E2          MOV       AL,*+XAR2[4]          ; |666| 
    1427 00000227 ED0A          BF        L38,NEQ               ; |666| 
    1428                      ; branchcc occurs ; |666| 
    1429 00000228 3B01          SETC      SXM
    1430 00000229 8543          MOV       ACC,*-SP[3]           ; |668| 
    1431 0000022a 1E42          MOVL      *-SP[2],ACC           ; |668| 
    1432 0000022b 0217          MOVB      ACC,#23
    1433 0000022c 7640'         LCR       #_spiCmd              ; |668| 
         0000022d 018F 
    1434                      ; call occurs [#_spiCmd] ; |668| 
    1435 0000022e FF58          TEST      ACC                   ; |668| 
    1436 0000022f 56C0          BF        L50,NEQ               ; |668| 
         00000230 00A2 
    1437                      ; branchcc occurs ; |668| 
    1438 00000231       L38:    
    1439 00000231 9244          MOV       AL,*-SP[4]
    1440 00000232 EC04          BF        L39,EQ                ; |678| 
    1441                      ; branchcc occurs ; |678| 
    1442 00000233 0212          MOVB      ACC,#18
    1443 00000234 56CF          BF        L40,UNC               ; |678| 
         00000235 0003 
    1444                      ; branch occurs ; |678| 
    1445 00000236       L39:    
    1446 00000236 0211          MOVB      ACC,#17
    1447 00000237       L40:    
    1448 00000237 A242          MOVL      *-SP[2],XAR3          ; |678| 
    1449 00000238 7640'         LCR       #_spiCmd              ; |678| 
         00000239 018F 
    1450                      ; call occurs [#_spiCmd] ; |678| 
    1451 0000023a FF58          TEST      ACC                   ; |678| 
    1452 0000023b 56C0          BF        L50,NEQ               ; |678| 
         0000023c 0096 
    1453                      ; branchcc occurs ; |678| 
    1454 0000023d 9243          MOV       AL,*-SP[3]
    1455 0000023e 56C1          BF        L49,EQ                ; |687| 
         0000023f 0088 
    1456                      ; branchcc occurs ; |687| 
    1457              L41:    
    1458              DW$L$_spiGetDataBlock$13$B:
    1459                      .dwpsn  "mmc_mcf.c",688,0
    1460 00000240 0200          MOVB      ACC,#0
    1461 00000241 1E46          MOVL      *-SP[6],ACC           ; |692| 
    1462 00000242 7640'         LCR       #_spiWaitStartBit     ; |694| 
         00000243 015B 
    1463                      ; call occurs [#_spiWaitStartBit] ; |694| 
    1464 00000244 5200          CMPB      AL,#0                 ; |694| 
    1465 00000245 EC06          BF        L42,EQ                ; |694| 
TMS320C2000 COFF Assembler PC v4.1.3 Thu Aug 18 12:16:22 2016

Tools Copyright (c) 1996-2006 Texas Instruments Incorporated
mmc_mcf.asm                                                          PAGE   30

    1466                      ; branchcc occurs ; |694| 
    1467 00000246       DW$L$_spiGetDataBlock$13$E:
    1468 00000246 7640'         LCR       #_spiCShi             ; |695| 
         00000247 0019 
    1469                      ; call occurs [#_spiCShi] ; |695| 
    1470 00000248 9A68          MOVB      AL,#104               ; |698| 
    1471 00000249 56CF          BF        L52,UNC               ; |698| 
         0000024a 008F 
    1472                      ; branch occurs ; |698| 
    1473              L42:    
    1474              DW$L$_spiGetDataBlock$15$B:
    1475                      .dwpsn  "mmc_mcf.c",701,0
    1476 0000024b D300          MOVB      XAR3,#0
    1477 0000024c       DW$L$_spiGetDataBlock$15$E:
    1478 0000024c       L43:    
    1479 0000024c       DW$L$_spiGetDataBlock$16$B:
    1480 0000024c 7640'         LCR       #_spigetbit32         ; |702| 
         0000024d 00C3 
    1481                      ; call occurs [#_spigetbit32] ; |702| 
    1482 0000024e 28AC          MOV       T,#24                 ; |707| 
         0000024f 0018 
    1483 00000250 FF5A          MOVL      P,ACC                 ; |702| 
    1484 00000251 5622          LSRL      ACC,T                 ; |707| 
    1485 00000252 9681          MOV       *XAR1++,AL            ; |707| 
    1486 00000253 A9A9          MOVL      ACC,P                 ; |708| 
    1487 00000254 0EA8          MOVU      ACC,AH                ; |708| 
    1488 00000255 2901          CLRC      SXM
    1489 00000256 90FF          ANDB      AL,#0xff              ; |708| 
    1490 00000257 9681          MOV       *XAR1++,AL            ; |708| 
    1491 00000258 A9A9          MOVL      ACC,P                 ; |709| 
    1492 00000259 8F00-         MOVL      XAR4,#_CRCtbl         ; |712| 
         0000025a 00C0 
    1493 0000025b FF47          SFR       ACC,8                 ; |709| 
    1494 0000025c 1EA6          MOVL      XAR6,ACC              ; |709| 
    1495 0000025d 90FF          ANDB      AL,#0xff              ; |709| 
    1496 0000025e 9681          MOV       *XAR1++,AL            ; |709| 
    1497 0000025f A9A9          MOVL      ACC,P                 ; |710| 
    1498 00000260 90FF          ANDB      AL,#0xff              ; |710| 
    1499 00000261 83A4          MOVL      XAR5,XAR4             ; |712| 
    1500 00000262 9681          MOV       *XAR1++,AL            ; |710| 
    1501 00000263 9246          MOV       AL,*-SP[6]            ; |712| 
    1502 00000264 70AA          XOR       AL,PH                 ; |712| 
    1503 00000265 0EA9          MOVU      ACC,AL
    1504 00000266 FF47          SFR       ACC,8                 ; |712| 
    1505 00000267 FF30          LSL       ACC,1                 ; |712| 
    1506 00000268 5601          ADDL      XAR5,ACC
         00000269 00A5 
    1507 0000026a 0646          MOVL      ACC,*-SP[6]           ; |712| 
    1508 0000026b FF37          LSL       ACC,8                 ; |712| 
    1509 0000026c 71CD          XOR       AH,*+XAR5[1]          ; |712| 
    1510 0000026d 70C5          XOR       AL,*+XAR5[0]          ; |712| 
    1511 0000026e 1E46          MOVL      *-SP[6],ACC           ; |712| 
    1512 0000026f 9346          MOV       AH,*-SP[6]            ; |713| 
    1513 00000270 71A6          XOR       AH,AR6                ; |713| 
    1514 00000271 83A4          MOVL      XAR5,XAR4             ; |713| 
TMS320C2000 COFF Assembler PC v4.1.3 Thu Aug 18 12:16:22 2016

Tools Copyright (c) 1996-2006 Texas Instruments Incorporated
mmc_mcf.asm                                                          PAGE   31

    1515 00000272 0EA8          MOVU      ACC,AH
    1516 00000273 FF47          SFR       ACC,8                 ; |713| 
    1517 00000274 FF30          LSL       ACC,1                 ; |713| 
    1518 00000275 5601          ADDL      XAR5,ACC
         00000276 00A5 
    1519 00000277 0646          MOVL      ACC,*-SP[6]           ; |713| 
    1520 00000278 FF37          LSL       ACC,8                 ; |713| 
    1521 00000279 71CD          XOR       AH,*+XAR5[1]          ; |713| 
    1522 0000027a 70C5          XOR       AL,*+XAR5[0]          ; |713| 
    1523 0000027b 1E46          MOVL      *-SP[6],ACC           ; |713| 
    1524 0000027c 93AB          MOV       AH,PL                 ; |714| 
    1525 0000027d 7146          XOR       AH,*-SP[6]            ; |714| 
    1526 0000027e 83A4          MOVL      XAR5,XAR4             ; |714| 
    1527 0000027f 0EA8          MOVU      ACC,AH
    1528 00000280 FF47          SFR       ACC,8                 ; |714| 
    1529 00000281 FF30          LSL       ACC,1                 ; |714| 
    1530 00000282 5601          ADDL      XAR5,ACC
         00000283 00A5 
    1531 00000284 0646          MOVL      ACC,*-SP[6]           ; |714| 
    1532 00000285 FF37          LSL       ACC,8                 ; |714| 
    1533 00000286 71CD          XOR       AH,*+XAR5[1]          ; |714| 
    1534 00000287 70C5          XOR       AL,*+XAR5[0]          ; |714| 
    1535 00000288 1E46          MOVL      *-SP[6],ACC           ; |714| 
    1536 00000289 FF47          SFR       ACC,8                 ; |715| 
    1537 0000028a 93A9          MOV       AH,AL                 ; |715| 
    1538 0000028b 92AB          MOV       AL,PL                 ; |715| 
    1539 0000028c 70A8          XOR       AL,AH                 ; |715| 
    1540 0000028d 90FF          ANDB      AL,#0xff              ; |715| 
    1541 0000028e 0EA9          MOVU      ACC,AL
    1542 0000028f FF30          LSL       ACC,1                 ; |715| 
    1543 00000290 5601          ADDL      XAR4,ACC
         00000291 00A4 
    1544 00000292 0646          MOVL      ACC,*-SP[6]           ; |715| 
    1545 00000293 FF37          LSL       ACC,8                 ; |715| 
    1546 00000294 71CC          XOR       AH,*+XAR4[1]          ; |715| 
    1547 00000295 70C4          XOR       AL,*+XAR4[0]          ; |715| 
    1548 00000296 1E46          MOVL      *-SP[6],ACC           ; |715| 
    1549 00000297 A2A9          MOVL      ACC,XAR3              ; |715| 
    1550 00000298 0901          ADDB      ACC,#1                ; |701| 
    1551 00000299 82A9          MOVL      XAR3,ACC              ; |701| 
    1552 0000029a 0280          MOVB      ACC,#128
    1553 0000029b 0FA3          CMPL      ACC,XAR3              ; |701| 
    1554                      .dwpsn  "mmc_mcf.c",716,0
    1555 0000029c 56C2          BF        L43,GT                ; |701| 
         0000029d FFB0 
    1556                      ; branchcc occurs ; |701| 
    1557              DW$L$_spiGetDataBlock$16$E:
    1558              DW$L$_spiGetDataBlock$17$B:
    1559                      .dwpsn  "mmc_mcf.c",719,0
    1560 0000029e D300          MOVB      XAR3,#0
    1561 0000029f       DW$L$_spiGetDataBlock$17$E:
    1562 0000029f       L44:    
    1563 0000029f       DW$L$_spiGetDataBlock$18$B:
    1564 0000029f 7640'         LCR       #_spigetbit           ; |720| 
         000002a0 008E 
TMS320C2000 COFF Assembler PC v4.1.3 Thu Aug 18 12:16:22 2016

Tools Copyright (c) 1996-2006 Texas Instruments Incorporated
mmc_mcf.asm                                                          PAGE   32

    1565                      ; call occurs [#_spigetbit] ; |720| 
    1566 000002a1 FF58          TEST      ACC                   ; |720| 
    1567 000002a2 EC03          BF        L45,EQ                ; |720| 
    1568                      ; branchcc occurs ; |720| 
    1569 000002a3       DW$L$_spiGetDataBlock$18$E:
    1570 000002a3       DW$L$_spiGetDataBlock$19$B:
    1571 000002a3 1C46          XOR       *-SP[6],#0x8000       ; |721| 
         000002a4 8000 
    1572 000002a5       DW$L$_spiGetDataBlock$19$E:
    1573 000002a5       L45:    
    1574 000002a5       DW$L$_spiGetDataBlock$20$B:
    1575 000002a5 2901          CLRC      SXM
    1576 000002a6 FF20          MOV       ACC,#32768            ; |724| 
         000002a7 8000 
    1577 000002a8 CE46          AND       AL,*-SP[6]            ; |724| 
    1578 000002a9 CF45          AND       AH,*-SP[5]            ; |724| 
    1579 000002aa FF58          TEST      ACC                   ; |724| 
    1580 000002ab ED05          BF        L46,NEQ               ; |724| 
    1581                      ; branchcc occurs ; |724| 
    1582 000002ac       DW$L$_spiGetDataBlock$20$E:
    1583 000002ac       DW$L$_spiGetDataBlock$21$B:
    1584 000002ac 0646          MOVL      ACC,*-SP[6]
    1585 000002ad FF30          LSL       ACC,1                 ; |725| 
    1586 000002ae 56CF          BF        L47,UNC               ; |725| 
         000002af 0006 
    1587                      ; branch occurs ; |725| 
    1588 000002b0       DW$L$_spiGetDataBlock$21$E:
    1589 000002b0       L46:    
    1590 000002b0       DW$L$_spiGetDataBlock$22$B:
    1591 000002b0 0646          MOVL      ACC,*-SP[6]
    1592 000002b1 FF30          LSL       ACC,1                 ; |724| 
    1593 000002b2 1CA9          XOR       AL,#0x1021            ; |724| 
         000002b3 1021 
    1594 000002b4       DW$L$_spiGetDataBlock$22$E:
    1595 000002b4       L47:    
    1596 000002b4       DW$L$_spiGetDataBlock$23$B:
    1597 000002b4 1E46          MOVL      *-SP[6],ACC           ; |724| 
    1598 000002b5 A2A9          MOVL      ACC,XAR3
    1599 000002b6 0901          ADDB      ACC,#1                ; |719| 
    1600 000002b7 82A9          MOVL      XAR3,ACC              ; |719| 
    1601 000002b8 0210          MOVB      ACC,#16
    1602 000002b9 0FA3          CMPL      ACC,XAR3              ; |719| 
    1603                      .dwpsn  "mmc_mcf.c",726,0
    1604 000002ba 56C2          BF        L44,GT                ; |719| 
         000002bb FFE5 
    1605                      ; branchcc occurs ; |719| 
    1606 000002bc       DW$L$_spiGetDataBlock$23$E:
    1607 000002bc       DW$L$_spiGetDataBlock$24$B:
    1608 000002bc 0646          MOVL      ACC,*-SP[6]
    1609 000002bd EC06          BF        L48,EQ                ; |728| 
    1610                      ; branchcc occurs ; |728| 
    1611 000002be       DW$L$_spiGetDataBlock$24$E:
    1612 000002be 7640'         LCR       #_spiCShi             ; |730| 
         000002bf 0019 
    1613                      ; call occurs [#_spiCShi] ; |730| 
TMS320C2000 COFF Assembler PC v4.1.3 Thu Aug 18 12:16:22 2016

Tools Copyright (c) 1996-2006 Texas Instruments Incorporated
mmc_mcf.asm                                                          PAGE   33

    1614 000002c0 9A6A          MOVB      AL,#106               ; |733| 
    1615 000002c1 56CF          BF        L52,UNC               ; |733| 
         000002c2 0017 
    1616                      ; branch occurs ; |733| 
    1617 000002c3       L48:    
    1618 000002c3       DW$L$_spiGetDataBlock$26$B:
    1619 000002c3 0B43          DEC       *-SP[3]               ; |687| 
    1620                      .dwpsn  "mmc_mcf.c",735,0
    1621 000002c4 56C0          BF        L41,NEQ               ; |687| 
         000002c5 FF7C 
    1622                      ; branchcc occurs ; |687| 
    1623 000002c6       DW$L$_spiGetDataBlock$26$E:
    1624 000002c6       L49:    
    1625 000002c6 9244          MOV       AL,*-SP[4]
    1626 000002c7 EC10          BF        L51,EQ                ; |737| 
    1627                      ; branchcc occurs ; |737| 
    1628 000002c8 92E2          MOV       AL,*+XAR2[4]          ; |737| 
    1629 000002c9 EC0E          BF        L51,EQ                ; |737| 
    1630                      ; branchcc occurs ; |737| 
    1631 000002ca 0200          MOVB      ACC,#0
    1632 000002cb 1E42          MOVL      *-SP[2],ACC           ; |739| 
    1633 000002cc 020C          MOVB      ACC,#12
    1634 000002cd 7640'         LCR       #_spiCmd              ; |739| 
         000002ce 018F 
    1635                      ; call occurs [#_spiCmd] ; |739| 
    1636 000002cf FF58          TEST      ACC                   ; |739| 
    1637 000002d0 EC07          BF        L51,EQ                ; |739| 
    1638                      ; branchcc occurs ; |739| 
    1639 000002d1       L50:    
    1640 000002d1 7640'         LCR       #_spiCShi             ; |741| 
         000002d2 0019 
    1641                      ; call occurs [#_spiCShi] ; |741| 
    1642 000002d3 9A67          MOVB      AL,#103               ; |745| 
    1643 000002d4 2BDA          MOV       *+XAR2[3],#0          ; |742| 
    1644 000002d5 56CF          BF        L52,UNC               ; |745| 
         000002d6 0003 
    1645                      ; branch occurs ; |745| 
    1646 000002d7       L51:    
    1647 000002d7 9A00          MOVB      AL,#0
    1648 000002d8       L52:    
    1649 000002d8 FE86          SUBB      SP,#6                 ; |748| 
    1650 000002d9 82BE          MOVL      XAR3,*--SP            ; |748| 
    1651 000002da 86BE          MOVL      XAR2,*--SP            ; |748| 
    1652 000002db 8BBE          MOVL      XAR1,*--SP            ; |748| 
    1653                      .dwpsn  "mmc_mcf.c",749,1
    1654 000002dc 0006          LRETR
    1655                      ; return occurs
    1656              
    1657              DW$91   .dwtag  DW_TAG_loop
    1658                      .dwattr DW$91, DW_AT_name("D:\DEV\Amot\BearingWear\XTSW_V6_20\mmc_mcf.asm:L41:1:1471518981")
    1659                      .dwattr DW$91, DW_AT_begin_file("mmc_mcf.c")
    1660                      .dwattr DW$91, DW_AT_begin_line(0x2af)
    1661                      .dwattr DW$91, DW_AT_end_line(0x2df)
    1662              DW$92   .dwtag  DW_TAG_loop_range
    1663                      .dwattr DW$92, DW_AT_low_pc(DW$L$_spiGetDataBlock$13$B)
TMS320C2000 COFF Assembler PC v4.1.3 Thu Aug 18 12:16:22 2016

Tools Copyright (c) 1996-2006 Texas Instruments Incorporated
mmc_mcf.asm                                                          PAGE   34

    1664                      .dwattr DW$92, DW_AT_high_pc(DW$L$_spiGetDataBlock$13$E)
    1665              DW$93   .dwtag  DW_TAG_loop_range
    1666                      .dwattr DW$93, DW_AT_low_pc(DW$L$_spiGetDataBlock$15$B)
    1667                      .dwattr DW$93, DW_AT_high_pc(DW$L$_spiGetDataBlock$15$E)
    1668              DW$94   .dwtag  DW_TAG_loop_range
    1669                      .dwattr DW$94, DW_AT_low_pc(DW$L$_spiGetDataBlock$17$B)
    1670                      .dwattr DW$94, DW_AT_high_pc(DW$L$_spiGetDataBlock$17$E)
    1671              DW$95   .dwtag  DW_TAG_loop_range
    1672                      .dwattr DW$95, DW_AT_low_pc(DW$L$_spiGetDataBlock$24$B)
    1673                      .dwattr DW$95, DW_AT_high_pc(DW$L$_spiGetDataBlock$24$E)
    1674              DW$96   .dwtag  DW_TAG_loop_range
    1675                      .dwattr DW$96, DW_AT_low_pc(DW$L$_spiGetDataBlock$26$B)
    1676                      .dwattr DW$96, DW_AT_high_pc(DW$L$_spiGetDataBlock$26$E)
    1677              
    1678              DW$97   .dwtag  DW_TAG_loop
    1679                      .dwattr DW$97, DW_AT_name("D:\DEV\Amot\BearingWear\XTSW_V6_20\mmc_mcf.asm:L43:2:1471518981")
    1680                      .dwattr DW$97, DW_AT_begin_file("mmc_mcf.c")
    1681                      .dwattr DW$97, DW_AT_begin_line(0x2bd)
    1682                      .dwattr DW$97, DW_AT_end_line(0x2cc)
    1683              DW$98   .dwtag  DW_TAG_loop_range
    1684                      .dwattr DW$98, DW_AT_low_pc(DW$L$_spiGetDataBlock$16$B)
    1685                      .dwattr DW$98, DW_AT_high_pc(DW$L$_spiGetDataBlock$16$E)
    1686                      .dwendtag DW$97
    1687              
    1688              
    1689              DW$99   .dwtag  DW_TAG_loop
    1690                      .dwattr DW$99, DW_AT_name("D:\DEV\Amot\BearingWear\XTSW_V6_20\mmc_mcf.asm:L44:2:1471518981")
    1691                      .dwattr DW$99, DW_AT_begin_file("mmc_mcf.c")
    1692                      .dwattr DW$99, DW_AT_begin_line(0x2cf)
    1693                      .dwattr DW$99, DW_AT_end_line(0x2d6)
    1694              DW$100  .dwtag  DW_TAG_loop_range
    1695                      .dwattr DW$100, DW_AT_low_pc(DW$L$_spiGetDataBlock$18$B)
    1696                      .dwattr DW$100, DW_AT_high_pc(DW$L$_spiGetDataBlock$18$E)
    1697              DW$101  .dwtag  DW_TAG_loop_range
    1698                      .dwattr DW$101, DW_AT_low_pc(DW$L$_spiGetDataBlock$19$B)
    1699                      .dwattr DW$101, DW_AT_high_pc(DW$L$_spiGetDataBlock$19$E)
    1700              DW$102  .dwtag  DW_TAG_loop_range
    1701                      .dwattr DW$102, DW_AT_low_pc(DW$L$_spiGetDataBlock$20$B)
    1702                      .dwattr DW$102, DW_AT_high_pc(DW$L$_spiGetDataBlock$20$E)
    1703              DW$103  .dwtag  DW_TAG_loop_range
    1704                      .dwattr DW$103, DW_AT_low_pc(DW$L$_spiGetDataBlock$21$B)
    1705                      .dwattr DW$103, DW_AT_high_pc(DW$L$_spiGetDataBlock$21$E)
    1706              DW$104  .dwtag  DW_TAG_loop_range
    1707                      .dwattr DW$104, DW_AT_low_pc(DW$L$_spiGetDataBlock$22$B)
    1708                      .dwattr DW$104, DW_AT_high_pc(DW$L$_spiGetDataBlock$22$E)
    1709              DW$105  .dwtag  DW_TAG_loop_range
    1710                      .dwattr DW$105, DW_AT_low_pc(DW$L$_spiGetDataBlock$23$B)
    1711                      .dwattr DW$105, DW_AT_high_pc(DW$L$_spiGetDataBlock$23$E)
    1712                      .dwendtag DW$99
    1713              
    1714                      .dwendtag DW$91
    1715              
    1716                      .dwattr DW$86, DW_AT_end_file("mmc_mcf.c")
    1717                      .dwattr DW$86, DW_AT_end_line(0x2ed)
    1718                      .dwattr DW$86, DW_AT_end_column(0x01)
TMS320C2000 COFF Assembler PC v4.1.3 Thu Aug 18 12:16:22 2016

Tools Copyright (c) 1996-2006 Texas Instruments Incorporated
mmc_mcf.asm                                                          PAGE   35

    1719                      .dwendtag DW$86
    1720              
    1721 000002dd               .sect   ".text"
    1722              
    1723              DW$106  .dwtag  DW_TAG_subprogram, DW_AT_name("spiSetDataBlock"), DW_AT_symbol_name("_spiSetDataBlock")
    1724                      .dwattr DW$106, DW_AT_low_pc(_spiSetDataBlock)
    1725                      .dwattr DW$106, DW_AT_high_pc(0x00)
    1726                      .dwattr DW$106, DW_AT_begin_file("mmc_mcf.c")
    1727                      .dwattr DW$106, DW_AT_begin_line(0x301)
    1728                      .dwattr DW$106, DW_AT_begin_column(0x0c)
    1729                      .dwattr DW$106, DW_AT_frame_base[DW_OP_breg20 -16]
    1730                      .dwattr DW$106, DW_AT_skeletal(0x01)
    1731                      .dwpsn  "mmc_mcf.c",769,93
    1732              
    1733              ;***************************************************************
    1734              ;* FNAME: _spiSetDataBlock              FR SIZE:  14           *
    1735              ;*                                                             *
    1736              ;* FUNCTION ENVIRONMENT                                        *
    1737              ;*                                                             *
    1738              ;* FUNCTION PROPERTIES                                         *
    1739              ;*                            2 Parameter,  6 Auto,  6 SOE     *
    1740              ;***************************************************************
    1741              
    1742              _spiSetDataBlock:
    1743              ;* AR4   assigned to _dwaddr
    1744              DW$107  .dwtag  DW_TAG_formal_parameter, DW_AT_name("dwaddr"), DW_AT_symbol_name("_dwaddr")
    1745                      .dwattr DW$107, DW_AT_type(*DW$T$96)
    1746                      .dwattr DW$107, DW_AT_location[DW_OP_reg12]
    1747              ;* AL    assigned to _addr
    1748              DW$108  .dwtag  DW_TAG_formal_parameter, DW_AT_name("addr"), DW_AT_symbol_name("_addr")
    1749                      .dwattr DW$108, DW_AT_type(*DW$T$13)
    1750                      .dwattr DW$108, DW_AT_location[DW_OP_reg0]
    1751              DW$109  .dwtag  DW_TAG_formal_parameter, DW_AT_name("cnt"), DW_AT_symbol_name("_cnt")
    1752                      .dwattr DW$109, DW_AT_type(*DW$T$10)
    1753                      .dwattr DW$109, DW_AT_location[DW_OP_breg20 -17]
    1754              ;* AR5   assigned to _user_ptr
    1755              DW$110  .dwtag  DW_TAG_formal_parameter, DW_AT_name("user_ptr"), DW_AT_symbol_name("_user_ptr")
    1756                      .dwattr DW$110, DW_AT_type(*DW$T$3)
    1757                      .dwattr DW$110, DW_AT_location[DW_OP_reg14]
    1758 000002dd B2BD          MOVL      *SP++,XAR1
    1759 000002de AABD          MOVL      *SP++,XAR2
    1760 000002df A2BD          MOVL      *SP++,XAR3
    1761 000002e0 FE08          ADDB      SP,#8
    1762 000002e1 82A9          MOVL      XAR3,ACC              ; |769| 
    1763 000002e2 9251          MOV       AL,*-SP[17]           ; |769| 
    1764 000002e3 9643          MOV       *-SP[3],AL            ; |769| 
    1765 000002e4 7640'         LCR       #_spiCSlow            ; |782| 
         000002e5 0010 
    1766                      ; call occurs [#_spiCSlow] ; |782| 
    1767 000002e6 8BA4          MOVL      XAR1,XAR4             ; |769| 
    1768 000002e7 86A5          MOVL      XAR2,XAR5             ; |772| 
    1769 000002e8 9B00          MOVB      AH,#0
    1770 000002e9 5202          CMPB      AL,#2                 ; |784| 
    1771 000002ea 56C4          BF        L53,LT                ; |784| 
         000002eb 0003 
TMS320C2000 COFF Assembler PC v4.1.3 Thu Aug 18 12:16:22 2016

Tools Copyright (c) 1996-2006 Texas Instruments Incorporated
mmc_mcf.asm                                                          PAGE   36

    1772                      ; branchcc occurs ; |784| 
    1773 000002ec 9B01          MOVB      AH,#1                 ; |784| 
    1774 000002ed       L53:    
    1775 000002ed 9744          MOV       *-SP[4],AH            ; |784| 
    1776 000002ee 7640'         LCR       #_spiWaitBusy         ; |784| 
         000002ef 0175 
    1777                      ; call occurs [#_spiWaitBusy] ; |784| 
    1778 000002f0 5200          CMPB      AL,#0                 ; |784| 
    1779 000002f1 56C0          BF        L69,NEQ               ; |784| 
         000002f2 00CE 
    1780                      ; branchcc occurs ; |784| 
    1781 000002f3 9244          MOV       AL,*-SP[4]
    1782 000002f4 EC10          BF        L55,EQ                ; |794| 
    1783                      ; branchcc occurs ; |794| 
    1784 000002f5 92E2          MOV       AL,*+XAR2[4]          ; |794| 
    1785 000002f6 ED09          BF        L54,NEQ               ; |794| 
    1786                      ; branchcc occurs ; |794| 
    1787 000002f7 3B01          SETC      SXM
    1788 000002f8 8543          MOV       ACC,*-SP[3]           ; |796| 
    1789 000002f9 1E42          MOVL      *-SP[2],ACC           ; |796| 
    1790 000002fa 0217          MOVB      ACC,#23
    1791 000002fb 7640'         LCR       #_spiCmd              ; |796| 
         000002fc 018F 
    1792                      ; call occurs [#_spiCmd] ; |796| 
    1793 000002fd FF58          TEST      ACC                   ; |796| 
    1794 000002fe ED0C          BF        L57,NEQ               ; |796| 
    1795                      ; branchcc occurs ; |796| 
    1796 000002ff       L54:    
    1797 000002ff 9244          MOV       AL,*-SP[4]
    1798 00000300 EC04          BF        L55,EQ                ; |806| 
    1799                      ; branchcc occurs ; |806| 
    1800 00000301 0219          MOVB      ACC,#25
    1801 00000302 56CF          BF        L56,UNC               ; |806| 
         00000303 0003 
    1802                      ; branch occurs ; |806| 
    1803 00000304       L55:    
    1804 00000304 0218          MOVB      ACC,#24
    1805 00000305       L56:    
    1806 00000305 A242          MOVL      *-SP[2],XAR3          ; |806| 
    1807 00000306 7640'         LCR       #_spiCmd              ; |806| 
         00000307 018F 
    1808                      ; call occurs [#_spiCmd] ; |806| 
    1809 00000308 FF58          TEST      ACC                   ; |806| 
    1810 00000309 EC07          BF        L58,EQ                ; |806| 
    1811                      ; branchcc occurs ; |806| 
    1812 0000030a       L57:    
    1813 0000030a 7640'         LCR       #_spiCShi             ; |808| 
         0000030b 0019 
    1814                      ; call occurs [#_spiCShi] ; |808| 
    1815 0000030c 9A67          MOVB      AL,#103               ; |812| 
    1816 0000030d 2BDA          MOV       *+XAR2[3],#0          ; |809| 
    1817 0000030e 56CF          BF        L71,UNC               ; |812| 
         0000030f 00B9 
    1818                      ; branch occurs ; |812| 
    1819 00000310       L58:    
TMS320C2000 COFF Assembler PC v4.1.3 Thu Aug 18 12:16:22 2016

Tools Copyright (c) 1996-2006 Texas Instruments Incorporated
mmc_mcf.asm                                                          PAGE   37

    1820 00000310 9243          MOV       AL,*-SP[3]
    1821 00000311 56C1          BF        L68,EQ                ; |815| 
         00000312 00A1 
    1822                      ; branchcc occurs ; |815| 
    1823              L59:    
    1824              DW$L$_spiSetDataBlock$13$B:
    1825                      .dwpsn  "mmc_mcf.c",816,0
    1826 00000313 9244          MOV       AL,*-SP[4]            ; |821| 
    1827 00000314 D300          MOVB      XAR3,#0
    1828 00000315 EC03          BF        L60,EQ                ; |822| 
    1829                      ; branchcc occurs ; |822| 
    1830 00000316       DW$L$_spiSetDataBlock$13$E:
    1831 00000316       DW$L$_spiSetDataBlock$14$B:
    1832 00000316 92E2          MOV       AL,*+XAR2[4]          ; |822| 
    1833 00000317 ED05          BF        L61,NEQ               ; |822| 
    1834                      ; branchcc occurs ; |822| 
    1835 00000318       DW$L$_spiSetDataBlock$14$E:
    1836 00000318       L60:    
    1837 00000318       DW$L$_spiSetDataBlock$15$B:
    1838 00000318 0200          MOVB      ACC,#0
    1839 00000319 1902          SUBB      ACC,#2
    1840 0000031a 56CF          BF        L62,UNC               ; |823| 
         0000031b 0004 
    1841                      ; branch occurs ; |823| 
    1842 0000031c       DW$L$_spiSetDataBlock$15$E:
    1843 0000031c       L61:    
    1844 0000031c       DW$L$_spiSetDataBlock$16$B:
    1845 0000031c 0200          MOVB      ACC,#0
    1846 0000031d 1904          SUBB      ACC,#4
    1847 0000031e       DW$L$_spiSetDataBlock$16$E:
    1848 0000031e       L62:    
    1849 0000031e       DW$L$_spiSetDataBlock$17$B:
    1850 0000031e 7640'         LCR       #_spitxlong           ; |822| 
         0000031f 0075 
    1851                      ; call occurs [#_spitxlong] ; |822| 
    1852 00000320 0200          MOVB      ACC,#0
    1853                      .dwpsn  "mmc_mcf.c",825,0
    1854 00000321 1E46          MOVL      *-SP[6],ACC           ; |825| 
    1855 00000322       DW$L$_spiSetDataBlock$17$E:
    1856 00000322       L63:    
    1857 00000322       DW$L$_spiSetDataBlock$18$B:
    1858 00000322 9281          MOV       AL,*XAR1++            ; |827| 
    1859 00000323 28AC          MOV       T,#24                 ; |828| 
         00000324 0018 
    1860 00000325 0EA9          MOVU      ACC,AL
    1861 00000326 563B          LSLL      ACC,T                 ; |828| 
    1862 00000327 1E48          MOVL      *-SP[8],ACC           ; |828| 
    1863 00000328 C448          MOVL      XAR6,*-SP[8]          ; |830| 
    1864 00000329 2901          CLRC      SXM
    1865 0000032a 9281          MOV       AL,*XAR1++            ; |829| 
    1866 0000032b 25A9          MOV       ACC,AL << 16          ; |830| 
    1867 0000032c 5601          ADDL      XAR6,ACC
         0000032d 00A6 
    1868 0000032e C248          MOVL      *-SP[8],XAR6          ; |830| 
    1869 0000032f 9281          MOV       AL,*XAR1++            ; |831| 
TMS320C2000 COFF Assembler PC v4.1.3 Thu Aug 18 12:16:22 2016

Tools Copyright (c) 1996-2006 Texas Instruments Incorporated
mmc_mcf.asm                                                          PAGE   38

    1870 00000330 5603          MOV       ACC,AL << 8           ; |832| 
         00000331 08A9 
    1871 00000332 5601          ADDL      XAR6,ACC
         00000333 00A6 
    1872 00000334 C248          MOVL      *-SP[8],XAR6          ; |832| 
    1873 00000335 9281          MOV       AL,*XAR1++            ; |833| 
    1874 00000336 90FF          ANDB      AL,#255               ; |834| 
    1875 00000337 88A9          MOVZ      AR6,AL                ; |834| 
    1876 00000338 0648          MOVL      ACC,*-SP[8]           ; |834| 
    1877 00000339 0DA6          ADDU      ACC,AR6               ; |834| 
    1878 0000033a 1E48          MOVL      *-SP[8],ACC           ; |834| 
    1879 0000033b 7640'         LCR       #_spitxlong           ; |837| 
         0000033c 0075 
    1880                      ; call occurs [#_spitxlong] ; |837| 
    1881 0000033d 92A3          MOV       AL,AR3                ; |839| 
    1882 0000033e 8F00-         MOVL      XAR4,#_CRCtbl         ; |839| 
         0000033f 00C0 
    1883 00000340 7047          XOR       AL,*-SP[7]            ; |839| 
    1884 00000341 2901          CLRC      SXM
    1885 00000342 83A4          MOVL      XAR5,XAR4             ; |839| 
    1886 00000343 0EA9          MOVU      ACC,AL
    1887 00000344 FF47          SFR       ACC,8                 ; |839| 
    1888 00000345 FF30          LSL       ACC,1                 ; |839| 
    1889 00000346 5601          ADDL      XAR5,ACC
         00000347 00A5 
    1890 00000348 A2A9          MOVL      ACC,XAR3              ; |839| 
    1891 00000349 FF37          LSL       ACC,8                 ; |839| 
    1892 0000034a 71CD          XOR       AH,*+XAR5[1]          ; |839| 
    1893 0000034b 70C5          XOR       AL,*+XAR5[0]          ; |839| 
    1894 0000034c 82A9          MOVL      XAR3,ACC              ; |839| 
    1895 0000034d 0648          MOVL      ACC,*-SP[8]           ; |839| 
    1896 0000034e FF47          SFR       ACC,8                 ; |840| 
    1897 0000034f 93A3          MOV       AH,AR3                ; |840| 
    1898 00000350 71A9          XOR       AH,AL                 ; |840| 
    1899 00000351 83A4          MOVL      XAR5,XAR4             ; |840| 
    1900 00000352 0EA8          MOVU      ACC,AH
    1901 00000353 FF47          SFR       ACC,8                 ; |840| 
    1902 00000354 FF30          LSL       ACC,1                 ; |840| 
    1903 00000355 5601          ADDL      XAR5,ACC
         00000356 00A5 
    1904 00000357 A2A9          MOVL      ACC,XAR3              ; |840| 
    1905 00000358 FF37          LSL       ACC,8                 ; |840| 
    1906 00000359 71CD          XOR       AH,*+XAR5[1]          ; |840| 
    1907 0000035a 70C5          XOR       AL,*+XAR5[0]          ; |840| 
    1908 0000035b 82A9          MOVL      XAR3,ACC              ; |840| 
    1909 0000035c 9248          MOV       AL,*-SP[8]            ; |841| 
    1910 0000035d 70A3          XOR       AL,AR3                ; |841| 
    1911 0000035e 83A4          MOVL      XAR5,XAR4             ; |841| 
    1912 0000035f 0EA9          MOVU      ACC,AL
    1913 00000360 FF47          SFR       ACC,8                 ; |841| 
    1914 00000361 FF30          LSL       ACC,1                 ; |841| 
    1915 00000362 5601          ADDL      XAR5,ACC
         00000363 00A5 
    1916 00000364 A2A9          MOVL      ACC,XAR3              ; |841| 
    1917 00000365 FF37          LSL       ACC,8                 ; |841| 
TMS320C2000 COFF Assembler PC v4.1.3 Thu Aug 18 12:16:22 2016

Tools Copyright (c) 1996-2006 Texas Instruments Incorporated
mmc_mcf.asm                                                          PAGE   39

    1918 00000366 71CD          XOR       AH,*+XAR5[1]          ; |841| 
    1919 00000367 70C5          XOR       AL,*+XAR5[0]          ; |841| 
    1920 00000368 82A9          MOVL      XAR3,ACC              ; |841| 
    1921 00000369 FF47          SFR       ACC,8                 ; |842| 
    1922 0000036a 9348          MOV       AH,*-SP[8]            ; |842| 
    1923 0000036b 71A9          XOR       AH,AL                 ; |842| 
    1924 0000036c 91FF          ANDB      AH,#0xff              ; |842| 
    1925 0000036d 0EA8          MOVU      ACC,AH
    1926 0000036e FF30          LSL       ACC,1                 ; |842| 
    1927 0000036f 5601          ADDL      XAR4,ACC
         00000370 00A4 
    1928 00000371 A2A9          MOVL      ACC,XAR3              ; |842| 
    1929 00000372 FF37          LSL       ACC,8                 ; |842| 
    1930 00000373 71CC          XOR       AH,*+XAR4[1]          ; |842| 
    1931 00000374 70C4          XOR       AL,*+XAR4[0]          ; |842| 
    1932 00000375 82A9          MOVL      XAR3,ACC              ; |842| 
    1933 00000376 0646          MOVL      ACC,*-SP[6]           ; |842| 
    1934 00000377 0901          ADDB      ACC,#1                ; |825| 
    1935 00000378 1E46          MOVL      *-SP[6],ACC           ; |825| 
    1936 00000379 C446          MOVL      XAR6,*-SP[6]          ; |825| 
    1937 0000037a 0280          MOVB      ACC,#128
    1938 0000037b 0FA6          CMPL      ACC,XAR6              ; |825| 
    1939                      .dwpsn  "mmc_mcf.c",843,0
    1940 0000037c 56C2          BF        L63,GT                ; |825| 
         0000037d FFA6 
    1941                      ; branchcc occurs ; |825| 
    1942 0000037e       DW$L$_spiSetDataBlock$18$E:
    1943 0000037e       DW$L$_spiSetDataBlock$19$B:
    1944 0000037e 92A3          MOV       AL,AR3                ; |845| 
    1945 0000037f 7640'         LCR       #_spitxword           ; |845| 
         00000380 0069 
    1946                      ; call occurs [#_spitxword] ; |845| 
    1947 00000381 7640'         LCR       #_spiWaitStartBit     ; |847| 
         00000382 015B 
    1948                      ; call occurs [#_spiWaitStartBit] ; |847| 
    1949 00000383 5200          CMPB      AL,#0                 ; |847| 
    1950 00000384 EC06          BF        L64,EQ                ; |847| 
    1951                      ; branchcc occurs ; |847| 
    1952 00000385       DW$L$_spiSetDataBlock$19$E:
    1953 00000385 7640'         LCR       #_spiCShi             ; |848| 
         00000386 0019 
    1954                      ; call occurs [#_spiCShi] ; |848| 
    1955 00000387 9A68          MOVB      AL,#104               ; |851| 
    1956 00000388 56CF          BF        L71,UNC               ; |851| 
         00000389 003F 
    1957                      ; branch occurs ; |851| 
    1958 0000038a       L64:    
    1959 0000038a       DW$L$_spiSetDataBlock$21$B:
    1960 0000038a 0200          MOVB      ACC,#0
    1961 0000038b D300          MOVB      XAR3,#0
    1962                      .dwpsn  "mmc_mcf.c",855,0
    1963 0000038c 1E48          MOVL      *-SP[8],ACC           ; |854| 
    1964 0000038d       DW$L$_spiSetDataBlock$21$E:
    1965 0000038d       L65:    
    1966 0000038d       DW$L$_spiSetDataBlock$22$B:
TMS320C2000 COFF Assembler PC v4.1.3 Thu Aug 18 12:16:22 2016

Tools Copyright (c) 1996-2006 Texas Instruments Incorporated
mmc_mcf.asm                                                          PAGE   40

    1967 0000038d 0648          MOVL      ACC,*-SP[8]
    1968 0000038e FF30          LSL       ACC,1                 ; |856| 
    1969 0000038f 1E48          MOVL      *-SP[8],ACC           ; |856| 
    1970 00000390 7640'         LCR       #_spigetbit           ; |857| 
         00000391 008E 
    1971                      ; call occurs [#_spigetbit] ; |857| 
    1972 00000392 FF58          TEST      ACC                   ; |857| 
    1973 00000393 EC04          BF        L66,EQ                ; |857| 
    1974                      ; branchcc occurs ; |857| 
    1975 00000394       DW$L$_spiSetDataBlock$22$E:
    1976 00000394       DW$L$_spiSetDataBlock$23$B:
    1977 00000394 9248          MOV       AL,*-SP[8]
    1978 00000395 5001          ORB       AL,#0x01              ; |857| 
    1979 00000396 9648          MOV       *-SP[8],AL            ; |857| 
    1980 00000397       DW$L$_spiSetDataBlock$23$E:
    1981 00000397       L66:    
    1982 00000397       DW$L$_spiSetDataBlock$24$B:
    1983 00000397 A2A9          MOVL      ACC,XAR3
    1984 00000398 0901          ADDB      ACC,#1                ; |855| 
    1985 00000399 82A9          MOVL      XAR3,ACC              ; |855| 
    1986 0000039a 0204          MOVB      ACC,#4
    1987 0000039b 0FA3          CMPL      ACC,XAR3              ; |855| 
    1988                      .dwpsn  "mmc_mcf.c",858,0
    1989 0000039c 56C2          BF        L65,GT                ; |855| 
         0000039d FFF1 
    1990                      ; branchcc occurs ; |855| 
    1991 0000039e       DW$L$_spiSetDataBlock$24$E:
    1992 0000039e       DW$L$_spiSetDataBlock$25$B:
    1993 0000039e 9248          MOV       AL,*-SP[8]
    1994 0000039f 901F          ANDB      AL,#0x1f              ; |860| 
    1995 000003a0 9648          MOV       *-SP[8],AL            ; |860| 
    1996 000003a1 2B47          MOV       *-SP[7],#0            ; |860| 
    1997 000003a2 C448          MOVL      XAR6,*-SP[8]          ; |860| 
    1998 000003a3 0205          MOVB      ACC,#5
    1999 000003a4 0FA6          CMPL      ACC,XAR6              ; |860| 
    2000 000003a5 EC06          BF        L67,EQ                ; |860| 
    2001                      ; branchcc occurs ; |860| 
    2002 000003a6       DW$L$_spiSetDataBlock$25$E:
    2003 000003a6 7640'         LCR       #_spiCShi             ; |863| 
         000003a7 0019 
    2004                      ; call occurs [#_spiCShi] ; |863| 
    2005 000003a8 9A6B          MOVB      AL,#107               ; |866| 
    2006 000003a9 56CF          BF        L71,UNC               ; |866| 
         000003aa 001E 
    2007                      ; branch occurs ; |866| 
    2008 000003ab       L67:    
    2009 000003ab       DW$L$_spiSetDataBlock$27$B:
    2010 000003ab 7640'         LCR       #_spiWaitBusy         ; |869| 
         000003ac 0175 
    2011                      ; call occurs [#_spiWaitBusy] ; |869| 
    2012 000003ad 5200          CMPB      AL,#0                 ; |869| 
    2013 000003ae ED11          BF        L69,NEQ               ; |869| 
    2014                      ; branchcc occurs ; |869| 
    2015 000003af       DW$L$_spiSetDataBlock$27$E:
    2016 000003af       DW$L$_spiSetDataBlock$28$B:
TMS320C2000 COFF Assembler PC v4.1.3 Thu Aug 18 12:16:22 2016

Tools Copyright (c) 1996-2006 Texas Instruments Incorporated
mmc_mcf.asm                                                          PAGE   41

    2017 000003af 0B43          DEC       *-SP[3]               ; |815| 
    2018                      .dwpsn  "mmc_mcf.c",875,0
    2019 000003b0 56C0          BF        L59,NEQ               ; |815| 
         000003b1 FF63 
    2020                      ; branchcc occurs ; |815| 
    2021 000003b2       DW$L$_spiSetDataBlock$28$E:
    2022 000003b2       L68:    
    2023 000003b2 9244          MOV       AL,*-SP[4]
    2024 000003b3 EC11          BF        L70,EQ                ; |877| 
    2025                      ; branchcc occurs ; |877| 
    2026 000003b4 92E2          MOV       AL,*+XAR2[4]          ; |877| 
    2027 000003b5 EC0F          BF        L70,EQ                ; |877| 
    2028                      ; branchcc occurs ; |877| 
    2029 000003b6 3B01          SETC      SXM
    2030 000003b7 FF20          MOV       ACC,#-513 << 0
         000003b8 FDFF 
    2031 000003b9 7640'         LCR       #_spitxlong           ; |879| 
         000003ba 0075 
    2032                      ; call occurs [#_spitxlong] ; |879| 
    2033 000003bb 7640'         LCR       #_spiWaitBusy         ; |880| 
         000003bc 0175 
    2034                      ; call occurs [#_spiWaitBusy] ; |880| 
    2035 000003bd 5200          CMPB      AL,#0                 ; |880| 
    2036 000003be EC06          BF        L70,EQ                ; |880| 
    2037                      ; branchcc occurs ; |880| 
    2038 000003bf       L69:    
    2039 000003bf 7640'         LCR       #_spiCShi             ; |882| 
         000003c0 0019 
    2040                      ; call occurs [#_spiCShi] ; |882| 
    2041 000003c1 9A69          MOVB      AL,#105               ; |885| 
    2042 000003c2 56CF          BF        L71,UNC               ; |885| 
         000003c3 0005 
    2043                      ; branch occurs ; |885| 
    2044 000003c4       L70:    
    2045 000003c4 7640'         LCR       #_spiCShi             ; |889| 
         000003c5 0019 
    2046                      ; call occurs [#_spiCShi] ; |889| 
    2047 000003c6 9A00          MOVB      AL,#0
    2048 000003c7       L71:    
    2049 000003c7 FE88          SUBB      SP,#8                 ; |890| 
    2050 000003c8 82BE          MOVL      XAR3,*--SP            ; |890| 
    2051 000003c9 86BE          MOVL      XAR2,*--SP            ; |890| 
    2052 000003ca 8BBE          MOVL      XAR1,*--SP            ; |890| 
    2053                      .dwpsn  "mmc_mcf.c",891,1
    2054 000003cb 0006          LRETR
    2055                      ; return occurs
    2056              
    2057              DW$111  .dwtag  DW_TAG_loop
    2058                      .dwattr DW$111, DW_AT_name("D:\DEV\Amot\BearingWear\XTSW_V6_20\mmc_mcf.asm:L59:1:1471518981")
    2059                      .dwattr DW$111, DW_AT_begin_file("mmc_mcf.c")
    2060                      .dwattr DW$111, DW_AT_begin_line(0x32f)
    2061                      .dwattr DW$111, DW_AT_end_line(0x36b)
    2062              DW$112  .dwtag  DW_TAG_loop_range
    2063                      .dwattr DW$112, DW_AT_low_pc(DW$L$_spiSetDataBlock$13$B)
    2064                      .dwattr DW$112, DW_AT_high_pc(DW$L$_spiSetDataBlock$13$E)
TMS320C2000 COFF Assembler PC v4.1.3 Thu Aug 18 12:16:22 2016

Tools Copyright (c) 1996-2006 Texas Instruments Incorporated
mmc_mcf.asm                                                          PAGE   42

    2065              DW$113  .dwtag  DW_TAG_loop_range
    2066                      .dwattr DW$113, DW_AT_low_pc(DW$L$_spiSetDataBlock$14$B)
    2067                      .dwattr DW$113, DW_AT_high_pc(DW$L$_spiSetDataBlock$14$E)
    2068              DW$114  .dwtag  DW_TAG_loop_range
    2069                      .dwattr DW$114, DW_AT_low_pc(DW$L$_spiSetDataBlock$15$B)
    2070                      .dwattr DW$114, DW_AT_high_pc(DW$L$_spiSetDataBlock$15$E)
    2071              DW$115  .dwtag  DW_TAG_loop_range
    2072                      .dwattr DW$115, DW_AT_low_pc(DW$L$_spiSetDataBlock$16$B)
    2073                      .dwattr DW$115, DW_AT_high_pc(DW$L$_spiSetDataBlock$16$E)
    2074              DW$116  .dwtag  DW_TAG_loop_range
    2075                      .dwattr DW$116, DW_AT_low_pc(DW$L$_spiSetDataBlock$17$B)
    2076                      .dwattr DW$116, DW_AT_high_pc(DW$L$_spiSetDataBlock$17$E)
    2077              DW$117  .dwtag  DW_TAG_loop_range
    2078                      .dwattr DW$117, DW_AT_low_pc(DW$L$_spiSetDataBlock$19$B)
    2079                      .dwattr DW$117, DW_AT_high_pc(DW$L$_spiSetDataBlock$19$E)
    2080              DW$118  .dwtag  DW_TAG_loop_range
    2081                      .dwattr DW$118, DW_AT_low_pc(DW$L$_spiSetDataBlock$21$B)
    2082                      .dwattr DW$118, DW_AT_high_pc(DW$L$_spiSetDataBlock$21$E)
    2083              DW$119  .dwtag  DW_TAG_loop_range
    2084                      .dwattr DW$119, DW_AT_low_pc(DW$L$_spiSetDataBlock$25$B)
    2085                      .dwattr DW$119, DW_AT_high_pc(DW$L$_spiSetDataBlock$25$E)
    2086              DW$120  .dwtag  DW_TAG_loop_range
    2087                      .dwattr DW$120, DW_AT_low_pc(DW$L$_spiSetDataBlock$27$B)
    2088                      .dwattr DW$120, DW_AT_high_pc(DW$L$_spiSetDataBlock$27$E)
    2089              DW$121  .dwtag  DW_TAG_loop_range
    2090                      .dwattr DW$121, DW_AT_low_pc(DW$L$_spiSetDataBlock$28$B)
    2091                      .dwattr DW$121, DW_AT_high_pc(DW$L$_spiSetDataBlock$28$E)
    2092              
    2093              DW$122  .dwtag  DW_TAG_loop
    2094                      .dwattr DW$122, DW_AT_name("D:\DEV\Amot\BearingWear\XTSW_V6_20\mmc_mcf.asm:L63:2:1471518981")
    2095                      .dwattr DW$122, DW_AT_begin_file("mmc_mcf.c")
    2096                      .dwattr DW$122, DW_AT_begin_line(0x339)
    2097                      .dwattr DW$122, DW_AT_end_line(0x34b)
    2098              DW$123  .dwtag  DW_TAG_loop_range
    2099                      .dwattr DW$123, DW_AT_low_pc(DW$L$_spiSetDataBlock$18$B)
    2100                      .dwattr DW$123, DW_AT_high_pc(DW$L$_spiSetDataBlock$18$E)
    2101                      .dwendtag DW$122
    2102              
    2103              
    2104              DW$124  .dwtag  DW_TAG_loop
    2105                      .dwattr DW$124, DW_AT_name("D:\DEV\Amot\BearingWear\XTSW_V6_20\mmc_mcf.asm:L65:2:1471518981")
    2106                      .dwattr DW$124, DW_AT_begin_file("mmc_mcf.c")
    2107                      .dwattr DW$124, DW_AT_begin_line(0x357)
    2108                      .dwattr DW$124, DW_AT_end_line(0x35a)
    2109              DW$125  .dwtag  DW_TAG_loop_range
    2110                      .dwattr DW$125, DW_AT_low_pc(DW$L$_spiSetDataBlock$22$B)
    2111                      .dwattr DW$125, DW_AT_high_pc(DW$L$_spiSetDataBlock$22$E)
    2112              DW$126  .dwtag  DW_TAG_loop_range
    2113                      .dwattr DW$126, DW_AT_low_pc(DW$L$_spiSetDataBlock$23$B)
    2114                      .dwattr DW$126, DW_AT_high_pc(DW$L$_spiSetDataBlock$23$E)
    2115              DW$127  .dwtag  DW_TAG_loop_range
    2116                      .dwattr DW$127, DW_AT_low_pc(DW$L$_spiSetDataBlock$24$B)
    2117                      .dwattr DW$127, DW_AT_high_pc(DW$L$_spiSetDataBlock$24$E)
    2118                      .dwendtag DW$124
    2119              
TMS320C2000 COFF Assembler PC v4.1.3 Thu Aug 18 12:16:22 2016

Tools Copyright (c) 1996-2006 Texas Instruments Incorporated
mmc_mcf.asm                                                          PAGE   43

    2120                      .dwendtag DW$111
    2121              
    2122                      .dwattr DW$106, DW_AT_end_file("mmc_mcf.c")
    2123                      .dwattr DW$106, DW_AT_end_line(0x37b)
    2124                      .dwattr DW$106, DW_AT_end_column(0x01)
    2125                      .dwendtag DW$106
    2126              
    2127 000003cc               .sect   ".text"
    2128                      .global _mmc_readsector
    2129              
    2130              DW$128  .dwtag  DW_TAG_subprogram, DW_AT_name("mmc_readsector"), DW_AT_symbol_name("_mmc_readsector")
    2131                      .dwattr DW$128, DW_AT_low_pc(_mmc_readsector)
    2132                      .dwattr DW$128, DW_AT_high_pc(0x00)
    2133                      .dwattr DW$128, DW_AT_begin_file("mmc_mcf.c")
    2134                      .dwattr DW$128, DW_AT_begin_line(0x38f)
    2135                      .dwattr DW$128, DW_AT_begin_column(0x05)
    2136                      .dwattr DW$128, DW_AT_frame_base[DW_OP_breg20 -4]
    2137                      .dwattr DW$128, DW_AT_skeletal(0x01)
    2138                      .dwpsn  "mmc_mcf.c",911,61
    2139              
    2140              ;***************************************************************
    2141              ;* FNAME: _mmc_readsector               FR SIZE:   2           *
    2142              ;*                                                             *
    2143              ;* FUNCTION ENVIRONMENT                                        *
    2144              ;*                                                             *
    2145              ;* FUNCTION PROPERTIES                                         *
    2146              ;*                            1 Parameter,  0 Auto,  0 SOE     *
    2147              ;***************************************************************
    2148              
    2149              _mmc_readsector:
    2150              ;* AR4   assigned to _data
    2151              DW$129  .dwtag  DW_TAG_formal_parameter, DW_AT_name("data"), DW_AT_symbol_name("_data")
    2152                      .dwattr DW$129, DW_AT_type(*DW$T$3)
    2153                      .dwattr DW$129, DW_AT_location[DW_OP_reg12]
    2154              ;* AL    assigned to _sector
    2155              DW$130  .dwtag  DW_TAG_formal_parameter, DW_AT_name("sector"), DW_AT_symbol_name("_sector")
    2156                      .dwattr DW$130, DW_AT_type(*DW$T$13)
    2157                      .dwattr DW$130, DW_AT_location[DW_OP_reg0]
    2158              ;* AR5   assigned to _p
    2159              DW$131  .dwtag  DW_TAG_formal_parameter, DW_AT_name("p"), DW_AT_symbol_name("_p")
    2160                      .dwattr DW$131, DW_AT_type(*DW$T$3)
    2161                      .dwattr DW$131, DW_AT_location[DW_OP_reg14]
    2162 000003cc FE02          ADDB      SP,#2
    2163 000003cd FF38          LSL       ACC,9                 ; |914| 
    2164 000003ce 2841          MOV       *-SP[1],#1            ; |914| 
         000003cf 0001 
    2165 000003d0 7640'         LCR       #_spiGetDataBlock     ; |914| 
         000003d1 020A 
    2166                      ; call occurs [#_spiGetDataBlock] ; |914| 
    2167 000003d2 FE82          SUBB      SP,#2                 ; |914| 
    2168                      .dwpsn  "mmc_mcf.c",915,1
    2169 000003d3 0006          LRETR
    2170                      ; return occurs
    2171                      .dwattr DW$128, DW_AT_end_file("mmc_mcf.c")
    2172                      .dwattr DW$128, DW_AT_end_line(0x393)
TMS320C2000 COFF Assembler PC v4.1.3 Thu Aug 18 12:16:22 2016

Tools Copyright (c) 1996-2006 Texas Instruments Incorporated
mmc_mcf.asm                                                          PAGE   44

    2173                      .dwattr DW$128, DW_AT_end_column(0x01)
    2174                      .dwendtag DW$128
    2175              
    2176 000003d4               .sect   ".text"
    2177                      .global _mmc_readmultiplesector
    2178              
    2179              DW$132  .dwtag  DW_TAG_subprogram, DW_AT_name("mmc_readmultiplesector"), DW_AT_symbol_name("_mmc_readmultiple
    2180                      .dwattr DW$132, DW_AT_low_pc(_mmc_readmultiplesector)
    2181                      .dwattr DW$132, DW_AT_high_pc(0x00)
    2182                      .dwattr DW$132, DW_AT_begin_file("mmc_mcf.c")
    2183                      .dwattr DW$132, DW_AT_begin_line(0x39c)
    2184                      .dwattr DW$132, DW_AT_begin_column(0x05)
    2185                      .dwattr DW$132, DW_AT_frame_base[DW_OP_breg20 -4]
    2186                      .dwattr DW$132, DW_AT_skeletal(0x01)
    2187                      .dwpsn  "mmc_mcf.c",924,77
    2188              
    2189              ;***************************************************************
    2190              ;* FNAME: _mmc_readmultiplesector       FR SIZE:   2           *
    2191              ;*                                                             *
    2192              ;* FUNCTION ENVIRONMENT                                        *
    2193              ;*                                                             *
    2194              ;* FUNCTION PROPERTIES                                         *
    2195              ;*                            1 Parameter,  0 Auto,  0 SOE     *
    2196              ;***************************************************************
    2197              
    2198              _mmc_readmultiplesector:
    2199              ;* AR4   assigned to _data
    2200              DW$133  .dwtag  DW_TAG_formal_parameter, DW_AT_name("data"), DW_AT_symbol_name("_data")
    2201                      .dwattr DW$133, DW_AT_type(*DW$T$3)
    2202                      .dwattr DW$133, DW_AT_location[DW_OP_reg12]
    2203              ;* AL    assigned to _sector
    2204              DW$134  .dwtag  DW_TAG_formal_parameter, DW_AT_name("sector"), DW_AT_symbol_name("_sector")
    2205                      .dwattr DW$134, DW_AT_type(*DW$T$13)
    2206                      .dwattr DW$134, DW_AT_location[DW_OP_reg0]
    2207              DW$135  .dwtag  DW_TAG_formal_parameter, DW_AT_name("cnt"), DW_AT_symbol_name("_cnt")
    2208                      .dwattr DW$135, DW_AT_type(*DW$T$10)
    2209                      .dwattr DW$135, DW_AT_location[DW_OP_breg20 -5]
    2210              ;* AR5   assigned to _p
    2211              DW$136  .dwtag  DW_TAG_formal_parameter, DW_AT_name("p"), DW_AT_symbol_name("_p")
    2212                      .dwattr DW$136, DW_AT_type(*DW$T$3)
    2213                      .dwattr DW$136, DW_AT_location[DW_OP_reg14]
    2214 000003d4 FE02          ADDB      SP,#2
    2215 000003d5 8845          MOVZ      AR6,*-SP[5]           ; |924| 
    2216 000003d6 FF38          LSL       ACC,9                 ; |927| 
    2217 000003d7 7E41          MOV       *-SP[1],AR6           ; |927| 
    2218 000003d8 7640'         LCR       #_spiGetDataBlock     ; |927| 
         000003d9 020A 
    2219                      ; call occurs [#_spiGetDataBlock] ; |927| 
    2220 000003da FE82          SUBB      SP,#2                 ; |927| 
    2221                      .dwpsn  "mmc_mcf.c",928,1
    2222 000003db 0006          LRETR
    2223                      ; return occurs
    2224                      .dwattr DW$132, DW_AT_end_file("mmc_mcf.c")
    2225                      .dwattr DW$132, DW_AT_end_line(0x3a0)
    2226                      .dwattr DW$132, DW_AT_end_column(0x01)
TMS320C2000 COFF Assembler PC v4.1.3 Thu Aug 18 12:16:22 2016

Tools Copyright (c) 1996-2006 Texas Instruments Incorporated
mmc_mcf.asm                                                          PAGE   45

    2227                      .dwendtag DW$132
    2228              
    2229 000003dc               .sect   ".text"
    2230                      .global _mmc_writesector
    2231              
    2232              DW$137  .dwtag  DW_TAG_subprogram, DW_AT_name("mmc_writesector"), DW_AT_symbol_name("_mmc_writesector")
    2233                      .dwattr DW$137, DW_AT_low_pc(_mmc_writesector)
    2234                      .dwattr DW$137, DW_AT_high_pc(0x00)
    2235                      .dwattr DW$137, DW_AT_begin_file("mmc_mcf.c")
    2236                      .dwattr DW$137, DW_AT_begin_line(0x3b4)
    2237                      .dwattr DW$137, DW_AT_begin_column(0x05)
    2238                      .dwattr DW$137, DW_AT_frame_base[DW_OP_breg20 -4]
    2239                      .dwattr DW$137, DW_AT_skeletal(0x01)
    2240                      .dwpsn  "mmc_mcf.c",948,62
    2241              
    2242              ;***************************************************************
    2243              ;* FNAME: _mmc_writesector              FR SIZE:   2           *
    2244              ;*                                                             *
    2245              ;* FUNCTION ENVIRONMENT                                        *
    2246              ;*                                                             *
    2247              ;* FUNCTION PROPERTIES                                         *
    2248              ;*                            1 Parameter,  0 Auto,  0 SOE     *
    2249              ;***************************************************************
    2250              
    2251              _mmc_writesector:
    2252              ;* AR4   assigned to _data
    2253              DW$138  .dwtag  DW_TAG_formal_parameter, DW_AT_name("data"), DW_AT_symbol_name("_data")
    2254                      .dwattr DW$138, DW_AT_type(*DW$T$3)
    2255                      .dwattr DW$138, DW_AT_location[DW_OP_reg12]
    2256              ;* AL    assigned to _sector
    2257              DW$139  .dwtag  DW_TAG_formal_parameter, DW_AT_name("sector"), DW_AT_symbol_name("_sector")
    2258                      .dwattr DW$139, DW_AT_type(*DW$T$13)
    2259                      .dwattr DW$139, DW_AT_location[DW_OP_reg0]
    2260              ;* AR5   assigned to _p
    2261              DW$140  .dwtag  DW_TAG_formal_parameter, DW_AT_name("p"), DW_AT_symbol_name("_p")
    2262                      .dwattr DW$140, DW_AT_type(*DW$T$3)
    2263                      .dwattr DW$140, DW_AT_location[DW_OP_reg14]
    2264 000003dc FE02          ADDB      SP,#2
    2265 000003dd FF38          LSL       ACC,9                 ; |949| 
    2266 000003de 2841          MOV       *-SP[1],#1            ; |949| 
         000003df 0001 
    2267 000003e0 7640'         LCR       #_spiSetDataBlock     ; |949| 
         000003e1 02DD 
    2268                      ; call occurs [#_spiSetDataBlock] ; |949| 
    2269 000003e2 FE82          SUBB      SP,#2                 ; |949| 
    2270                      .dwpsn  "mmc_mcf.c",950,1
    2271 000003e3 0006          LRETR
    2272                      ; return occurs
    2273                      .dwattr DW$137, DW_AT_end_file("mmc_mcf.c")
    2274                      .dwattr DW$137, DW_AT_end_line(0x3b6)
    2275                      .dwattr DW$137, DW_AT_end_column(0x01)
    2276                      .dwendtag DW$137
    2277              
    2278 000003e4               .sect   ".text"
    2279                      .global _mmc_writemultiplesector
TMS320C2000 COFF Assembler PC v4.1.3 Thu Aug 18 12:16:22 2016

Tools Copyright (c) 1996-2006 Texas Instruments Incorporated
mmc_mcf.asm                                                          PAGE   46

    2280              
    2281              DW$141  .dwtag  DW_TAG_subprogram, DW_AT_name("mmc_writemultiplesector"), DW_AT_symbol_name("_mmc_writemultip
    2282                      .dwattr DW$141, DW_AT_low_pc(_mmc_writemultiplesector)
    2283                      .dwattr DW$141, DW_AT_high_pc(0x00)
    2284                      .dwattr DW$141, DW_AT_begin_file("mmc_mcf.c")
    2285                      .dwattr DW$141, DW_AT_begin_line(0x3bf)
    2286                      .dwattr DW$141, DW_AT_begin_column(0x05)
    2287                      .dwattr DW$141, DW_AT_frame_base[DW_OP_breg20 -4]
    2288                      .dwattr DW$141, DW_AT_skeletal(0x01)
    2289                      .dwpsn  "mmc_mcf.c",959,78
    2290              
    2291              ;***************************************************************
    2292              ;* FNAME: _mmc_writemultiplesector      FR SIZE:   2           *
    2293              ;*                                                             *
    2294              ;* FUNCTION ENVIRONMENT                                        *
    2295              ;*                                                             *
    2296              ;* FUNCTION PROPERTIES                                         *
    2297              ;*                            1 Parameter,  0 Auto,  0 SOE     *
    2298              ;***************************************************************
    2299              
    2300              _mmc_writemultiplesector:
    2301              ;* AR4   assigned to _data
    2302              DW$142  .dwtag  DW_TAG_formal_parameter, DW_AT_name("data"), DW_AT_symbol_name("_data")
    2303                      .dwattr DW$142, DW_AT_type(*DW$T$3)
    2304                      .dwattr DW$142, DW_AT_location[DW_OP_reg12]
    2305              ;* AL    assigned to _sector
    2306              DW$143  .dwtag  DW_TAG_formal_parameter, DW_AT_name("sector"), DW_AT_symbol_name("_sector")
    2307                      .dwattr DW$143, DW_AT_type(*DW$T$13)
    2308                      .dwattr DW$143, DW_AT_location[DW_OP_reg0]
    2309              DW$144  .dwtag  DW_TAG_formal_parameter, DW_AT_name("cnt"), DW_AT_symbol_name("_cnt")
    2310                      .dwattr DW$144, DW_AT_type(*DW$T$10)
    2311                      .dwattr DW$144, DW_AT_location[DW_OP_breg20 -5]
    2312              ;* AR5   assigned to _p
    2313              DW$145  .dwtag  DW_TAG_formal_parameter, DW_AT_name("p"), DW_AT_symbol_name("_p")
    2314                      .dwattr DW$145, DW_AT_type(*DW$T$3)
    2315                      .dwattr DW$145, DW_AT_location[DW_OP_reg14]
    2316 000003e4 FE02          ADDB      SP,#2
    2317 000003e5 8845          MOVZ      AR6,*-SP[5]           ; |959| 
    2318 000003e6 FF38          LSL       ACC,9                 ; |960| 
    2319 000003e7 7E41          MOV       *-SP[1],AR6           ; |960| 
    2320 000003e8 7640'         LCR       #_spiSetDataBlock     ; |960| 
         000003e9 02DD 
    2321                      ; call occurs [#_spiSetDataBlock] ; |960| 
    2322 000003ea FE82          SUBB      SP,#2                 ; |960| 
    2323                      .dwpsn  "mmc_mcf.c",961,1
    2324 000003eb 0006          LRETR
    2325                      ; return occurs
    2326                      .dwattr DW$141, DW_AT_end_file("mmc_mcf.c")
    2327                      .dwattr DW$141, DW_AT_end_line(0x3c1)
    2328                      .dwattr DW$141, DW_AT_end_column(0x01)
    2329                      .dwendtag DW$141
    2330              
    2331 000003ec               .sect   ".text"
    2332              
    2333              DW$146  .dwtag  DW_TAG_subprogram, DW_AT_name("spiCSDBlock"), DW_AT_symbol_name("_spiCSDBlock")
TMS320C2000 COFF Assembler PC v4.1.3 Thu Aug 18 12:16:22 2016

Tools Copyright (c) 1996-2006 Texas Instruments Incorporated
mmc_mcf.asm                                                          PAGE   47

    2334                      .dwattr DW$146, DW_AT_low_pc(_spiCSDBlock)
    2335                      .dwattr DW$146, DW_AT_high_pc(0x00)
    2336                      .dwattr DW$146, DW_AT_begin_file("mmc_mcf.c")
    2337                      .dwattr DW$146, DW_AT_begin_line(0x3d5)
    2338                      .dwattr DW$146, DW_AT_begin_column(0x0c)
    2339                      .dwattr DW$146, DW_AT_frame_base[DW_OP_breg20 -8]
    2340                      .dwattr DW$146, DW_AT_skeletal(0x01)
    2341                      .dwpsn  "mmc_mcf.c",981,40
    2342              
    2343              ;***************************************************************
    2344              ;* FNAME: _spiCSDBlock                  FR SIZE:   6           *
    2345              ;*                                                             *
    2346              ;* FUNCTION ENVIRONMENT                                        *
    2347              ;*                                                             *
    2348              ;* FUNCTION PROPERTIES                                         *
    2349              ;*                            2 Parameter,  2 Auto,  2 SOE     *
    2350              ;***************************************************************
    2351              
    2352              _spiCSDBlock:
    2353              ;* AR4   assigned to _user_ptr
    2354              DW$147  .dwtag  DW_TAG_formal_parameter, DW_AT_name("user_ptr"), DW_AT_symbol_name("_user_ptr")
    2355                      .dwattr DW$147, DW_AT_type(*DW$T$3)
    2356                      .dwattr DW$147, DW_AT_location[DW_OP_reg12]
    2357 000003ec B2BD          MOVL      *SP++,XAR1
    2358 000003ed FE04          ADDB      SP,#4
    2359 000003ee 7640'         LCR       #_spiCSlow            ; |986| 
         000003ef 0010 
    2360                      ; call occurs [#_spiCSlow] ; |986| 
    2361 000003f0 8BA4          MOVL      XAR1,XAR4             ; |984| 
    2362 000003f1 0200          MOVB      ACC,#0
    2363 000003f2 1E42          MOVL      *-SP[2],ACC           ; |987| 
    2364 000003f3 0209          MOVB      ACC,#9
    2365 000003f4 7640'         LCR       #_spiCmd              ; |987| 
         000003f5 018F 
    2366                      ; call occurs [#_spiCmd] ; |987| 
    2367 000003f6 FF58          TEST      ACC                   ; |987| 
    2368 000003f7 EC06          BF        L72,EQ                ; |987| 
    2369                      ; branchcc occurs ; |987| 
    2370 000003f8 7640'         LCR       #_spiCShi             ; |988| 
         000003f9 0019 
    2371                      ; call occurs [#_spiCShi] ; |988| 
    2372 000003fa 9A67          MOVB      AL,#103               ; |989| 
    2373 000003fb 56CF          BF        L105,UNC              ; |989| 
         000003fc 01D9 
    2374                      ; branch occurs ; |989| 
    2375 000003fd       L72:    
    2376 000003fd 7640'         LCR       #_spiWaitStartBit     ; |992| 
         000003fe 015B 
    2377                      ; call occurs [#_spiWaitStartBit] ; |992| 
    2378 000003ff 5200          CMPB      AL,#0                 ; |992| 
    2379 00000400 EC06          BF        L73,EQ                ; |992| 
    2380                      ; branchcc occurs ; |992| 
    2381 00000401 7640'         LCR       #_spiCShi             ; |993| 
         00000402 0019 
    2382                      ; call occurs [#_spiCShi] ; |993| 
TMS320C2000 COFF Assembler PC v4.1.3 Thu Aug 18 12:16:22 2016

Tools Copyright (c) 1996-2006 Texas Instruments Incorporated
mmc_mcf.asm                                                          PAGE   48

    2383 00000403 9A68          MOVB      AL,#104               ; |994| 
    2384 00000404 56CF          BF        L105,UNC              ; |994| 
         00000405 01D0 
    2385                      ; branch occurs ; |994| 
    2386 00000406       L73:    
    2387 00000406 5CAD          MOVZ      AR4,SP                ; |999| 
    2388 00000407 0200          MOVB      ACC,#0
    2389 00000408 1E44          MOVL      *-SP[4],ACC           ; |997| 
    2390 00000409 DC84          SUBB      XAR4,#4               ; |999| 
    2391 0000040a 0202          MOVB      ACC,#2
    2392 0000040b 7640'         LCR       #_spiDataBits         ; |999| 
         0000040c 0122 
    2393                      ; call occurs [#_spiDataBits] ; |999| 
    2394 0000040d 5CAD          MOVZ      AR4,SP                ; |1000| 
    2395 0000040e 761F-         MOVW      DP,#_g_mmc_type
         0000040f 0001 
    2396 00000410 1E00-         MOVL      @_g_mmc_type,ACC      ; |999| 
    2397 00000411 DC84          SUBB      XAR4,#4               ; |1000| 
    2398 00000412 0204          MOVB      ACC,#4
    2399 00000413 7640'         LCR       #_spiDataBits         ; |1000| 
         00000414 0122 
    2400                      ; call occurs [#_spiDataBits] ; |1000| 
    2401 00000415 5CAD          MOVZ      AR4,SP                ; |1001| 
    2402 00000416 761F-         MOVW      DP,#_g_mmc_type+2
         00000417 0001 
    2403 00000418 1E02-         MOVL      @_g_mmc_type+2,ACC    ; |1000| 
    2404 00000419 DC84          SUBB      XAR4,#4               ; |1001| 
    2405 0000041a 0202          MOVB      ACC,#2
    2406 0000041b 7640'         LCR       #_spiDataBits         ; |1001| 
         0000041c 0122 
    2407                      ; call occurs [#_spiDataBits] ; |1001| 
    2408 0000041d 5CAD          MOVZ      AR4,SP                ; |1003| 
    2409 0000041e DC84          SUBB      XAR4,#4               ; |1003| 
    2410 0000041f 0208          MOVB      ACC,#8
    2411 00000420 7640'         LCR       #_spiDataBits         ; |1003| 
         00000421 0122 
    2412                      ; call occurs [#_spiDataBits] ; |1003| 
    2413 00000422 5CAD          MOVZ      AR4,SP                ; |1004| 
    2414 00000423 761F-         MOVW      DP,#_g_mmc_type+4
         00000424 0001 
    2415 00000425 1E04-         MOVL      @_g_mmc_type+4,ACC    ; |1003| 
    2416 00000426 DC84          SUBB      XAR4,#4               ; |1004| 
    2417 00000427 0208          MOVB      ACC,#8
    2418 00000428 7640'         LCR       #_spiDataBits         ; |1004| 
         00000429 0122 
    2419                      ; call occurs [#_spiDataBits] ; |1004| 
    2420 0000042a 5CAD          MOVZ      AR4,SP                ; |1005| 
    2421 0000042b 761F-         MOVW      DP,#_g_mmc_type+6
         0000042c 0001 
    2422 0000042d 1E06-         MOVL      @_g_mmc_type+6,ACC    ; |1004| 
    2423 0000042e DC84          SUBB      XAR4,#4               ; |1005| 
    2424 0000042f 0208          MOVB      ACC,#8
    2425 00000430 7640'         LCR       #_spiDataBits         ; |1005| 
         00000431 0122 
    2426                      ; call occurs [#_spiDataBits] ; |1005| 
TMS320C2000 COFF Assembler PC v4.1.3 Thu Aug 18 12:16:22 2016

Tools Copyright (c) 1996-2006 Texas Instruments Incorporated
mmc_mcf.asm                                                          PAGE   49

    2427 00000432 5CAD          MOVZ      AR4,SP                ; |1008| 
    2428 00000433 761F-         MOVW      DP,#_g_mmc_type+8
         00000434 0001 
    2429 00000435 1E08-         MOVL      @_g_mmc_type+8,ACC    ; |1005| 
    2430 00000436 DC84          SUBB      XAR4,#4               ; |1008| 
    2431 00000437 020C          MOVB      ACC,#12
    2432 00000438 7640'         LCR       #_spiDataBits         ; |1008| 
         00000439 0122 
    2433                      ; call occurs [#_spiDataBits] ; |1008| 
    2434 0000043a 5CAD          MOVZ      AR4,SP                ; |1009| 
    2435 0000043b 761F-         MOVW      DP,#_g_mmc_type+10
         0000043c 0001 
    2436 0000043d 1E0A-         MOVL      @_g_mmc_type+10,ACC   ; |1008| 
    2437 0000043e DC84          SUBB      XAR4,#4               ; |1009| 
    2438 0000043f 0204          MOVB      ACC,#4
    2439 00000440 7640'         LCR       #_spiDataBits         ; |1009| 
         00000441 0122 
    2440                      ; call occurs [#_spiDataBits] ; |1009| 
    2441 00000442 5CAD          MOVZ      AR4,SP                ; |1010| 
    2442 00000443 761F-         MOVW      DP,#_g_mmc_type+12
         00000444 0001 
    2443 00000445 1E0C-         MOVL      @_g_mmc_type+12,ACC   ; |1009| 
    2444 00000446 DC84          SUBB      XAR4,#4               ; |1010| 
    2445 00000447 0201          MOVB      ACC,#1
    2446 00000448 7640'         LCR       #_spiDataBits         ; |1010| 
         00000449 0122 
    2447                      ; call occurs [#_spiDataBits] ; |1010| 
    2448 0000044a 5CAD          MOVZ      AR4,SP                ; |1011| 
    2449 0000044b 761F-         MOVW      DP,#_g_mmc_type+14
         0000044c 0001 
    2450 0000044d 1E0E-         MOVL      @_g_mmc_type+14,ACC   ; |1010| 
    2451 0000044e DC84          SUBB      XAR4,#4               ; |1011| 
    2452 0000044f 0201          MOVB      ACC,#1
    2453 00000450 7640'         LCR       #_spiDataBits         ; |1011| 
         00000451 0122 
    2454                      ; call occurs [#_spiDataBits] ; |1011| 
    2455 00000452 5CAD          MOVZ      AR4,SP                ; |1012| 
    2456 00000453 761F-         MOVW      DP,#_g_mmc_type+16
         00000454 0001 
    2457 00000455 1E10-         MOVL      @_g_mmc_type+16,ACC   ; |1011| 
    2458 00000456 DC84          SUBB      XAR4,#4               ; |1012| 
    2459 00000457 0201          MOVB      ACC,#1
    2460 00000458 7640'         LCR       #_spiDataBits         ; |1012| 
         00000459 0122 
    2461                      ; call occurs [#_spiDataBits] ; |1012| 
    2462 0000045a 5CAD          MOVZ      AR4,SP                ; |1013| 
    2463 0000045b 761F-         MOVW      DP,#_g_mmc_type+18
         0000045c 0001 
    2464 0000045d 1E12-         MOVL      @_g_mmc_type+18,ACC   ; |1012| 
    2465 0000045e 0201          MOVB      ACC,#1
    2466 0000045f DC84          SUBB      XAR4,#4               ; |1013| 
    2467 00000460 7640'         LCR       #_spiDataBits         ; |1013| 
         00000461 0122 
    2468                      ; call occurs [#_spiDataBits] ; |1013| 
    2469 00000462 5CAD          MOVZ      AR4,SP                ; |1014| 
TMS320C2000 COFF Assembler PC v4.1.3 Thu Aug 18 12:16:22 2016

Tools Copyright (c) 1996-2006 Texas Instruments Incorporated
mmc_mcf.asm                                                          PAGE   50

    2470 00000463 761F-         MOVW      DP,#_g_mmc_type+20
         00000464 0001 
    2471 00000465 1E14-         MOVL      @_g_mmc_type+20,ACC   ; |1013| 
    2472 00000466 DC84          SUBB      XAR4,#4               ; |1014| 
    2473 00000467 0202          MOVB      ACC,#2
    2474 00000468 7640'         LCR       #_spiDataBits         ; |1014| 
         00000469 0122 
    2475                      ; call occurs [#_spiDataBits] ; |1014| 
    2476 0000046a 5CAD          MOVZ      AR4,SP                ; |1016| 
    2477 0000046b DC84          SUBB      XAR4,#4               ; |1016| 
    2478 0000046c 020C          MOVB      ACC,#12
    2479 0000046d 7640'         LCR       #_spiDataBits         ; |1016| 
         0000046e 0122 
    2480                      ; call occurs [#_spiDataBits] ; |1016| 
    2481 0000046f 5CAD          MOVZ      AR4,SP                ; |1017| 
    2482 00000470 761F-         MOVW      DP,#_g_mmc_type+22
         00000471 0001 
    2483 00000472 1E16-         MOVL      @_g_mmc_type+22,ACC   ; |1016| 
    2484 00000473 DC84          SUBB      XAR4,#4               ; |1017| 
    2485 00000474 0203          MOVB      ACC,#3
    2486 00000475 7640'         LCR       #_spiDataBits         ; |1017| 
         00000476 0122 
    2487                      ; call occurs [#_spiDataBits] ; |1017| 
    2488 00000477 5CAD          MOVZ      AR4,SP                ; |1018| 
    2489 00000478 761F-         MOVW      DP,#_g_mmc_type+24
         00000479 0001 
    2490 0000047a 1E18-         MOVL      @_g_mmc_type+24,ACC   ; |1017| 
    2491 0000047b DC84          SUBB      XAR4,#4               ; |1018| 
    2492 0000047c 0203          MOVB      ACC,#3
    2493 0000047d 7640'         LCR       #_spiDataBits         ; |1018| 
         0000047e 0122 
    2494                      ; call occurs [#_spiDataBits] ; |1018| 
    2495 0000047f 5CAD          MOVZ      AR4,SP                ; |1019| 
    2496 00000480 761F-         MOVW      DP,#_g_mmc_type+26
         00000481 0001 
    2497 00000482 1E1A-         MOVL      @_g_mmc_type+26,ACC   ; |1018| 
    2498 00000483 DC84          SUBB      XAR4,#4               ; |1019| 
    2499 00000484 0203          MOVB      ACC,#3
    2500 00000485 7640'         LCR       #_spiDataBits         ; |1019| 
         00000486 0122 
    2501                      ; call occurs [#_spiDataBits] ; |1019| 
    2502 00000487 5CAD          MOVZ      AR4,SP                ; |1020| 
    2503 00000488 761F-         MOVW      DP,#_g_mmc_type+28
         00000489 0001 
    2504 0000048a 1E1C-         MOVL      @_g_mmc_type+28,ACC   ; |1019| 
    2505 0000048b DC84          SUBB      XAR4,#4               ; |1020| 
    2506 0000048c 0203          MOVB      ACC,#3
    2507 0000048d 7640'         LCR       #_spiDataBits         ; |1020| 
         0000048e 0122 
    2508                      ; call occurs [#_spiDataBits] ; |1020| 
    2509 0000048f 5CAD          MOVZ      AR4,SP                ; |1021| 
    2510 00000490 761F-         MOVW      DP,#_g_mmc_type+30
         00000491 0001 
    2511 00000492 1E1E-         MOVL      @_g_mmc_type+30,ACC   ; |1020| 
    2512 00000493 DC84          SUBB      XAR4,#4               ; |1021| 
TMS320C2000 COFF Assembler PC v4.1.3 Thu Aug 18 12:16:22 2016

Tools Copyright (c) 1996-2006 Texas Instruments Incorporated
mmc_mcf.asm                                                          PAGE   51

    2513 00000494 0203          MOVB      ACC,#3
    2514 00000495 7640'         LCR       #_spiDataBits         ; |1021| 
         00000496 0122 
    2515                      ; call occurs [#_spiDataBits] ; |1021| 
    2516 00000497 5CAD          MOVZ      AR4,SP                ; |1022| 
    2517 00000498 761F-         MOVW      DP,#_g_mmc_type+32
         00000499 0001 
    2518 0000049a 1E20-         MOVL      @_g_mmc_type+32,ACC   ; |1021| 
    2519 0000049b DC84          SUBB      XAR4,#4               ; |1022| 
    2520 0000049c 0205          MOVB      ACC,#5
    2521 0000049d 7640'         LCR       #_spiDataBits         ; |1022| 
         0000049e 0122 
    2522                      ; call occurs [#_spiDataBits] ; |1022| 
    2523 0000049f 5CAD          MOVZ      AR4,SP                ; |1023| 
    2524 000004a0 761F-         MOVW      DP,#_g_mmc_type+34
         000004a1 0001 
    2525 000004a2 1E22-         MOVL      @_g_mmc_type+34,ACC   ; |1022| 
    2526 000004a3 DC84          SUBB      XAR4,#4               ; |1023| 
    2527 000004a4 0205          MOVB      ACC,#5
    2528 000004a5 7640'         LCR       #_spiDataBits         ; |1023| 
         000004a6 0122 
    2529                      ; call occurs [#_spiDataBits] ; |1023| 
    2530 000004a7 5CAD          MOVZ      AR4,SP                ; |1024| 
    2531 000004a8 761F-         MOVW      DP,#_g_mmc_type+36
         000004a9 0001 
    2532 000004aa 1E24-         MOVL      @_g_mmc_type+36,ACC   ; |1023| 
    2533 000004ab DC84          SUBB      XAR4,#4               ; |1024| 
    2534 000004ac 0205          MOVB      ACC,#5
    2535 000004ad 7640'         LCR       #_spiDataBits         ; |1024| 
         000004ae 0122 
    2536                      ; call occurs [#_spiDataBits] ; |1024| 
    2537 000004af 5CAD          MOVZ      AR4,SP                ; |1025| 
    2538 000004b0 761F-         MOVW      DP,#_g_mmc_type+38
         000004b1 0001 
    2539 000004b2 1E26-         MOVL      @_g_mmc_type+38,ACC   ; |1024| 
    2540 000004b3 0201          MOVB      ACC,#1
    2541 000004b4 DC84          SUBB      XAR4,#4               ; |1025| 
    2542 000004b5 7640'         LCR       #_spiDataBits         ; |1025| 
         000004b6 0122 
    2543                      ; call occurs [#_spiDataBits] ; |1025| 
    2544 000004b7 5CAD          MOVZ      AR4,SP                ; |1026| 
    2545 000004b8 761F-         MOVW      DP,#_g_mmc_type+40
         000004b9 0001 
    2546 000004ba 1E28-         MOVL      @_g_mmc_type+40,ACC   ; |1025| 
    2547 000004bb DC84          SUBB      XAR4,#4               ; |1026| 
    2548 000004bc 0202          MOVB      ACC,#2
    2549 000004bd 7640'         LCR       #_spiDataBits         ; |1026| 
         000004be 0122 
    2550                      ; call occurs [#_spiDataBits] ; |1026| 
    2551 000004bf 5CAD          MOVZ      AR4,SP                ; |1027| 
    2552 000004c0 761F-         MOVW      DP,#_g_mmc_type+42
         000004c1 0001 
    2553 000004c2 1E2A-         MOVL      @_g_mmc_type+42,ACC   ; |1026| 
    2554 000004c3 DC84          SUBB      XAR4,#4               ; |1027| 
    2555 000004c4 0203          MOVB      ACC,#3
TMS320C2000 COFF Assembler PC v4.1.3 Thu Aug 18 12:16:22 2016

Tools Copyright (c) 1996-2006 Texas Instruments Incorporated
mmc_mcf.asm                                                          PAGE   52

    2556 000004c5 7640'         LCR       #_spiDataBits         ; |1027| 
         000004c6 0122 
    2557                      ; call occurs [#_spiDataBits] ; |1027| 
    2558 000004c7 5CAD          MOVZ      AR4,SP                ; |1028| 
    2559 000004c8 761F-         MOVW      DP,#_g_mmc_type+44
         000004c9 0001 
    2560 000004ca 1E2C-         MOVL      @_g_mmc_type+44,ACC   ; |1027| 
    2561 000004cb DC84          SUBB      XAR4,#4               ; |1028| 
    2562 000004cc 0204          MOVB      ACC,#4
    2563 000004cd 7640'         LCR       #_spiDataBits         ; |1028| 
         000004ce 0122 
    2564                      ; call occurs [#_spiDataBits] ; |1028| 
    2565 000004cf 5CAD          MOVZ      AR4,SP                ; |1029| 
    2566 000004d0 761F-         MOVW      DP,#_g_mmc_type+46
         000004d1 0001 
    2567 000004d2 1E2E-         MOVL      @_g_mmc_type+46,ACC   ; |1028| 
    2568 000004d3 DC84          SUBB      XAR4,#4               ; |1029| 
    2569 000004d4 0201          MOVB      ACC,#1
    2570 000004d5 7640'         LCR       #_spiDataBits         ; |1029| 
         000004d6 0122 
    2571                      ; call occurs [#_spiDataBits] ; |1029| 
    2572 000004d7 5CAD          MOVZ      AR4,SP                ; |1030| 
    2573 000004d8 761F-         MOVW      DP,#_g_mmc_type+48
         000004d9 0001 
    2574 000004da 1E30-         MOVL      @_g_mmc_type+48,ACC   ; |1029| 
    2575 000004db DC84          SUBB      XAR4,#4               ; |1030| 
    2576 000004dc 0204          MOVB      ACC,#4
    2577 000004dd 7640'         LCR       #_spiDataBits         ; |1030| 
         000004de 0122 
    2578                      ; call occurs [#_spiDataBits] ; |1030| 
    2579 000004df 5CAD          MOVZ      AR4,SP                ; |1032| 
    2580 000004e0 DC84          SUBB      XAR4,#4               ; |1032| 
    2581 000004e1 0201          MOVB      ACC,#1
    2582 000004e2 7640'         LCR       #_spiDataBits         ; |1032| 
         000004e3 0122 
    2583                      ; call occurs [#_spiDataBits] ; |1032| 
    2584 000004e4 5CAD          MOVZ      AR4,SP                ; |1033| 
    2585 000004e5 761F-         MOVW      DP,#_g_mmc_type+50
         000004e6 0001 
    2586 000004e7 1E32-         MOVL      @_g_mmc_type+50,ACC   ; |1032| 
    2587 000004e8 DC84          SUBB      XAR4,#4               ; |1033| 
    2588 000004e9 0201          MOVB      ACC,#1
    2589 000004ea 7640'         LCR       #_spiDataBits         ; |1033| 
         000004eb 0122 
    2590                      ; call occurs [#_spiDataBits] ; |1033| 
    2591 000004ec 5CAD          MOVZ      AR4,SP                ; |1034| 
    2592 000004ed 761F-         MOVW      DP,#_g_mmc_type+52
         000004ee 0001 
    2593 000004ef 1E34-         MOVL      @_g_mmc_type+52,ACC   ; |1033| 
    2594 000004f0 DC84          SUBB      XAR4,#4               ; |1034| 
    2595 000004f1 0201          MOVB      ACC,#1
    2596 000004f2 7640'         LCR       #_spiDataBits         ; |1034| 
         000004f3 0122 
    2597                      ; call occurs [#_spiDataBits] ; |1034| 
    2598 000004f4 5CAD          MOVZ      AR4,SP                ; |1035| 
TMS320C2000 COFF Assembler PC v4.1.3 Thu Aug 18 12:16:22 2016

Tools Copyright (c) 1996-2006 Texas Instruments Incorporated
mmc_mcf.asm                                                          PAGE   53

    2599 000004f5 761F-         MOVW      DP,#_g_mmc_type+54
         000004f6 0001 
    2600 000004f7 1E36-         MOVL      @_g_mmc_type+54,ACC   ; |1034| 
    2601 000004f8 DC84          SUBB      XAR4,#4               ; |1035| 
    2602 000004f9 0201          MOVB      ACC,#1
    2603 000004fa 7640'         LCR       #_spiDataBits         ; |1035| 
         000004fb 0122 
    2604                      ; call occurs [#_spiDataBits] ; |1035| 
    2605 000004fc 5CAD          MOVZ      AR4,SP                ; |1036| 
    2606 000004fd 761F-         MOVW      DP,#_g_mmc_type+56
         000004fe 0001 
    2607 000004ff 1E38-         MOVL      @_g_mmc_type+56,ACC   ; |1035| 
    2608 00000500 DC84          SUBB      XAR4,#4               ; |1036| 
    2609 00000501 0201          MOVB      ACC,#1
    2610 00000502 7640'         LCR       #_spiDataBits         ; |1036| 
         00000503 0122 
    2611                      ; call occurs [#_spiDataBits] ; |1036| 
    2612 00000504 5CAD          MOVZ      AR4,SP                ; |1037| 
    2613 00000505 761F-         MOVW      DP,#_g_mmc_type+58
         00000506 0001 
    2614 00000507 1E3A-         MOVL      @_g_mmc_type+58,ACC   ; |1036| 
    2615 00000508 0202          MOVB      ACC,#2
    2616 00000509 DC84          SUBB      XAR4,#4               ; |1037| 
    2617 0000050a 7640'         LCR       #_spiDataBits         ; |1037| 
         0000050b 0122 
    2618                      ; call occurs [#_spiDataBits] ; |1037| 
    2619 0000050c 5CAD          MOVZ      AR4,SP                ; |1038| 
    2620 0000050d 761F-         MOVW      DP,#_g_mmc_type+60
         0000050e 0001 
    2621 0000050f 1E3C-         MOVL      @_g_mmc_type+60,ACC   ; |1037| 
    2622 00000510 DC84          SUBB      XAR4,#4               ; |1038| 
    2623 00000511 0202          MOVB      ACC,#2
    2624 00000512 7640'         LCR       #_spiDataBits         ; |1038| 
         00000513 0122 
    2625                      ; call occurs [#_spiDataBits] ; |1038| 
    2626 00000514 5CAD          MOVZ      AR4,SP                ; |1039| 
    2627 00000515 761F-         MOVW      DP,#_g_mmc_type+62
         00000516 0001 
    2628 00000517 1E3E-         MOVL      @_g_mmc_type+62,ACC   ; |1038| 
    2629 00000518 DC84          SUBB      XAR4,#4               ; |1039| 
    2630 00000519 0207          MOVB      ACC,#7
    2631 0000051a 7640'         LCR       #_spiDataBits         ; |1039| 
         0000051b 0122 
    2632                      ; call occurs [#_spiDataBits] ; |1039| 
    2633 0000051c 5CAD          MOVZ      AR4,SP                ; |1040| 
    2634 0000051d 761F-         MOVW      DP,#_g_mmc_type+64
         0000051e 0002 
    2635 0000051f 1E00-         MOVL      @_g_mmc_type+64,ACC   ; |1039| 
    2636 00000520 DC84          SUBB      XAR4,#4               ; |1040| 
    2637 00000521 0201          MOVB      ACC,#1
    2638 00000522 7640'         LCR       #_spiDataBits         ; |1040| 
         00000523 0122 
    2639                      ; call occurs [#_spiDataBits] ; |1040| 
    2640 00000524 5CAD          MOVZ      AR4,SP                ; |1042| 
    2641 00000525 0210          MOVB      ACC,#16
TMS320C2000 COFF Assembler PC v4.1.3 Thu Aug 18 12:16:22 2016

Tools Copyright (c) 1996-2006 Texas Instruments Incorporated
mmc_mcf.asm                                                          PAGE   54

    2642 00000526 DC84          SUBB      XAR4,#4               ; |1042| 
    2643 00000527 7640'         LCR       #_spiDataBits         ; |1042| 
         00000528 0122 
    2644                      ; call occurs [#_spiDataBits] ; |1042| 
    2645 00000529 7640'         LCR       #_spiCShi             ; |1044| 
         0000052a 0019 
    2646                      ; call occurs [#_spiCShi] ; |1044| 
    2647 0000052b 0644          MOVL      ACC,*-SP[4]           ; |1046| 
    2648 0000052c EC04          BF        L74,EQ                ; |1046| 
    2649                      ; branchcc occurs ; |1046| 
    2650 0000052d 9A6A          MOVB      AL,#106               ; |1046| 
    2651 0000052e 56CF          BF        L105,UNC              ; |1046| 
         0000052f 00A6 
    2652                      ; branch occurs ; |1046| 
    2653 00000530       L74:    
    2654 00000530 761F-         MOVW      DP,#_g_mmc_type+8
         00000531 0001 
    2655 00000532 0608-         MOVL      ACC,@_g_mmc_type+8    ; |1048| 
    2656 00000533 9007          ANDB      AL,#0x07              ; |1048| 
    2657 00000534 9B00          MOVB      AH,#0
    2658 00000535 FF58          TEST      ACC                   ; |1048| 
    2659 00000536 1EA6          MOVL      XAR6,ACC              ; |1048| 
    2660 00000537 EC18          BF        L77,EQ                ; |1048| 
    2661                      ; branchcc occurs ; |1048| 
    2662 00000538 0201          MOVB      ACC,#1
    2663 00000539 0FA6          CMPL      ACC,XAR6              ; |1048| 
    2664 0000053a EC11          BF        L76,EQ                ; |1048| 
    2665                      ; branchcc occurs ; |1048| 
    2666 0000053b 0202          MOVB      ACC,#2
    2667 0000053c 0FA6          CMPL      ACC,XAR6              ; |1048| 
    2668 0000053d EC0A          BF        L75,EQ                ; |1048| 
    2669                      ; branchcc occurs ; |1048| 
    2670 0000053e 0203          MOVB      ACC,#3
    2671 0000053f 0FA6          CMPL      ACC,XAR6              ; |1048| 
    2672 00000540 56C0          BF        L104,NEQ              ; |1048| 
         00000541 0093 
    2673                      ; branchcc occurs ; |1048| 
    2674 00000542 8F00          MOVL      XAR4,#1000            ; |1052| 
         00000543 03E8 
    2675 00000544 A8AB          MOVL      P,XAR4                ; |1052| 
    2676 00000545 56CF          BF        L79,UNC               ; |1052| 
         00000546 000D 
    2677                      ; branch occurs ; |1052| 
    2678 00000547       L75:    
    2679 00000547 28AB          MOV       PL,#100
         00000548 0064 
    2680 00000549 56CF          BF        L78,UNC               ; |1051| 
         0000054a 0008 
    2681                      ; branch occurs ; |1051| 
    2682 0000054b       L76:    
    2683 0000054b 28AB          MOV       PL,#10
         0000054c 000A 
    2684 0000054d 56CF          BF        L78,UNC               ; |1050| 
         0000054e 0004 
    2685                      ; branch occurs ; |1050| 
TMS320C2000 COFF Assembler PC v4.1.3 Thu Aug 18 12:16:22 2016

Tools Copyright (c) 1996-2006 Texas Instruments Incorporated
mmc_mcf.asm                                                          PAGE   55

    2686 0000054f       L77:    
    2687 0000054f 28AB          MOV       PL,#1
         00000550 0001 
    2688 00000551       L78:    
    2689 00000551 2BAA          MOV       PH,#0
    2690 00000552       L79:    
    2691 00000552 761F-         MOVW      DP,#_g_mmc_type+8
         00000553 0001 
    2692 00000554 3B01          SETC      SXM
    2693 00000555 0608-         MOVL      ACC,@_g_mmc_type+8    ; |1055| 
    2694 00000556 FF42          SFR       ACC,3                 ; |1055| 
    2695 00000557 900F          ANDB      AL,#0x0f              ; |1055| 
    2696 00000558 9B00          MOVB      AH,#0
    2697 00000559 1EA6          MOVL      XAR6,ACC              ; |1055| 
    2698 0000055a 020F          MOVB      ACC,#15
    2699 0000055b 0FA6          CMPL      ACC,XAR6              ; |1055| 
    2700 0000055c 56C8          BF        L100,LO               ; |1055| 
         0000055d 005A 
    2701                      ; branchcc occurs ; |1055| 
    2702 0000055e 06A6          MOVL      ACC,XAR6              ; |1055| 
    2703 0000055f 8F40+         MOVL      XAR5,#SW1             ; |1055| 
         00000560 0000 
    2704 00000561 FF30          LSL       ACC,1                 ; |1055| 
    2705 00000562 07A5          ADDL      ACC,XAR5
    2706 00000563 1EA7          MOVL      XAR7,ACC              ; |1055| 
    2707 00000564 24A9          PREAD     AL,*XAR7              ; |1055| 
    2708 00000565 DF01          ADDB      XAR7,#1               ; |1055| 
    2709 00000566 24A8          PREAD     AH,*XAR7              ; |1055| 
    2710 00000567 1EA7          MOVL      XAR7,ACC              ; |1055| 
    2711 00000568 7620          LB        *XAR7                 ; |1055| 
    2712                      ; branch occurs ; |1055| 
    2713 00000000               .sect   ".switch"
    2714 00000000 05D3' SW1:    .long   L104    ; 0
         00000001 0000 
    2715 00000002 05AF'         .long   L97     ; 1
         00000003 0000 
    2716 00000004 05A8'         .long   L95     ; 2
         00000005 0000 
    2717 00000006 05A2'         .long   L93     ; 3
         00000007 0000 
    2718 00000008 059C'         .long   L92     ; 4
         00000009 0000 
    2719 0000000a 0598'         .long   L91     ; 5
         0000000b 0000 
    2720 0000000c 0595'         .long   L90     ; 6
         0000000d 0000 
    2721 0000000e 058D'         .long   L88     ; 7
         0000000f 0000 
    2722 00000010 058A'         .long   L87     ; 8
         00000011 0000 
    2723 00000012 0583'         .long   L86     ; 9
         00000013 0000 
    2724 00000014 0580'         .long   L85     ; 10
         00000015 0000 
    2725 00000016 057D'         .long   L84     ; 11
TMS320C2000 COFF Assembler PC v4.1.3 Thu Aug 18 12:16:22 2016

Tools Copyright (c) 1996-2006 Texas Instruments Incorporated
mmc_mcf.asm                                                          PAGE   56

         00000017 0000 
    2726 00000018 057A'         .long   L83     ; 12
         00000019 0000 
    2727 0000001a 0573'         .long   L82     ; 13
         0000001b 0000 
    2728 0000001c 0570'         .long   L81     ; 14
         0000001d 0000 
    2729 0000001e 0569'         .long   L80     ; 15
         0000001f 0000 
    2730 00000569               .sect   ".text"
    2731 00000569       L80:    
    2732 00000569 A9A9          MOVL      ACC,P
    2733 0000056a FF35          LSL       ACC,6                 ; |1071| 
    2734 0000056b 1EA6          MOVL      XAR6,ACC              ; |1071| 
    2735 0000056c A9A9          MOVL      ACC,P                 ; |1071| 
    2736 0000056d FF33          LSL       ACC,4                 ; |1071| 
    2737 0000056e 56CF          BF        L98,UNC               ; |1071| 
         0000056f 0046 
    2738                      ; branch occurs ; |1071| 
    2739 00000570       L81:    
    2740 00000570 0246          MOVB      ACC,#70
    2741 00000571 56CF          BF        L94,UNC               ; |1070| 
         00000572 0032 
    2742                      ; branch occurs ; |1070| 
    2743 00000573       L82:    
    2744 00000573 A9A9          MOVL      ACC,P
    2745 00000574 FF31          LSL       ACC,2                 ; |1069| 
    2746 00000575 1EA6          MOVL      XAR6,ACC              ; |1069| 
    2747 00000576 A9A9          MOVL      ACC,P                 ; |1069| 
    2748 00000577 FF35          LSL       ACC,6                 ; |1069| 
    2749 00000578 56CF          BF        L89,UNC               ; |1069| 
         00000579 001A 
    2750                      ; branch occurs ; |1069| 
    2751 0000057a       L83:    
    2752 0000057a 0237          MOVB      ACC,#55
    2753 0000057b 56CF          BF        L94,UNC               ; |1068| 
         0000057c 0028 
    2754                      ; branch occurs ; |1068| 
    2755 0000057d       L84:    
    2756 0000057d 0232          MOVB      ACC,#50
    2757 0000057e 56CF          BF        L94,UNC               ; |1067| 
         0000057f 0025 
    2758                      ; branch occurs ; |1067| 
    2759 00000580       L85:    
    2760 00000580 022D          MOVB      ACC,#45
    2761 00000581 56CF          BF        L94,UNC               ; |1066| 
         00000582 0022 
    2762                      ; branch occurs ; |1066| 
    2763 00000583       L86:    
    2764 00000583 A9A9          MOVL      ACC,P
    2765 00000584 FF34          LSL       ACC,5                 ; |1065| 
    2766 00000585 1EA6          MOVL      XAR6,ACC              ; |1065| 
    2767 00000586 A9A9          MOVL      ACC,P                 ; |1065| 
    2768 00000587 FF32          LSL       ACC,3                 ; |1065| 
    2769 00000588 56CF          BF        L98,UNC               ; |1065| 
TMS320C2000 COFF Assembler PC v4.1.3 Thu Aug 18 12:16:22 2016

Tools Copyright (c) 1996-2006 Texas Instruments Incorporated
mmc_mcf.asm                                                          PAGE   57

         00000589 002C 
    2770                      ; branch occurs ; |1065| 
    2771 0000058a       L87:    
    2772 0000058a 0223          MOVB      ACC,#35
    2773 0000058b 56CF          BF        L94,UNC               ; |1064| 
         0000058c 0018 
    2774                      ; branch occurs ; |1064| 
    2775 0000058d       L88:    
    2776 0000058d A9A9          MOVL      ACC,P
    2777 0000058e FF30          LSL       ACC,1                 ; |1063| 
    2778 0000058f 1EA6          MOVL      XAR6,ACC              ; |1063| 
    2779 00000590 A9A9          MOVL      ACC,P                 ; |1063| 
    2780 00000591 FF34          LSL       ACC,5                 ; |1063| 
    2781 00000592       L89:    
    2782 00000592 03A6          SUBL      ACC,XAR6
    2783 00000593 56CF          BF        L99,UNC               ; |1063| 
         00000594 0022 
    2784                      ; branch occurs ; |1063| 
    2785 00000595       L90:    
    2786 00000595 0219          MOVB      ACC,#25
    2787 00000596 56CF          BF        L94,UNC               ; |1062| 
         00000597 000D 
    2788                      ; branch occurs ; |1062| 
    2789 00000598       L91:    
    2790 00000598 A9A9          MOVL      ACC,P
    2791 00000599 FF33          LSL       ACC,4                 ; |1061| 
    2792 0000059a 56CF          BF        L96,UNC               ; |1061| 
         0000059b 0010 
    2793                      ; branch occurs ; |1061| 
    2794 0000059c       L92:    
    2795 0000059c A9A9          MOVL      ACC,P
    2796 0000059d FF33          LSL       ACC,4                 ; |1060| 
    2797 0000059e 5649          SUBRL     P,ACC                 ; |1060| 
         0000059f 00AB 
    2798 000005a0 56CF          BF        L100,UNC              ; |1060| 
         000005a1 0016 
    2799                      ; branch occurs ; |1060| 
    2800 000005a2       L93:    
    2801 000005a2 020D          MOVB      ACC,#13
    2802 000005a3       L94:    
    2803 000005a3 1EAC          MOVL      XT,ACC                ; |1059| 
    2804 000005a4 5644          IMPYL     ACC,XT,P              ; |1059| 
         000005a5 00AB 
    2805 000005a6 56CF          BF        L99,UNC               ; |1059| 
         000005a7 000F 
    2806                      ; branch occurs ; |1059| 
    2807 000005a8       L95:    
    2808 000005a8 A9A9          MOVL      ACC,P
    2809 000005a9 FF32          LSL       ACC,3                 ; |1058| 
    2810 000005aa       L96:    
    2811 000005aa 1EA6          MOVL      XAR6,ACC              ; |1058| 
    2812 000005ab A9A9          MOVL      ACC,P                 ; |1058| 
    2813 000005ac FF31          LSL       ACC,2                 ; |1058| 
    2814 000005ad 56CF          BF        L98,UNC               ; |1058| 
         000005ae 0007 
TMS320C2000 COFF Assembler PC v4.1.3 Thu Aug 18 12:16:22 2016

Tools Copyright (c) 1996-2006 Texas Instruments Incorporated
mmc_mcf.asm                                                          PAGE   58

    2815                      ; branch occurs ; |1058| 
    2816 000005af       L97:    
    2817 000005af A9A9          MOVL      ACC,P
    2818 000005b0 FF32          LSL       ACC,3                 ; |1057| 
    2819 000005b1 1EA6          MOVL      XAR6,ACC              ; |1057| 
    2820 000005b2 A9A9          MOVL      ACC,P                 ; |1057| 
    2821 000005b3 FF30          LSL       ACC,1                 ; |1057| 
    2822 000005b4       L98:    
    2823 000005b4 07A6          ADDL      ACC,XAR6
    2824 000005b5       L99:    
    2825 000005b5 FF5A          MOVL      P,ACC                 ; |1057| 
    2826 000005b6       L100:    
    2827 000005b6 A9A9          MOVL      ACC,P
    2828 000005b7 FF30          LSL       ACC,1                 ; |1074| 
    2829 000005b8 FF13          ADD       ACC,#117 << 3         ; |1075| 
         000005b9 0075 
    2830 000005ba 1EA6          MOVL      XAR6,ACC              ; |1075| 
    2831 000005bb FF5A          MOVL      P,ACC                 ; |1075| 
    2832 000005bc 0200          MOVB      ACC,#0
    2833 000005bd F61F          RPT       #31
    2834 000005be 5617  ||     SUBCUL    ACC,XAR6              ; |1075| 
         000005bf 00A6 
    2835 000005c0 0202          MOVB      ACC,#2
    2836 000005c1 0FAB          CMPL      ACC,P                 ; |1075| 
    2837 000005c2 56C6          BF        L101,HI               ; |1075| 
         000005c3 000A 
    2838                      ; branchcc occurs ; |1075| 
    2839 000005c4 02FF          MOVB      ACC,#255
    2840 000005c5 0FAB          CMPL      ACC,P                 ; |1077| 
    2841 000005c6 56C7          BF        L103,HIS              ; |1077| 
         000005c7 0009 
    2842                      ; branchcc occurs ; |1077| 
    2843 000005c8 28AB          MOV       PL,#255
         000005c9 00FF 
    2844 000005ca 56CF          BF        L102,UNC              ; |1077| 
         000005cb 0004 
    2845                      ; branch occurs ; |1077| 
    2846 000005cc       L101:    
    2847 000005cc 28AB          MOV       PL,#2
         000005cd 0002 
    2848 000005ce       L102:    
    2849 000005ce 2BAA          MOV       PH,#0
    2850 000005cf       L103:    
    2851 000005cf A9A9          MOVL      ACC,P
    2852 000005d0 FF1E          ADD       ACC,#3 << 14          ; |1078| 
         000005d1 0003 
    2853 000005d2 1EF1          MOVL      *+XAR1[6],ACC         ; |1078| 
    2854 000005d3       L104:    
    2855 000005d3 9A00          MOVB      AL,#0
    2856 000005d4       L105:    
    2857 000005d4 FE84          SUBB      SP,#4                 ; |1081| 
    2858 000005d5 8BBE          MOVL      XAR1,*--SP            ; |1081| 
    2859                      .dwpsn  "mmc_mcf.c",1082,1
    2860 000005d6 0006          LRETR
    2861                      ; return occurs
TMS320C2000 COFF Assembler PC v4.1.3 Thu Aug 18 12:16:22 2016

Tools Copyright (c) 1996-2006 Texas Instruments Incorporated
mmc_mcf.asm                                                          PAGE   59

    2862                      .dwattr DW$146, DW_AT_end_file("mmc_mcf.c")
    2863                      .dwattr DW$146, DW_AT_end_line(0x43a)
    2864                      .dwattr DW$146, DW_AT_end_column(0x01)
    2865                      .dwendtag DW$146
    2866              
    2867 000005d7               .sect   ".text"
    2868              
    2869              DW$148  .dwtag  DW_TAG_subprogram, DW_AT_name("spiSDinit"), DW_AT_symbol_name("_spiSDinit")
    2870                      .dwattr DW$148, DW_AT_low_pc(_spiSDinit)
    2871                      .dwattr DW$148, DW_AT_high_pc(0x00)
    2872                      .dwattr DW$148, DW_AT_begin_file("mmc_mcf.c")
    2873                      .dwattr DW$148, DW_AT_begin_line(0x448)
    2874                      .dwattr DW$148, DW_AT_begin_column(0x0c)
    2875                      .dwattr DW$148, DW_AT_frame_base[DW_OP_breg20 -10]
    2876                      .dwattr DW$148, DW_AT_skeletal(0x01)
    2877                      .dwpsn  "mmc_mcf.c",1096,38
    2878              
    2879              ;***************************************************************
    2880              ;* FNAME: _spiSDinit                    FR SIZE:   8           *
    2881              ;*                                                             *
    2882              ;* FUNCTION ENVIRONMENT                                        *
    2883              ;*                                                             *
    2884              ;* FUNCTION PROPERTIES                                         *
    2885              ;*                            2 Parameter,  0 Auto,  6 SOE     *
    2886              ;***************************************************************
    2887              
    2888              _spiSDinit:
    2889              ;* AR4   assigned to _user_ptr
    2890              DW$149  .dwtag  DW_TAG_formal_parameter, DW_AT_name("user_ptr"), DW_AT_symbol_name("_user_ptr")
    2891                      .dwattr DW$149, DW_AT_type(*DW$T$3)
    2892                      .dwattr DW$149, DW_AT_location[DW_OP_reg12]
    2893 000005d7 B2BD          MOVL      *SP++,XAR1
    2894 000005d8 AABD          MOVL      *SP++,XAR2
    2895 000005d9 A2BD          MOVL      *SP++,XAR3
    2896 000005da 82A4          MOVL      XAR3,XAR4             ; |1100| 
    2897 000005db 2BDB          MOV       *+XAR3[3],#0          ; |1102| 
    2898 000005dc FE02          ADDB      SP,#2
    2899 000005dd 7622   eallow             ; Enable accesses to PIE control registers
    2900 000005de 9A02          MOVB      AL,#2                 ; |1106| 
    2901 000005df F4A9          MOV       *(0:0x701b),AL        ; |1106| 
         000005e0 701B 
    2902 000005e1 9A77          MOVB      AL,#119               ; |1107| 
    2903 000005e2 F4A9          MOV       *(0:0x7044),AL        ; |1107| 
         000005e3 7044 
    2904 000005e4 761A   edis               ; Disable accesses to PIE control registers
    2905 000005e5 FF69          SPM       #0
    2906 000005e6 9A64          MOVB      AL,#100               ; |1109| 
    2907 000005e7 7640!         LCR       #_NOPDelay            ; |1109| 
         000005e8 0000 
    2908                      ; call occurs [#_NOPDelay] ; |1109| 
    2909 000005e9 7640'         LCR       #_spiCSlow            ; |1113| 
         000005ea 0010 
    2910                      ; call occurs [#_spiCSlow] ; |1113| 
    2911                      .dwpsn  "mmc_mcf.c",1114,0
    2912 000005eb D200          MOVB      XAR2,#0
TMS320C2000 COFF Assembler PC v4.1.3 Thu Aug 18 12:16:22 2016

Tools Copyright (c) 1996-2006 Texas Instruments Incorporated
mmc_mcf.asm                                                          PAGE   60

    2913 000005ec       L106:    
    2914 000005ec       DW$L$_spiSDinit$2$B:
    2915 000005ec 0200          MOVB      ACC,#0
    2916 000005ed 1901          SUBB      ACC,#1
    2917 000005ee 7640'         LCR       #_spitxlong           ; |1114| 
         000005ef 0075 
    2918                      ; call occurs [#_spitxlong] ; |1114| 
    2919 000005f0 AAA9          MOVL      ACC,XAR2              ; |1114| 
    2920 000005f1 0901          ADDB      ACC,#1                ; |1114| 
    2921 000005f2 86A9          MOVL      XAR2,ACC              ; |1114| 
    2922 000005f3 FF20          MOV       ACC,#1000             ; |1114| 
         000005f4 03E8 
    2923 000005f5 0FA2          CMPL      ACC,XAR2              ; |1114| 
    2924 000005f6 56C2          BF        L106,GT               ; |1114| 
         000005f7 FFF6 
    2925                      ; branchcc occurs ; |1114| 
    2926 000005f8       DW$L$_spiSDinit$2$E:
    2927 000005f8 D100          MOVB      XAR1,#0
    2928 000005f9 56CF          BF        L108,UNC
         000005fa 0008 
    2929                      ; branch occurs
    2930 000005fb       L107:    
    2931 000005fb       DW$L$_spiSDinit$4$B:
    2932 000005fb 020A          MOVB      ACC,#10
    2933 000005fc 0FA1          CMPL      ACC,XAR1              ; |1119| 
    2934 000005fd EC71          BF        L116,EQ               ; |1119| 
    2935                      ; branchcc occurs ; |1119| 
    2936 000005fe       DW$L$_spiSDinit$4$E:
    2937 000005fe       DW$L$_spiSDinit$5$B:
    2938 000005fe B2A9          MOVL      ACC,XAR1
    2939 000005ff 0901          ADDB      ACC,#1                ; |1116| 
    2940 00000600 8BA9          MOVL      XAR1,ACC              ; |1116| 
    2941 00000601       DW$L$_spiSDinit$5$E:
    2942 00000601       L108:    
    2943 00000601       DW$L$_spiSDinit$6$B:
    2944 00000601 0200          MOVB      ACC,#0
    2945 00000602 1E42          MOVL      *-SP[2],ACC           ; |1117| 
    2946 00000603 7640'         LCR       #_spiCmd              ; |1117| 
         00000604 018F 
    2947                      ; call occurs [#_spiCmd] ; |1117| 
    2948 00000605 86A9          MOVL      XAR2,ACC              ; |1117| 
    2949 00000606 0201          MOVB      ACC,#1
    2950 00000607 0FA2          CMPL      ACC,XAR2              ; |1117| 
    2951 00000608 EDF3          BF        L107,NEQ              ; |1117| 
    2952                      ; branchcc occurs ; |1117| 
    2953 00000609       DW$L$_spiSDinit$6$E:
    2954 00000609 0200          MOVB      ACC,#0
    2955 0000060a 1901          SUBB      ACC,#1
    2956 0000060b 7640'         LCR       #_spitxlong           ; |1126| 
         0000060c 0075 
    2957                      ; call occurs [#_spitxlong] ; |1126| 
    2958                      .dwpsn  "mmc_mcf.c",1130,0
    2959 0000060d D100          MOVB      XAR1,#0
    2960 0000060e       L109:    
    2961 0000060e       DW$L$_spiSDinit$8$B:
TMS320C2000 COFF Assembler PC v4.1.3 Thu Aug 18 12:16:22 2016

Tools Copyright (c) 1996-2006 Texas Instruments Incorporated
mmc_mcf.asm                                                          PAGE   61

    2962 0000060e 7640'         LCR       #_spiCSlow            ; |1137| 
         0000060f 0010 
    2963                      ; call occurs [#_spiCSlow] ; |1137| 
    2964 00000610 0200          MOVB      ACC,#0
    2965 00000611 1E42          MOVL      *-SP[2],ACC           ; |1138| 
    2966 00000612 0201          MOVB      ACC,#1
    2967 00000613 7640'         LCR       #_spiCmd              ; |1138| 
         00000614 018F 
    2968                      ; call occurs [#_spiCmd] ; |1138| 
    2969 00000615 FF58          TEST      ACC                   ; |1138| 
    2970 00000616 ED4F          BF        L115,NEQ              ; |1138| 
    2971                      ; branchcc occurs ; |1138| 
    2972 00000617       DW$L$_spiSDinit$8$E:
    2973 00000617 7640'         LCR       #_spiCShi             ; |1139| 
         00000618 0019 
    2974                      ; call occurs [#_spiCShi] ; |1139| 
    2975 00000619 7640'         LCR       #_spiCSlow            ; |1140| 
         0000061a 0010 
    2976                      ; call occurs [#_spiCSlow] ; |1140| 
    2977 0000061b 8F00          MOVL      XAR4,#512             ; |1148| 
         0000061c 0200 
    2978 0000061d A842          MOVL      *-SP[2],XAR4          ; |1148| 
    2979 0000061e 0210          MOVB      ACC,#16
    2980 0000061f 7640'         LCR       #_spiCmd              ; |1148| 
         00000620 018F 
    2981                      ; call occurs [#_spiCmd] ; |1148| 
    2982 00000621 FF58          TEST      ACC                   ; |1148| 
    2983 00000622 EC06          BF        L111,EQ               ; |1148| 
    2984                      ; branchcc occurs ; |1148| 
    2985 00000623 7640'         LCR       #_spiCShi             ; |1149| 
         00000624 0019 
    2986                      ; call occurs [#_spiCShi] ; |1149| 
    2987 00000625       L110:    
    2988 00000625 9A67          MOVB      AL,#103               ; |1150| 
    2989 00000626 56CF          BF        L117,UNC              ; |1150| 
         00000627 004B 
    2990                      ; branch occurs ; |1150| 
    2991 00000628       L111:    
    2992 00000628 0200          MOVB      ACC,#0
    2993 00000629 1901          SUBB      ACC,#1
    2994 0000062a 7640'         LCR       #_spitxlong           ; |1153| 
         0000062b 0075 
    2995                      ; call occurs [#_spitxlong] ; |1153| 
    2996 0000062c 7640'         LCR       #_spiCShi             ; |1154| 
         0000062d 0019 
    2997                      ; call occurs [#_spiCShi] ; |1154| 
    2998 0000062e 7640'         LCR       #_spiCSlow            ; |1156| 
         0000062f 0010 
    2999                      ; call occurs [#_spiCSlow] ; |1156| 
    3000 00000630 0201          MOVB      ACC,#1
    3001 00000631 1E42          MOVL      *-SP[2],ACC           ; |1158| 
    3002 00000632 023B          MOVB      ACC,#59
    3003 00000633 7640'         LCR       #_spiCmd              ; |1158| 
         00000634 018F 
    3004                      ; call occurs [#_spiCmd] ; |1158| 
TMS320C2000 COFF Assembler PC v4.1.3 Thu Aug 18 12:16:22 2016

Tools Copyright (c) 1996-2006 Texas Instruments Incorporated
mmc_mcf.asm                                                          PAGE   62

    3005 00000635 FF58          TEST      ACC                   ; |1158| 
    3006 00000636 EDEF          BF        L110,NEQ              ; |1158| 
    3007                      ; branchcc occurs ; |1158| 
    3008 00000637 0200          MOVB      ACC,#0
    3009 00000638 1901          SUBB      ACC,#1
    3010 00000639 7640'         LCR       #_spitxlong           ; |1162| 
         0000063a 0075 
    3011                      ; call occurs [#_spitxlong] ; |1162| 
    3012 0000063b 7640'         LCR       #_spiCShi             ; |1163| 
         0000063c 0019 
    3013                      ; call occurs [#_spiCShi] ; |1163| 
    3014 0000063d 8AA3          MOVL      XAR4,XAR3             ; |1165| 
    3015 0000063e 7640'         LCR       #_spiCSDBlock         ; |1165| 
         0000063f 03EC 
    3016                      ; call occurs [#_spiCSDBlock] ; |1165| 
    3017 00000640 5200          CMPB      AL,#0                 ; |1165| 
    3018 00000641 59A9          MOVZ      AR1,AL                ; |1165| 
    3019 00000642 EC06          BF        L112,EQ               ; |1165| 
    3020                      ; branchcc occurs ; |1165| 
    3021 00000643 7640'         LCR       #_spiCShi             ; |1167| 
         00000644 0019 
    3022                      ; call occurs [#_spiCShi] ; |1167| 
    3023 00000645 92A1          MOV       AL,AR1                ; |1167| 
    3024 00000646 56CF          BF        L117,UNC              ; |1168| 
         00000647 002B 
    3025                      ; branch occurs ; |1168| 
    3026 00000648       L112:    
    3027 00000648 0201          MOVB      ACC,#1
    3028 00000649 1E42          MOVL      *-SP[2],ACC           ; |1171| 
    3029 0000064a 0217          MOVB      ACC,#23
    3030 0000064b 7640'         LCR       #_spiCmd              ; |1171| 
         0000064c 018F 
    3031                      ; call occurs [#_spiCmd] ; |1171| 
    3032 0000064d FF58          TEST      ACC                   ; |1171| 
    3033 0000064e ED04          BF        L113,NEQ              ; |1171| 
    3034                      ; branchcc occurs ; |1171| 
    3035 0000064f 2BE3          MOV       *+XAR3[4],#0          ; |1171| 
    3036 00000650 56CF          BF        L114,UNC              ; |1171| 
         00000651 0004 
    3037                      ; branch occurs ; |1171| 
    3038 00000652       L113:    
    3039 00000652 28E3          MOV       *+XAR3[4],#1          ; |1171| 
         00000653 0001 
    3040 00000654       L114:    
    3041 00000654 28DB          MOV       *+XAR3[3],#1          ; |1173| 
         00000655 0001 
    3042 00000656 7622   eallow             ; Enable accesses to PIE control registers
    3043 00000657 9A02          MOVB      AL,#2                 ; |1176| 
    3044 00000658 F4A9          MOV       *(0:0x701b),AL        ; |1176| 
         00000659 701B 
    3045 0000065a 9A03          MOVB      AL,#3                 ; |1177| 
    3046 0000065b F4A9          MOV       *(0:0x7044),AL        ; |1177| 
         0000065c 7044 
    3047 0000065d 761A   edis               ; Disable accesses to PIE control registers
    3048 0000065e FF69          SPM       #0
TMS320C2000 COFF Assembler PC v4.1.3 Thu Aug 18 12:16:22 2016

Tools Copyright (c) 1996-2006 Texas Instruments Incorporated
mmc_mcf.asm                                                          PAGE   63

    3049 0000065f 9A64          MOVB      AL,#100               ; |1179| 
    3050 00000660 7640!         LCR       #_NOPDelay            ; |1179| 
         00000661 0000 
    3051                      ; call occurs [#_NOPDelay] ; |1179| 
    3052 00000662 9A00          MOVB      AL,#0
    3053 00000663 56CF          BF        L117,UNC              ; |1180| 
         00000664 000E 
    3054                      ; branch occurs ; |1180| 
    3055 00000665       L115:    
    3056 00000665       DW$L$_spiSDinit$19$B:
    3057 00000665 7640'         LCR       #_spiCShi             ; |1143| 
         00000666 0019 
    3058                      ; call occurs [#_spiCShi] ; |1143| 
    3059 00000667 B2A9          MOVL      ACC,XAR1              ; |1143| 
    3060 00000668 0901          ADDB      ACC,#1                ; |1130| 
    3061 00000669 8BA9          MOVL      XAR1,ACC              ; |1130| 
    3062 0000066a FF20          MOV       ACC,#1000             ; |1130| 
         0000066b 03E8 
    3063 0000066c 0FA1          CMPL      ACC,XAR1              ; |1130| 
    3064                      .dwpsn  "mmc_mcf.c",1144,0
    3065 0000066d EDA1          BF        L109,NEQ              ; |1130| 
    3066                      ; branchcc occurs ; |1130| 
    3067 0000066e       DW$L$_spiSDinit$19$E:
    3068 0000066e       L116:    
    3069 0000066e 7640'         LCR       #_spiCShi             ; |1133| 
         0000066f 0019 
    3070                      ; call occurs [#_spiCShi] ; |1133| 
    3071 00000670 9A66          MOVB      AL,#102               ; |1134| 
    3072 00000671       L117:    
    3073 00000671 FE82          SUBB      SP,#2                 ; |1134| 
    3074 00000672 82BE          MOVL      XAR3,*--SP            ; |1134| 
    3075 00000673 86BE          MOVL      XAR2,*--SP            ; |1134| 
    3076 00000674 8BBE          MOVL      XAR1,*--SP            ; |1134| 
    3077                      .dwpsn  "mmc_mcf.c",1181,1
    3078 00000675 0006          LRETR
    3079                      ; return occurs
    3080              
    3081              DW$150  .dwtag  DW_TAG_loop
    3082                      .dwattr DW$150, DW_AT_name("D:\DEV\Amot\BearingWear\XTSW_V6_20\mmc_mcf.asm:L109:1:1471518981")
    3083                      .dwattr DW$150, DW_AT_begin_file("mmc_mcf.c")
    3084                      .dwattr DW$150, DW_AT_begin_line(0x46a)
    3085                      .dwattr DW$150, DW_AT_end_line(0x478)
    3086              DW$151  .dwtag  DW_TAG_loop_range
    3087                      .dwattr DW$151, DW_AT_low_pc(DW$L$_spiSDinit$8$B)
    3088                      .dwattr DW$151, DW_AT_high_pc(DW$L$_spiSDinit$8$E)
    3089              DW$152  .dwtag  DW_TAG_loop_range
    3090                      .dwattr DW$152, DW_AT_low_pc(DW$L$_spiSDinit$19$B)
    3091                      .dwattr DW$152, DW_AT_high_pc(DW$L$_spiSDinit$19$E)
    3092                      .dwendtag DW$150
    3093              
    3094              
    3095              DW$153  .dwtag  DW_TAG_loop
    3096                      .dwattr DW$153, DW_AT_name("D:\DEV\Amot\BearingWear\XTSW_V6_20\mmc_mcf.asm:L108:1:1471518981")
    3097                      .dwattr DW$153, DW_AT_begin_file("mmc_mcf.c")
    3098                      .dwattr DW$153, DW_AT_begin_line(0x45c)
TMS320C2000 COFF Assembler PC v4.1.3 Thu Aug 18 12:16:22 2016

Tools Copyright (c) 1996-2006 Texas Instruments Incorporated
mmc_mcf.asm                                                          PAGE   64

    3099                      .dwattr DW$153, DW_AT_end_line(0x45f)
    3100              DW$154  .dwtag  DW_TAG_loop_range
    3101                      .dwattr DW$154, DW_AT_low_pc(DW$L$_spiSDinit$6$B)
    3102                      .dwattr DW$154, DW_AT_high_pc(DW$L$_spiSDinit$6$E)
    3103              DW$155  .dwtag  DW_TAG_loop_range
    3104                      .dwattr DW$155, DW_AT_low_pc(DW$L$_spiSDinit$4$B)
    3105                      .dwattr DW$155, DW_AT_high_pc(DW$L$_spiSDinit$4$E)
    3106              DW$156  .dwtag  DW_TAG_loop_range
    3107                      .dwattr DW$156, DW_AT_low_pc(DW$L$_spiSDinit$5$B)
    3108                      .dwattr DW$156, DW_AT_high_pc(DW$L$_spiSDinit$5$E)
    3109                      .dwendtag DW$153
    3110              
    3111              
    3112              DW$157  .dwtag  DW_TAG_loop
    3113                      .dwattr DW$157, DW_AT_name("D:\DEV\Amot\BearingWear\XTSW_V6_20\mmc_mcf.asm:L106:1:1471518981")
    3114                      .dwattr DW$157, DW_AT_begin_file("mmc_mcf.c")
    3115                      .dwattr DW$157, DW_AT_begin_line(0x45a)
    3116                      .dwattr DW$157, DW_AT_end_line(0x45a)
    3117              DW$158  .dwtag  DW_TAG_loop_range
    3118                      .dwattr DW$158, DW_AT_low_pc(DW$L$_spiSDinit$2$B)
    3119                      .dwattr DW$158, DW_AT_high_pc(DW$L$_spiSDinit$2$E)
    3120                      .dwendtag DW$157
    3121              
    3122                      .dwattr DW$148, DW_AT_end_file("mmc_mcf.c")
    3123                      .dwattr DW$148, DW_AT_end_line(0x49d)
    3124                      .dwattr DW$148, DW_AT_end_column(0x01)
    3125                      .dwendtag DW$148
    3126              
    3127 00000676               .sect   ".text"
    3128              
    3129              DW$159  .dwtag  DW_TAG_subprogram, DW_AT_name("mmc_getstatus"), DW_AT_symbol_name("_mmc_getstatus")
    3130                      .dwattr DW$159, DW_AT_low_pc(_mmc_getstatus)
    3131                      .dwattr DW$159, DW_AT_high_pc(0x00)
    3132                      .dwattr DW$159, DW_AT_begin_file("mmc_mcf.c")
    3133                      .dwattr DW$159, DW_AT_begin_line(0x4aa)
    3134                      .dwattr DW$159, DW_AT_begin_column(0x0d)
    3135                      .dwattr DW$159, DW_AT_frame_base[DW_OP_breg20 -8]
    3136                      .dwattr DW$159, DW_AT_skeletal(0x01)
    3137                      .dwpsn  "mmc_mcf.c",1194,43
    3138              
    3139              ;***************************************************************
    3140              ;* FNAME: _mmc_getstatus                FR SIZE:   6           *
    3141              ;*                                                             *
    3142              ;* FUNCTION ENVIRONMENT                                        *
    3143              ;*                                                             *
    3144              ;* FUNCTION PROPERTIES                                         *
    3145              ;*                            2 Parameter,  2 Auto,  2 SOE     *
    3146              ;***************************************************************
    3147              
    3148              _mmc_getstatus:
    3149              ;* AR4   assigned to _user_ptr
    3150              DW$160  .dwtag  DW_TAG_formal_parameter, DW_AT_name("user_ptr"), DW_AT_symbol_name("_user_ptr")
    3151                      .dwattr DW$160, DW_AT_type(*DW$T$3)
    3152                      .dwattr DW$160, DW_AT_location[DW_OP_reg12]
    3153 00000676 B2BD          MOVL      *SP++,XAR1
TMS320C2000 COFF Assembler PC v4.1.3 Thu Aug 18 12:16:22 2016

Tools Copyright (c) 1996-2006 Texas Instruments Incorporated
mmc_mcf.asm                                                          PAGE   65

    3154 00000677 FE04          ADDB      SP,#4
    3155 00000678 8BA4          MOVL      XAR1,XAR4             ; |1196| 
    3156 00000679 0200          MOVB      ACC,#0
    3157 0000067a 1E44          MOVL      *-SP[4],ACC           ; |1195| 
    3158 0000067b 92D9          MOV       AL,*+XAR1[3]          ; |1210| 
    3159 0000067c ED03          BF        L118,NEQ              ; |1210| 
    3160                      ; branchcc occurs ; |1210| 
    3161 0000067d 7640'         LCR       #_spiSDinit           ; |1211| 
         0000067e 05D7 
    3162                      ; call occurs [#_spiSDinit] ; |1211| 
    3163 0000067f       L118:    
    3164 0000067f 7640'         LCR       #_spiCSlow            ; |1214| 
         00000680 0010 
    3165                      ; call occurs [#_spiCSlow] ; |1214| 
    3166 00000681 0200          MOVB      ACC,#0
    3167 00000682 1E42          MOVL      *-SP[2],ACC           ; |1216| 
    3168 00000683 020D          MOVB      ACC,#13
    3169 00000684 7640'         LCR       #_spiCmd              ; |1216| 
         00000685 018F 
    3170                      ; call occurs [#_spiCmd] ; |1216| 
    3171 00000686 FF58          TEST      ACC                   ; |1216| 
    3172 00000687 EC09          BF        L119,EQ               ; |1216| 
    3173                      ; branchcc occurs ; |1216| 
    3174 00000688 9244          MOV       AL,*-SP[4]
    3175 00000689 5002          ORB       AL,#0x02              ; |1217| 
    3176 0000068a 9644          MOV       *-SP[4],AL            ; |1217| 
    3177 0000068b 7640'         LCR       #_spiCShi             ; |1218| 
         0000068c 0019 
    3178                      ; call occurs [#_spiCShi] ; |1218| 
    3179 0000068d 8AA1          MOVL      XAR4,XAR1             ; |1219| 
    3180 0000068e 7640'         LCR       #_spiSDinit           ; |1219| 
         0000068f 05D7 
    3181                      ; call occurs [#_spiSDinit] ; |1219| 
    3182 00000690       L119:    
    3183 00000690 7640'         LCR       #_spiCShi             ; |1222| 
         00000691 0019 
    3184                      ; call occurs [#_spiCShi] ; |1222| 
    3185 00000692 92D9          MOV       AL,*+XAR1[3]          ; |1225| 
    3186 00000693 ED04          BF        L120,NEQ              ; |1225| 
    3187                      ; branchcc occurs ; |1225| 
    3188 00000694 9244          MOV       AL,*-SP[4]
    3189 00000695 5001          ORB       AL,#0x01              ; |1225| 
    3190 00000696 9644          MOV       *-SP[4],AL            ; |1225| 
    3191 00000697       L120:    
    3192 00000697 0644          MOVL      ACC,*-SP[4]
    3193 00000698 FE84          SUBB      SP,#4                 ; |1228| 
    3194 00000699 8BBE          MOVL      XAR1,*--SP            ; |1228| 
    3195                      .dwpsn  "mmc_mcf.c",1229,1
    3196 0000069a 0006          LRETR
    3197                      ; return occurs
    3198                      .dwattr DW$159, DW_AT_end_file("mmc_mcf.c")
    3199                      .dwattr DW$159, DW_AT_end_line(0x4cd)
    3200                      .dwattr DW$159, DW_AT_end_column(0x01)
    3201                      .dwendtag DW$159
    3202              
TMS320C2000 COFF Assembler PC v4.1.3 Thu Aug 18 12:16:22 2016

Tools Copyright (c) 1996-2006 Texas Instruments Incorporated
mmc_mcf.asm                                                          PAGE   66

    3203 0000069b               .sect   ".text"
    3204              
    3205              DW$161  .dwtag  DW_TAG_subprogram, DW_AT_name("mmc_getphy"), DW_AT_symbol_name("_mmc_getphy")
    3206                      .dwattr DW$161, DW_AT_low_pc(_mmc_getphy)
    3207                      .dwattr DW$161, DW_AT_high_pc(0x00)
    3208                      .dwattr DW$161, DW_AT_begin_file("mmc_mcf.c")
    3209                      .dwattr DW$161, DW_AT_begin_line(0x4de)
    3210                      .dwattr DW$161, DW_AT_begin_column(0x0c)
    3211                      .dwattr DW$161, DW_AT_frame_base[DW_OP_breg20 -4]
    3212                      .dwattr DW$161, DW_AT_skeletal(0x01)
    3213                      .dwpsn  "mmc_mcf.c",1246,50
    3214              
    3215              ;***************************************************************
    3216              ;* FNAME: _mmc_getphy                   FR SIZE:   2           *
    3217              ;*                                                             *
    3218              ;* FUNCTION ENVIRONMENT                                        *
    3219              ;*                                                             *
    3220              ;* FUNCTION PROPERTIES                                         *
    3221              ;*                            0 Parameter,  0 Auto,  2 SOE     *
    3222              ;***************************************************************
    3223              
    3224              _mmc_getphy:
    3225              ;* AR4   assigned to _phy
    3226              DW$162  .dwtag  DW_TAG_formal_parameter, DW_AT_name("phy"), DW_AT_symbol_name("_phy")
    3227                      .dwattr DW$162, DW_AT_type(*DW$T$29)
    3228                      .dwattr DW$162, DW_AT_location[DW_OP_reg12]
    3229              ;* AR5   assigned to _user_ptr
    3230              DW$163  .dwtag  DW_TAG_formal_parameter, DW_AT_name("user_ptr"), DW_AT_symbol_name("_user_ptr")
    3231                      .dwattr DW$163, DW_AT_type(*DW$T$3)
    3232                      .dwattr DW$163, DW_AT_location[DW_OP_reg14]
    3233 0000069b B2BD          MOVL      *SP++,XAR1
    3234 0000069c 92D5          MOV       AL,*+XAR5[2]          ; |1250| 
    3235 0000069d 8BA4          MOVL      XAR1,XAR4             ; |1246| 
    3236 0000069e ED04          BF        L121,NEQ              ; |1250| 
    3237                      ; branchcc occurs ; |1250| 
    3238 0000069f 8AA5          MOVL      XAR4,XAR5             ; |1250| 
    3239 000006a0 7640'         LCR       #_spi_drv_change      ; |1250| 
         000006a1 011F 
    3240                      ; call occurs [#_spi_drv_change] ; |1250| 
    3241 000006a2       L121:    
    3242 000006a2 8AA5          MOVL      XAR4,XAR5             ; |1252| 
    3243 000006a3 7640'         LCR       #_spiSDinit           ; |1252| 
         000006a4 05D7 
    3244                      ; call occurs [#_spiSDinit] ; |1252| 
    3245 000006a5 5200          CMPB      AL,#0                 ; |1252| 
    3246 000006a6 ED24          BF        L122,NEQ              ; |1252| 
    3247                      ; branchcc occurs ; |1252| 
    3248 000006a7 2BC1          MOV       *+XAR1[0],#0          ; |1255| 
    3249 000006a8 761F-         MOVW      DP,#_g_mmc_type+32
         000006a9 0001 
    3250 000006aa 0202          MOVB      ACC,#2
    3251 000006ab 28C9          MOV       *+XAR1[1],#63         ; |1256| 
         000006ac 003F 
    3252 000006ad BE01          MOVB      XAR6,#1
    3253 000006ae 28D1          MOV       *+XAR1[2],#255        ; |1257| 
TMS320C2000 COFF Assembler PC v4.1.3 Thu Aug 18 12:16:22 2016

Tools Copyright (c) 1996-2006 Texas Instruments Incorporated
mmc_mcf.asm                                                          PAGE   67

         000006af 00FF 
    3254 000006b0 2901          CLRC      SXM
    3255 000006b1 0720-         ADDL      ACC,@_g_mmc_type+32   ; |1258| 
    3256 000006b2 2DA9          MOV       T,AL                  ; |1258| 
    3257 000006b3 06A6          MOVL      ACC,XAR6              ; |1258| 
    3258 000006b4 563B          LSLL      ACC,T                 ; |1258| 
    3259 000006b5 761F-         MOVW      DP,#_g_mmc_type+12
         000006b6 0001 
    3260 000006b7 1EA6          MOVL      XAR6,ACC              ; |1258| 
    3261 000006b8 2D0C-         MOV       T,@_g_mmc_type+12     ; |1258| 
    3262 000006b9 0201          MOVB      ACC,#1
    3263 000006ba 563B          LSLL      ACC,T                 ; |1258| 
    3264 000006bb 1EAC          MOVL      XT,ACC                ; |1258| 
    3265 000006bc 761F-         MOVW      DP,#_g_mmc_type+22
         000006bd 0001 
    3266 000006be 0201          MOVB      ACC,#1
    3267 000006bf 5665          IMPYXUL   P,XT,XAR6             ; |1258| 
         000006c0 00A6 
    3268 000006c1 0716-         ADDL      ACC,@_g_mmc_type+22   ; |1258| 
    3269 000006c2 1EAC          MOVL      XT,ACC                ; |1258| 
    3270 000006c3 5644          IMPYL     ACC,XT,P              ; |1258| 
         000006c4 00AB 
    3271 000006c5 FF48          SFR       ACC,9                 ; |1258| 
    3272 000006c6 1EE1          MOVL      *+XAR1[4],ACC         ; |1258| 
    3273 000006c7 9A00          MOVB      AL,#0
    3274 000006c8 28F1          MOV       *+XAR1[6],#240        ; |1259| 
         000006c9 00F0 
    3275 000006ca       L122:    
    3276 000006ca 8BBE          MOVL      XAR1,*--SP            ; |1261| 
    3277                      .dwpsn  "mmc_mcf.c",1262,1
    3278 000006cb 0006          LRETR
    3279                      ; return occurs
    3280                      .dwattr DW$161, DW_AT_end_file("mmc_mcf.c")
    3281                      .dwattr DW$161, DW_AT_end_line(0x4ee)
    3282                      .dwattr DW$161, DW_AT_end_column(0x01)
    3283                      .dwendtag DW$161
    3284              
    3285 000006cc               .sect   ".text"
    3286              
    3287              DW$164  .dwtag  DW_TAG_subprogram, DW_AT_name("mmc_delfunc"), DW_AT_symbol_name("_mmc_delfunc")
    3288                      .dwattr DW$164, DW_AT_low_pc(_mmc_delfunc)
    3289                      .dwattr DW$164, DW_AT_high_pc(0x00)
    3290                      .dwattr DW$164, DW_AT_begin_file("mmc_mcf.c")
    3291                      .dwattr DW$164, DW_AT_begin_line(0x4f4)
    3292                      .dwattr DW$164, DW_AT_begin_column(0x0c)
    3293                      .dwattr DW$164, DW_AT_frame_base[DW_OP_breg20 -2]
    3294                      .dwattr DW$164, DW_AT_skeletal(0x01)
    3295                      .dwpsn  "mmc_mcf.c",1269,1
    3296              
    3297              ;***************************************************************
    3298              ;* FNAME: _mmc_delfunc                  FR SIZE:   0           *
    3299              ;*                                                             *
    3300              ;* FUNCTION ENVIRONMENT                                        *
    3301              ;*                                                             *
    3302              ;* FUNCTION PROPERTIES                                         *
TMS320C2000 COFF Assembler PC v4.1.3 Thu Aug 18 12:16:22 2016

Tools Copyright (c) 1996-2006 Texas Instruments Incorporated
mmc_mcf.asm                                                          PAGE   68

    3303              ;*                            0 Parameter,  0 Auto,  0 SOE     *
    3304              ;***************************************************************
    3305              
    3306              _mmc_delfunc:
    3307              ;* AR4   assigned to _user_ptr
    3308              DW$165  .dwtag  DW_TAG_formal_parameter, DW_AT_name("user_ptr"), DW_AT_symbol_name("_user_ptr")
    3309                      .dwattr DW$165, DW_AT_type(*DW$T$3)
    3310                      .dwattr DW$165, DW_AT_location[DW_OP_reg12]
    3311 000006cc 9A00          MOVB      AL,#0
    3312 000006cd 2BCC          MOV       *+XAR4[1],#0          ; |1271| 
    3313 000006ce 2BD4          MOV       *+XAR4[2],#0          ; |1272| 
    3314                      .dwpsn  "mmc_mcf.c",1274,1
    3315 000006cf 0006          LRETR
    3316                      ; return occurs
    3317                      .dwattr DW$164, DW_AT_end_file("mmc_mcf.c")
    3318                      .dwattr DW$164, DW_AT_end_line(0x4fa)
    3319                      .dwattr DW$164, DW_AT_end_column(0x01)
    3320                      .dwendtag DW$164
    3321              
    3322 000006d0               .sect   ".text"
    3323                      .global _mmc_initfunc
    3324              
    3325              DW$166  .dwtag  DW_TAG_subprogram, DW_AT_name("mmc_initfunc"), DW_AT_symbol_name("_mmc_initfunc")
    3326                      .dwattr DW$166, DW_AT_low_pc(_mmc_initfunc)
    3327                      .dwattr DW$166, DW_AT_high_pc(0x00)
    3328                      .dwattr DW$166, DW_AT_begin_file("mmc_mcf.c")
    3329                      .dwattr DW$166, DW_AT_begin_line(0x50c)
    3330                      .dwattr DW$166, DW_AT_begin_column(0x05)
    3331                      .dwattr DW$166, DW_AT_frame_base[DW_OP_breg20 -6]
    3332                      .dwattr DW$166, DW_AT_skeletal(0x01)
    3333                      .dwpsn  "mmc_mcf.c",1292,48
    3334              
    3335              ;***************************************************************
    3336              ;* FNAME: _mmc_initfunc                 FR SIZE:   4           *
    3337              ;*                                                             *
    3338              ;* FUNCTION ENVIRONMENT                                        *
    3339              ;*                                                             *
    3340              ;* FUNCTION PROPERTIES                                         *
    3341              ;*                            0 Parameter,  0 Auto,  4 SOE     *
    3342              ;***************************************************************
    3343              
    3344              _mmc_initfunc:
    3345              ;* AR4   assigned to _func
    3346              DW$167  .dwtag  DW_TAG_formal_parameter, DW_AT_name("func"), DW_AT_symbol_name("_func")
    3347                      .dwattr DW$167, DW_AT_type(*DW$T$104)
    3348                      .dwattr DW$167, DW_AT_location[DW_OP_reg12]
    3349              ;* AR5   assigned to _user_ptr
    3350              DW$168  .dwtag  DW_TAG_formal_parameter, DW_AT_name("user_ptr"), DW_AT_symbol_name("_user_ptr")
    3351                      .dwattr DW$168, DW_AT_type(*DW$T$3)
    3352                      .dwattr DW$168, DW_AT_location[DW_OP_reg14]
    3353 000006d0 B2BD          MOVL      *SP++,XAR1
    3354 000006d1 A2BD          MOVL      *SP++,XAR3
    3355 000006d2 8BA4          MOVL      XAR1,XAR4             ; |1292| 
    3356 000006d3 8DC0-         MOVL      XAR3,#_MmcDrv         ; |1298| 
         000006d4 0002 
TMS320C2000 COFF Assembler PC v4.1.3 Thu Aug 18 12:16:22 2016

Tools Copyright (c) 1996-2006 Texas Instruments Incorporated
mmc_mcf.asm                                                          PAGE   69

    3357 000006d5 2BCB          MOV       *+XAR3[1],#0          ; |1298| 
    3358 000006d6 8F00          MOVL      XAR4,#49407           ; |1301| 
         000006d7 C0FF 
    3359 000006d8 2BD3          MOV       *+XAR3[2],#0          ; |1299| 
    3360 000006d9 2BDB          MOV       *+XAR3[3],#0          ; |1300| 
    3361 000006da A8F3          MOVL      *+XAR3[6],XAR4        ; |1301| 
    3362 000006db 7640'         LCR       #_spiInit             ; |1303| 
         000006dc 00F6 
    3363                      ; call occurs [#_spiInit] ; |1303| 
    3364 000006dd 8F00'         MOVL      XAR4,#_mmc_readsector ; |1305| 
         000006de 03CC 
    3365 000006df A8E1          MOVL      *+XAR1[4],XAR4        ; |1305| 
    3366 000006e0 8F00'         MOVL      XAR4,#_mmc_writesector ; |1306| 
         000006e1 03DC 
    3367 000006e2 A8C1          MOVL      *+XAR1[0],XAR4        ; |1306| 
    3368 000006e3 8F00'         MOVL      XAR4,#_mmc_readmultiplesector ; |1307| 
         000006e4 03D4 
    3369 000006e5 A8F1          MOVL      *+XAR1[6],XAR4        ; |1307| 
    3370 000006e6 8F00'         MOVL      XAR4,#_mmc_writemultiplesector ; |1308| 
         000006e7 03E4 
    3371 000006e8 D00A          MOVB      XAR0,#10              ; |1309| 
    3372 000006e9 A8D1          MOVL      *+XAR1[2],XAR4        ; |1308| 
    3373 000006ea 8F00'         MOVL      XAR4,#_mmc_getstatus  ; |1309| 
         000006eb 0676 
    3374 000006ec A891          MOVL      *+XAR1[AR0],XAR4      ; |1309| 
    3375 000006ed D008          MOVB      XAR0,#8               ; |1310| 
    3376 000006ee 8F00'         MOVL      XAR4,#_mmc_getphy     ; |1310| 
         000006ef 069B 
    3377 000006f0 A891          MOVL      *+XAR1[AR0],XAR4      ; |1310| 
    3378 000006f1 D00C          MOVB      XAR0,#12              ; |1311| 
    3379 000006f2 9A00          MOVB      AL,#0
    3380 000006f3 8F00'         MOVL      XAR4,#_mmc_delfunc    ; |1311| 
         000006f4 06CC 
    3381 000006f5 A891          MOVL      *+XAR1[AR0],XAR4      ; |1311| 
    3382 000006f6 D00E          MOVB      XAR0,#14              ; |1312| 
    3383 000006f7 A291          MOVL      *+XAR1[AR0],XAR3      ; |1312| 
    3384 000006f8 82BE          MOVL      XAR3,*--SP            ; |1314| 
    3385 000006f9 8BBE          MOVL      XAR1,*--SP            ; |1314| 
    3386                      .dwpsn  "mmc_mcf.c",1315,1
    3387 000006fa 0006          LRETR
    3388                      ; return occurs
    3389                      .dwattr DW$166, DW_AT_end_file("mmc_mcf.c")
    3390                      .dwattr DW$166, DW_AT_end_line(0x523)
    3391                      .dwattr DW$166, DW_AT_end_column(0x01)
    3392                      .dwendtag DW$166
    3393              
    3394              ;***************************************************************
    3395              ;* UNDEFINED EXTERNAL REFERENCES                               *
    3396              ;***************************************************************
    3397                      .global _memset
    3398                      .global _TransmitByte
    3399                      .global _ReceiveByte
    3400                      .global _ReadDataFromUart_C
    3401                      .global _NOPDelay
    3402                      .global _gpb
TMS320C2000 COFF Assembler PC v4.1.3 Thu Aug 18 12:16:22 2016

Tools Copyright (c) 1996-2006 Texas Instruments Incorporated
mmc_mcf.asm                                                          PAGE   70

    3403                      .global _gpf
    3404                      .global _settings
    3405                      .global _timers
    3406                      .global _config
    3407                      .global _spiregs
    3408                      .global _receiveC
    3409              
    3410              ;***************************************************************
    3411              ;* TYPE INFORMATION                                            *
    3412              ;***************************************************************
    3413              DW$T$3  .dwtag  DW_TAG_pointer_type
    3414                      .dwattr DW$T$3, DW_AT_address_class(0x16)
    3415              
    3416              DW$T$81 .dwtag  DW_TAG_subroutine_type, DW_AT_type(*DW$T$3)
    3417                      .dwattr DW$T$81, DW_AT_language(DW_LANG_C)
    3418              DW$169  .dwtag  DW_TAG_formal_parameter, DW_AT_type(*DW$T$3)
    3419              DW$170  .dwtag  DW_TAG_formal_parameter, DW_AT_type(*DW$T$10)
    3420              DW$171  .dwtag  DW_TAG_formal_parameter, DW_AT_type(*DW$T$80)
    3421                      .dwendtag DW$T$81
    3422              
    3423              
    3424              DW$T$84 .dwtag  DW_TAG_subroutine_type
    3425                      .dwattr DW$T$84, DW_AT_language(DW_LANG_C)
    3426              DW$172  .dwtag  DW_TAG_formal_parameter, DW_AT_type(*DW$T$11)
    3427                      .dwendtag DW$T$84
    3428              
    3429              
    3430              DW$T$86 .dwtag  DW_TAG_subroutine_type
    3431                      .dwattr DW$T$86, DW_AT_language(DW_LANG_C)
    3432              
    3433              DW$T$88 .dwtag  DW_TAG_subroutine_type
    3434                      .dwattr DW$T$88, DW_AT_language(DW_LANG_C)
    3435              DW$173  .dwtag  DW_TAG_formal_parameter, DW_AT_type(*DW$T$6)
    3436                      .dwendtag DW$T$88
    3437              
    3438              
    3439              DW$T$90 .dwtag  DW_TAG_subroutine_type
    3440                      .dwattr DW$T$90, DW_AT_language(DW_LANG_C)
    3441              DW$174  .dwtag  DW_TAG_formal_parameter, DW_AT_type(*DW$T$9)
    3442                      .dwendtag DW$T$90
    3443              
    3444              
    3445              DW$T$92 .dwtag  DW_TAG_subroutine_type
    3446                      .dwattr DW$T$92, DW_AT_language(DW_LANG_C)
    3447              DW$175  .dwtag  DW_TAG_formal_parameter, DW_AT_type(*DW$T$13)
    3448                      .dwendtag DW$T$92
    3449              
    3450              
    3451              DW$T$94 .dwtag  DW_TAG_subroutine_type
    3452                      .dwattr DW$T$94, DW_AT_language(DW_LANG_C)
    3453              DW$176  .dwtag  DW_TAG_formal_parameter, DW_AT_type(*DW$T$3)
    3454                      .dwendtag DW$T$94
    3455              
    3456              DW$T$6  .dwtag  DW_TAG_base_type, DW_AT_name("unsigned char")
    3457                      .dwattr DW$T$6, DW_AT_encoding(DW_ATE_unsigned_char)
TMS320C2000 COFF Assembler PC v4.1.3 Thu Aug 18 12:16:22 2016

Tools Copyright (c) 1996-2006 Texas Instruments Incorporated
mmc_mcf.asm                                                          PAGE   71

    3458                      .dwattr DW$T$6, DW_AT_byte_size(0x01)
    3459              DW$T$96 .dwtag  DW_TAG_pointer_type, DW_AT_type(*DW$T$6)
    3460                      .dwattr DW$T$96, DW_AT_address_class(0x16)
    3461              DW$T$9  .dwtag  DW_TAG_base_type, DW_AT_name("unsigned short")
    3462                      .dwattr DW$T$9, DW_AT_encoding(DW_ATE_unsigned)
    3463                      .dwattr DW$T$9, DW_AT_byte_size(0x01)
    3464              DW$T$10 .dwtag  DW_TAG_base_type, DW_AT_name("int")
    3465                      .dwattr DW$T$10, DW_AT_encoding(DW_ATE_signed)
    3466                      .dwattr DW$T$10, DW_AT_byte_size(0x01)
    3467              
    3468              DW$T$20 .dwtag  DW_TAG_subroutine_type, DW_AT_type(*DW$T$10)
    3469                      .dwattr DW$T$20, DW_AT_language(DW_LANG_C)
    3470              DW$177  .dwtag  DW_TAG_formal_parameter, DW_AT_type(*DW$T$3)
    3471              DW$178  .dwtag  DW_TAG_formal_parameter, DW_AT_type(*DW$T$13)
    3472              DW$179  .dwtag  DW_TAG_formal_parameter, DW_AT_type(*DW$T$3)
    3473                      .dwendtag DW$T$20
    3474              
    3475              
    3476              DW$T$23 .dwtag  DW_TAG_subroutine_type, DW_AT_type(*DW$T$10)
    3477                      .dwattr DW$T$23, DW_AT_language(DW_LANG_C)
    3478              DW$180  .dwtag  DW_TAG_formal_parameter, DW_AT_type(*DW$T$3)
    3479              DW$181  .dwtag  DW_TAG_formal_parameter, DW_AT_type(*DW$T$13)
    3480              DW$182  .dwtag  DW_TAG_formal_parameter, DW_AT_type(*DW$T$10)
    3481              DW$183  .dwtag  DW_TAG_formal_parameter, DW_AT_type(*DW$T$3)
    3482                      .dwendtag DW$T$23
    3483              
    3484              
    3485              DW$T$30 .dwtag  DW_TAG_subroutine_type, DW_AT_type(*DW$T$10)
    3486                      .dwattr DW$T$30, DW_AT_language(DW_LANG_C)
    3487              DW$184  .dwtag  DW_TAG_formal_parameter, DW_AT_type(*DW$T$29)
    3488              DW$185  .dwtag  DW_TAG_formal_parameter, DW_AT_type(*DW$T$3)
    3489                      .dwendtag DW$T$30
    3490              
    3491              
    3492              DW$T$36 .dwtag  DW_TAG_subroutine_type, DW_AT_type(*DW$T$10)
    3493                      .dwattr DW$T$36, DW_AT_language(DW_LANG_C)
    3494              DW$186  .dwtag  DW_TAG_formal_parameter, DW_AT_type(*DW$T$3)
    3495                      .dwendtag DW$T$36
    3496              
    3497              
    3498              DW$T$99 .dwtag  DW_TAG_subroutine_type, DW_AT_type(*DW$T$10)
    3499                      .dwattr DW$T$99, DW_AT_language(DW_LANG_C)
    3500              
    3501              DW$T$101        .dwtag  DW_TAG_subroutine_type, DW_AT_type(*DW$T$10)
    3502                      .dwattr DW$T$101, DW_AT_language(DW_LANG_C)
    3503              DW$187  .dwtag  DW_TAG_formal_parameter, DW_AT_type(*DW$T$96)
    3504              DW$188  .dwtag  DW_TAG_formal_parameter, DW_AT_type(*DW$T$13)
    3505              DW$189  .dwtag  DW_TAG_formal_parameter, DW_AT_type(*DW$T$10)
    3506              DW$190  .dwtag  DW_TAG_formal_parameter, DW_AT_type(*DW$T$3)
    3507                      .dwendtag DW$T$101
    3508              
    3509              
    3510              DW$T$105        .dwtag  DW_TAG_subroutine_type, DW_AT_type(*DW$T$10)
    3511                      .dwattr DW$T$105, DW_AT_language(DW_LANG_C)
    3512              DW$191  .dwtag  DW_TAG_formal_parameter, DW_AT_type(*DW$T$104)
TMS320C2000 COFF Assembler PC v4.1.3 Thu Aug 18 12:16:22 2016

Tools Copyright (c) 1996-2006 Texas Instruments Incorporated
mmc_mcf.asm                                                          PAGE   72

    3513              DW$192  .dwtag  DW_TAG_formal_parameter, DW_AT_type(*DW$T$3)
    3514                      .dwendtag DW$T$105
    3515              
    3516              DW$T$11 .dwtag  DW_TAG_base_type, DW_AT_name("unsigned int")
    3517                      .dwattr DW$T$11, DW_AT_encoding(DW_ATE_unsigned)
    3518                      .dwattr DW$T$11, DW_AT_byte_size(0x01)
    3519              
    3520              DW$T$108        .dwtag  DW_TAG_subroutine_type, DW_AT_type(*DW$T$11)
    3521                      .dwattr DW$T$108, DW_AT_language(DW_LANG_C)
    3522              DW$T$12 .dwtag  DW_TAG_base_type, DW_AT_name("long")
    3523                      .dwattr DW$T$12, DW_AT_encoding(DW_ATE_signed)
    3524                      .dwattr DW$T$12, DW_AT_byte_size(0x02)
    3525              
    3526              DW$T$33 .dwtag  DW_TAG_subroutine_type, DW_AT_type(*DW$T$12)
    3527                      .dwattr DW$T$33, DW_AT_language(DW_LANG_C)
    3528              DW$193  .dwtag  DW_TAG_formal_parameter, DW_AT_type(*DW$T$3)
    3529                      .dwendtag DW$T$33
    3530              
    3531              
    3532              DW$T$113        .dwtag  DW_TAG_subroutine_type, DW_AT_type(*DW$T$12)
    3533                      .dwattr DW$T$113, DW_AT_language(DW_LANG_C)
    3534              
    3535              DW$T$116        .dwtag  DW_TAG_subroutine_type, DW_AT_type(*DW$T$12)
    3536                      .dwattr DW$T$116, DW_AT_language(DW_LANG_C)
    3537              DW$194  .dwtag  DW_TAG_formal_parameter, DW_AT_type(*DW$T$12)
    3538              DW$195  .dwtag  DW_TAG_formal_parameter, DW_AT_type(*DW$T$115)
    3539                      .dwendtag DW$T$116
    3540              
    3541              
    3542              DW$T$118        .dwtag  DW_TAG_subroutine_type, DW_AT_type(*DW$T$12)
    3543                      .dwattr DW$T$118, DW_AT_language(DW_LANG_C)
    3544              DW$196  .dwtag  DW_TAG_formal_parameter, DW_AT_type(*DW$T$13)
    3545              DW$197  .dwtag  DW_TAG_formal_parameter, DW_AT_type(*DW$T$13)
    3546                      .dwendtag DW$T$118
    3547              
    3548              DW$T$13 .dwtag  DW_TAG_base_type, DW_AT_name("unsigned long")
    3549                      .dwattr DW$T$13, DW_AT_encoding(DW_ATE_unsigned)
    3550                      .dwattr DW$T$13, DW_AT_byte_size(0x02)
    3551              DW$T$80 .dwtag  DW_TAG_typedef, DW_AT_name("size_t"), DW_AT_type(*DW$T$13)
    3552                      .dwattr DW$T$80, DW_AT_language(DW_LANG_C)
    3553              DW$T$115        .dwtag  DW_TAG_pointer_type, DW_AT_type(*DW$T$13)
    3554                      .dwattr DW$T$115, DW_AT_address_class(0x16)
    3555              
    3556              DW$T$122        .dwtag  DW_TAG_subroutine_type, DW_AT_type(*DW$T$13)
    3557                      .dwattr DW$T$122, DW_AT_language(DW_LANG_C)
    3558              DW$198  .dwtag  DW_TAG_formal_parameter, DW_AT_type(*DW$T$13)
    3559              DW$199  .dwtag  DW_TAG_formal_parameter, DW_AT_type(*DW$T$6)
    3560                      .dwendtag DW$T$122
    3561              
    3562              
    3563              DW$T$124        .dwtag  DW_TAG_subroutine_type, DW_AT_type(*DW$T$13)
    3564                      .dwattr DW$T$124, DW_AT_language(DW_LANG_C)
    3565              
    3566              DW$T$126        .dwtag  DW_TAG_array_type, DW_AT_type(*DW$T$13)
    3567                      .dwattr DW$T$126, DW_AT_language(DW_LANG_C)
TMS320C2000 COFF Assembler PC v4.1.3 Thu Aug 18 12:16:22 2016

Tools Copyright (c) 1996-2006 Texas Instruments Incorporated
mmc_mcf.asm                                                          PAGE   73

    3568                      .dwattr DW$T$126, DW_AT_byte_size(0x200)
    3569              DW$200  .dwtag  DW_TAG_subrange_type
    3570                      .dwattr DW$200, DW_AT_upper_bound(0xff)
    3571                      .dwendtag DW$T$126
    3572              
    3573              DW$T$29 .dwtag  DW_TAG_pointer_type, DW_AT_type(*DW$T$28)
    3574                      .dwattr DW$T$29, DW_AT_address_class(0x16)
    3575              DW$T$104        .dwtag  DW_TAG_pointer_type, DW_AT_type(*DW$T$103)
    3576                      .dwattr DW$T$104, DW_AT_address_class(0x16)
    3577              DW$201  .dwtag  DW_TAG_far_type
    3578                      .dwattr DW$201, DW_AT_type(*DW$T$134)
    3579              DW$T$135        .dwtag  DW_TAG_volatile_type
    3580                      .dwattr DW$T$135, DW_AT_type(*DW$201)
    3581              DW$202  .dwtag  DW_TAG_far_type
    3582                      .dwattr DW$202, DW_AT_type(*DW$T$138)
    3583              DW$T$139        .dwtag  DW_TAG_volatile_type
    3584                      .dwattr DW$T$139, DW_AT_type(*DW$202)
    3585              DW$T$142        .dwtag  DW_TAG_typedef, DW_AT_name("settingsstruct"), DW_AT_type(*DW$T$47)
    3586                      .dwattr DW$T$142, DW_AT_language(DW_LANG_C)
    3587              DW$203  .dwtag  DW_TAG_far_type
    3588                      .dwattr DW$203, DW_AT_type(*DW$T$143)
    3589              DW$T$144        .dwtag  DW_TAG_volatile_type
    3590                      .dwattr DW$T$144, DW_AT_type(*DW$203)
    3591              DW$T$146        .dwtag  DW_TAG_typedef, DW_AT_name("configstruct"), DW_AT_type(*DW$T$56)
    3592                      .dwattr DW$T$146, DW_AT_language(DW_LANG_C)
    3593              DW$204  .dwtag  DW_TAG_far_type
    3594                      .dwattr DW$204, DW_AT_type(*DW$T$72)
    3595              DW$T$147        .dwtag  DW_TAG_volatile_type
    3596                      .dwattr DW$T$147, DW_AT_type(*DW$204)
    3597              DW$T$149        .dwtag  DW_TAG_typedef, DW_AT_name("uartreadC"), DW_AT_type(*DW$T$75)
    3598                      .dwattr DW$T$149, DW_AT_language(DW_LANG_C)
    3599              
    3600              DW$T$151        .dwtag  DW_TAG_array_type, DW_AT_type(*DW$T$150)
    3601                      .dwattr DW$T$151, DW_AT_language(DW_LANG_C)
    3602                      .dwattr DW$T$151, DW_AT_byte_size(0x10)
    3603              DW$205  .dwtag  DW_TAG_subrange_type
    3604                      .dwattr DW$205, DW_AT_upper_bound(0x00)
    3605                      .dwendtag DW$T$151
    3606              
    3607              DW$T$155        .dwtag  DW_TAG_typedef, DW_AT_name("MMC_TYPE"), DW_AT_type(*DW$T$79)
    3608                      .dwattr DW$T$155, DW_AT_language(DW_LANG_C)
    3609              DW$T$28 .dwtag  DW_TAG_typedef, DW_AT_name("F_PHY"), DW_AT_type(*DW$T$19)
    3610                      .dwattr DW$T$28, DW_AT_language(DW_LANG_C)
    3611              DW$T$103        .dwtag  DW_TAG_typedef, DW_AT_name("F_FUNC"), DW_AT_type(*DW$T$39)
    3612                      .dwattr DW$T$103, DW_AT_language(DW_LANG_C)
    3613              DW$T$134        .dwtag  DW_TAG_typedef, DW_AT_name("gpbport"), DW_AT_type(*DW$T$42)
    3614                      .dwattr DW$T$134, DW_AT_language(DW_LANG_C)
    3615              DW$T$138        .dwtag  DW_TAG_typedef, DW_AT_name("gpfport"), DW_AT_type(*DW$T$45)
    3616                      .dwattr DW$T$138, DW_AT_language(DW_LANG_C)
    3617              
    3618              DW$T$47 .dwtag  DW_TAG_structure_type
    3619                      .dwattr DW$T$47, DW_AT_name("tag_settingsstruct")
    3620                      .dwattr DW$T$47, DW_AT_byte_size(0x24)
    3621              DW$206  .dwtag  DW_TAG_member, DW_AT_type(*DW$T$11)
    3622                      .dwattr DW$206, DW_AT_name("watchdog"), DW_AT_symbol_name("_watchdog")
TMS320C2000 COFF Assembler PC v4.1.3 Thu Aug 18 12:16:22 2016

Tools Copyright (c) 1996-2006 Texas Instruments Incorporated
mmc_mcf.asm                                                          PAGE   74

    3623                      .dwattr DW$206, DW_AT_data_member_location[DW_OP_plus_uconst 0x0]
    3624                      .dwattr DW$206, DW_AT_accessibility(DW_ACCESS_public)
    3625              DW$207  .dwtag  DW_TAG_member, DW_AT_type(*DW$T$11)
    3626                      .dwattr DW$207, DW_AT_name("ledflashflag"), DW_AT_symbol_name("_ledflashflag")
    3627                      .dwattr DW$207, DW_AT_data_member_location[DW_OP_plus_uconst 0x1]
    3628                      .dwattr DW$207, DW_AT_accessibility(DW_ACCESS_public)
    3629              DW$208  .dwtag  DW_TAG_member, DW_AT_type(*DW$T$11)
    3630                      .dwattr DW$208, DW_AT_name("updatesafe"), DW_AT_symbol_name("_updatesafe")
    3631                      .dwattr DW$208, DW_AT_data_member_location[DW_OP_plus_uconst 0x2]
    3632                      .dwattr DW$208, DW_AT_accessibility(DW_ACCESS_public)
    3633              DW$209  .dwtag  DW_TAG_member, DW_AT_type(*DW$T$11)
    3634                      .dwattr DW$209, DW_AT_name("tableconfigtype"), DW_AT_symbol_name("_tableconfigtype")
    3635                      .dwattr DW$209, DW_AT_data_member_location[DW_OP_plus_uconst 0x3]
    3636                      .dwattr DW$209, DW_AT_accessibility(DW_ACCESS_public)
    3637              DW$210  .dwtag  DW_TAG_member, DW_AT_type(*DW$T$11)
    3638                      .dwattr DW$210, DW_AT_name("caltableconfigtype"), DW_AT_symbol_name("_caltableconfigtype")
    3639                      .dwattr DW$210, DW_AT_data_member_location[DW_OP_plus_uconst 0x4]
    3640                      .dwattr DW$210, DW_AT_accessibility(DW_ACCESS_public)
    3641              DW$211  .dwtag  DW_TAG_member, DW_AT_type(*DW$T$11)
    3642                      .dwattr DW$211, DW_AT_name("eventmsgid"), DW_AT_symbol_name("_eventmsgid")
    3643                      .dwattr DW$211, DW_AT_data_member_location[DW_OP_plus_uconst 0x5]
    3644                      .dwattr DW$211, DW_AT_accessibility(DW_ACCESS_public)
    3645              DW$212  .dwtag  DW_TAG_member, DW_AT_type(*DW$T$11)
    3646                      .dwattr DW$212, DW_AT_name("configoperationcomplete"), DW_AT_symbol_name("_configoperationcomplete")
    3647                      .dwattr DW$212, DW_AT_data_member_location[DW_OP_plus_uconst 0x6]
    3648                      .dwattr DW$212, DW_AT_accessibility(DW_ACCESS_public)
    3649              DW$213  .dwtag  DW_TAG_member, DW_AT_type(*DW$T$11)
    3650                      .dwattr DW$213, DW_AT_name("sdcarderr"), DW_AT_symbol_name("_sdcarderr")
    3651                      .dwattr DW$213, DW_AT_data_member_location[DW_OP_plus_uconst 0x7]
    3652                      .dwattr DW$213, DW_AT_accessibility(DW_ACCESS_public)
    3653              DW$214  .dwtag  DW_TAG_member, DW_AT_type(*DW$T$11)
    3654                      .dwattr DW$214, DW_AT_name("sderase"), DW_AT_symbol_name("_sderase")
    3655                      .dwattr DW$214, DW_AT_data_member_location[DW_OP_plus_uconst 0x8]
    3656                      .dwattr DW$214, DW_AT_accessibility(DW_ACCESS_public)
    3657              DW$215  .dwtag  DW_TAG_member, DW_AT_type(*DW$T$11)
    3658                      .dwattr DW$215, DW_AT_name("sdreinit"), DW_AT_symbol_name("_sdreinit")
    3659                      .dwattr DW$215, DW_AT_data_member_location[DW_OP_plus_uconst 0x9]
    3660                      .dwattr DW$215, DW_AT_accessibility(DW_ACCESS_public)
    3661              DW$216  .dwtag  DW_TAG_member, DW_AT_type(*DW$T$11)
    3662                      .dwattr DW$216, DW_AT_name("sdcardupdate"), DW_AT_symbol_name("_sdcardupdate")
    3663                      .dwattr DW$216, DW_AT_data_member_location[DW_OP_plus_uconst 0xa]
    3664                      .dwattr DW$216, DW_AT_accessibility(DW_ACCESS_public)
    3665              DW$217  .dwtag  DW_TAG_member, DW_AT_type(*DW$T$11)
    3666                      .dwattr DW$217, DW_AT_name("cardreadflag"), DW_AT_symbol_name("_cardreadflag")
    3667                      .dwattr DW$217, DW_AT_data_member_location[DW_OP_plus_uconst 0xb]
    3668                      .dwattr DW$217, DW_AT_accessibility(DW_ACCESS_public)
    3669              DW$218  .dwtag  DW_TAG_member, DW_AT_type(*DW$T$11)
    3670                      .dwattr DW$218, DW_AT_name("ignore"), DW_AT_symbol_name("_ignore")
    3671                      .dwattr DW$218, DW_AT_data_member_location[DW_OP_plus_uconst 0xc]
    3672                      .dwattr DW$218, DW_AT_accessibility(DW_ACCESS_public)
    3673              DW$219  .dwtag  DW_TAG_member, DW_AT_type(*DW$T$11)
    3674                      .dwattr DW$219, DW_AT_name("dcmode"), DW_AT_symbol_name("_dcmode")
    3675                      .dwattr DW$219, DW_AT_data_member_location[DW_OP_plus_uconst 0xd]
    3676                      .dwattr DW$219, DW_AT_accessibility(DW_ACCESS_public)
    3677              DW$220  .dwtag  DW_TAG_member, DW_AT_type(*DW$T$11)
TMS320C2000 COFF Assembler PC v4.1.3 Thu Aug 18 12:16:22 2016

Tools Copyright (c) 1996-2006 Texas Instruments Incorporated
mmc_mcf.asm                                                          PAGE   75

    3678                      .dwattr DW$220, DW_AT_name("spiinuse"), DW_AT_symbol_name("_spiinuse")
    3679                      .dwattr DW$220, DW_AT_data_member_location[DW_OP_plus_uconst 0xe]
    3680                      .dwattr DW$220, DW_AT_accessibility(DW_ACCESS_public)
    3681              DW$221  .dwtag  DW_TAG_member, DW_AT_type(*DW$T$11)
    3682                      .dwattr DW$221, DW_AT_name("dcpeakhold"), DW_AT_symbol_name("_dcpeakhold")
    3683                      .dwattr DW$221, DW_AT_data_member_location[DW_OP_plus_uconst 0xf]
    3684                      .dwattr DW$221, DW_AT_accessibility(DW_ACCESS_public)
    3685              DW$222  .dwtag  DW_TAG_member, DW_AT_type(*DW$T$11)
    3686                      .dwattr DW$222, DW_AT_name("dcpause"), DW_AT_symbol_name("_dcpause")
    3687                      .dwattr DW$222, DW_AT_data_member_location[DW_OP_plus_uconst 0x10]
    3688                      .dwattr DW$222, DW_AT_accessibility(DW_ACCESS_public)
    3689              DW$223  .dwtag  DW_TAG_member, DW_AT_type(*DW$T$11)
    3690                      .dwattr DW$223, DW_AT_name("mastermode"), DW_AT_symbol_name("_mastermode")
    3691                      .dwattr DW$223, DW_AT_data_member_location[DW_OP_plus_uconst 0x11]
    3692                      .dwattr DW$223, DW_AT_accessibility(DW_ACCESS_public)
    3693              DW$224  .dwtag  DW_TAG_member, DW_AT_type(*DW$T$11)
    3694                      .dwattr DW$224, DW_AT_name("updatescaling"), DW_AT_symbol_name("_updatescaling")
    3695                      .dwattr DW$224, DW_AT_data_member_location[DW_OP_plus_uconst 0x12]
    3696                      .dwattr DW$224, DW_AT_accessibility(DW_ACCESS_public)
    3697              DW$225  .dwtag  DW_TAG_member, DW_AT_type(*DW$T$11)
    3698                      .dwattr DW$225, DW_AT_name("forwardasternflag"), DW_AT_symbol_name("_forwardasternflag")
    3699                      .dwattr DW$225, DW_AT_data_member_location[DW_OP_plus_uconst 0x13]
    3700                      .dwattr DW$225, DW_AT_accessibility(DW_ACCESS_public)
    3701              DW$226  .dwtag  DW_TAG_member, DW_AT_type(*DW$T$11)
    3702                      .dwattr DW$226, DW_AT_name("initprogress"), DW_AT_symbol_name("_initprogress")
    3703                      .dwattr DW$226, DW_AT_data_member_location[DW_OP_plus_uconst 0x14]
    3704                      .dwattr DW$226, DW_AT_accessibility(DW_ACCESS_public)
    3705              DW$227  .dwtag  DW_TAG_member, DW_AT_type(*DW$T$11)
    3706                      .dwattr DW$227, DW_AT_name("dircountdown"), DW_AT_symbol_name("_dircountdown")
    3707                      .dwattr DW$227, DW_AT_data_member_location[DW_OP_plus_uconst 0x15]
    3708                      .dwattr DW$227, DW_AT_accessibility(DW_ACCESS_public)
    3709              DW$228  .dwtag  DW_TAG_member, DW_AT_type(*DW$T$11)
    3710                      .dwattr DW$228, DW_AT_name("slowdowncounter"), DW_AT_symbol_name("_slowdowncounter")
    3711                      .dwattr DW$228, DW_AT_data_member_location[DW_OP_plus_uconst 0x16]
    3712                      .dwattr DW$228, DW_AT_accessibility(DW_ACCESS_public)
    3713              DW$229  .dwtag  DW_TAG_member, DW_AT_type(*DW$T$11)
    3714                      .dwattr DW$229, DW_AT_name("slowdowncondition"), DW_AT_symbol_name("_slowdowncondition")
    3715                      .dwattr DW$229, DW_AT_data_member_location[DW_OP_plus_uconst 0x17]
    3716                      .dwattr DW$229, DW_AT_accessibility(DW_ACCESS_public)
    3717              DW$230  .dwtag  DW_TAG_member, DW_AT_type(*DW$T$11)
    3718                      .dwattr DW$230, DW_AT_name("slowdownlevel"), DW_AT_symbol_name("_slowdownlevel")
    3719                      .dwattr DW$230, DW_AT_data_member_location[DW_OP_plus_uconst 0x18]
    3720                      .dwattr DW$230, DW_AT_accessibility(DW_ACCESS_public)
    3721              DW$231  .dwtag  DW_TAG_member, DW_AT_type(*DW$T$11)
    3722                      .dwattr DW$231, DW_AT_name("alarmlevel"), DW_AT_symbol_name("_alarmlevel")
    3723                      .dwattr DW$231, DW_AT_data_member_location[DW_OP_plus_uconst 0x19]
    3724                      .dwattr DW$231, DW_AT_accessibility(DW_ACCESS_public)
    3725              DW$232  .dwtag  DW_TAG_member, DW_AT_type(*DW$T$11)
    3726                      .dwattr DW$232, DW_AT_name("slowdowndevlevel"), DW_AT_symbol_name("_slowdowndevlevel")
    3727                      .dwattr DW$232, DW_AT_data_member_location[DW_OP_plus_uconst 0x1a]
    3728                      .dwattr DW$232, DW_AT_accessibility(DW_ACCESS_public)
    3729              DW$233  .dwtag  DW_TAG_member, DW_AT_type(*DW$T$11)
    3730                      .dwattr DW$233, DW_AT_name("alarmdevlevel"), DW_AT_symbol_name("_alarmdevlevel")
    3731                      .dwattr DW$233, DW_AT_data_member_location[DW_OP_plus_uconst 0x1b]
    3732                      .dwattr DW$233, DW_AT_accessibility(DW_ACCESS_public)
TMS320C2000 COFF Assembler PC v4.1.3 Thu Aug 18 12:16:22 2016

Tools Copyright (c) 1996-2006 Texas Instruments Incorporated
mmc_mcf.asm                                                          PAGE   76

    3733              DW$234  .dwtag  DW_TAG_member, DW_AT_type(*DW$T$11)
    3734                      .dwattr DW$234, DW_AT_name("cylinderalarmlevel"), DW_AT_symbol_name("_cylinderalarmlevel")
    3735                      .dwattr DW$234, DW_AT_data_member_location[DW_OP_plus_uconst 0x1c]
    3736                      .dwattr DW$234, DW_AT_accessibility(DW_ACCESS_public)
    3737              DW$235  .dwtag  DW_TAG_member, DW_AT_type(*DW$T$11)
    3738                      .dwattr DW$235, DW_AT_name("temperaturealarm"), DW_AT_symbol_name("_temperaturealarm")
    3739                      .dwattr DW$235, DW_AT_data_member_location[DW_OP_plus_uconst 0x1d]
    3740                      .dwattr DW$235, DW_AT_accessibility(DW_ACCESS_public)
    3741              DW$236  .dwtag  DW_TAG_member, DW_AT_type(*DW$T$11)
    3742                      .dwattr DW$236, DW_AT_name("temperatureslowdown"), DW_AT_symbol_name("_temperatureslowdown")
    3743                      .dwattr DW$236, DW_AT_data_member_location[DW_OP_plus_uconst 0x1e]
    3744                      .dwattr DW$236, DW_AT_accessibility(DW_ACCESS_public)
    3745              DW$237  .dwtag  DW_TAG_member, DW_AT_type(*DW$T$46)
    3746                      .dwattr DW$237, DW_AT_name("anadebug"), DW_AT_symbol_name("_anadebug")
    3747                      .dwattr DW$237, DW_AT_data_member_location[DW_OP_plus_uconst 0x1f]
    3748                      .dwattr DW$237, DW_AT_accessibility(DW_ACCESS_public)
    3749              DW$238  .dwtag  DW_TAG_member, DW_AT_type(*DW$T$11)
    3750                      .dwattr DW$238, DW_AT_name("serialdebug"), DW_AT_symbol_name("_serialdebug")
    3751                      .dwattr DW$238, DW_AT_data_member_location[DW_OP_plus_uconst 0x21]
    3752                      .dwattr DW$238, DW_AT_accessibility(DW_ACCESS_public)
    3753              DW$239  .dwtag  DW_TAG_member, DW_AT_type(*DW$T$11)
    3754                      .dwattr DW$239, DW_AT_name("timerrunning"), DW_AT_symbol_name("_timerrunning")
    3755                      .dwattr DW$239, DW_AT_data_member_location[DW_OP_plus_uconst 0x22]
    3756                      .dwattr DW$239, DW_AT_accessibility(DW_ACCESS_public)
    3757              DW$240  .dwtag  DW_TAG_member, DW_AT_type(*DW$T$11)
    3758                      .dwattr DW$240, DW_AT_name("rpm"), DW_AT_symbol_name("_rpm")
    3759                      .dwattr DW$240, DW_AT_data_member_location[DW_OP_plus_uconst 0x23]
    3760                      .dwattr DW$240, DW_AT_accessibility(DW_ACCESS_public)
    3761                      .dwendtag DW$T$47
    3762              
    3763              DW$T$143        .dwtag  DW_TAG_typedef, DW_AT_name("timersstruct"), DW_AT_type(*DW$T$49)
    3764                      .dwattr DW$T$143, DW_AT_language(DW_LANG_C)
    3765              
    3766              DW$T$56 .dwtag  DW_TAG_structure_type
    3767                      .dwattr DW$T$56, DW_AT_name("tag_configstruct")
    3768                      .dwattr DW$T$56, DW_AT_byte_size(0x18)
    3769              DW$241  .dwtag  DW_TAG_member, DW_AT_type(*DW$T$50)
    3770                      .dwattr DW$241, DW_AT_name("filter"), DW_AT_symbol_name("_filter")
    3771                      .dwattr DW$241, DW_AT_data_member_location[DW_OP_plus_uconst 0x0]
    3772                      .dwattr DW$241, DW_AT_accessibility(DW_ACCESS_public)
    3773              DW$242  .dwtag  DW_TAG_member, DW_AT_type(*DW$T$51)
    3774                      .dwattr DW$242, DW_AT_name("alarmenable"), DW_AT_symbol_name("_alarmenable")
    3775                      .dwattr DW$242, DW_AT_data_member_location[DW_OP_plus_uconst 0x1]
    3776                      .dwattr DW$242, DW_AT_accessibility(DW_ACCESS_public)
    3777              DW$243  .dwtag  DW_TAG_member, DW_AT_type(*DW$T$52)
    3778                      .dwattr DW$243, DW_AT_name("trendmax"), DW_AT_symbol_name("_trendmax")
    3779                      .dwattr DW$243, DW_AT_data_member_location[DW_OP_plus_uconst 0x2]
    3780                      .dwattr DW$243, DW_AT_accessibility(DW_ACCESS_public)
    3781              DW$244  .dwtag  DW_TAG_member, DW_AT_type(*DW$T$53)
    3782                      .dwattr DW$244, DW_AT_name("inputs"), DW_AT_symbol_name("_inputs")
    3783                      .dwattr DW$244, DW_AT_data_member_location[DW_OP_plus_uconst 0x3]
    3784                      .dwattr DW$244, DW_AT_accessibility(DW_ACCESS_public)
    3785              DW$245  .dwtag  DW_TAG_member, DW_AT_type(*DW$T$54)
    3786                      .dwattr DW$245, DW_AT_name("sdsettings"), DW_AT_symbol_name("_sdsettings")
    3787                      .dwattr DW$245, DW_AT_data_member_location[DW_OP_plus_uconst 0x6]
TMS320C2000 COFF Assembler PC v4.1.3 Thu Aug 18 12:16:22 2016

Tools Copyright (c) 1996-2006 Texas Instruments Incorporated
mmc_mcf.asm                                                          PAGE   77

    3788                      .dwattr DW$245, DW_AT_accessibility(DW_ACCESS_public)
    3789              DW$246  .dwtag  DW_TAG_member, DW_AT_type(*DW$T$55)
    3790                      .dwattr DW$246, DW_AT_name("comms"), DW_AT_symbol_name("_comms")
    3791                      .dwattr DW$246, DW_AT_data_member_location[DW_OP_plus_uconst 0x8]
    3792                      .dwattr DW$246, DW_AT_accessibility(DW_ACCESS_public)
    3793                      .dwendtag DW$T$56
    3794              
    3795              
    3796              DW$T$72 .dwtag  DW_TAG_structure_type
    3797                      .dwattr DW$T$72, DW_AT_name("SPI_REGS")
    3798                      .dwattr DW$T$72, DW_AT_byte_size(0x10)
    3799              DW$247  .dwtag  DW_TAG_member, DW_AT_type(*DW$T$58)
    3800                      .dwattr DW$247, DW_AT_name("SPICCR"), DW_AT_symbol_name("_SPICCR")
    3801                      .dwattr DW$247, DW_AT_data_member_location[DW_OP_plus_uconst 0x0]
    3802                      .dwattr DW$247, DW_AT_accessibility(DW_ACCESS_public)
    3803              DW$248  .dwtag  DW_TAG_member, DW_AT_type(*DW$T$60)
    3804                      .dwattr DW$248, DW_AT_name("SPICTL"), DW_AT_symbol_name("_SPICTL")
    3805                      .dwattr DW$248, DW_AT_data_member_location[DW_OP_plus_uconst 0x1]
    3806                      .dwattr DW$248, DW_AT_accessibility(DW_ACCESS_public)
    3807              DW$249  .dwtag  DW_TAG_member, DW_AT_type(*DW$T$62)
    3808                      .dwattr DW$249, DW_AT_name("SPISTS"), DW_AT_symbol_name("_SPISTS")
    3809                      .dwattr DW$249, DW_AT_data_member_location[DW_OP_plus_uconst 0x2]
    3810                      .dwattr DW$249, DW_AT_accessibility(DW_ACCESS_public)
    3811              DW$250  .dwtag  DW_TAG_member, DW_AT_type(*DW$T$11)
    3812                      .dwattr DW$250, DW_AT_name("rsvd1"), DW_AT_symbol_name("_rsvd1")
    3813                      .dwattr DW$250, DW_AT_data_member_location[DW_OP_plus_uconst 0x3]
    3814                      .dwattr DW$250, DW_AT_accessibility(DW_ACCESS_public)
    3815              DW$251  .dwtag  DW_TAG_member, DW_AT_type(*DW$T$11)
    3816                      .dwattr DW$251, DW_AT_name("SPIBRR"), DW_AT_symbol_name("_SPIBRR")
    3817                      .dwattr DW$251, DW_AT_data_member_location[DW_OP_plus_uconst 0x4]
    3818                      .dwattr DW$251, DW_AT_accessibility(DW_ACCESS_public)
    3819              DW$252  .dwtag  DW_TAG_member, DW_AT_type(*DW$T$11)
    3820                      .dwattr DW$252, DW_AT_name("rsvd2"), DW_AT_symbol_name("_rsvd2")
    3821                      .dwattr DW$252, DW_AT_data_member_location[DW_OP_plus_uconst 0x5]
    3822                      .dwattr DW$252, DW_AT_accessibility(DW_ACCESS_public)
    3823              DW$253  .dwtag  DW_TAG_member, DW_AT_type(*DW$T$11)
    3824                      .dwattr DW$253, DW_AT_name("SPIRXEMU"), DW_AT_symbol_name("_SPIRXEMU")
    3825                      .dwattr DW$253, DW_AT_data_member_location[DW_OP_plus_uconst 0x6]
    3826                      .dwattr DW$253, DW_AT_accessibility(DW_ACCESS_public)
    3827              DW$254  .dwtag  DW_TAG_member, DW_AT_type(*DW$T$11)
    3828                      .dwattr DW$254, DW_AT_name("SPIRXBUF"), DW_AT_symbol_name("_SPIRXBUF")
    3829                      .dwattr DW$254, DW_AT_data_member_location[DW_OP_plus_uconst 0x7]
    3830                      .dwattr DW$254, DW_AT_accessibility(DW_ACCESS_public)
    3831              DW$255  .dwtag  DW_TAG_member, DW_AT_type(*DW$T$11)
    3832                      .dwattr DW$255, DW_AT_name("SPITXBUF"), DW_AT_symbol_name("_SPITXBUF")
    3833                      .dwattr DW$255, DW_AT_data_member_location[DW_OP_plus_uconst 0x8]
    3834                      .dwattr DW$255, DW_AT_accessibility(DW_ACCESS_public)
    3835              DW$256  .dwtag  DW_TAG_member, DW_AT_type(*DW$T$11)
    3836                      .dwattr DW$256, DW_AT_name("SPIDAT"), DW_AT_symbol_name("_SPIDAT")
    3837                      .dwattr DW$256, DW_AT_data_member_location[DW_OP_plus_uconst 0x9]
    3838                      .dwattr DW$256, DW_AT_accessibility(DW_ACCESS_public)
    3839              DW$257  .dwtag  DW_TAG_member, DW_AT_type(*DW$T$64)
    3840                      .dwattr DW$257, DW_AT_name("SPIFFTX"), DW_AT_symbol_name("_SPIFFTX")
    3841                      .dwattr DW$257, DW_AT_data_member_location[DW_OP_plus_uconst 0xa]
    3842                      .dwattr DW$257, DW_AT_accessibility(DW_ACCESS_public)
TMS320C2000 COFF Assembler PC v4.1.3 Thu Aug 18 12:16:22 2016

Tools Copyright (c) 1996-2006 Texas Instruments Incorporated
mmc_mcf.asm                                                          PAGE   78

    3843              DW$258  .dwtag  DW_TAG_member, DW_AT_type(*DW$T$66)
    3844                      .dwattr DW$258, DW_AT_name("SPIFFRX"), DW_AT_symbol_name("_SPIFFRX")
    3845                      .dwattr DW$258, DW_AT_data_member_location[DW_OP_plus_uconst 0xb]
    3846                      .dwattr DW$258, DW_AT_accessibility(DW_ACCESS_public)
    3847              DW$259  .dwtag  DW_TAG_member, DW_AT_type(*DW$T$68)
    3848                      .dwattr DW$259, DW_AT_name("SPIFFCT"), DW_AT_symbol_name("_SPIFFCT")
    3849                      .dwattr DW$259, DW_AT_data_member_location[DW_OP_plus_uconst 0xc]
    3850                      .dwattr DW$259, DW_AT_accessibility(DW_ACCESS_public)
    3851              DW$260  .dwtag  DW_TAG_member, DW_AT_type(*DW$T$71)
    3852                      .dwattr DW$260, DW_AT_name("rsvd3"), DW_AT_symbol_name("_rsvd3")
    3853                      .dwattr DW$260, DW_AT_data_member_location[DW_OP_plus_uconst 0xd]
    3854                      .dwattr DW$260, DW_AT_accessibility(DW_ACCESS_public)
    3855              DW$261  .dwtag  DW_TAG_member, DW_AT_type(*DW$T$70)
    3856                      .dwattr DW$261, DW_AT_name("SPIPRI"), DW_AT_symbol_name("_SPIPRI")
    3857                      .dwattr DW$261, DW_AT_data_member_location[DW_OP_plus_uconst 0xf]
    3858                      .dwattr DW$261, DW_AT_accessibility(DW_ACCESS_public)
    3859                      .dwendtag DW$T$72
    3860              
    3861              
    3862              DW$T$75 .dwtag  DW_TAG_structure_type
    3863                      .dwattr DW$T$75, DW_AT_name("tag_uartreadC")
    3864                      .dwattr DW$T$75, DW_AT_byte_size(0x68)
    3865              DW$262  .dwtag  DW_TAG_member, DW_AT_type(*DW$T$11)
    3866                      .dwattr DW$262, DW_AT_name("receiveINTR"), DW_AT_symbol_name("_receiveINTR")
    3867                      .dwattr DW$262, DW_AT_data_member_location[DW_OP_plus_uconst 0x0]
    3868                      .dwattr DW$262, DW_AT_accessibility(DW_ACCESS_public)
    3869              DW$263  .dwtag  DW_TAG_member, DW_AT_type(*DW$T$11)
    3870                      .dwattr DW$263, DW_AT_name("currentcharcount"), DW_AT_symbol_name("_currentcharcount")
    3871                      .dwattr DW$263, DW_AT_data_member_location[DW_OP_plus_uconst 0x1]
    3872                      .dwattr DW$263, DW_AT_accessibility(DW_ACCESS_public)
    3873              DW$264  .dwtag  DW_TAG_member, DW_AT_type(*DW$T$11)
    3874                      .dwattr DW$264, DW_AT_name("previouscharcount"), DW_AT_symbol_name("_previouscharcount")
    3875                      .dwattr DW$264, DW_AT_data_member_location[DW_OP_plus_uconst 0x2]
    3876                      .dwattr DW$264, DW_AT_accessibility(DW_ACCESS_public)
    3877              DW$265  .dwtag  DW_TAG_member, DW_AT_type(*DW$T$73)
    3878                      .dwattr DW$265, DW_AT_name("buf"), DW_AT_symbol_name("_buf")
    3879                      .dwattr DW$265, DW_AT_data_member_location[DW_OP_plus_uconst 0x3]
    3880                      .dwattr DW$265, DW_AT_accessibility(DW_ACCESS_public)
    3881              DW$266  .dwtag  DW_TAG_member, DW_AT_type(*DW$T$74)
    3882                      .dwattr DW$266, DW_AT_name("uartcharrx"), DW_AT_symbol_name("_uartcharrx")
    3883                      .dwattr DW$266, DW_AT_data_member_location[DW_OP_plus_uconst 0x67]
    3884                      .dwattr DW$266, DW_AT_accessibility(DW_ACCESS_public)
    3885                      .dwendtag DW$T$75
    3886              
    3887              DW$T$150        .dwtag  DW_TAG_typedef, DW_AT_name("t_MmcDrv"), DW_AT_type(*DW$T$78)
    3888                      .dwattr DW$T$150, DW_AT_language(DW_LANG_C)
    3889              
    3890              DW$T$79 .dwtag  DW_TAG_structure_type
    3891                      .dwattr DW$T$79, DW_AT_byte_size(0x42)
    3892              DW$267  .dwtag  DW_TAG_member, DW_AT_type(*DW$T$12)
    3893                      .dwattr DW$267, DW_AT_name("CSD_STR"), DW_AT_symbol_name("_CSD_STR")
    3894                      .dwattr DW$267, DW_AT_data_member_location[DW_OP_plus_uconst 0x0]
    3895                      .dwattr DW$267, DW_AT_accessibility(DW_ACCESS_public)
    3896              DW$268  .dwtag  DW_TAG_member, DW_AT_type(*DW$T$12)
    3897                      .dwattr DW$268, DW_AT_name("SPEC_VERS"), DW_AT_symbol_name("_SPEC_VERS")
TMS320C2000 COFF Assembler PC v4.1.3 Thu Aug 18 12:16:22 2016

Tools Copyright (c) 1996-2006 Texas Instruments Incorporated
mmc_mcf.asm                                                          PAGE   79

    3898                      .dwattr DW$268, DW_AT_data_member_location[DW_OP_plus_uconst 0x2]
    3899                      .dwattr DW$268, DW_AT_accessibility(DW_ACCESS_public)
    3900              DW$269  .dwtag  DW_TAG_member, DW_AT_type(*DW$T$12)
    3901                      .dwattr DW$269, DW_AT_name("TAAC"), DW_AT_symbol_name("_TAAC")
    3902                      .dwattr DW$269, DW_AT_data_member_location[DW_OP_plus_uconst 0x4]
    3903                      .dwattr DW$269, DW_AT_accessibility(DW_ACCESS_public)
    3904              DW$270  .dwtag  DW_TAG_member, DW_AT_type(*DW$T$12)
    3905                      .dwattr DW$270, DW_AT_name("NSAC"), DW_AT_symbol_name("_NSAC")
    3906                      .dwattr DW$270, DW_AT_data_member_location[DW_OP_plus_uconst 0x6]
    3907                      .dwattr DW$270, DW_AT_accessibility(DW_ACCESS_public)
    3908              DW$271  .dwtag  DW_TAG_member, DW_AT_type(*DW$T$12)
    3909                      .dwattr DW$271, DW_AT_name("TRANSPEED"), DW_AT_symbol_name("_TRANSPEED")
    3910                      .dwattr DW$271, DW_AT_data_member_location[DW_OP_plus_uconst 0x8]
    3911                      .dwattr DW$271, DW_AT_accessibility(DW_ACCESS_public)
    3912              DW$272  .dwtag  DW_TAG_member, DW_AT_type(*DW$T$12)
    3913                      .dwattr DW$272, DW_AT_name("CCC"), DW_AT_symbol_name("_CCC")
    3914                      .dwattr DW$272, DW_AT_data_member_location[DW_OP_plus_uconst 0xa]
    3915                      .dwattr DW$272, DW_AT_accessibility(DW_ACCESS_public)
    3916              DW$273  .dwtag  DW_TAG_member, DW_AT_type(*DW$T$12)
    3917                      .dwattr DW$273, DW_AT_name("R_BL_LEN"), DW_AT_symbol_name("_R_BL_LEN")
    3918                      .dwattr DW$273, DW_AT_data_member_location[DW_OP_plus_uconst 0xc]
    3919                      .dwattr DW$273, DW_AT_accessibility(DW_ACCESS_public)
    3920              DW$274  .dwtag  DW_TAG_member, DW_AT_type(*DW$T$12)
    3921                      .dwattr DW$274, DW_AT_name("R_BL_PART"), DW_AT_symbol_name("_R_BL_PART")
    3922                      .dwattr DW$274, DW_AT_data_member_location[DW_OP_plus_uconst 0xe]
    3923                      .dwattr DW$274, DW_AT_accessibility(DW_ACCESS_public)
    3924              DW$275  .dwtag  DW_TAG_member, DW_AT_type(*DW$T$12)
    3925                      .dwattr DW$275, DW_AT_name("WR_BL_MIS"), DW_AT_symbol_name("_WR_BL_MIS")
    3926                      .dwattr DW$275, DW_AT_data_member_location[DW_OP_plus_uconst 0x10]
    3927                      .dwattr DW$275, DW_AT_accessibility(DW_ACCESS_public)
    3928              DW$276  .dwtag  DW_TAG_member, DW_AT_type(*DW$T$12)
    3929                      .dwattr DW$276, DW_AT_name("RD_BL_MIS"), DW_AT_symbol_name("_RD_BL_MIS")
    3930                      .dwattr DW$276, DW_AT_data_member_location[DW_OP_plus_uconst 0x12]
    3931                      .dwattr DW$276, DW_AT_accessibility(DW_ACCESS_public)
    3932              DW$277  .dwtag  DW_TAG_member, DW_AT_type(*DW$T$12)
    3933                      .dwattr DW$277, DW_AT_name("DSR_IMP"), DW_AT_symbol_name("_DSR_IMP")
    3934                      .dwattr DW$277, DW_AT_data_member_location[DW_OP_plus_uconst 0x14]
    3935                      .dwattr DW$277, DW_AT_accessibility(DW_ACCESS_public)
    3936              DW$278  .dwtag  DW_TAG_member, DW_AT_type(*DW$T$12)
    3937                      .dwattr DW$278, DW_AT_name("CSIZE"), DW_AT_symbol_name("_CSIZE")
    3938                      .dwattr DW$278, DW_AT_data_member_location[DW_OP_plus_uconst 0x16]
    3939                      .dwattr DW$278, DW_AT_accessibility(DW_ACCESS_public)
    3940              DW$279  .dwtag  DW_TAG_member, DW_AT_type(*DW$T$12)
    3941                      .dwattr DW$279, DW_AT_name("RC_MIN"), DW_AT_symbol_name("_RC_MIN")
    3942                      .dwattr DW$279, DW_AT_data_member_location[DW_OP_plus_uconst 0x18]
    3943                      .dwattr DW$279, DW_AT_accessibility(DW_ACCESS_public)
    3944              DW$280  .dwtag  DW_TAG_member, DW_AT_type(*DW$T$12)
    3945                      .dwattr DW$280, DW_AT_name("RC_MAX"), DW_AT_symbol_name("_RC_MAX")
    3946                      .dwattr DW$280, DW_AT_data_member_location[DW_OP_plus_uconst 0x1a]
    3947                      .dwattr DW$280, DW_AT_accessibility(DW_ACCESS_public)
    3948              DW$281  .dwtag  DW_TAG_member, DW_AT_type(*DW$T$12)
    3949                      .dwattr DW$281, DW_AT_name("WC_MAX"), DW_AT_symbol_name("_WC_MAX")
    3950                      .dwattr DW$281, DW_AT_data_member_location[DW_OP_plus_uconst 0x1c]
    3951                      .dwattr DW$281, DW_AT_accessibility(DW_ACCESS_public)
    3952              DW$282  .dwtag  DW_TAG_member, DW_AT_type(*DW$T$12)
TMS320C2000 COFF Assembler PC v4.1.3 Thu Aug 18 12:16:22 2016

Tools Copyright (c) 1996-2006 Texas Instruments Incorporated
mmc_mcf.asm                                                          PAGE   80

    3953                      .dwattr DW$282, DW_AT_name("WC_MIN"), DW_AT_symbol_name("_WC_MIN")
    3954                      .dwattr DW$282, DW_AT_data_member_location[DW_OP_plus_uconst 0x1e]
    3955                      .dwattr DW$282, DW_AT_accessibility(DW_ACCESS_public)
    3956              DW$283  .dwtag  DW_TAG_member, DW_AT_type(*DW$T$12)
    3957                      .dwattr DW$283, DW_AT_name("C_SIZE_M"), DW_AT_symbol_name("_C_SIZE_M")
    3958                      .dwattr DW$283, DW_AT_data_member_location[DW_OP_plus_uconst 0x20]
    3959                      .dwattr DW$283, DW_AT_accessibility(DW_ACCESS_public)
    3960              DW$284  .dwtag  DW_TAG_member, DW_AT_type(*DW$T$12)
    3961                      .dwattr DW$284, DW_AT_name("ERASE_G_S"), DW_AT_symbol_name("_ERASE_G_S")
    3962                      .dwattr DW$284, DW_AT_data_member_location[DW_OP_plus_uconst 0x22]
    3963                      .dwattr DW$284, DW_AT_accessibility(DW_ACCESS_public)
    3964              DW$285  .dwtag  DW_TAG_member, DW_AT_type(*DW$T$12)
    3965                      .dwattr DW$285, DW_AT_name("ERASE_G_M"), DW_AT_symbol_name("_ERASE_G_M")
    3966                      .dwattr DW$285, DW_AT_data_member_location[DW_OP_plus_uconst 0x24]
    3967                      .dwattr DW$285, DW_AT_accessibility(DW_ACCESS_public)
    3968              DW$286  .dwtag  DW_TAG_member, DW_AT_type(*DW$T$12)
    3969                      .dwattr DW$286, DW_AT_name("WP_G_S"), DW_AT_symbol_name("_WP_G_S")
    3970                      .dwattr DW$286, DW_AT_data_member_location[DW_OP_plus_uconst 0x26]
    3971                      .dwattr DW$286, DW_AT_accessibility(DW_ACCESS_public)
    3972              DW$287  .dwtag  DW_TAG_member, DW_AT_type(*DW$T$12)
    3973                      .dwattr DW$287, DW_AT_name("WP_G_EN"), DW_AT_symbol_name("_WP_G_EN")
    3974                      .dwattr DW$287, DW_AT_data_member_location[DW_OP_plus_uconst 0x28]
    3975                      .dwattr DW$287, DW_AT_accessibility(DW_ACCESS_public)
    3976              DW$288  .dwtag  DW_TAG_member, DW_AT_type(*DW$T$12)
    3977                      .dwattr DW$288, DW_AT_name("DEF_ECC"), DW_AT_symbol_name("_DEF_ECC")
    3978                      .dwattr DW$288, DW_AT_data_member_location[DW_OP_plus_uconst 0x2a]
    3979                      .dwattr DW$288, DW_AT_accessibility(DW_ACCESS_public)
    3980              DW$289  .dwtag  DW_TAG_member, DW_AT_type(*DW$T$12)
    3981                      .dwattr DW$289, DW_AT_name("R2W_FACT"), DW_AT_symbol_name("_R2W_FACT")
    3982                      .dwattr DW$289, DW_AT_data_member_location[DW_OP_plus_uconst 0x2c]
    3983                      .dwattr DW$289, DW_AT_accessibility(DW_ACCESS_public)
    3984              DW$290  .dwtag  DW_TAG_member, DW_AT_type(*DW$T$12)
    3985                      .dwattr DW$290, DW_AT_name("WR_BL_LEN"), DW_AT_symbol_name("_WR_BL_LEN")
    3986                      .dwattr DW$290, DW_AT_data_member_location[DW_OP_plus_uconst 0x2e]
    3987                      .dwattr DW$290, DW_AT_accessibility(DW_ACCESS_public)
    3988              DW$291  .dwtag  DW_TAG_member, DW_AT_type(*DW$T$12)
    3989                      .dwattr DW$291, DW_AT_name("WR_BL_PAR"), DW_AT_symbol_name("_WR_BL_PAR")
    3990                      .dwattr DW$291, DW_AT_data_member_location[DW_OP_plus_uconst 0x30]
    3991                      .dwattr DW$291, DW_AT_accessibility(DW_ACCESS_public)
    3992              DW$292  .dwtag  DW_TAG_member, DW_AT_type(*DW$T$12)
    3993                      .dwattr DW$292, DW_AT_name("C_PR_APP"), DW_AT_symbol_name("_C_PR_APP")
    3994                      .dwattr DW$292, DW_AT_data_member_location[DW_OP_plus_uconst 0x32]
    3995                      .dwattr DW$292, DW_AT_accessibility(DW_ACCESS_public)
    3996              DW$293  .dwtag  DW_TAG_member, DW_AT_type(*DW$T$12)
    3997                      .dwattr DW$293, DW_AT_name("F_FORMATG"), DW_AT_symbol_name("_F_FORMATG")
    3998                      .dwattr DW$293, DW_AT_data_member_location[DW_OP_plus_uconst 0x34]
    3999                      .dwattr DW$293, DW_AT_accessibility(DW_ACCESS_public)
    4000              DW$294  .dwtag  DW_TAG_member, DW_AT_type(*DW$T$12)
    4001                      .dwattr DW$294, DW_AT_name("COPY"), DW_AT_symbol_name("_COPY")
    4002                      .dwattr DW$294, DW_AT_data_member_location[DW_OP_plus_uconst 0x36]
    4003                      .dwattr DW$294, DW_AT_accessibility(DW_ACCESS_public)
    4004              DW$295  .dwtag  DW_TAG_member, DW_AT_type(*DW$T$12)
    4005                      .dwattr DW$295, DW_AT_name("P_WR_PROT"), DW_AT_symbol_name("_P_WR_PROT")
    4006                      .dwattr DW$295, DW_AT_data_member_location[DW_OP_plus_uconst 0x38]
    4007                      .dwattr DW$295, DW_AT_accessibility(DW_ACCESS_public)
TMS320C2000 COFF Assembler PC v4.1.3 Thu Aug 18 12:16:22 2016

Tools Copyright (c) 1996-2006 Texas Instruments Incorporated
mmc_mcf.asm                                                          PAGE   81

    4008              DW$296  .dwtag  DW_TAG_member, DW_AT_type(*DW$T$12)
    4009                      .dwattr DW$296, DW_AT_name("T_WR_PROT"), DW_AT_symbol_name("_T_WR_PROT")
    4010                      .dwattr DW$296, DW_AT_data_member_location[DW_OP_plus_uconst 0x3a]
    4011                      .dwattr DW$296, DW_AT_accessibility(DW_ACCESS_public)
    4012              DW$297  .dwtag  DW_TAG_member, DW_AT_type(*DW$T$12)
    4013                      .dwattr DW$297, DW_AT_name("F_FORMAT"), DW_AT_symbol_name("_F_FORMAT")
    4014                      .dwattr DW$297, DW_AT_data_member_location[DW_OP_plus_uconst 0x3c]
    4015                      .dwattr DW$297, DW_AT_accessibility(DW_ACCESS_public)
    4016              DW$298  .dwtag  DW_TAG_member, DW_AT_type(*DW$T$12)
    4017                      .dwattr DW$298, DW_AT_name("ECC"), DW_AT_symbol_name("_ECC")
    4018                      .dwattr DW$298, DW_AT_data_member_location[DW_OP_plus_uconst 0x3e]
    4019                      .dwattr DW$298, DW_AT_accessibility(DW_ACCESS_public)
    4020              DW$299  .dwtag  DW_TAG_member, DW_AT_type(*DW$T$12)
    4021                      .dwattr DW$299, DW_AT_name("CRC7"), DW_AT_symbol_name("_CRC7")
    4022                      .dwattr DW$299, DW_AT_data_member_location[DW_OP_plus_uconst 0x40]
    4023                      .dwattr DW$299, DW_AT_accessibility(DW_ACCESS_public)
    4024                      .dwendtag DW$T$79
    4025              
    4026              
    4027              DW$T$71 .dwtag  DW_TAG_array_type, DW_AT_type(*DW$T$11)
    4028                      .dwattr DW$T$71, DW_AT_language(DW_LANG_C)
    4029                      .dwattr DW$T$71, DW_AT_byte_size(0x02)
    4030              DW$300  .dwtag  DW_TAG_subrange_type
    4031                      .dwattr DW$300, DW_AT_upper_bound(0x01)
    4032                      .dwendtag DW$T$71
    4033              
    4034              
    4035              DW$T$73 .dwtag  DW_TAG_array_type, DW_AT_type(*DW$T$11)
    4036                      .dwattr DW$T$73, DW_AT_language(DW_LANG_C)
    4037                      .dwattr DW$T$73, DW_AT_byte_size(0x64)
    4038              DW$301  .dwtag  DW_TAG_subrange_type
    4039                      .dwattr DW$301, DW_AT_upper_bound(0x63)
    4040                      .dwendtag DW$T$73
    4041              
    4042              
    4043              DW$T$19 .dwtag  DW_TAG_structure_type
    4044                      .dwattr DW$T$19, DW_AT_byte_size(0x08)
    4045              DW$302  .dwtag  DW_TAG_member, DW_AT_type(*DW$T$9)
    4046                      .dwattr DW$302, DW_AT_name("number_of_cylinders"), DW_AT_symbol_name("_number_of_cylinders")
    4047                      .dwattr DW$302, DW_AT_data_member_location[DW_OP_plus_uconst 0x0]
    4048                      .dwattr DW$302, DW_AT_accessibility(DW_ACCESS_public)
    4049              DW$303  .dwtag  DW_TAG_member, DW_AT_type(*DW$T$9)
    4050                      .dwattr DW$303, DW_AT_name("sector_per_track"), DW_AT_symbol_name("_sector_per_track")
    4051                      .dwattr DW$303, DW_AT_data_member_location[DW_OP_plus_uconst 0x1]
    4052                      .dwattr DW$303, DW_AT_accessibility(DW_ACCESS_public)
    4053              DW$304  .dwtag  DW_TAG_member, DW_AT_type(*DW$T$9)
    4054                      .dwattr DW$304, DW_AT_name("number_of_heads"), DW_AT_symbol_name("_number_of_heads")
    4055                      .dwattr DW$304, DW_AT_data_member_location[DW_OP_plus_uconst 0x2]
    4056                      .dwattr DW$304, DW_AT_accessibility(DW_ACCESS_public)
    4057              DW$305  .dwtag  DW_TAG_member, DW_AT_type(*DW$T$13)
    4058                      .dwattr DW$305, DW_AT_name("number_of_sectors"), DW_AT_symbol_name("_number_of_sectors")
    4059                      .dwattr DW$305, DW_AT_data_member_location[DW_OP_plus_uconst 0x4]
    4060                      .dwattr DW$305, DW_AT_accessibility(DW_ACCESS_public)
    4061              DW$306  .dwtag  DW_TAG_member, DW_AT_type(*DW$T$6)
    4062                      .dwattr DW$306, DW_AT_name("media_descriptor"), DW_AT_symbol_name("_media_descriptor")
TMS320C2000 COFF Assembler PC v4.1.3 Thu Aug 18 12:16:22 2016

Tools Copyright (c) 1996-2006 Texas Instruments Incorporated
mmc_mcf.asm                                                          PAGE   82

    4063                      .dwattr DW$306, DW_AT_data_member_location[DW_OP_plus_uconst 0x6]
    4064                      .dwattr DW$306, DW_AT_accessibility(DW_ACCESS_public)
    4065                      .dwendtag DW$T$19
    4066              
    4067              
    4068              DW$T$39 .dwtag  DW_TAG_structure_type
    4069                      .dwattr DW$T$39, DW_AT_byte_size(0x10)
    4070              DW$307  .dwtag  DW_TAG_member, DW_AT_type(*DW$T$22)
    4071                      .dwattr DW$307, DW_AT_name("writesector"), DW_AT_symbol_name("_writesector")
    4072                      .dwattr DW$307, DW_AT_data_member_location[DW_OP_plus_uconst 0x0]
    4073                      .dwattr DW$307, DW_AT_accessibility(DW_ACCESS_public)
    4074              DW$308  .dwtag  DW_TAG_member, DW_AT_type(*DW$T$25)
    4075                      .dwattr DW$308, DW_AT_name("writemultiplesector"), DW_AT_symbol_name("_writemultiplesector")
    4076                      .dwattr DW$308, DW_AT_data_member_location[DW_OP_plus_uconst 0x2]
    4077                      .dwattr DW$308, DW_AT_accessibility(DW_ACCESS_public)
    4078              DW$309  .dwtag  DW_TAG_member, DW_AT_type(*DW$T$26)
    4079                      .dwattr DW$309, DW_AT_name("readsector"), DW_AT_symbol_name("_readsector")
    4080                      .dwattr DW$309, DW_AT_data_member_location[DW_OP_plus_uconst 0x4]
    4081                      .dwattr DW$309, DW_AT_accessibility(DW_ACCESS_public)
    4082              DW$310  .dwtag  DW_TAG_member, DW_AT_type(*DW$T$27)
    4083                      .dwattr DW$310, DW_AT_name("readmultiplesector"), DW_AT_symbol_name("_readmultiplesector")
    4084                      .dwattr DW$310, DW_AT_data_member_location[DW_OP_plus_uconst 0x6]
    4085                      .dwattr DW$310, DW_AT_accessibility(DW_ACCESS_public)
    4086              DW$311  .dwtag  DW_TAG_member, DW_AT_type(*DW$T$32)
    4087                      .dwattr DW$311, DW_AT_name("getphy"), DW_AT_symbol_name("_getphy")
    4088                      .dwattr DW$311, DW_AT_data_member_location[DW_OP_plus_uconst 0x8]
    4089                      .dwattr DW$311, DW_AT_accessibility(DW_ACCESS_public)
    4090              DW$312  .dwtag  DW_TAG_member, DW_AT_type(*DW$T$35)
    4091                      .dwattr DW$312, DW_AT_name("getstatus"), DW_AT_symbol_name("_getstatus")
    4092                      .dwattr DW$312, DW_AT_data_member_location[DW_OP_plus_uconst 0xa]
    4093                      .dwattr DW$312, DW_AT_accessibility(DW_ACCESS_public)
    4094              DW$313  .dwtag  DW_TAG_member, DW_AT_type(*DW$T$38)
    4095                      .dwattr DW$313, DW_AT_name("delfunc"), DW_AT_symbol_name("_delfunc")
    4096                      .dwattr DW$313, DW_AT_data_member_location[DW_OP_plus_uconst 0xc]
    4097                      .dwattr DW$313, DW_AT_accessibility(DW_ACCESS_public)
    4098              DW$314  .dwtag  DW_TAG_member, DW_AT_type(*DW$T$3)
    4099                      .dwattr DW$314, DW_AT_name("user_ptr"), DW_AT_symbol_name("_user_ptr")
    4100                      .dwattr DW$314, DW_AT_data_member_location[DW_OP_plus_uconst 0xe]
    4101                      .dwattr DW$314, DW_AT_accessibility(DW_ACCESS_public)
    4102                      .dwendtag DW$T$39
    4103              
    4104              
    4105              DW$T$42 .dwtag  DW_TAG_structure_type
    4106                      .dwattr DW$T$42, DW_AT_name("taggpbport")
    4107                      .dwattr DW$T$42, DW_AT_byte_size(0x01)
    4108              DW$315  .dwtag  DW_TAG_member, DW_AT_type(*DW$T$41)
    4109                      .dwattr DW$315, DW_AT_name("selunion"), DW_AT_symbol_name("_selunion")
    4110                      .dwattr DW$315, DW_AT_data_member_location[DW_OP_plus_uconst 0x0]
    4111                      .dwattr DW$315, DW_AT_accessibility(DW_ACCESS_public)
    4112                      .dwendtag DW$T$42
    4113              
    4114              
    4115              DW$T$45 .dwtag  DW_TAG_structure_type
    4116                      .dwattr DW$T$45, DW_AT_name("taggpfport")
    4117                      .dwattr DW$T$45, DW_AT_byte_size(0x01)
TMS320C2000 COFF Assembler PC v4.1.3 Thu Aug 18 12:16:22 2016

Tools Copyright (c) 1996-2006 Texas Instruments Incorporated
mmc_mcf.asm                                                          PAGE   83

    4118              DW$316  .dwtag  DW_TAG_member, DW_AT_type(*DW$T$44)
    4119                      .dwattr DW$316, DW_AT_name("selunion"), DW_AT_symbol_name("_selunion")
    4120                      .dwattr DW$316, DW_AT_data_member_location[DW_OP_plus_uconst 0x0]
    4121                      .dwattr DW$316, DW_AT_accessibility(DW_ACCESS_public)
    4122                      .dwendtag DW$T$45
    4123              
    4124              
    4125              DW$T$46 .dwtag  DW_TAG_structure_type
    4126                      .dwattr DW$T$46, DW_AT_byte_size(0x02)
    4127              DW$317  .dwtag  DW_TAG_member, DW_AT_type(*DW$T$11)
    4128                      .dwattr DW$317, DW_AT_name("enb"), DW_AT_symbol_name("_enb")
    4129                      .dwattr DW$317, DW_AT_data_member_location[DW_OP_plus_uconst 0x0]
    4130                      .dwattr DW$317, DW_AT_accessibility(DW_ACCESS_public)
    4131              DW$318  .dwtag  DW_TAG_member, DW_AT_type(*DW$T$11)
    4132                      .dwattr DW$318, DW_AT_name("chan"), DW_AT_symbol_name("_chan")
    4133                      .dwattr DW$318, DW_AT_data_member_location[DW_OP_plus_uconst 0x1]
    4134                      .dwattr DW$318, DW_AT_accessibility(DW_ACCESS_public)
    4135                      .dwendtag DW$T$46
    4136              
    4137              
    4138              DW$T$49 .dwtag  DW_TAG_structure_type
    4139                      .dwattr DW$T$49, DW_AT_name("tag_timers")
    4140                      .dwattr DW$T$49, DW_AT_byte_size(0x4c)
    4141              DW$319  .dwtag  DW_TAG_member, DW_AT_type(*DW$T$11)
    4142                      .dwattr DW$319, DW_AT_name("update"), DW_AT_symbol_name("_update")
    4143                      .dwattr DW$319, DW_AT_data_member_location[DW_OP_plus_uconst 0x0]
    4144                      .dwattr DW$319, DW_AT_accessibility(DW_ACCESS_public)
    4145              DW$320  .dwtag  DW_TAG_member, DW_AT_type(*DW$T$11)
    4146                      .dwattr DW$320, DW_AT_name("general"), DW_AT_symbol_name("_general")
    4147                      .dwattr DW$320, DW_AT_data_member_location[DW_OP_plus_uconst 0x1]
    4148                      .dwattr DW$320, DW_AT_accessibility(DW_ACCESS_public)
    4149              DW$321  .dwtag  DW_TAG_member, DW_AT_type(*DW$T$11)
    4150                      .dwattr DW$321, DW_AT_name("rxcharTimeout"), DW_AT_symbol_name("_rxcharTimeout")
    4151                      .dwattr DW$321, DW_AT_data_member_location[DW_OP_plus_uconst 0x2]
    4152                      .dwattr DW$321, DW_AT_accessibility(DW_ACCESS_public)
    4153              DW$322  .dwtag  DW_TAG_member, DW_AT_type(*DW$T$11)
    4154                      .dwattr DW$322, DW_AT_name("wiorxtimeout"), DW_AT_symbol_name("_wiorxtimeout")
    4155                      .dwattr DW$322, DW_AT_data_member_location[DW_OP_plus_uconst 0x3]
    4156                      .dwattr DW$322, DW_AT_accessibility(DW_ACCESS_public)
    4157              DW$323  .dwtag  DW_TAG_member, DW_AT_type(*DW$T$11)
    4158                      .dwattr DW$323, DW_AT_name("wiomasterrxtimeout"), DW_AT_symbol_name("_wiomasterrxtimeout")
    4159                      .dwattr DW$323, DW_AT_data_member_location[DW_OP_plus_uconst 0x4]
    4160                      .dwattr DW$323, DW_AT_accessibility(DW_ACCESS_public)
    4161              DW$324  .dwtag  DW_TAG_member, DW_AT_type(*DW$T$11)
    4162                      .dwattr DW$324, DW_AT_name("masterrxtimeout"), DW_AT_symbol_name("_masterrxtimeout")
    4163                      .dwattr DW$324, DW_AT_data_member_location[DW_OP_plus_uconst 0x5]
    4164                      .dwattr DW$324, DW_AT_accessibility(DW_ACCESS_public)
    4165              DW$325  .dwtag  DW_TAG_member, DW_AT_type(*DW$T$11)
    4166                      .dwattr DW$325, DW_AT_name("slaverxtimeout"), DW_AT_symbol_name("_slaverxtimeout")
    4167                      .dwattr DW$325, DW_AT_data_member_location[DW_OP_plus_uconst 0x6]
    4168                      .dwattr DW$325, DW_AT_accessibility(DW_ACCESS_public)
    4169              DW$326  .dwtag  DW_TAG_member, DW_AT_type(*DW$T$11)
    4170                      .dwattr DW$326, DW_AT_name("sectick"), DW_AT_symbol_name("_sectick")
    4171                      .dwattr DW$326, DW_AT_data_member_location[DW_OP_plus_uconst 0x7]
    4172                      .dwattr DW$326, DW_AT_accessibility(DW_ACCESS_public)
TMS320C2000 COFF Assembler PC v4.1.3 Thu Aug 18 12:16:22 2016

Tools Copyright (c) 1996-2006 Texas Instruments Incorporated
mmc_mcf.asm                                                          PAGE   84

    4173              DW$327  .dwtag  DW_TAG_member, DW_AT_type(*DW$T$11)
    4174                      .dwattr DW$327, DW_AT_name("ledflash"), DW_AT_symbol_name("_ledflash")
    4175                      .dwattr DW$327, DW_AT_data_member_location[DW_OP_plus_uconst 0x8]
    4176                      .dwattr DW$327, DW_AT_accessibility(DW_ACCESS_public)
    4177              DW$328  .dwtag  DW_TAG_member, DW_AT_type(*DW$T$11)
    4178                      .dwattr DW$328, DW_AT_name("prtsettle"), DW_AT_symbol_name("_prtsettle")
    4179                      .dwattr DW$328, DW_AT_data_member_location[DW_OP_plus_uconst 0x9]
    4180                      .dwattr DW$328, DW_AT_accessibility(DW_ACCESS_public)
    4181              DW$329  .dwtag  DW_TAG_member, DW_AT_type(*DW$T$48)
    4182                      .dwattr DW$329, DW_AT_name("chantimeout"), DW_AT_symbol_name("_chantimeout")
    4183                      .dwattr DW$329, DW_AT_data_member_location[DW_OP_plus_uconst 0xa]
    4184                      .dwattr DW$329, DW_AT_accessibility(DW_ACCESS_public)
    4185              DW$330  .dwtag  DW_TAG_member, DW_AT_type(*DW$T$48)
    4186                      .dwattr DW$330, DW_AT_name("chanwait"), DW_AT_symbol_name("_chanwait")
    4187                      .dwattr DW$330, DW_AT_data_member_location[DW_OP_plus_uconst 0x18]
    4188                      .dwattr DW$330, DW_AT_accessibility(DW_ACCESS_public)
    4189              DW$331  .dwtag  DW_TAG_member, DW_AT_type(*DW$T$11)
    4190                      .dwattr DW$331, DW_AT_name("pcrxtimeout"), DW_AT_symbol_name("_pcrxtimeout")
    4191                      .dwattr DW$331, DW_AT_data_member_location[DW_OP_plus_uconst 0x26]
    4192                      .dwattr DW$331, DW_AT_accessibility(DW_ACCESS_public)
    4193              DW$332  .dwtag  DW_TAG_member, DW_AT_type(*DW$T$11)
    4194                      .dwattr DW$332, DW_AT_name("pctxtimeout"), DW_AT_symbol_name("_pctxtimeout")
    4195                      .dwattr DW$332, DW_AT_data_member_location[DW_OP_plus_uconst 0x27]
    4196                      .dwattr DW$332, DW_AT_accessibility(DW_ACCESS_public)
    4197              DW$333  .dwtag  DW_TAG_member, DW_AT_type(*DW$T$11)
    4198                      .dwattr DW$333, DW_AT_name("spistatus"), DW_AT_symbol_name("_spistatus")
    4199                      .dwattr DW$333, DW_AT_data_member_location[DW_OP_plus_uconst 0x28]
    4200                      .dwattr DW$333, DW_AT_accessibility(DW_ACCESS_public)
    4201              DW$334  .dwtag  DW_TAG_member, DW_AT_type(*DW$T$11)
    4202                      .dwattr DW$334, DW_AT_name("rpm"), DW_AT_symbol_name("_rpm")
    4203                      .dwattr DW$334, DW_AT_data_member_location[DW_OP_plus_uconst 0x29]
    4204                      .dwattr DW$334, DW_AT_accessibility(DW_ACCESS_public)
    4205              DW$335  .dwtag  DW_TAG_member, DW_AT_type(*DW$T$11)
    4206                      .dwattr DW$335, DW_AT_name("slaverqst"), DW_AT_symbol_name("_slaverqst")
    4207                      .dwattr DW$335, DW_AT_data_member_location[DW_OP_plus_uconst 0x2a]
    4208                      .dwattr DW$335, DW_AT_accessibility(DW_ACCESS_public)
    4209              DW$336  .dwtag  DW_TAG_member, DW_AT_type(*DW$T$11)
    4210                      .dwattr DW$336, DW_AT_name("mastermodebutton"), DW_AT_symbol_name("_mastermodebutton")
    4211                      .dwattr DW$336, DW_AT_data_member_location[DW_OP_plus_uconst 0x2b]
    4212                      .dwattr DW$336, DW_AT_accessibility(DW_ACCESS_public)
    4213              DW$337  .dwtag  DW_TAG_member, DW_AT_type(*DW$T$11)
    4214                      .dwattr DW$337, DW_AT_name("dcmode"), DW_AT_symbol_name("_dcmode")
    4215                      .dwattr DW$337, DW_AT_data_member_location[DW_OP_plus_uconst 0x2c]
    4216                      .dwattr DW$337, DW_AT_accessibility(DW_ACCESS_public)
    4217              DW$338  .dwtag  DW_TAG_member, DW_AT_type(*DW$T$13)
    4218                      .dwattr DW$338, DW_AT_name("calibrate"), DW_AT_symbol_name("_calibrate")
    4219                      .dwattr DW$338, DW_AT_data_member_location[DW_OP_plus_uconst 0x2e]
    4220                      .dwattr DW$338, DW_AT_accessibility(DW_ACCESS_public)
    4221              DW$339  .dwtag  DW_TAG_member, DW_AT_type(*DW$T$13)
    4222                      .dwattr DW$339, DW_AT_name("calibrate2"), DW_AT_symbol_name("_calibrate2")
    4223                      .dwattr DW$339, DW_AT_data_member_location[DW_OP_plus_uconst 0x30]
    4224                      .dwattr DW$339, DW_AT_accessibility(DW_ACCESS_public)
    4225              DW$340  .dwtag  DW_TAG_member, DW_AT_type(*DW$T$11)
    4226                      .dwattr DW$340, DW_AT_name("alarmreflash"), DW_AT_symbol_name("_alarmreflash")
    4227                      .dwattr DW$340, DW_AT_data_member_location[DW_OP_plus_uconst 0x32]
TMS320C2000 COFF Assembler PC v4.1.3 Thu Aug 18 12:16:22 2016

Tools Copyright (c) 1996-2006 Texas Instruments Incorporated
mmc_mcf.asm                                                          PAGE   85

    4228                      .dwattr DW$340, DW_AT_accessibility(DW_ACCESS_public)
    4229              DW$341  .dwtag  DW_TAG_member, DW_AT_type(*DW$T$11)
    4230                      .dwattr DW$341, DW_AT_name("slowdownreflash"), DW_AT_symbol_name("_slowdownreflash")
    4231                      .dwattr DW$341, DW_AT_data_member_location[DW_OP_plus_uconst 0x33]
    4232                      .dwattr DW$341, DW_AT_accessibility(DW_ACCESS_public)
    4233              DW$342  .dwtag  DW_TAG_member, DW_AT_type(*DW$T$11)
    4234                      .dwattr DW$342, DW_AT_name("wiorqst"), DW_AT_symbol_name("_wiorqst")
    4235                      .dwattr DW$342, DW_AT_data_member_location[DW_OP_plus_uconst 0x34]
    4236                      .dwattr DW$342, DW_AT_accessibility(DW_ACCESS_public)
    4237              DW$343  .dwtag  DW_TAG_member, DW_AT_type(*DW$T$11)
    4238                      .dwattr DW$343, DW_AT_name("rpmtimeout"), DW_AT_symbol_name("_rpmtimeout")
    4239                      .dwattr DW$343, DW_AT_data_member_location[DW_OP_plus_uconst 0x35]
    4240                      .dwattr DW$343, DW_AT_accessibility(DW_ACCESS_public)
    4241              DW$344  .dwtag  DW_TAG_member, DW_AT_type(*DW$T$11)
    4242                      .dwattr DW$344, DW_AT_name("analogoor"), DW_AT_symbol_name("_analogoor")
    4243                      .dwattr DW$344, DW_AT_data_member_location[DW_OP_plus_uconst 0x36]
    4244                      .dwattr DW$344, DW_AT_accessibility(DW_ACCESS_public)
    4245              DW$345  .dwtag  DW_TAG_member, DW_AT_type(*DW$T$11)
    4246                      .dwattr DW$345, DW_AT_name("motioncal"), DW_AT_symbol_name("_motioncal")
    4247                      .dwattr DW$345, DW_AT_data_member_location[DW_OP_plus_uconst 0x37]
    4248                      .dwattr DW$345, DW_AT_accessibility(DW_ACCESS_public)
    4249              DW$346  .dwtag  DW_TAG_member, DW_AT_type(*DW$T$11)
    4250                      .dwattr DW$346, DW_AT_name("framcheck"), DW_AT_symbol_name("_framcheck")
    4251                      .dwattr DW$346, DW_AT_data_member_location[DW_OP_plus_uconst 0x38]
    4252                      .dwattr DW$346, DW_AT_accessibility(DW_ACCESS_public)
    4253              DW$347  .dwtag  DW_TAG_member, DW_AT_type(*DW$T$11)
    4254                      .dwattr DW$347, DW_AT_name("pcmodbus"), DW_AT_symbol_name("_pcmodbus")
    4255                      .dwattr DW$347, DW_AT_data_member_location[DW_OP_plus_uconst 0x39]
    4256                      .dwattr DW$347, DW_AT_accessibility(DW_ACCESS_public)
    4257              DW$348  .dwtag  DW_TAG_member, DW_AT_type(*DW$T$11)
    4258                      .dwattr DW$348, DW_AT_name("statusreflash"), DW_AT_symbol_name("_statusreflash")
    4259                      .dwattr DW$348, DW_AT_data_member_location[DW_OP_plus_uconst 0x3a]
    4260                      .dwattr DW$348, DW_AT_accessibility(DW_ACCESS_public)
    4261              DW$349  .dwtag  DW_TAG_member, DW_AT_type(*DW$T$13)
    4262                      .dwattr DW$349, DW_AT_name("prewarn"), DW_AT_symbol_name("_prewarn")
    4263                      .dwattr DW$349, DW_AT_data_member_location[DW_OP_plus_uconst 0x3c]
    4264                      .dwattr DW$349, DW_AT_accessibility(DW_ACCESS_public)
    4265              DW$350  .dwtag  DW_TAG_member, DW_AT_type(*DW$T$11)
    4266                      .dwattr DW$350, DW_AT_name("clocktofram"), DW_AT_symbol_name("_clocktofram")
    4267                      .dwattr DW$350, DW_AT_data_member_location[DW_OP_plus_uconst 0x3e]
    4268                      .dwattr DW$350, DW_AT_accessibility(DW_ACCESS_public)
    4269              DW$351  .dwtag  DW_TAG_member, DW_AT_type(*DW$T$11)
    4270                      .dwattr DW$351, DW_AT_name("debugrapidfast"), DW_AT_symbol_name("_debugrapidfast")
    4271                      .dwattr DW$351, DW_AT_data_member_location[DW_OP_plus_uconst 0x3f]
    4272                      .dwattr DW$351, DW_AT_accessibility(DW_ACCESS_public)
    4273              DW$352  .dwtag  DW_TAG_member, DW_AT_type(*DW$T$11)
    4274                      .dwattr DW$352, DW_AT_name("debugupdate"), DW_AT_symbol_name("_debugupdate")
    4275                      .dwattr DW$352, DW_AT_data_member_location[DW_OP_plus_uconst 0x40]
    4276                      .dwattr DW$352, DW_AT_accessibility(DW_ACCESS_public)
    4277              DW$353  .dwtag  DW_TAG_member, DW_AT_type(*DW$T$11)
    4278                      .dwattr DW$353, DW_AT_name("dircountdown"), DW_AT_symbol_name("_dircountdown")
    4279                      .dwattr DW$353, DW_AT_data_member_location[DW_OP_plus_uconst 0x41]
    4280                      .dwattr DW$353, DW_AT_accessibility(DW_ACCESS_public)
    4281              DW$354  .dwtag  DW_TAG_member, DW_AT_type(*DW$T$11)
    4282                      .dwattr DW$354, DW_AT_name("startup"), DW_AT_symbol_name("_startup")
TMS320C2000 COFF Assembler PC v4.1.3 Thu Aug 18 12:16:22 2016

Tools Copyright (c) 1996-2006 Texas Instruments Incorporated
mmc_mcf.asm                                                          PAGE   86

    4283                      .dwattr DW$354, DW_AT_data_member_location[DW_OP_plus_uconst 0x42]
    4284                      .dwattr DW$354, DW_AT_accessibility(DW_ACCESS_public)
    4285              DW$355  .dwtag  DW_TAG_member, DW_AT_type(*DW$T$11)
    4286                      .dwattr DW$355, DW_AT_name("analogsettle"), DW_AT_symbol_name("_analogsettle")
    4287                      .dwattr DW$355, DW_AT_data_member_location[DW_OP_plus_uconst 0x43]
    4288                      .dwattr DW$355, DW_AT_accessibility(DW_ACCESS_public)
    4289              DW$356  .dwtag  DW_TAG_member, DW_AT_type(*DW$T$11)
    4290                      .dwattr DW$356, DW_AT_name("reprogram"), DW_AT_symbol_name("_reprogram")
    4291                      .dwattr DW$356, DW_AT_data_member_location[DW_OP_plus_uconst 0x44]
    4292                      .dwattr DW$356, DW_AT_accessibility(DW_ACCESS_public)
    4293              DW$357  .dwtag  DW_TAG_member, DW_AT_type(*DW$T$11)
    4294                      .dwattr DW$357, DW_AT_name("reprogramtimeout"), DW_AT_symbol_name("_reprogramtimeout")
    4295                      .dwattr DW$357, DW_AT_data_member_location[DW_OP_plus_uconst 0x45]
    4296                      .dwattr DW$357, DW_AT_accessibility(DW_ACCESS_public)
    4297              DW$358  .dwtag  DW_TAG_member, DW_AT_type(*DW$T$11)
    4298                      .dwattr DW$358, DW_AT_name("dcmodestayalive"), DW_AT_symbol_name("_dcmodestayalive")
    4299                      .dwattr DW$358, DW_AT_data_member_location[DW_OP_plus_uconst 0x46]
    4300                      .dwattr DW$358, DW_AT_accessibility(DW_ACCESS_public)
    4301              DW$359  .dwtag  DW_TAG_member, DW_AT_type(*DW$T$11)
    4302                      .dwattr DW$359, DW_AT_name("biteventchange"), DW_AT_symbol_name("_biteventchange")
    4303                      .dwattr DW$359, DW_AT_data_member_location[DW_OP_plus_uconst 0x47]
    4304                      .dwattr DW$359, DW_AT_accessibility(DW_ACCESS_public)
    4305              DW$360  .dwtag  DW_TAG_member, DW_AT_type(*DW$T$11)
    4306                      .dwattr DW$360, DW_AT_name("iSensorReplace"), DW_AT_symbol_name("_iSensorReplace")
    4307                      .dwattr DW$360, DW_AT_data_member_location[DW_OP_plus_uconst 0x48]
    4308                      .dwattr DW$360, DW_AT_accessibility(DW_ACCESS_public)
    4309              DW$361  .dwtag  DW_TAG_member, DW_AT_type(*DW$T$13)
    4310                      .dwattr DW$361, DW_AT_name("deltarpm15Delay"), DW_AT_symbol_name("_deltarpm15Delay")
    4311                      .dwattr DW$361, DW_AT_data_member_location[DW_OP_plus_uconst 0x4a]
    4312                      .dwattr DW$361, DW_AT_accessibility(DW_ACCESS_public)
    4313                      .dwendtag DW$T$49
    4314              
    4315              
    4316              DW$T$50 .dwtag  DW_TAG_structure_type
    4317                      .dwattr DW$T$50, DW_AT_byte_size(0x01)
    4318              DW$362  .dwtag  DW_TAG_member, DW_AT_type(*DW$T$11)
    4319                      .dwattr DW$362, DW_AT_name("inputtap"), DW_AT_symbol_name("_inputtap")
    4320                      .dwattr DW$362, DW_AT_data_member_location[DW_OP_plus_uconst 0x0]
    4321                      .dwattr DW$362, DW_AT_accessibility(DW_ACCESS_public)
    4322                      .dwendtag DW$T$50
    4323              
    4324              
    4325              DW$T$51 .dwtag  DW_TAG_structure_type
    4326                      .dwattr DW$T$51, DW_AT_byte_size(0x01)
    4327              DW$363  .dwtag  DW_TAG_member, DW_AT_type(*DW$T$11)
    4328                      .dwattr DW$363, DW_AT_name("bitmap"), DW_AT_symbol_name("_bitmap")
    4329                      .dwattr DW$363, DW_AT_data_member_location[DW_OP_plus_uconst 0x0]
    4330                      .dwattr DW$363, DW_AT_accessibility(DW_ACCESS_public)
    4331                      .dwendtag DW$T$51
    4332              
    4333              
    4334              DW$T$52 .dwtag  DW_TAG_structure_type
    4335                      .dwattr DW$T$52, DW_AT_byte_size(0x01)
    4336              DW$364  .dwtag  DW_TAG_member, DW_AT_type(*DW$T$11)
    4337                      .dwattr DW$364, DW_AT_name("graphvalue"), DW_AT_symbol_name("_graphvalue")
TMS320C2000 COFF Assembler PC v4.1.3 Thu Aug 18 12:16:22 2016

Tools Copyright (c) 1996-2006 Texas Instruments Incorporated
mmc_mcf.asm                                                          PAGE   87

    4338                      .dwattr DW$364, DW_AT_data_member_location[DW_OP_plus_uconst 0x0]
    4339                      .dwattr DW$364, DW_AT_accessibility(DW_ACCESS_public)
    4340                      .dwendtag DW$T$52
    4341              
    4342              
    4343              DW$T$53 .dwtag  DW_TAG_structure_type
    4344                      .dwattr DW$T$53, DW_AT_byte_size(0x03)
    4345              DW$365  .dwtag  DW_TAG_member, DW_AT_type(*DW$T$11)
    4346                      .dwattr DW$365, DW_AT_name("chanlowthreshold"), DW_AT_symbol_name("_chanlowthreshold")
    4347                      .dwattr DW$365, DW_AT_data_member_location[DW_OP_plus_uconst 0x0]
    4348                      .dwattr DW$365, DW_AT_accessibility(DW_ACCESS_public)
    4349              DW$366  .dwtag  DW_TAG_member, DW_AT_type(*DW$T$11)
    4350                      .dwattr DW$366, DW_AT_name("chanhighthreshold"), DW_AT_symbol_name("_chanhighthreshold")
    4351                      .dwattr DW$366, DW_AT_data_member_location[DW_OP_plus_uconst 0x1]
    4352                      .dwattr DW$366, DW_AT_accessibility(DW_ACCESS_public)
    4353              DW$367  .dwtag  DW_TAG_member, DW_AT_type(*DW$T$11)
    4354                      .dwattr DW$367, DW_AT_name("sensorscalingfactor"), DW_AT_symbol_name("_sensorscalingfactor")
    4355                      .dwattr DW$367, DW_AT_data_member_location[DW_OP_plus_uconst 0x2]
    4356                      .dwattr DW$367, DW_AT_accessibility(DW_ACCESS_public)
    4357                      .dwendtag DW$T$53
    4358              
    4359              
    4360              DW$T$54 .dwtag  DW_TAG_structure_type
    4361                      .dwattr DW$T$54, DW_AT_byte_size(0x02)
    4362              DW$368  .dwtag  DW_TAG_member, DW_AT_type(*DW$T$11)
    4363                      .dwattr DW$368, DW_AT_name("shortlrate"), DW_AT_symbol_name("_shortlrate")
    4364                      .dwattr DW$368, DW_AT_data_member_location[DW_OP_plus_uconst 0x0]
    4365                      .dwattr DW$368, DW_AT_accessibility(DW_ACCESS_public)
    4366              DW$369  .dwtag  DW_TAG_member, DW_AT_type(*DW$T$11)
    4367                      .dwattr DW$369, DW_AT_name("longlrate"), DW_AT_symbol_name("_longlrate")
    4368                      .dwattr DW$369, DW_AT_data_member_location[DW_OP_plus_uconst 0x1]
    4369                      .dwattr DW$369, DW_AT_accessibility(DW_ACCESS_public)
    4370                      .dwendtag DW$T$54
    4371              
    4372              
    4373              DW$T$55 .dwtag  DW_TAG_structure_type
    4374                      .dwattr DW$T$55, DW_AT_byte_size(0x10)
    4375              DW$370  .dwtag  DW_TAG_member, DW_AT_type(*DW$T$13)
    4376                      .dwattr DW$370, DW_AT_name("wiorequest"), DW_AT_symbol_name("_wiorequest")
    4377                      .dwattr DW$370, DW_AT_data_member_location[DW_OP_plus_uconst 0x0]
    4378                      .dwattr DW$370, DW_AT_accessibility(DW_ACCESS_public)
    4379              DW$371  .dwtag  DW_TAG_member, DW_AT_type(*DW$T$13)
    4380                      .dwattr DW$371, DW_AT_name("wiocancelled"), DW_AT_symbol_name("_wiocancelled")
    4381                      .dwattr DW$371, DW_AT_data_member_location[DW_OP_plus_uconst 0x2]
    4382                      .dwattr DW$371, DW_AT_accessibility(DW_ACCESS_public)
    4383              DW$372  .dwtag  DW_TAG_member, DW_AT_type(*DW$T$13)
    4384                      .dwattr DW$372, DW_AT_name("wioreceived"), DW_AT_symbol_name("_wioreceived")
    4385                      .dwattr DW$372, DW_AT_data_member_location[DW_OP_plus_uconst 0x4]
    4386                      .dwattr DW$372, DW_AT_accessibility(DW_ACCESS_public)
    4387              DW$373  .dwtag  DW_TAG_member, DW_AT_type(*DW$T$13)
    4388                      .dwattr DW$373, DW_AT_name("slaverequest"), DW_AT_symbol_name("_slaverequest")
    4389                      .dwattr DW$373, DW_AT_data_member_location[DW_OP_plus_uconst 0x6]
    4390                      .dwattr DW$373, DW_AT_accessibility(DW_ACCESS_public)
    4391              DW$374  .dwtag  DW_TAG_member, DW_AT_type(*DW$T$13)
    4392                      .dwattr DW$374, DW_AT_name("slavereceived"), DW_AT_symbol_name("_slavereceived")
TMS320C2000 COFF Assembler PC v4.1.3 Thu Aug 18 12:16:22 2016

Tools Copyright (c) 1996-2006 Texas Instruments Incorporated
mmc_mcf.asm                                                          PAGE   88

    4393                      .dwattr DW$374, DW_AT_data_member_location[DW_OP_plus_uconst 0x8]
    4394                      .dwattr DW$374, DW_AT_accessibility(DW_ACCESS_public)
    4395              DW$375  .dwtag  DW_TAG_member, DW_AT_type(*DW$T$13)
    4396                      .dwattr DW$375, DW_AT_name("slaveretry"), DW_AT_symbol_name("_slaveretry")
    4397                      .dwattr DW$375, DW_AT_data_member_location[DW_OP_plus_uconst 0xa]
    4398                      .dwattr DW$375, DW_AT_accessibility(DW_ACCESS_public)
    4399              DW$376  .dwtag  DW_TAG_member, DW_AT_type(*DW$T$13)
    4400                      .dwattr DW$376, DW_AT_name("pcrequest"), DW_AT_symbol_name("_pcrequest")
    4401                      .dwattr DW$376, DW_AT_data_member_location[DW_OP_plus_uconst 0xc]
    4402                      .dwattr DW$376, DW_AT_accessibility(DW_ACCESS_public)
    4403              DW$377  .dwtag  DW_TAG_member, DW_AT_type(*DW$T$13)
    4404                      .dwattr DW$377, DW_AT_name("pcreqtimeout"), DW_AT_symbol_name("_pcreqtimeout")
    4405                      .dwattr DW$377, DW_AT_data_member_location[DW_OP_plus_uconst 0xe]
    4406                      .dwattr DW$377, DW_AT_accessibility(DW_ACCESS_public)
    4407                      .dwendtag DW$T$55
    4408              
    4409              
    4410              DW$T$58 .dwtag  DW_TAG_union_type
    4411                      .dwattr DW$T$58, DW_AT_name("SPICCR_REG")
    4412                      .dwattr DW$T$58, DW_AT_byte_size(0x01)
    4413              DW$378  .dwtag  DW_TAG_member, DW_AT_type(*DW$T$11)
    4414                      .dwattr DW$378, DW_AT_name("all"), DW_AT_symbol_name("_all")
    4415                      .dwattr DW$378, DW_AT_data_member_location[DW_OP_plus_uconst 0x0]
    4416                      .dwattr DW$378, DW_AT_accessibility(DW_ACCESS_public)
    4417              DW$379  .dwtag  DW_TAG_member, DW_AT_type(*DW$T$57)
    4418                      .dwattr DW$379, DW_AT_name("bit"), DW_AT_symbol_name("_bit")
    4419                      .dwattr DW$379, DW_AT_data_member_location[DW_OP_plus_uconst 0x0]
    4420                      .dwattr DW$379, DW_AT_accessibility(DW_ACCESS_public)
    4421                      .dwendtag DW$T$58
    4422              
    4423              
    4424              DW$T$60 .dwtag  DW_TAG_union_type
    4425                      .dwattr DW$T$60, DW_AT_name("SPICTL_REG")
    4426                      .dwattr DW$T$60, DW_AT_byte_size(0x01)
    4427              DW$380  .dwtag  DW_TAG_member, DW_AT_type(*DW$T$11)
    4428                      .dwattr DW$380, DW_AT_name("all"), DW_AT_symbol_name("_all")
    4429                      .dwattr DW$380, DW_AT_data_member_location[DW_OP_plus_uconst 0x0]
    4430                      .dwattr DW$380, DW_AT_accessibility(DW_ACCESS_public)
    4431              DW$381  .dwtag  DW_TAG_member, DW_AT_type(*DW$T$59)
    4432                      .dwattr DW$381, DW_AT_name("bit"), DW_AT_symbol_name("_bit")
    4433                      .dwattr DW$381, DW_AT_data_member_location[DW_OP_plus_uconst 0x0]
    4434                      .dwattr DW$381, DW_AT_accessibility(DW_ACCESS_public)
    4435                      .dwendtag DW$T$60
    4436              
    4437              
    4438              DW$T$62 .dwtag  DW_TAG_union_type
    4439                      .dwattr DW$T$62, DW_AT_name("SPISTS_REG")
    4440                      .dwattr DW$T$62, DW_AT_byte_size(0x01)
    4441              DW$382  .dwtag  DW_TAG_member, DW_AT_type(*DW$T$11)
    4442                      .dwattr DW$382, DW_AT_name("all"), DW_AT_symbol_name("_all")
    4443                      .dwattr DW$382, DW_AT_data_member_location[DW_OP_plus_uconst 0x0]
    4444                      .dwattr DW$382, DW_AT_accessibility(DW_ACCESS_public)
    4445              DW$383  .dwtag  DW_TAG_member, DW_AT_type(*DW$T$61)
    4446                      .dwattr DW$383, DW_AT_name("bit"), DW_AT_symbol_name("_bit")
    4447                      .dwattr DW$383, DW_AT_data_member_location[DW_OP_plus_uconst 0x0]
TMS320C2000 COFF Assembler PC v4.1.3 Thu Aug 18 12:16:22 2016

Tools Copyright (c) 1996-2006 Texas Instruments Incorporated
mmc_mcf.asm                                                          PAGE   89

    4448                      .dwattr DW$383, DW_AT_accessibility(DW_ACCESS_public)
    4449                      .dwendtag DW$T$62
    4450              
    4451              
    4452              DW$T$64 .dwtag  DW_TAG_union_type
    4453                      .dwattr DW$T$64, DW_AT_name("SPIFFTX_REG")
    4454                      .dwattr DW$T$64, DW_AT_byte_size(0x01)
    4455              DW$384  .dwtag  DW_TAG_member, DW_AT_type(*DW$T$11)
    4456                      .dwattr DW$384, DW_AT_name("all"), DW_AT_symbol_name("_all")
    4457                      .dwattr DW$384, DW_AT_data_member_location[DW_OP_plus_uconst 0x0]
    4458                      .dwattr DW$384, DW_AT_accessibility(DW_ACCESS_public)
    4459              DW$385  .dwtag  DW_TAG_member, DW_AT_type(*DW$T$63)
    4460                      .dwattr DW$385, DW_AT_name("bit"), DW_AT_symbol_name("_bit")
    4461                      .dwattr DW$385, DW_AT_data_member_location[DW_OP_plus_uconst 0x0]
    4462                      .dwattr DW$385, DW_AT_accessibility(DW_ACCESS_public)
    4463                      .dwendtag DW$T$64
    4464              
    4465              
    4466              DW$T$66 .dwtag  DW_TAG_union_type
    4467                      .dwattr DW$T$66, DW_AT_name("SPIFFRX_REG")
    4468                      .dwattr DW$T$66, DW_AT_byte_size(0x01)
    4469              DW$386  .dwtag  DW_TAG_member, DW_AT_type(*DW$T$11)
    4470                      .dwattr DW$386, DW_AT_name("all"), DW_AT_symbol_name("_all")
    4471                      .dwattr DW$386, DW_AT_data_member_location[DW_OP_plus_uconst 0x0]
    4472                      .dwattr DW$386, DW_AT_accessibility(DW_ACCESS_public)
    4473              DW$387  .dwtag  DW_TAG_member, DW_AT_type(*DW$T$65)
    4474                      .dwattr DW$387, DW_AT_name("bit"), DW_AT_symbol_name("_bit")
    4475                      .dwattr DW$387, DW_AT_data_member_location[DW_OP_plus_uconst 0x0]
    4476                      .dwattr DW$387, DW_AT_accessibility(DW_ACCESS_public)
    4477                      .dwendtag DW$T$66
    4478              
    4479              
    4480              DW$T$68 .dwtag  DW_TAG_union_type
    4481                      .dwattr DW$T$68, DW_AT_name("SPIFFCT_REG")
    4482                      .dwattr DW$T$68, DW_AT_byte_size(0x01)
    4483              DW$388  .dwtag  DW_TAG_member, DW_AT_type(*DW$T$11)
    4484                      .dwattr DW$388, DW_AT_name("all"), DW_AT_symbol_name("_all")
    4485                      .dwattr DW$388, DW_AT_data_member_location[DW_OP_plus_uconst 0x0]
    4486                      .dwattr DW$388, DW_AT_accessibility(DW_ACCESS_public)
    4487              DW$389  .dwtag  DW_TAG_member, DW_AT_type(*DW$T$67)
    4488                      .dwattr DW$389, DW_AT_name("bit"), DW_AT_symbol_name("_bit")
    4489                      .dwattr DW$389, DW_AT_data_member_location[DW_OP_plus_uconst 0x0]
    4490                      .dwattr DW$389, DW_AT_accessibility(DW_ACCESS_public)
    4491                      .dwendtag DW$T$68
    4492              
    4493              
    4494              DW$T$70 .dwtag  DW_TAG_union_type
    4495                      .dwattr DW$T$70, DW_AT_name("SPIPRI_REG")
    4496                      .dwattr DW$T$70, DW_AT_byte_size(0x01)
    4497              DW$390  .dwtag  DW_TAG_member, DW_AT_type(*DW$T$11)
    4498                      .dwattr DW$390, DW_AT_name("all"), DW_AT_symbol_name("_all")
    4499                      .dwattr DW$390, DW_AT_data_member_location[DW_OP_plus_uconst 0x0]
    4500                      .dwattr DW$390, DW_AT_accessibility(DW_ACCESS_public)
    4501              DW$391  .dwtag  DW_TAG_member, DW_AT_type(*DW$T$69)
    4502                      .dwattr DW$391, DW_AT_name("bit"), DW_AT_symbol_name("_bit")
TMS320C2000 COFF Assembler PC v4.1.3 Thu Aug 18 12:16:22 2016

Tools Copyright (c) 1996-2006 Texas Instruments Incorporated
mmc_mcf.asm                                                          PAGE   90

    4503                      .dwattr DW$391, DW_AT_data_member_location[DW_OP_plus_uconst 0x0]
    4504                      .dwattr DW$391, DW_AT_accessibility(DW_ACCESS_public)
    4505                      .dwendtag DW$T$70
    4506              
    4507              DW$T$74 .dwtag  DW_TAG_base_type, DW_AT_name("signed char")
    4508                      .dwattr DW$T$74, DW_AT_encoding(DW_ATE_signed_char)
    4509                      .dwattr DW$T$74, DW_AT_byte_size(0x01)
    4510              
    4511              DW$T$78 .dwtag  DW_TAG_structure_type
    4512                      .dwattr DW$T$78, DW_AT_byte_size(0x10)
    4513              DW$392  .dwtag  DW_TAG_member, DW_AT_type(*DW$T$10)
    4514                      .dwattr DW$392, DW_AT_name("cs"), DW_AT_symbol_name("_cs")
    4515                      .dwattr DW$392, DW_AT_data_member_location[DW_OP_plus_uconst 0x0]
    4516                      .dwattr DW$392, DW_AT_accessibility(DW_ACCESS_public)
    4517              DW$393  .dwtag  DW_TAG_member, DW_AT_type(*DW$T$10)
    4518                      .dwattr DW$393, DW_AT_name("use"), DW_AT_symbol_name("_use")
    4519                      .dwattr DW$393, DW_AT_data_member_location[DW_OP_plus_uconst 0x1]
    4520                      .dwattr DW$393, DW_AT_accessibility(DW_ACCESS_public)
    4521              DW$394  .dwtag  DW_TAG_member, DW_AT_type(*DW$T$10)
    4522                      .dwattr DW$394, DW_AT_name("active"), DW_AT_symbol_name("_active")
    4523                      .dwattr DW$394, DW_AT_data_member_location[DW_OP_plus_uconst 0x2]
    4524                      .dwattr DW$394, DW_AT_accessibility(DW_ACCESS_public)
    4525              DW$395  .dwtag  DW_TAG_member, DW_AT_type(*DW$T$10)
    4526                      .dwattr DW$395, DW_AT_name("initok"), DW_AT_symbol_name("_initok")
    4527                      .dwattr DW$395, DW_AT_data_member_location[DW_OP_plus_uconst 0x3]
    4528                      .dwattr DW$395, DW_AT_accessibility(DW_ACCESS_public)
    4529              DW$396  .dwtag  DW_TAG_member, DW_AT_type(*DW$T$10)
    4530                      .dwattr DW$396, DW_AT_name("sd"), DW_AT_symbol_name("_sd")
    4531                      .dwattr DW$396, DW_AT_data_member_location[DW_OP_plus_uconst 0x4]
    4532                      .dwattr DW$396, DW_AT_accessibility(DW_ACCESS_public)
    4533              DW$397  .dwtag  DW_TAG_member, DW_AT_type(*DW$T$13)
    4534                      .dwattr DW$397, DW_AT_name("speed"), DW_AT_symbol_name("_speed")
    4535                      .dwattr DW$397, DW_AT_data_member_location[DW_OP_plus_uconst 0x6]
    4536                      .dwattr DW$397, DW_AT_accessibility(DW_ACCESS_public)
    4537              DW$398  .dwtag  DW_TAG_member, DW_AT_type(*DW$T$77)
    4538                      .dwattr DW$398, DW_AT_name("cd_port"), DW_AT_symbol_name("_cd_port")
    4539                      .dwattr DW$398, DW_AT_data_member_location[DW_OP_plus_uconst 0x8]
    4540                      .dwattr DW$398, DW_AT_accessibility(DW_ACCESS_public)
    4541              DW$399  .dwtag  DW_TAG_member, DW_AT_type(*DW$T$13)
    4542                      .dwattr DW$399, DW_AT_name("cd_bit"), DW_AT_symbol_name("_cd_bit")
    4543                      .dwattr DW$399, DW_AT_data_member_location[DW_OP_plus_uconst 0xa]
    4544                      .dwattr DW$399, DW_AT_accessibility(DW_ACCESS_public)
    4545              DW$400  .dwtag  DW_TAG_member, DW_AT_type(*DW$T$77)
    4546                      .dwattr DW$400, DW_AT_name("wp_port"), DW_AT_symbol_name("_wp_port")
    4547                      .dwattr DW$400, DW_AT_data_member_location[DW_OP_plus_uconst 0xc]
    4548                      .dwattr DW$400, DW_AT_accessibility(DW_ACCESS_public)
    4549              DW$401  .dwtag  DW_TAG_member, DW_AT_type(*DW$T$13)
    4550                      .dwattr DW$401, DW_AT_name("wp_bit"), DW_AT_symbol_name("_wp_bit")
    4551                      .dwattr DW$401, DW_AT_data_member_location[DW_OP_plus_uconst 0xe]
    4552                      .dwattr DW$401, DW_AT_accessibility(DW_ACCESS_public)
    4553                      .dwendtag DW$T$78
    4554              
    4555              DW$T$77 .dwtag  DW_TAG_pointer_type, DW_AT_type(*DW$T$76)
    4556                      .dwattr DW$T$77, DW_AT_address_class(0x16)
    4557              DW$T$22 .dwtag  DW_TAG_typedef, DW_AT_name("F_WRITESECTOR"), DW_AT_type(*DW$T$21)
TMS320C2000 COFF Assembler PC v4.1.3 Thu Aug 18 12:16:22 2016

Tools Copyright (c) 1996-2006 Texas Instruments Incorporated
mmc_mcf.asm                                                          PAGE   91

    4558                      .dwattr DW$T$22, DW_AT_language(DW_LANG_C)
    4559              DW$T$26 .dwtag  DW_TAG_typedef, DW_AT_name("F_READSECTOR"), DW_AT_type(*DW$T$21)
    4560                      .dwattr DW$T$26, DW_AT_language(DW_LANG_C)
    4561              DW$T$25 .dwtag  DW_TAG_typedef, DW_AT_name("F_WRITEMULTIPLESECTOR"), DW_AT_type(*DW$T$24)
    4562                      .dwattr DW$T$25, DW_AT_language(DW_LANG_C)
    4563              DW$T$27 .dwtag  DW_TAG_typedef, DW_AT_name("F_READMULTIPLESECTOR"), DW_AT_type(*DW$T$24)
    4564                      .dwattr DW$T$27, DW_AT_language(DW_LANG_C)
    4565              DW$T$32 .dwtag  DW_TAG_typedef, DW_AT_name("F_GETPHY"), DW_AT_type(*DW$T$31)
    4566                      .dwattr DW$T$32, DW_AT_language(DW_LANG_C)
    4567              DW$T$38 .dwtag  DW_TAG_typedef, DW_AT_name("F_DELFUNC"), DW_AT_type(*DW$T$37)
    4568                      .dwattr DW$T$38, DW_AT_language(DW_LANG_C)
    4569              
    4570              DW$T$48 .dwtag  DW_TAG_array_type, DW_AT_type(*DW$T$11)
    4571                      .dwattr DW$T$48, DW_AT_language(DW_LANG_C)
    4572                      .dwattr DW$T$48, DW_AT_byte_size(0x0e)
    4573              DW$402  .dwtag  DW_TAG_subrange_type
    4574                      .dwattr DW$402, DW_AT_upper_bound(0x0d)
    4575                      .dwendtag DW$T$48
    4576              
    4577              DW$T$35 .dwtag  DW_TAG_typedef, DW_AT_name("F_GETSTATUS"), DW_AT_type(*DW$T$34)
    4578                      .dwattr DW$T$35, DW_AT_language(DW_LANG_C)
    4579              
    4580              DW$T$41 .dwtag  DW_TAG_union_type
    4581                      .dwattr DW$T$41, DW_AT_byte_size(0x01)
    4582              DW$403  .dwtag  DW_TAG_member, DW_AT_type(*DW$T$11)
    4583                      .dwattr DW$403, DW_AT_name("port"), DW_AT_symbol_name("_port")
    4584                      .dwattr DW$403, DW_AT_data_member_location[DW_OP_plus_uconst 0x0]
    4585                      .dwattr DW$403, DW_AT_accessibility(DW_ACCESS_public)
    4586              DW$404  .dwtag  DW_TAG_member, DW_AT_type(*DW$T$40)
    4587                      .dwattr DW$404, DW_AT_name("bits"), DW_AT_symbol_name("_bits")
    4588                      .dwattr DW$404, DW_AT_data_member_location[DW_OP_plus_uconst 0x0]
    4589                      .dwattr DW$404, DW_AT_accessibility(DW_ACCESS_public)
    4590                      .dwendtag DW$T$41
    4591              
    4592              
    4593              DW$T$44 .dwtag  DW_TAG_union_type
    4594                      .dwattr DW$T$44, DW_AT_byte_size(0x01)
    4595              DW$405  .dwtag  DW_TAG_member, DW_AT_type(*DW$T$11)
    4596                      .dwattr DW$405, DW_AT_name("port"), DW_AT_symbol_name("_port")
    4597                      .dwattr DW$405, DW_AT_data_member_location[DW_OP_plus_uconst 0x0]
    4598                      .dwattr DW$405, DW_AT_accessibility(DW_ACCESS_public)
    4599              DW$406  .dwtag  DW_TAG_member, DW_AT_type(*DW$T$43)
    4600                      .dwattr DW$406, DW_AT_name("bits"), DW_AT_symbol_name("_bits")
    4601                      .dwattr DW$406, DW_AT_data_member_location[DW_OP_plus_uconst 0x0]
    4602                      .dwattr DW$406, DW_AT_accessibility(DW_ACCESS_public)
    4603                      .dwendtag DW$T$44
    4604              
    4605              
    4606              DW$T$57 .dwtag  DW_TAG_structure_type
    4607                      .dwattr DW$T$57, DW_AT_name("SPICCR_BITS")
    4608                      .dwattr DW$T$57, DW_AT_byte_size(0x01)
    4609              DW$407  .dwtag  DW_TAG_member, DW_AT_type(*DW$T$11)
    4610                      .dwattr DW$407, DW_AT_name("SPICHAR"), DW_AT_symbol_name("_SPICHAR")
    4611                      .dwattr DW$407, DW_AT_bit_offset(0x0c), DW_AT_bit_size(0x04)
    4612                      .dwattr DW$407, DW_AT_data_member_location[DW_OP_plus_uconst 0x0]
TMS320C2000 COFF Assembler PC v4.1.3 Thu Aug 18 12:16:22 2016

Tools Copyright (c) 1996-2006 Texas Instruments Incorporated
mmc_mcf.asm                                                          PAGE   92

    4613                      .dwattr DW$407, DW_AT_accessibility(DW_ACCESS_public)
    4614              DW$408  .dwtag  DW_TAG_member, DW_AT_type(*DW$T$11)
    4615                      .dwattr DW$408, DW_AT_name("SPILBK"), DW_AT_symbol_name("_SPILBK")
    4616                      .dwattr DW$408, DW_AT_bit_offset(0x0b), DW_AT_bit_size(0x01)
    4617                      .dwattr DW$408, DW_AT_data_member_location[DW_OP_plus_uconst 0x0]
    4618                      .dwattr DW$408, DW_AT_accessibility(DW_ACCESS_public)
    4619              DW$409  .dwtag  DW_TAG_member, DW_AT_type(*DW$T$11)
    4620                      .dwattr DW$409, DW_AT_name("rsvd1"), DW_AT_symbol_name("_rsvd1")
    4621                      .dwattr DW$409, DW_AT_bit_offset(0x0a), DW_AT_bit_size(0x01)
    4622                      .dwattr DW$409, DW_AT_data_member_location[DW_OP_plus_uconst 0x0]
    4623                      .dwattr DW$409, DW_AT_accessibility(DW_ACCESS_public)
    4624              DW$410  .dwtag  DW_TAG_member, DW_AT_type(*DW$T$11)
    4625                      .dwattr DW$410, DW_AT_name("CLKPOLARITY"), DW_AT_symbol_name("_CLKPOLARITY")
    4626                      .dwattr DW$410, DW_AT_bit_offset(0x09), DW_AT_bit_size(0x01)
    4627                      .dwattr DW$410, DW_AT_data_member_location[DW_OP_plus_uconst 0x0]
    4628                      .dwattr DW$410, DW_AT_accessibility(DW_ACCESS_public)
    4629              DW$411  .dwtag  DW_TAG_member, DW_AT_type(*DW$T$11)
    4630                      .dwattr DW$411, DW_AT_name("SPISWRESET"), DW_AT_symbol_name("_SPISWRESET")
    4631                      .dwattr DW$411, DW_AT_bit_offset(0x08), DW_AT_bit_size(0x01)
    4632                      .dwattr DW$411, DW_AT_data_member_location[DW_OP_plus_uconst 0x0]
    4633                      .dwattr DW$411, DW_AT_accessibility(DW_ACCESS_public)
    4634              DW$412  .dwtag  DW_TAG_member, DW_AT_type(*DW$T$11)
    4635                      .dwattr DW$412, DW_AT_name("rsvd2"), DW_AT_symbol_name("_rsvd2")
    4636                      .dwattr DW$412, DW_AT_bit_offset(0x00), DW_AT_bit_size(0x08)
    4637                      .dwattr DW$412, DW_AT_data_member_location[DW_OP_plus_uconst 0x0]
    4638                      .dwattr DW$412, DW_AT_accessibility(DW_ACCESS_public)
    4639                      .dwendtag DW$T$57
    4640              
    4641              
    4642              DW$T$59 .dwtag  DW_TAG_structure_type
    4643                      .dwattr DW$T$59, DW_AT_name("SPICTL_BITS")
    4644                      .dwattr DW$T$59, DW_AT_byte_size(0x01)
    4645              DW$413  .dwtag  DW_TAG_member, DW_AT_type(*DW$T$11)
    4646                      .dwattr DW$413, DW_AT_name("SPIINTENA"), DW_AT_symbol_name("_SPIINTENA")
    4647                      .dwattr DW$413, DW_AT_bit_offset(0x0f), DW_AT_bit_size(0x01)
    4648                      .dwattr DW$413, DW_AT_data_member_location[DW_OP_plus_uconst 0x0]
    4649                      .dwattr DW$413, DW_AT_accessibility(DW_ACCESS_public)
    4650              DW$414  .dwtag  DW_TAG_member, DW_AT_type(*DW$T$11)
    4651                      .dwattr DW$414, DW_AT_name("TALK"), DW_AT_symbol_name("_TALK")
    4652                      .dwattr DW$414, DW_AT_bit_offset(0x0e), DW_AT_bit_size(0x01)
    4653                      .dwattr DW$414, DW_AT_data_member_location[DW_OP_plus_uconst 0x0]
    4654                      .dwattr DW$414, DW_AT_accessibility(DW_ACCESS_public)
    4655              DW$415  .dwtag  DW_TAG_member, DW_AT_type(*DW$T$11)
    4656                      .dwattr DW$415, DW_AT_name("MASTER_SLAVE"), DW_AT_symbol_name("_MASTER_SLAVE")
    4657                      .dwattr DW$415, DW_AT_bit_offset(0x0d), DW_AT_bit_size(0x01)
    4658                      .dwattr DW$415, DW_AT_data_member_location[DW_OP_plus_uconst 0x0]
    4659                      .dwattr DW$415, DW_AT_accessibility(DW_ACCESS_public)
    4660              DW$416  .dwtag  DW_TAG_member, DW_AT_type(*DW$T$11)
    4661                      .dwattr DW$416, DW_AT_name("CLK_PHASE"), DW_AT_symbol_name("_CLK_PHASE")
    4662                      .dwattr DW$416, DW_AT_bit_offset(0x0c), DW_AT_bit_size(0x01)
    4663                      .dwattr DW$416, DW_AT_data_member_location[DW_OP_plus_uconst 0x0]
    4664                      .dwattr DW$416, DW_AT_accessibility(DW_ACCESS_public)
    4665              DW$417  .dwtag  DW_TAG_member, DW_AT_type(*DW$T$11)
    4666                      .dwattr DW$417, DW_AT_name("OVERRUNINTENA"), DW_AT_symbol_name("_OVERRUNINTENA")
    4667                      .dwattr DW$417, DW_AT_bit_offset(0x0b), DW_AT_bit_size(0x01)
TMS320C2000 COFF Assembler PC v4.1.3 Thu Aug 18 12:16:22 2016

Tools Copyright (c) 1996-2006 Texas Instruments Incorporated
mmc_mcf.asm                                                          PAGE   93

    4668                      .dwattr DW$417, DW_AT_data_member_location[DW_OP_plus_uconst 0x0]
    4669                      .dwattr DW$417, DW_AT_accessibility(DW_ACCESS_public)
    4670              DW$418  .dwtag  DW_TAG_member, DW_AT_type(*DW$T$11)
    4671                      .dwattr DW$418, DW_AT_name("rsvd"), DW_AT_symbol_name("_rsvd")
    4672                      .dwattr DW$418, DW_AT_bit_offset(0x00), DW_AT_bit_size(0x0b)
    4673                      .dwattr DW$418, DW_AT_data_member_location[DW_OP_plus_uconst 0x0]
    4674                      .dwattr DW$418, DW_AT_accessibility(DW_ACCESS_public)
    4675                      .dwendtag DW$T$59
    4676              
    4677              
    4678              DW$T$61 .dwtag  DW_TAG_structure_type
    4679                      .dwattr DW$T$61, DW_AT_name("SPISTS_BITS")
    4680                      .dwattr DW$T$61, DW_AT_byte_size(0x01)
    4681              DW$419  .dwtag  DW_TAG_member, DW_AT_type(*DW$T$11)
    4682                      .dwattr DW$419, DW_AT_name("rsvd1"), DW_AT_symbol_name("_rsvd1")
    4683                      .dwattr DW$419, DW_AT_bit_offset(0x0b), DW_AT_bit_size(0x05)
    4684                      .dwattr DW$419, DW_AT_data_member_location[DW_OP_plus_uconst 0x0]
    4685                      .dwattr DW$419, DW_AT_accessibility(DW_ACCESS_public)
    4686              DW$420  .dwtag  DW_TAG_member, DW_AT_type(*DW$T$11)
    4687                      .dwattr DW$420, DW_AT_name("BUFFULL_FLAG"), DW_AT_symbol_name("_BUFFULL_FLAG")
    4688                      .dwattr DW$420, DW_AT_bit_offset(0x0a), DW_AT_bit_size(0x01)
    4689                      .dwattr DW$420, DW_AT_data_member_location[DW_OP_plus_uconst 0x0]
    4690                      .dwattr DW$420, DW_AT_accessibility(DW_ACCESS_public)
    4691              DW$421  .dwtag  DW_TAG_member, DW_AT_type(*DW$T$11)
    4692                      .dwattr DW$421, DW_AT_name("INT_FLAG"), DW_AT_symbol_name("_INT_FLAG")
    4693                      .dwattr DW$421, DW_AT_bit_offset(0x09), DW_AT_bit_size(0x01)
    4694                      .dwattr DW$421, DW_AT_data_member_location[DW_OP_plus_uconst 0x0]
    4695                      .dwattr DW$421, DW_AT_accessibility(DW_ACCESS_public)
    4696              DW$422  .dwtag  DW_TAG_member, DW_AT_type(*DW$T$11)
    4697                      .dwattr DW$422, DW_AT_name("OVERRUN_FLAG"), DW_AT_symbol_name("_OVERRUN_FLAG")
    4698                      .dwattr DW$422, DW_AT_bit_offset(0x08), DW_AT_bit_size(0x01)
    4699                      .dwattr DW$422, DW_AT_data_member_location[DW_OP_plus_uconst 0x0]
    4700                      .dwattr DW$422, DW_AT_accessibility(DW_ACCESS_public)
    4701              DW$423  .dwtag  DW_TAG_member, DW_AT_type(*DW$T$11)
    4702                      .dwattr DW$423, DW_AT_name("rsvd2"), DW_AT_symbol_name("_rsvd2")
    4703                      .dwattr DW$423, DW_AT_bit_offset(0x00), DW_AT_bit_size(0x08)
    4704                      .dwattr DW$423, DW_AT_data_member_location[DW_OP_plus_uconst 0x0]
    4705                      .dwattr DW$423, DW_AT_accessibility(DW_ACCESS_public)
    4706                      .dwendtag DW$T$61
    4707              
    4708              
    4709              DW$T$63 .dwtag  DW_TAG_structure_type
    4710                      .dwattr DW$T$63, DW_AT_name("SPIFFTX_BITS")
    4711                      .dwattr DW$T$63, DW_AT_byte_size(0x01)
    4712              DW$424  .dwtag  DW_TAG_member, DW_AT_type(*DW$T$11)
    4713                      .dwattr DW$424, DW_AT_name("TXFFIL"), DW_AT_symbol_name("_TXFFIL")
    4714                      .dwattr DW$424, DW_AT_bit_offset(0x0b), DW_AT_bit_size(0x05)
    4715                      .dwattr DW$424, DW_AT_data_member_location[DW_OP_plus_uconst 0x0]
    4716                      .dwattr DW$424, DW_AT_accessibility(DW_ACCESS_public)
    4717              DW$425  .dwtag  DW_TAG_member, DW_AT_type(*DW$T$11)
    4718                      .dwattr DW$425, DW_AT_name("TXFFIENA"), DW_AT_symbol_name("_TXFFIENA")
    4719                      .dwattr DW$425, DW_AT_bit_offset(0x0a), DW_AT_bit_size(0x01)
    4720                      .dwattr DW$425, DW_AT_data_member_location[DW_OP_plus_uconst 0x0]
    4721                      .dwattr DW$425, DW_AT_accessibility(DW_ACCESS_public)
    4722              DW$426  .dwtag  DW_TAG_member, DW_AT_type(*DW$T$11)
TMS320C2000 COFF Assembler PC v4.1.3 Thu Aug 18 12:16:22 2016

Tools Copyright (c) 1996-2006 Texas Instruments Incorporated
mmc_mcf.asm                                                          PAGE   94

    4723                      .dwattr DW$426, DW_AT_name("TXFFINTCLR"), DW_AT_symbol_name("_TXFFINTCLR")
    4724                      .dwattr DW$426, DW_AT_bit_offset(0x09), DW_AT_bit_size(0x01)
    4725                      .dwattr DW$426, DW_AT_data_member_location[DW_OP_plus_uconst 0x0]
    4726                      .dwattr DW$426, DW_AT_accessibility(DW_ACCESS_public)
    4727              DW$427  .dwtag  DW_TAG_member, DW_AT_type(*DW$T$11)
    4728                      .dwattr DW$427, DW_AT_name("TXFFINT"), DW_AT_symbol_name("_TXFFINT")
    4729                      .dwattr DW$427, DW_AT_bit_offset(0x08), DW_AT_bit_size(0x01)
    4730                      .dwattr DW$427, DW_AT_data_member_location[DW_OP_plus_uconst 0x0]
    4731                      .dwattr DW$427, DW_AT_accessibility(DW_ACCESS_public)
    4732              DW$428  .dwtag  DW_TAG_member, DW_AT_type(*DW$T$11)
    4733                      .dwattr DW$428, DW_AT_name("TXFFST"), DW_AT_symbol_name("_TXFFST")
    4734                      .dwattr DW$428, DW_AT_bit_offset(0x03), DW_AT_bit_size(0x05)
    4735                      .dwattr DW$428, DW_AT_data_member_location[DW_OP_plus_uconst 0x0]
    4736                      .dwattr DW$428, DW_AT_accessibility(DW_ACCESS_public)
    4737              DW$429  .dwtag  DW_TAG_member, DW_AT_type(*DW$T$11)
    4738                      .dwattr DW$429, DW_AT_name("TXFIFO"), DW_AT_symbol_name("_TXFIFO")
    4739                      .dwattr DW$429, DW_AT_bit_offset(0x02), DW_AT_bit_size(0x01)
    4740                      .dwattr DW$429, DW_AT_data_member_location[DW_OP_plus_uconst 0x0]
    4741                      .dwattr DW$429, DW_AT_accessibility(DW_ACCESS_public)
    4742              DW$430  .dwtag  DW_TAG_member, DW_AT_type(*DW$T$11)
    4743                      .dwattr DW$430, DW_AT_name("SPIFFENA"), DW_AT_symbol_name("_SPIFFENA")
    4744                      .dwattr DW$430, DW_AT_bit_offset(0x01), DW_AT_bit_size(0x01)
    4745                      .dwattr DW$430, DW_AT_data_member_location[DW_OP_plus_uconst 0x0]
    4746                      .dwattr DW$430, DW_AT_accessibility(DW_ACCESS_public)
    4747              DW$431  .dwtag  DW_TAG_member, DW_AT_type(*DW$T$11)
    4748                      .dwattr DW$431, DW_AT_name("SPIRST"), DW_AT_symbol_name("_SPIRST")
    4749                      .dwattr DW$431, DW_AT_bit_offset(0x00), DW_AT_bit_size(0x01)
    4750                      .dwattr DW$431, DW_AT_data_member_location[DW_OP_plus_uconst 0x0]
    4751                      .dwattr DW$431, DW_AT_accessibility(DW_ACCESS_public)
    4752                      .dwendtag DW$T$63
    4753              
    4754              
    4755              DW$T$65 .dwtag  DW_TAG_structure_type
    4756                      .dwattr DW$T$65, DW_AT_name("SPIFFRX_BITS")
    4757                      .dwattr DW$T$65, DW_AT_byte_size(0x01)
    4758              DW$432  .dwtag  DW_TAG_member, DW_AT_type(*DW$T$11)
    4759                      .dwattr DW$432, DW_AT_name("RXFFIL"), DW_AT_symbol_name("_RXFFIL")
    4760                      .dwattr DW$432, DW_AT_bit_offset(0x0b), DW_AT_bit_size(0x05)
    4761                      .dwattr DW$432, DW_AT_data_member_location[DW_OP_plus_uconst 0x0]
    4762                      .dwattr DW$432, DW_AT_accessibility(DW_ACCESS_public)
    4763              DW$433  .dwtag  DW_TAG_member, DW_AT_type(*DW$T$11)
    4764                      .dwattr DW$433, DW_AT_name("RXFFIENA"), DW_AT_symbol_name("_RXFFIENA")
    4765                      .dwattr DW$433, DW_AT_bit_offset(0x0a), DW_AT_bit_size(0x01)
    4766                      .dwattr DW$433, DW_AT_data_member_location[DW_OP_plus_uconst 0x0]
    4767                      .dwattr DW$433, DW_AT_accessibility(DW_ACCESS_public)
    4768              DW$434  .dwtag  DW_TAG_member, DW_AT_type(*DW$T$11)
    4769                      .dwattr DW$434, DW_AT_name("RXFFINTCLR"), DW_AT_symbol_name("_RXFFINTCLR")
    4770                      .dwattr DW$434, DW_AT_bit_offset(0x09), DW_AT_bit_size(0x01)
    4771                      .dwattr DW$434, DW_AT_data_member_location[DW_OP_plus_uconst 0x0]
    4772                      .dwattr DW$434, DW_AT_accessibility(DW_ACCESS_public)
    4773              DW$435  .dwtag  DW_TAG_member, DW_AT_type(*DW$T$11)
    4774                      .dwattr DW$435, DW_AT_name("RXFFINT"), DW_AT_symbol_name("_RXFFINT")
    4775                      .dwattr DW$435, DW_AT_bit_offset(0x08), DW_AT_bit_size(0x01)
    4776                      .dwattr DW$435, DW_AT_data_member_location[DW_OP_plus_uconst 0x0]
    4777                      .dwattr DW$435, DW_AT_accessibility(DW_ACCESS_public)
TMS320C2000 COFF Assembler PC v4.1.3 Thu Aug 18 12:16:22 2016

Tools Copyright (c) 1996-2006 Texas Instruments Incorporated
mmc_mcf.asm                                                          PAGE   95

    4778              DW$436  .dwtag  DW_TAG_member, DW_AT_type(*DW$T$11)
    4779                      .dwattr DW$436, DW_AT_name("RXFFST"), DW_AT_symbol_name("_RXFFST")
    4780                      .dwattr DW$436, DW_AT_bit_offset(0x03), DW_AT_bit_size(0x05)
    4781                      .dwattr DW$436, DW_AT_data_member_location[DW_OP_plus_uconst 0x0]
    4782                      .dwattr DW$436, DW_AT_accessibility(DW_ACCESS_public)
    4783              DW$437  .dwtag  DW_TAG_member, DW_AT_type(*DW$T$11)
    4784                      .dwattr DW$437, DW_AT_name("RXFIFORESET"), DW_AT_symbol_name("_RXFIFORESET")
    4785                      .dwattr DW$437, DW_AT_bit_offset(0x02), DW_AT_bit_size(0x01)
    4786                      .dwattr DW$437, DW_AT_data_member_location[DW_OP_plus_uconst 0x0]
    4787                      .dwattr DW$437, DW_AT_accessibility(DW_ACCESS_public)
    4788              DW$438  .dwtag  DW_TAG_member, DW_AT_type(*DW$T$11)
    4789                      .dwattr DW$438, DW_AT_name("RXFFOVFCLR"), DW_AT_symbol_name("_RXFFOVFCLR")
    4790                      .dwattr DW$438, DW_AT_bit_offset(0x01), DW_AT_bit_size(0x01)
    4791                      .dwattr DW$438, DW_AT_data_member_location[DW_OP_plus_uconst 0x0]
    4792                      .dwattr DW$438, DW_AT_accessibility(DW_ACCESS_public)
    4793              DW$439  .dwtag  DW_TAG_member, DW_AT_type(*DW$T$11)
    4794                      .dwattr DW$439, DW_AT_name("RXFFOVF"), DW_AT_symbol_name("_RXFFOVF")
    4795                      .dwattr DW$439, DW_AT_bit_offset(0x00), DW_AT_bit_size(0x01)
    4796                      .dwattr DW$439, DW_AT_data_member_location[DW_OP_plus_uconst 0x0]
    4797                      .dwattr DW$439, DW_AT_accessibility(DW_ACCESS_public)
    4798                      .dwendtag DW$T$65
    4799              
    4800              
    4801              DW$T$67 .dwtag  DW_TAG_structure_type
    4802                      .dwattr DW$T$67, DW_AT_name("SPIFFCT_BITS")
    4803                      .dwattr DW$T$67, DW_AT_byte_size(0x01)
    4804              DW$440  .dwtag  DW_TAG_member, DW_AT_type(*DW$T$11)
    4805                      .dwattr DW$440, DW_AT_name("TXDLY"), DW_AT_symbol_name("_TXDLY")
    4806                      .dwattr DW$440, DW_AT_bit_offset(0x08), DW_AT_bit_size(0x08)
    4807                      .dwattr DW$440, DW_AT_data_member_location[DW_OP_plus_uconst 0x0]
    4808                      .dwattr DW$440, DW_AT_accessibility(DW_ACCESS_public)
    4809              DW$441  .dwtag  DW_TAG_member, DW_AT_type(*DW$T$11)
    4810                      .dwattr DW$441, DW_AT_name("rsvd"), DW_AT_symbol_name("_rsvd")
    4811                      .dwattr DW$441, DW_AT_bit_offset(0x00), DW_AT_bit_size(0x08)
    4812                      .dwattr DW$441, DW_AT_data_member_location[DW_OP_plus_uconst 0x0]
    4813                      .dwattr DW$441, DW_AT_accessibility(DW_ACCESS_public)
    4814                      .dwendtag DW$T$67
    4815              
    4816              
    4817              DW$T$69 .dwtag  DW_TAG_structure_type
    4818                      .dwattr DW$T$69, DW_AT_name("SPIPRI_BITS")
    4819                      .dwattr DW$T$69, DW_AT_byte_size(0x01)
    4820              DW$442  .dwtag  DW_TAG_member, DW_AT_type(*DW$T$11)
    4821                      .dwattr DW$442, DW_AT_name("rsvd1"), DW_AT_symbol_name("_rsvd1")
    4822                      .dwattr DW$442, DW_AT_bit_offset(0x0c), DW_AT_bit_size(0x04)
    4823                      .dwattr DW$442, DW_AT_data_member_location[DW_OP_plus_uconst 0x0]
    4824                      .dwattr DW$442, DW_AT_accessibility(DW_ACCESS_public)
    4825              DW$443  .dwtag  DW_TAG_member, DW_AT_type(*DW$T$11)
    4826                      .dwattr DW$443, DW_AT_name("FREE"), DW_AT_symbol_name("_FREE")
    4827                      .dwattr DW$443, DW_AT_bit_offset(0x0b), DW_AT_bit_size(0x01)
    4828                      .dwattr DW$443, DW_AT_data_member_location[DW_OP_plus_uconst 0x0]
    4829                      .dwattr DW$443, DW_AT_accessibility(DW_ACCESS_public)
    4830              DW$444  .dwtag  DW_TAG_member, DW_AT_type(*DW$T$11)
    4831                      .dwattr DW$444, DW_AT_name("SOFT"), DW_AT_symbol_name("_SOFT")
    4832                      .dwattr DW$444, DW_AT_bit_offset(0x0a), DW_AT_bit_size(0x01)
TMS320C2000 COFF Assembler PC v4.1.3 Thu Aug 18 12:16:22 2016

Tools Copyright (c) 1996-2006 Texas Instruments Incorporated
mmc_mcf.asm                                                          PAGE   96

    4833                      .dwattr DW$444, DW_AT_data_member_location[DW_OP_plus_uconst 0x0]
    4834                      .dwattr DW$444, DW_AT_accessibility(DW_ACCESS_public)
    4835              DW$445  .dwtag  DW_TAG_member, DW_AT_type(*DW$T$11)
    4836                      .dwattr DW$445, DW_AT_name("PRIORITY"), DW_AT_symbol_name("_PRIORITY")
    4837                      .dwattr DW$445, DW_AT_bit_offset(0x09), DW_AT_bit_size(0x01)
    4838                      .dwattr DW$445, DW_AT_data_member_location[DW_OP_plus_uconst 0x0]
    4839                      .dwattr DW$445, DW_AT_accessibility(DW_ACCESS_public)
    4840              DW$446  .dwtag  DW_TAG_member, DW_AT_type(*DW$T$11)
    4841                      .dwattr DW$446, DW_AT_name("rsvd2"), DW_AT_symbol_name("_rsvd2")
    4842                      .dwattr DW$446, DW_AT_bit_offset(0x00), DW_AT_bit_size(0x09)
    4843                      .dwattr DW$446, DW_AT_data_member_location[DW_OP_plus_uconst 0x0]
    4844                      .dwattr DW$446, DW_AT_accessibility(DW_ACCESS_public)
    4845                      .dwendtag DW$T$69
    4846              
    4847              DW$447  .dwtag  DW_TAG_far_type
    4848                      .dwattr DW$447, DW_AT_type(*DW$T$6)
    4849              DW$T$76 .dwtag  DW_TAG_volatile_type
    4850                      .dwattr DW$T$76, DW_AT_type(*DW$447)
    4851              DW$T$21 .dwtag  DW_TAG_pointer_type, DW_AT_type(*DW$T$20)
    4852                      .dwattr DW$T$21, DW_AT_address_class(0x16)
    4853              DW$T$24 .dwtag  DW_TAG_pointer_type, DW_AT_type(*DW$T$23)
    4854                      .dwattr DW$T$24, DW_AT_address_class(0x16)
    4855              DW$T$31 .dwtag  DW_TAG_pointer_type, DW_AT_type(*DW$T$30)
    4856                      .dwattr DW$T$31, DW_AT_address_class(0x16)
    4857              DW$T$37 .dwtag  DW_TAG_pointer_type, DW_AT_type(*DW$T$36)
    4858                      .dwattr DW$T$37, DW_AT_address_class(0x16)
    4859              DW$T$34 .dwtag  DW_TAG_pointer_type, DW_AT_type(*DW$T$33)
    4860                      .dwattr DW$T$34, DW_AT_address_class(0x16)
    4861              
    4862              DW$T$40 .dwtag  DW_TAG_structure_type
    4863                      .dwattr DW$T$40, DW_AT_byte_size(0x01)
    4864              DW$448  .dwtag  DW_TAG_member, DW_AT_type(*DW$T$11)
    4865                      .dwattr DW$448, DW_AT_name("s12"), DW_AT_symbol_name("_s12")
    4866                      .dwattr DW$448, DW_AT_bit_offset(0x0f), DW_AT_bit_size(0x01)
    4867                      .dwattr DW$448, DW_AT_data_member_location[DW_OP_plus_uconst 0x0]
    4868                      .dwattr DW$448, DW_AT_accessibility(DW_ACCESS_public)
    4869              DW$449  .dwtag  DW_TAG_member, DW_AT_type(*DW$T$11)
    4870                      .dwattr DW$449, DW_AT_name("s13"), DW_AT_symbol_name("_s13")
    4871                      .dwattr DW$449, DW_AT_bit_offset(0x0e), DW_AT_bit_size(0x01)
    4872                      .dwattr DW$449, DW_AT_data_member_location[DW_OP_plus_uconst 0x0]
    4873                      .dwattr DW$449, DW_AT_accessibility(DW_ACCESS_public)
    4874              DW$450  .dwtag  DW_TAG_member, DW_AT_type(*DW$T$11)
    4875                      .dwattr DW$450, DW_AT_name("s14"), DW_AT_symbol_name("_s14")
    4876                      .dwattr DW$450, DW_AT_bit_offset(0x0d), DW_AT_bit_size(0x01)
    4877                      .dwattr DW$450, DW_AT_data_member_location[DW_OP_plus_uconst 0x0]
    4878                      .dwattr DW$450, DW_AT_accessibility(DW_ACCESS_public)
    4879              DW$451  .dwtag  DW_TAG_member, DW_AT_type(*DW$T$11)
    4880                      .dwattr DW$451, DW_AT_name("s15"), DW_AT_symbol_name("_s15")
    4881                      .dwattr DW$451, DW_AT_bit_offset(0x0c), DW_AT_bit_size(0x01)
    4882                      .dwattr DW$451, DW_AT_data_member_location[DW_OP_plus_uconst 0x0]
    4883                      .dwattr DW$451, DW_AT_accessibility(DW_ACCESS_public)
    4884              DW$452  .dwtag  DW_TAG_member, DW_AT_type(*DW$T$11)
    4885                      .dwattr DW$452, DW_AT_name("s16"), DW_AT_symbol_name("_s16")
    4886                      .dwattr DW$452, DW_AT_bit_offset(0x0b), DW_AT_bit_size(0x01)
    4887                      .dwattr DW$452, DW_AT_data_member_location[DW_OP_plus_uconst 0x0]
TMS320C2000 COFF Assembler PC v4.1.3 Thu Aug 18 12:16:22 2016

Tools Copyright (c) 1996-2006 Texas Instruments Incorporated
mmc_mcf.asm                                                          PAGE   97

    4888                      .dwattr DW$452, DW_AT_accessibility(DW_ACCESS_public)
    4889              DW$453  .dwtag  DW_TAG_member, DW_AT_type(*DW$T$11)
    4890                      .dwattr DW$453, DW_AT_name("s17"), DW_AT_symbol_name("_s17")
    4891                      .dwattr DW$453, DW_AT_bit_offset(0x0a), DW_AT_bit_size(0x01)
    4892                      .dwattr DW$453, DW_AT_data_member_location[DW_OP_plus_uconst 0x0]
    4893                      .dwattr DW$453, DW_AT_accessibility(DW_ACCESS_public)
    4894              DW$454  .dwtag  DW_TAG_member, DW_AT_type(*DW$T$11)
    4895                      .dwattr DW$454, DW_AT_name("s18"), DW_AT_symbol_name("_s18")
    4896                      .dwattr DW$454, DW_AT_bit_offset(0x09), DW_AT_bit_size(0x01)
    4897                      .dwattr DW$454, DW_AT_data_member_location[DW_OP_plus_uconst 0x0]
    4898                      .dwattr DW$454, DW_AT_accessibility(DW_ACCESS_public)
    4899              DW$455  .dwtag  DW_TAG_member, DW_AT_type(*DW$T$11)
    4900                      .dwattr DW$455, DW_AT_name("s19"), DW_AT_symbol_name("_s19")
    4901                      .dwattr DW$455, DW_AT_bit_offset(0x08), DW_AT_bit_size(0x01)
    4902                      .dwattr DW$455, DW_AT_data_member_location[DW_OP_plus_uconst 0x0]
    4903                      .dwattr DW$455, DW_AT_accessibility(DW_ACCESS_public)
    4904              DW$456  .dwtag  DW_TAG_member, DW_AT_type(*DW$T$11)
    4905                      .dwattr DW$456, DW_AT_name("disp485txen"), DW_AT_symbol_name("_disp485txen")
    4906                      .dwattr DW$456, DW_AT_bit_offset(0x07), DW_AT_bit_size(0x01)
    4907                      .dwattr DW$456, DW_AT_data_member_location[DW_OP_plus_uconst 0x0]
    4908                      .dwattr DW$456, DW_AT_accessibility(DW_ACCESS_public)
    4909              DW$457  .dwtag  DW_TAG_member, DW_AT_type(*DW$T$11)
    4910                      .dwattr DW$457, DW_AT_name("disp485rxen"), DW_AT_symbol_name("_disp485rxen")
    4911                      .dwattr DW$457, DW_AT_bit_offset(0x06), DW_AT_bit_size(0x01)
    4912                      .dwattr DW$457, DW_AT_data_member_location[DW_OP_plus_uconst 0x0]
    4913                      .dwattr DW$457, DW_AT_accessibility(DW_ACCESS_public)
    4914              DW$458  .dwtag  DW_TAG_member, DW_AT_type(*DW$T$11)
    4915                      .dwattr DW$458, DW_AT_name("gpio1"), DW_AT_symbol_name("_gpio1")
    4916                      .dwattr DW$458, DW_AT_bit_offset(0x05), DW_AT_bit_size(0x01)
    4917                      .dwattr DW$458, DW_AT_data_member_location[DW_OP_plus_uconst 0x0]
    4918                      .dwattr DW$458, DW_AT_accessibility(DW_ACCESS_public)
    4919              DW$459  .dwtag  DW_TAG_member, DW_AT_type(*DW$T$11)
    4920                      .dwattr DW$459, DW_AT_name("gpio2"), DW_AT_symbol_name("_gpio2")
    4921                      .dwattr DW$459, DW_AT_bit_offset(0x04), DW_AT_bit_size(0x01)
    4922                      .dwattr DW$459, DW_AT_data_member_location[DW_OP_plus_uconst 0x0]
    4923                      .dwattr DW$459, DW_AT_accessibility(DW_ACCESS_public)
    4924              DW$460  .dwtag  DW_TAG_member, DW_AT_type(*DW$T$11)
    4925                      .dwattr DW$460, DW_AT_name("gpio3"), DW_AT_symbol_name("_gpio3")
    4926                      .dwattr DW$460, DW_AT_bit_offset(0x03), DW_AT_bit_size(0x01)
    4927                      .dwattr DW$460, DW_AT_data_member_location[DW_OP_plus_uconst 0x0]
    4928                      .dwattr DW$460, DW_AT_accessibility(DW_ACCESS_public)
    4929              DW$461  .dwtag  DW_TAG_member, DW_AT_type(*DW$T$11)
    4930                      .dwattr DW$461, DW_AT_name("gpio4"), DW_AT_symbol_name("_gpio4")
    4931                      .dwattr DW$461, DW_AT_bit_offset(0x02), DW_AT_bit_size(0x01)
    4932                      .dwattr DW$461, DW_AT_data_member_location[DW_OP_plus_uconst 0x0]
    4933                      .dwattr DW$461, DW_AT_accessibility(DW_ACCESS_public)
    4934              DW$462  .dwtag  DW_TAG_member, DW_AT_type(*DW$T$11)
    4935                      .dwattr DW$462, DW_AT_name("rtccs"), DW_AT_symbol_name("_rtccs")
    4936                      .dwattr DW$462, DW_AT_bit_offset(0x01), DW_AT_bit_size(0x01)
    4937                      .dwattr DW$462, DW_AT_data_member_location[DW_OP_plus_uconst 0x0]
    4938                      .dwattr DW$462, DW_AT_accessibility(DW_ACCESS_public)
    4939              DW$463  .dwtag  DW_TAG_member, DW_AT_type(*DW$T$11)
    4940                      .dwattr DW$463, DW_AT_name("op3"), DW_AT_symbol_name("_op3")
    4941                      .dwattr DW$463, DW_AT_bit_offset(0x00), DW_AT_bit_size(0x01)
    4942                      .dwattr DW$463, DW_AT_data_member_location[DW_OP_plus_uconst 0x0]
TMS320C2000 COFF Assembler PC v4.1.3 Thu Aug 18 12:16:22 2016

Tools Copyright (c) 1996-2006 Texas Instruments Incorporated
mmc_mcf.asm                                                          PAGE   98

    4943                      .dwattr DW$463, DW_AT_accessibility(DW_ACCESS_public)
    4944                      .dwendtag DW$T$40
    4945              
    4946              
    4947              DW$T$43 .dwtag  DW_TAG_structure_type
    4948                      .dwattr DW$T$43, DW_AT_byte_size(0x01)
    4949              DW$464  .dwtag  DW_TAG_member, DW_AT_type(*DW$T$11)
    4950                      .dwattr DW$464, DW_AT_name("spimo"), DW_AT_symbol_name("_spimo")
    4951                      .dwattr DW$464, DW_AT_bit_offset(0x0f), DW_AT_bit_size(0x01)
    4952                      .dwattr DW$464, DW_AT_data_member_location[DW_OP_plus_uconst 0x0]
    4953                      .dwattr DW$464, DW_AT_accessibility(DW_ACCESS_public)
    4954              DW$465  .dwtag  DW_TAG_member, DW_AT_type(*DW$T$11)
    4955                      .dwattr DW$465, DW_AT_name("spimi"), DW_AT_symbol_name("_spimi")
    4956                      .dwattr DW$465, DW_AT_bit_offset(0x0e), DW_AT_bit_size(0x01)
    4957                      .dwattr DW$465, DW_AT_data_member_location[DW_OP_plus_uconst 0x0]
    4958                      .dwattr DW$465, DW_AT_accessibility(DW_ACCESS_public)
    4959              DW$466  .dwtag  DW_TAG_member, DW_AT_type(*DW$T$11)
    4960                      .dwattr DW$466, DW_AT_name("spiclk"), DW_AT_symbol_name("_spiclk")
    4961                      .dwattr DW$466, DW_AT_bit_offset(0x0d), DW_AT_bit_size(0x01)
    4962                      .dwattr DW$466, DW_AT_data_member_location[DW_OP_plus_uconst 0x0]
    4963                      .dwattr DW$466, DW_AT_accessibility(DW_ACCESS_public)
    4964              DW$467  .dwtag  DW_TAG_member, DW_AT_type(*DW$T$11)
    4965                      .dwattr DW$467, DW_AT_name("spiste"), DW_AT_symbol_name("_spiste")
    4966                      .dwattr DW$467, DW_AT_bit_offset(0x0c), DW_AT_bit_size(0x01)
    4967                      .dwattr DW$467, DW_AT_data_member_location[DW_OP_plus_uconst 0x0]
    4968                      .dwattr DW$467, DW_AT_accessibility(DW_ACCESS_public)
    4969              DW$468  .dwtag  DW_TAG_member, DW_AT_type(*DW$T$11)
    4970                      .dwattr DW$468, DW_AT_name("scitxa"), DW_AT_symbol_name("_scitxa")
    4971                      .dwattr DW$468, DW_AT_bit_offset(0x0b), DW_AT_bit_size(0x01)
    4972                      .dwattr DW$468, DW_AT_data_member_location[DW_OP_plus_uconst 0x0]
    4973                      .dwattr DW$468, DW_AT_accessibility(DW_ACCESS_public)
    4974              DW$469  .dwtag  DW_TAG_member, DW_AT_type(*DW$T$11)
    4975                      .dwattr DW$469, DW_AT_name("scirxa"), DW_AT_symbol_name("_scirxa")
    4976                      .dwattr DW$469, DW_AT_bit_offset(0x0a), DW_AT_bit_size(0x01)
    4977                      .dwattr DW$469, DW_AT_data_member_location[DW_OP_plus_uconst 0x0]
    4978                      .dwattr DW$469, DW_AT_accessibility(DW_ACCESS_public)
    4979              DW$470  .dwtag  DW_TAG_member, DW_AT_type(*DW$T$11)
    4980                      .dwattr DW$470, DW_AT_name("op1"), DW_AT_symbol_name("_op1")
    4981                      .dwattr DW$470, DW_AT_bit_offset(0x09), DW_AT_bit_size(0x01)
    4982                      .dwattr DW$470, DW_AT_data_member_location[DW_OP_plus_uconst 0x0]
    4983                      .dwattr DW$470, DW_AT_accessibility(DW_ACCESS_public)
    4984              DW$471  .dwtag  DW_TAG_member, DW_AT_type(*DW$T$11)
    4985                      .dwattr DW$471, DW_AT_name("op2"), DW_AT_symbol_name("_op2")
    4986                      .dwattr DW$471, DW_AT_bit_offset(0x08), DW_AT_bit_size(0x01)
    4987                      .dwattr DW$471, DW_AT_data_member_location[DW_OP_plus_uconst 0x0]
    4988                      .dwattr DW$471, DW_AT_accessibility(DW_ACCESS_public)
    4989              DW$472  .dwtag  DW_TAG_member, DW_AT_type(*DW$T$11)
    4990                      .dwattr DW$472, DW_AT_name("spiselect1"), DW_AT_symbol_name("_spiselect1")
    4991                      .dwattr DW$472, DW_AT_bit_offset(0x07), DW_AT_bit_size(0x01)
    4992                      .dwattr DW$472, DW_AT_data_member_location[DW_OP_plus_uconst 0x0]
    4993                      .dwattr DW$472, DW_AT_accessibility(DW_ACCESS_public)
    4994              DW$473  .dwtag  DW_TAG_member, DW_AT_type(*DW$T$11)
    4995                      .dwattr DW$473, DW_AT_name("spiselect2"), DW_AT_symbol_name("_spiselect2")
    4996                      .dwattr DW$473, DW_AT_bit_offset(0x06), DW_AT_bit_size(0x01)
    4997                      .dwattr DW$473, DW_AT_data_member_location[DW_OP_plus_uconst 0x0]
TMS320C2000 COFF Assembler PC v4.1.3 Thu Aug 18 12:16:22 2016

Tools Copyright (c) 1996-2006 Texas Instruments Incorporated
mmc_mcf.asm                                                          PAGE   99

    4998                      .dwattr DW$473, DW_AT_accessibility(DW_ACCESS_public)
    4999              DW$474  .dwtag  DW_TAG_member, DW_AT_type(*DW$T$11)
    5000                      .dwattr DW$474, DW_AT_name("spiselect3"), DW_AT_symbol_name("_spiselect3")
    5001                      .dwattr DW$474, DW_AT_bit_offset(0x05), DW_AT_bit_size(0x01)
    5002                      .dwattr DW$474, DW_AT_data_member_location[DW_OP_plus_uconst 0x0]
    5003                      .dwattr DW$474, DW_AT_accessibility(DW_ACCESS_public)
    5004              DW$475  .dwtag  DW_TAG_member, DW_AT_type(*DW$T$11)
    5005                      .dwattr DW$475, DW_AT_name("pc485rxen"), DW_AT_symbol_name("_pc485rxen")
    5006                      .dwattr DW$475, DW_AT_bit_offset(0x04), DW_AT_bit_size(0x01)
    5007                      .dwattr DW$475, DW_AT_data_member_location[DW_OP_plus_uconst 0x0]
    5008                      .dwattr DW$475, DW_AT_accessibility(DW_ACCESS_public)
    5009              DW$476  .dwtag  DW_TAG_member, DW_AT_type(*DW$T$11)
    5010                      .dwattr DW$476, DW_AT_name("pc485txen"), DW_AT_symbol_name("_pc485txen")
    5011                      .dwattr DW$476, DW_AT_bit_offset(0x03), DW_AT_bit_size(0x01)
    5012                      .dwattr DW$476, DW_AT_data_member_location[DW_OP_plus_uconst 0x0]
    5013                      .dwattr DW$476, DW_AT_accessibility(DW_ACCESS_public)
    5014              DW$477  .dwtag  DW_TAG_member, DW_AT_type(*DW$T$11)
    5015                      .dwattr DW$477, DW_AT_name("modeselect"), DW_AT_symbol_name("_modeselect")
    5016                      .dwattr DW$477, DW_AT_bit_offset(0x02), DW_AT_bit_size(0x01)
    5017                      .dwattr DW$477, DW_AT_data_member_location[DW_OP_plus_uconst 0x0]
    5018                      .dwattr DW$477, DW_AT_accessibility(DW_ACCESS_public)
    5019              DW$478  .dwtag  DW_TAG_member, DW_AT_type(*DW$T$11)
    5020                      .dwattr DW$478, DW_AT_name("xf_xplldis"), DW_AT_symbol_name("_xf_xplldis")
    5021                      .dwattr DW$478, DW_AT_bit_offset(0x01), DW_AT_bit_size(0x01)
    5022                      .dwattr DW$478, DW_AT_data_member_location[DW_OP_plus_uconst 0x0]
    5023                      .dwattr DW$478, DW_AT_accessibility(DW_ACCESS_public)
    5024              DW$479  .dwtag  DW_TAG_member, DW_AT_type(*DW$T$11)
    5025                      .dwattr DW$479, DW_AT_name("notused3"), DW_AT_symbol_name("_notused3")
    5026                      .dwattr DW$479, DW_AT_bit_offset(0x00), DW_AT_bit_size(0x01)
    5027                      .dwattr DW$479, DW_AT_data_member_location[DW_OP_plus_uconst 0x0]
    5028                      .dwattr DW$479, DW_AT_accessibility(DW_ACCESS_public)
    5029                      .dwendtag DW$T$43
    5030              
    5031              
    5032                      .dwattr DW$25, DW_AT_external(0x01)
    5033                      .dwattr DW$25, DW_AT_type(*DW$T$10)
    5034                      .dwattr DW$28, DW_AT_external(0x01)
    5035                      .dwattr DW$28, DW_AT_type(*DW$T$13)
    5036                      .dwattr DW$164, DW_AT_type(*DW$T$10)
    5037                      .dwattr DW$161, DW_AT_type(*DW$T$10)
    5038                      .dwattr DW$159, DW_AT_type(*DW$T$12)
    5039                      .dwattr DW$166, DW_AT_external(0x01)
    5040                      .dwattr DW$166, DW_AT_type(*DW$T$10)
    5041                      .dwattr DW$132, DW_AT_external(0x01)
    5042                      .dwattr DW$132, DW_AT_type(*DW$T$10)
    5043                      .dwattr DW$128, DW_AT_external(0x01)
    5044                      .dwattr DW$128, DW_AT_type(*DW$T$10)
    5045                      .dwattr DW$141, DW_AT_external(0x01)
    5046                      .dwattr DW$141, DW_AT_type(*DW$T$10)
    5047                      .dwattr DW$137, DW_AT_external(0x01)
    5048                      .dwattr DW$137, DW_AT_type(*DW$T$10)
    5049                      .dwattr DW$146, DW_AT_type(*DW$T$10)
    5050                      .dwattr DW$67, DW_AT_type(*DW$T$12)
    5051                      .dwattr DW$49, DW_AT_type(*DW$T$12)
    5052                      .dwattr DW$86, DW_AT_type(*DW$T$10)
TMS320C2000 COFF Assembler PC v4.1.3 Thu Aug 18 12:16:22 2016

Tools Copyright (c) 1996-2006 Texas Instruments Incorporated
mmc_mcf.asm                                                          PAGE  100

    5053                      .dwattr DW$148, DW_AT_type(*DW$T$10)
    5054                      .dwattr DW$106, DW_AT_type(*DW$T$10)
    5055                      .dwattr DW$63, DW_AT_type(*DW$T$10)
    5056                      .dwattr DW$59, DW_AT_type(*DW$T$10)
    5057                      .dwattr DW$47, DW_AT_external(0x01)
    5058                      .dwattr DW$42, DW_AT_external(0x01)
    5059                      .dwattr DW$42, DW_AT_type(*DW$T$12)
    5060                      .dwattr DW$43, DW_AT_external(0x01)
    5061                      .dwattr DW$43, DW_AT_type(*DW$T$13)
    5062                      .dwattr DW$36, DW_AT_external(0x01)
    5063                      .dwattr DW$40, DW_AT_external(0x01)
    5064                      .dwattr DW$38, DW_AT_external(0x01)
    5065                      .dwattr DW$CU, DW_AT_language(DW_LANG_C)
    5066              
    5067              ;***************************************************************
    5068              ;* DWARF REGISTER MAP                                          *
    5069              ;***************************************************************
    5070              
    5071              DW$480  .dwtag  DW_TAG_assign_register, DW_AT_name("AL")
    5072                      .dwattr DW$480, DW_AT_location[DW_OP_reg0]
    5073              DW$481  .dwtag  DW_TAG_assign_register, DW_AT_name("AH")
    5074                      .dwattr DW$481, DW_AT_location[DW_OP_reg1]
    5075              DW$482  .dwtag  DW_TAG_assign_register, DW_AT_name("PL")
    5076                      .dwattr DW$482, DW_AT_location[DW_OP_reg2]
    5077              DW$483  .dwtag  DW_TAG_assign_register, DW_AT_name("PH")
    5078                      .dwattr DW$483, DW_AT_location[DW_OP_reg3]
    5079              DW$484  .dwtag  DW_TAG_assign_register, DW_AT_name("AR0")
    5080                      .dwattr DW$484, DW_AT_location[DW_OP_reg4]
    5081              DW$485  .dwtag  DW_TAG_assign_register, DW_AT_name("XAR0")
    5082                      .dwattr DW$485, DW_AT_location[DW_OP_reg5]
    5083              DW$486  .dwtag  DW_TAG_assign_register, DW_AT_name("AR1")
    5084                      .dwattr DW$486, DW_AT_location[DW_OP_reg6]
    5085              DW$487  .dwtag  DW_TAG_assign_register, DW_AT_name("XAR1")
    5086                      .dwattr DW$487, DW_AT_location[DW_OP_reg7]
    5087              DW$488  .dwtag  DW_TAG_assign_register, DW_AT_name("AR2")
    5088                      .dwattr DW$488, DW_AT_location[DW_OP_reg8]
    5089              DW$489  .dwtag  DW_TAG_assign_register, DW_AT_name("XAR2")
    5090                      .dwattr DW$489, DW_AT_location[DW_OP_reg9]
    5091              DW$490  .dwtag  DW_TAG_assign_register, DW_AT_name("AR3")
    5092                      .dwattr DW$490, DW_AT_location[DW_OP_reg10]
    5093              DW$491  .dwtag  DW_TAG_assign_register, DW_AT_name("XAR3")
    5094                      .dwattr DW$491, DW_AT_location[DW_OP_reg11]
    5095              DW$492  .dwtag  DW_TAG_assign_register, DW_AT_name("AR4")
    5096                      .dwattr DW$492, DW_AT_location[DW_OP_reg12]
    5097              DW$493  .dwtag  DW_TAG_assign_register, DW_AT_name("XAR4")
    5098                      .dwattr DW$493, DW_AT_location[DW_OP_reg13]
    5099              DW$494  .dwtag  DW_TAG_assign_register, DW_AT_name("AR5")
    5100                      .dwattr DW$494, DW_AT_location[DW_OP_reg14]
    5101              DW$495  .dwtag  DW_TAG_assign_register, DW_AT_name("XAR5")
    5102                      .dwattr DW$495, DW_AT_location[DW_OP_reg15]
    5103              DW$496  .dwtag  DW_TAG_assign_register, DW_AT_name("AR6")
    5104                      .dwattr DW$496, DW_AT_location[DW_OP_reg16]
    5105              DW$497  .dwtag  DW_TAG_assign_register, DW_AT_name("XAR6")
    5106                      .dwattr DW$497, DW_AT_location[DW_OP_reg17]
    5107              DW$498  .dwtag  DW_TAG_assign_register, DW_AT_name("AR7")
TMS320C2000 COFF Assembler PC v4.1.3 Thu Aug 18 12:16:22 2016

Tools Copyright (c) 1996-2006 Texas Instruments Incorporated
mmc_mcf.asm                                                          PAGE  101

    5108                      .dwattr DW$498, DW_AT_location[DW_OP_reg18]
    5109              DW$499  .dwtag  DW_TAG_assign_register, DW_AT_name("XAR7")
    5110                      .dwattr DW$499, DW_AT_location[DW_OP_reg19]
    5111              DW$500  .dwtag  DW_TAG_assign_register, DW_AT_name("SP")
    5112                      .dwattr DW$500, DW_AT_location[DW_OP_reg20]
    5113              DW$501  .dwtag  DW_TAG_assign_register, DW_AT_name("XT")
    5114                      .dwattr DW$501, DW_AT_location[DW_OP_reg21]
    5115              DW$502  .dwtag  DW_TAG_assign_register, DW_AT_name("T")
    5116                      .dwattr DW$502, DW_AT_location[DW_OP_reg22]
    5117              DW$503  .dwtag  DW_TAG_assign_register, DW_AT_name("ST0")
    5118                      .dwattr DW$503, DW_AT_location[DW_OP_reg23]
    5119              DW$504  .dwtag  DW_TAG_assign_register, DW_AT_name("ST1")
    5120                      .dwattr DW$504, DW_AT_location[DW_OP_reg24]
    5121              DW$505  .dwtag  DW_TAG_assign_register, DW_AT_name("PC")
    5122                      .dwattr DW$505, DW_AT_location[DW_OP_reg25]
    5123              DW$506  .dwtag  DW_TAG_assign_register, DW_AT_name("RPC")
    5124                      .dwattr DW$506, DW_AT_location[DW_OP_reg26]
    5125              DW$507  .dwtag  DW_TAG_assign_register, DW_AT_name("FP")
    5126                      .dwattr DW$507, DW_AT_location[DW_OP_reg27]
    5127              DW$508  .dwtag  DW_TAG_assign_register, DW_AT_name("DP")
    5128                      .dwattr DW$508, DW_AT_location[DW_OP_reg28]
    5129              DW$509  .dwtag  DW_TAG_assign_register, DW_AT_name("SXM")
    5130                      .dwattr DW$509, DW_AT_location[DW_OP_reg29]
    5131              DW$510  .dwtag  DW_TAG_assign_register, DW_AT_name("PM")
    5132                      .dwattr DW$510, DW_AT_location[DW_OP_reg30]
    5133              DW$511  .dwtag  DW_TAG_assign_register, DW_AT_name("OVM")
    5134                      .dwattr DW$511, DW_AT_location[DW_OP_reg31]
    5135              DW$512  .dwtag  DW_TAG_assign_register, DW_AT_name("PAGE0")
    5136                      .dwattr DW$512, DW_AT_location[DW_OP_regx 0x20]
    5137              DW$513  .dwtag  DW_TAG_assign_register, DW_AT_name("AMODE")
    5138                      .dwattr DW$513, DW_AT_location[DW_OP_regx 0x21]
    5139              DW$514  .dwtag  DW_TAG_assign_register, DW_AT_name("IFR")
    5140                      .dwattr DW$514, DW_AT_location[DW_OP_regx 0x22]
    5141              DW$515  .dwtag  DW_TAG_assign_register, DW_AT_name("IER")
    5142                      .dwattr DW$515, DW_AT_location[DW_OP_regx 0x23]
    5143              DW$516  .dwtag  DW_TAG_assign_register, DW_AT_name("IER")
    5144                      .dwattr DW$516, DW_AT_location[DW_OP_regx 0x24]
    5145              DW$517  .dwtag  DW_TAG_assign_register, DW_AT_name("PSEUDO")
    5146                      .dwattr DW$517, DW_AT_location[DW_OP_regx 0x25]
    5147              DW$518  .dwtag  DW_TAG_assign_register, DW_AT_name("PSEUDOH")
    5148                      .dwattr DW$518, DW_AT_location[DW_OP_regx 0x26]
    5149              DW$519  .dwtag  DW_TAG_assign_register, DW_AT_name("VOL")
    5150                      .dwattr DW$519, DW_AT_location[DW_OP_regx 0x27]
    5151              DW$520  .dwtag  DW_TAG_assign_register, DW_AT_name("CIE_RETA")
    5152                      .dwattr DW$520, DW_AT_location[DW_OP_regx 0x28]
    5153                      .dwendtag DW$CU
    5154              

No Assembly Errors, No Assembly Warnings
