TMS320C2000 COFF Assembler PC v4.1.3 Thu Aug 18 12:16:25 2016

Tools Copyright (c) 1996-2006 Texas Instruments Incorporated
PCModBus.asm                                                         PAGE    1

       1              ;***************************************************************
       2              ;* TMS320C2000 C/C++ Codegen                         PC v4.1.3 *
       3              ;* Date/Time created: Thu Aug 18 12:16:24 2016                 *
       4              ;***************************************************************
       5                      .compiler_opts --mem_model:code=flat --mem_model:data=large --quiet --silicon_version=28 
       6        0002  FP      .set    XAR2
       7              
       8              DW$CU   .dwtag  DW_TAG_compile_unit
       9                      .dwattr DW$CU, DW_AT_name("PCModBus.c")
      10                      .dwattr DW$CU, DW_AT_producer("TMS320C2000 C/C++ Codegen PC v4.1.3 Copyright (c) 1996-2006 Texas Inst
      11                      .dwattr DW$CU, DW_AT_stmt_list(0x00)
      12                      .dwattr DW$CU, DW_AT_TI_VERSION(0x01)
      13              
      14              DW$1    .dwtag  DW_TAG_subprogram, DW_AT_name("sprintf"), DW_AT_symbol_name("_sprintf")
      15                      .dwattr DW$1, DW_AT_type(*DW$T$10)
      16                      .dwattr DW$1, DW_AT_declaration(0x01)
      17                      .dwattr DW$1, DW_AT_external(0x01)
      18              DW$2    .dwtag  DW_TAG_formal_parameter, DW_AT_type(*DW$T$119)
      19              DW$3    .dwtag  DW_TAG_formal_parameter, DW_AT_type(*DW$T$146)
      20              DW$4    .dwtag  DW_TAG_unspecified_parameters
      21                      .dwendtag DW$1
      22              
      23              
      24              DW$5    .dwtag  DW_TAG_subprogram, DW_AT_name("memset"), DW_AT_symbol_name("_memset")
      25                      .dwattr DW$5, DW_AT_type(*DW$T$3)
      26                      .dwattr DW$5, DW_AT_declaration(0x01)
      27                      .dwattr DW$5, DW_AT_external(0x01)
      28              DW$6    .dwtag  DW_TAG_formal_parameter, DW_AT_type(*DW$T$3)
      29              DW$7    .dwtag  DW_TAG_formal_parameter, DW_AT_type(*DW$T$10)
      30              DW$8    .dwtag  DW_TAG_formal_parameter, DW_AT_type(*DW$T$115)
      31                      .dwendtag DW$5
      32              
      33              
      34              DW$9    .dwtag  DW_TAG_subprogram, DW_AT_name("DebugStringOut"), DW_AT_symbol_name("_DebugStringOut")
      35                      .dwattr DW$9, DW_AT_declaration(0x01)
      36                      .dwattr DW$9, DW_AT_external(0x01)
      37              DW$10   .dwtag  DW_TAG_formal_parameter, DW_AT_type(*DW$T$119)
      38                      .dwendtag DW$9
      39              
      40              
      41              DW$11   .dwtag  DW_TAG_subprogram, DW_AT_name("LoadSendBufferB"), DW_AT_symbol_name("_LoadSendBufferB")
      42                      .dwattr DW$11, DW_AT_declaration(0x01)
      43                      .dwattr DW$11, DW_AT_external(0x01)
      44              DW$12   .dwtag  DW_TAG_formal_parameter, DW_AT_type(*DW$T$122)
      45              DW$13   .dwtag  DW_TAG_formal_parameter, DW_AT_type(*DW$T$11)
      46                      .dwendtag DW$11
      47              
      48              
      49              DW$14   .dwtag  DW_TAG_subprogram, DW_AT_name("ReadCharfromUartB"), DW_AT_symbol_name("_ReadCharfromUartB")
      50                      .dwattr DW$14, DW_AT_type(*DW$T$96)
      51                      .dwattr DW$14, DW_AT_declaration(0x01)
      52                      .dwattr DW$14, DW_AT_external(0x01)
      53              
      54              DW$15   .dwtag  DW_TAG_subprogram, DW_AT_name("SetupEventReadBack"), DW_AT_symbol_name("_SetupEventReadBack")
      55                      .dwattr DW$15, DW_AT_declaration(0x01)
TMS320C2000 COFF Assembler PC v4.1.3 Thu Aug 18 12:16:25 2016

Tools Copyright (c) 1996-2006 Texas Instruments Incorporated
PCModBus.asm                                                         PAGE    2

      56                      .dwattr DW$15, DW_AT_external(0x01)
      57              DW$16   .dwtag  DW_TAG_formal_parameter, DW_AT_type(*DW$T$11)
      58                      .dwendtag DW$15
      59              
      60              
      61              DW$17   .dwtag  DW_TAG_subprogram, DW_AT_name("ReadEvent"), DW_AT_symbol_name("_ReadEvent")
      62                      .dwattr DW$17, DW_AT_type(*DW$T$11)
      63                      .dwattr DW$17, DW_AT_declaration(0x01)
      64                      .dwattr DW$17, DW_AT_external(0x01)
      65              DW$18   .dwtag  DW_TAG_formal_parameter, DW_AT_type(*DW$T$11)
      66                      .dwendtag DW$17
      67              
      68              
      69              DW$19   .dwtag  DW_TAG_subprogram, DW_AT_name("MSGQueueNumfromPC"), DW_AT_symbol_name("_MSGQueueNumfromPC")
      70                      .dwattr DW$19, DW_AT_declaration(0x01)
      71                      .dwattr DW$19, DW_AT_external(0x01)
      72              DW$20   .dwtag  DW_TAG_formal_parameter, DW_AT_type(*DW$T$11)
      73                      .dwendtag DW$19
      74              
      75              
      76              DW$21   .dwtag  DW_TAG_subprogram, DW_AT_name("ClearAlarmListandEventLog"), DW_AT_symbol_name("_ClearAlarmLis
      77                      .dwattr DW$21, DW_AT_declaration(0x01)
      78                      .dwattr DW$21, DW_AT_external(0x01)
      79              
      80              DW$22   .dwtag  DW_TAG_subprogram, DW_AT_name("ReadEventLogID"), DW_AT_symbol_name("_ReadEventLogID")
      81                      .dwattr DW$22, DW_AT_type(*DW$T$11)
      82                      .dwattr DW$22, DW_AT_declaration(0x01)
      83                      .dwattr DW$22, DW_AT_external(0x01)
      84              
      85              DW$23   .dwtag  DW_TAG_subprogram, DW_AT_name("ReadMSGQueueNum"), DW_AT_symbol_name("_ReadMSGQueueNum")
      86                      .dwattr DW$23, DW_AT_type(*DW$T$11)
      87                      .dwattr DW$23, DW_AT_declaration(0x01)
      88                      .dwattr DW$23, DW_AT_external(0x01)
      89              
      90              DW$24   .dwtag  DW_TAG_subprogram, DW_AT_name("ReadLastEventID"), DW_AT_symbol_name("_ReadLastEventID")
      91                      .dwattr DW$24, DW_AT_type(*DW$T$11)
      92                      .dwattr DW$24, DW_AT_declaration(0x01)
      93                      .dwattr DW$24, DW_AT_external(0x01)
      94              
      95              DW$25   .dwtag  DW_TAG_subprogram, DW_AT_name("GetSlaveVersion"), DW_AT_symbol_name("_GetSlaveVersion")
      96                      .dwattr DW$25, DW_AT_type(*DW$T$11)
      97                      .dwattr DW$25, DW_AT_declaration(0x01)
      98                      .dwattr DW$25, DW_AT_external(0x01)
      99              
     100              DW$26   .dwtag  DW_TAG_subprogram, DW_AT_name("ClearMANTable"), DW_AT_symbol_name("_ClearMANTable")
     101                      .dwattr DW$26, DW_AT_declaration(0x01)
     102                      .dwattr DW$26, DW_AT_external(0x01)
     103              DW$27   .dwtag  DW_TAG_formal_parameter, DW_AT_type(*DW$T$10)
     104                      .dwendtag DW$26
     105              
     106              
     107              DW$28   .dwtag  DW_TAG_subprogram, DW_AT_name("PreWarningInit"), DW_AT_symbol_name("_PreWarningInit")
     108                      .dwattr DW$28, DW_AT_declaration(0x01)
     109                      .dwattr DW$28, DW_AT_external(0x01)
     110              
TMS320C2000 COFF Assembler PC v4.1.3 Thu Aug 18 12:16:25 2016

Tools Copyright (c) 1996-2006 Texas Instruments Incorporated
PCModBus.asm                                                         PAGE    3

     111              DW$29   .dwtag  DW_TAG_subprogram, DW_AT_name("PreWarnLevelReset"), DW_AT_symbol_name("_PreWarnLevelReset")
     112                      .dwattr DW$29, DW_AT_declaration(0x01)
     113                      .dwattr DW$29, DW_AT_external(0x01)
     114              
     115              DW$30   .dwtag  DW_TAG_subprogram, DW_AT_name("EnableNoiseFilter"), DW_AT_symbol_name("_EnableNoiseFilter")
     116                      .dwattr DW$30, DW_AT_declaration(0x01)
     117                      .dwattr DW$30, DW_AT_external(0x01)
     118              DW$31   .dwtag  DW_TAG_formal_parameter, DW_AT_type(*DW$T$10)
     119                      .dwendtag DW$30
     120              
     121              
     122              DW$32   .dwtag  DW_TAG_subprogram, DW_AT_name("GetCheckedRPM"), DW_AT_symbol_name("_GetCheckedRPM")
     123                      .dwattr DW$32, DW_AT_type(*DW$T$11)
     124                      .dwattr DW$32, DW_AT_declaration(0x01)
     125                      .dwattr DW$32, DW_AT_external(0x01)
     126              DW$33   .dwtag  DW_TAG_formal_parameter, DW_AT_type(*DW$T$10)
     127                      .dwendtag DW$32
     128              
     129              
     130              DW$34   .dwtag  DW_TAG_subprogram, DW_AT_name("GetRPM"), DW_AT_symbol_name("_GetRPM")
     131                      .dwattr DW$34, DW_AT_type(*DW$T$11)
     132                      .dwattr DW$34, DW_AT_declaration(0x01)
     133                      .dwattr DW$34, DW_AT_external(0x01)
     134              DW$35   .dwtag  DW_TAG_formal_parameter, DW_AT_type(*DW$T$11)
     135                      .dwendtag DW$34
     136              
     137              
     138              DW$36   .dwtag  DW_TAG_subprogram, DW_AT_name("GetModalRPM"), DW_AT_symbol_name("_GetModalRPM")
     139                      .dwattr DW$36, DW_AT_type(*DW$T$11)
     140                      .dwattr DW$36, DW_AT_declaration(0x01)
     141                      .dwattr DW$36, DW_AT_external(0x01)
     142              DW$37   .dwtag  DW_TAG_formal_parameter, DW_AT_type(*DW$T$10)
     143                      .dwendtag DW$36
     144              
     145              
     146              DW$38   .dwtag  DW_TAG_subprogram, DW_AT_name("GetScaledValue"), DW_AT_symbol_name("_GetScaledValue")
     147                      .dwattr DW$38, DW_AT_type(*DW$T$10)
     148                      .dwattr DW$38, DW_AT_declaration(0x01)
     149                      .dwattr DW$38, DW_AT_external(0x01)
     150              DW$39   .dwtag  DW_TAG_formal_parameter, DW_AT_type(*DW$T$11)
     151                      .dwendtag DW$38
     152              
     153              
     154              DW$40   .dwtag  DW_TAG_subprogram, DW_AT_name("GetPreCompValue"), DW_AT_symbol_name("_GetPreCompValue")
     155                      .dwattr DW$40, DW_AT_type(*DW$T$10)
     156                      .dwattr DW$40, DW_AT_declaration(0x01)
     157                      .dwattr DW$40, DW_AT_external(0x01)
     158              DW$41   .dwtag  DW_TAG_formal_parameter, DW_AT_type(*DW$T$11)
     159                      .dwendtag DW$40
     160              
     161              
     162              DW$42   .dwtag  DW_TAG_subprogram, DW_AT_name("GetPostCompValue"), DW_AT_symbol_name("_GetPostCompValue")
     163                      .dwattr DW$42, DW_AT_type(*DW$T$10)
     164                      .dwattr DW$42, DW_AT_declaration(0x01)
     165                      .dwattr DW$42, DW_AT_external(0x01)
TMS320C2000 COFF Assembler PC v4.1.3 Thu Aug 18 12:16:25 2016

Tools Copyright (c) 1996-2006 Texas Instruments Incorporated
PCModBus.asm                                                         PAGE    4

     166              DW$43   .dwtag  DW_TAG_formal_parameter, DW_AT_type(*DW$T$11)
     167                      .dwendtag DW$42
     168              
     169              
     170              DW$44   .dwtag  DW_TAG_subprogram, DW_AT_name("GetEndResultValue"), DW_AT_symbol_name("_GetEndResultValue")
     171                      .dwattr DW$44, DW_AT_type(*DW$T$10)
     172                      .dwattr DW$44, DW_AT_declaration(0x01)
     173                      .dwattr DW$44, DW_AT_external(0x01)
     174              DW$45   .dwtag  DW_TAG_formal_parameter, DW_AT_type(*DW$T$11)
     175                      .dwendtag DW$44
     176              
     177              
     178              DW$46   .dwtag  DW_TAG_subprogram, DW_AT_name("GetSensorDeviationValue"), DW_AT_symbol_name("_GetSensorDeviat
     179                      .dwattr DW$46, DW_AT_type(*DW$T$10)
     180                      .dwattr DW$46, DW_AT_declaration(0x01)
     181                      .dwattr DW$46, DW_AT_external(0x01)
     182              DW$47   .dwtag  DW_TAG_formal_parameter, DW_AT_type(*DW$T$11)
     183                      .dwendtag DW$46
     184              
     185              
     186              DW$48   .dwtag  DW_TAG_subprogram, DW_AT_name("GetCylinderAverageValue"), DW_AT_symbol_name("_GetCylinderAver
     187                      .dwattr DW$48, DW_AT_type(*DW$T$10)
     188                      .dwattr DW$48, DW_AT_declaration(0x01)
     189                      .dwattr DW$48, DW_AT_external(0x01)
     190              DW$49   .dwtag  DW_TAG_formal_parameter, DW_AT_type(*DW$T$11)
     191                      .dwendtag DW$48
     192              
     193              
     194              DW$50   .dwtag  DW_TAG_subprogram, DW_AT_name("GetCylinderDeviationValue"), DW_AT_symbol_name("_GetCylinderDe
     195                      .dwattr DW$50, DW_AT_type(*DW$T$10)
     196                      .dwattr DW$50, DW_AT_declaration(0x01)
     197                      .dwattr DW$50, DW_AT_external(0x01)
     198              DW$51   .dwtag  DW_TAG_formal_parameter, DW_AT_type(*DW$T$11)
     199                      .dwendtag DW$50
     200              
     201              
     202              DW$52   .dwtag  DW_TAG_subprogram, DW_AT_name("Status1Flags"), DW_AT_symbol_name("_Status1Flags")
     203                      .dwattr DW$52, DW_AT_type(*DW$T$194)
     204                      .dwattr DW$52, DW_AT_declaration(0x01)
     205                      .dwattr DW$52, DW_AT_external(0x01)
     206              DW$53   .dwtag  DW_TAG_formal_parameter, DW_AT_type(*DW$T$11)
     207                      .dwendtag DW$52
     208              
     209              
     210              DW$54   .dwtag  DW_TAG_subprogram, DW_AT_name("GetStatus2Flags"), DW_AT_symbol_name("_GetStatus2Flags")
     211                      .dwattr DW$54, DW_AT_type(*DW$T$199)
     212                      .dwattr DW$54, DW_AT_declaration(0x01)
     213                      .dwattr DW$54, DW_AT_external(0x01)
     214              DW$55   .dwtag  DW_TAG_formal_parameter, DW_AT_type(*DW$T$11)
     215                      .dwendtag DW$54
     216              
     217              
     218              DW$56   .dwtag  DW_TAG_subprogram, DW_AT_name("ReadStatus1Int"), DW_AT_symbol_name("_ReadStatus1Int")
     219                      .dwattr DW$56, DW_AT_type(*DW$T$11)
     220                      .dwattr DW$56, DW_AT_declaration(0x01)
TMS320C2000 COFF Assembler PC v4.1.3 Thu Aug 18 12:16:25 2016

Tools Copyright (c) 1996-2006 Texas Instruments Incorporated
PCModBus.asm                                                         PAGE    5

     221                      .dwattr DW$56, DW_AT_external(0x01)
     222              DW$57   .dwtag  DW_TAG_formal_parameter, DW_AT_type(*DW$T$11)
     223                      .dwendtag DW$56
     224              
     225              
     226              DW$58   .dwtag  DW_TAG_subprogram, DW_AT_name("MANCompTable"), DW_AT_symbol_name("_MANCompTable")
     227                      .dwattr DW$58, DW_AT_type(*DW$T$142)
     228                      .dwattr DW$58, DW_AT_declaration(0x01)
     229                      .dwattr DW$58, DW_AT_external(0x01)
     230              DW$59   .dwtag  DW_TAG_formal_parameter, DW_AT_type(*DW$T$11)
     231              DW$60   .dwtag  DW_TAG_formal_parameter, DW_AT_type(*DW$T$11)
     232                      .dwendtag DW$58
     233              
     234              
     235              DW$61   .dwtag  DW_TAG_subprogram, DW_AT_name("WriteSensorStatustoNVMEM"), DW_AT_symbol_name("_WriteSensorSta
     236                      .dwattr DW$61, DW_AT_declaration(0x01)
     237                      .dwattr DW$61, DW_AT_external(0x01)
     238              DW$62   .dwtag  DW_TAG_formal_parameter, DW_AT_type(*DW$T$11)
     239                      .dwendtag DW$61
     240              
     241              
     242              DW$63   .dwtag  DW_TAG_subprogram, DW_AT_name("CalAbort"), DW_AT_symbol_name("_CalAbort")
     243                      .dwattr DW$63, DW_AT_declaration(0x01)
     244                      .dwattr DW$63, DW_AT_external(0x01)
     245              
     246              DW$64   .dwtag  DW_TAG_subprogram, DW_AT_name("ReadAccAverageVal"), DW_AT_symbol_name("_ReadAccAverageVal")
     247                      .dwattr DW$64, DW_AT_type(*DW$T$185)
     248                      .dwattr DW$64, DW_AT_declaration(0x01)
     249                      .dwattr DW$64, DW_AT_external(0x01)
     250              DW$65   .dwtag  DW_TAG_formal_parameter, DW_AT_type(*DW$T$11)
     251              DW$66   .dwtag  DW_TAG_formal_parameter, DW_AT_type(*DW$T$11)
     252                      .dwendtag DW$64
     253              
     254              
     255              DW$67   .dwtag  DW_TAG_subprogram, DW_AT_name("ReadAverageSpeedAcc"), DW_AT_symbol_name("_ReadAverageSpeedAcc
     256                      .dwattr DW$67, DW_AT_type(*DW$T$185)
     257                      .dwattr DW$67, DW_AT_declaration(0x01)
     258                      .dwattr DW$67, DW_AT_external(0x01)
     259              DW$68   .dwtag  DW_TAG_formal_parameter, DW_AT_type(*DW$T$11)
     260              DW$69   .dwtag  DW_TAG_formal_parameter, DW_AT_type(*DW$T$11)
     261                      .dwendtag DW$67
     262              
     263              
     264              DW$70   .dwtag  DW_TAG_subprogram, DW_AT_name("ReadNumPoints"), DW_AT_symbol_name("_ReadNumPoints")
     265                      .dwattr DW$70, DW_AT_type(*DW$T$190)
     266                      .dwattr DW$70, DW_AT_declaration(0x01)
     267                      .dwattr DW$70, DW_AT_external(0x01)
     268              DW$71   .dwtag  DW_TAG_formal_parameter, DW_AT_type(*DW$T$11)
     269                      .dwendtag DW$70
     270              
     271              
     272              DW$72   .dwtag  DW_TAG_subprogram, DW_AT_name("GetLearningTimeLeft"), DW_AT_symbol_name("_GetLearningTimeLeft
     273                      .dwattr DW$72, DW_AT_type(*DW$T$11)
     274                      .dwattr DW$72, DW_AT_declaration(0x01)
     275                      .dwattr DW$72, DW_AT_external(0x01)
TMS320C2000 COFF Assembler PC v4.1.3 Thu Aug 18 12:16:25 2016

Tools Copyright (c) 1996-2006 Texas Instruments Incorporated
PCModBus.asm                                                         PAGE    6

     276              
     277              DW$73   .dwtag  DW_TAG_subprogram, DW_AT_name("GetIntervalTimeLeft"), DW_AT_symbol_name("_GetIntervalTimeLeft
     278                      .dwattr DW$73, DW_AT_type(*DW$T$11)
     279                      .dwattr DW$73, DW_AT_declaration(0x01)
     280                      .dwattr DW$73, DW_AT_external(0x01)
     281              
     282              DW$74   .dwtag  DW_TAG_subprogram, DW_AT_name("GetPercentageLeft"), DW_AT_symbol_name("_GetPercentageLeft")
     283                      .dwattr DW$74, DW_AT_type(*DW$T$11)
     284                      .dwattr DW$74, DW_AT_declaration(0x01)
     285                      .dwattr DW$74, DW_AT_external(0x01)
     286              
     287              DW$75   .dwtag  DW_TAG_subprogram, DW_AT_name("ClearCalibrationAlarms"), DW_AT_symbol_name("_ClearCalibration
     288                      .dwattr DW$75, DW_AT_declaration(0x01)
     289                      .dwattr DW$75, DW_AT_external(0x01)
     290              
     291              DW$76   .dwtag  DW_TAG_subprogram, DW_AT_name("SDEventMessageUpdate"), DW_AT_symbol_name("_SDEventMessageUpda
     292                      .dwattr DW$76, DW_AT_type(*DW$T$10)
     293                      .dwattr DW$76, DW_AT_declaration(0x01)
     294                      .dwattr DW$76, DW_AT_external(0x01)
     295              DW$77   .dwtag  DW_TAG_formal_parameter, DW_AT_type(*DW$T$11)
     296              DW$78   .dwtag  DW_TAG_formal_parameter, DW_AT_type(*DW$T$122)
     297                      .dwendtag DW$76
     298              
     299              
     300              DW$79   .dwtag  DW_TAG_subprogram, DW_AT_name("SDReadEventMessage"), DW_AT_symbol_name("_SDReadEventMessage")
     301                      .dwattr DW$79, DW_AT_type(*DW$T$10)
     302                      .dwattr DW$79, DW_AT_declaration(0x01)
     303                      .dwattr DW$79, DW_AT_external(0x01)
     304              DW$80   .dwtag  DW_TAG_formal_parameter, DW_AT_type(*DW$T$11)
     305              DW$81   .dwtag  DW_TAG_formal_parameter, DW_AT_type(*DW$T$122)
     306                      .dwendtag DW$79
     307              
     308              
     309              DW$82   .dwtag  DW_TAG_subprogram, DW_AT_name("ClearManCompSequence"), DW_AT_symbol_name("_ClearManCompSequen
     310                      .dwattr DW$82, DW_AT_declaration(0x01)
     311                      .dwattr DW$82, DW_AT_external(0x01)
     312              
     313              DW$83   .dwtag  DW_TAG_subprogram, DW_AT_name("SetAllEventMsgs"), DW_AT_symbol_name("_SetAllEventMsgs")
     314                      .dwattr DW$83, DW_AT_declaration(0x01)
     315                      .dwattr DW$83, DW_AT_external(0x01)
     316              
     317              DW$84   .dwtag  DW_TAG_subprogram, DW_AT_name("GetFirstFileNameString"), DW_AT_symbol_name("_GetFirstFileName
     318                      .dwattr DW$84, DW_AT_type(*DW$T$10)
     319                      .dwattr DW$84, DW_AT_declaration(0x01)
     320                      .dwattr DW$84, DW_AT_external(0x01)
     321              
     322              DW$85   .dwtag  DW_TAG_subprogram, DW_AT_name("GetNextFileNameString"), DW_AT_symbol_name("_GetNextFileNameSt
     323                      .dwattr DW$85, DW_AT_type(*DW$T$10)
     324                      .dwattr DW$85, DW_AT_declaration(0x01)
     325                      .dwattr DW$85, DW_AT_external(0x01)
     326              
     327              DW$86   .dwtag  DW_TAG_subprogram, DW_AT_name("GetFileNumWords"), DW_AT_symbol_name("_GetFileNumWords")
     328                      .dwattr DW$86, DW_AT_type(*DW$T$12)
     329                      .dwattr DW$86, DW_AT_declaration(0x01)
     330                      .dwattr DW$86, DW_AT_external(0x01)
TMS320C2000 COFF Assembler PC v4.1.3 Thu Aug 18 12:16:25 2016

Tools Copyright (c) 1996-2006 Texas Instruments Incorporated
PCModBus.asm                                                         PAGE    7

     331              
     332              DW$87   .dwtag  DW_TAG_subprogram, DW_AT_name("WIOTemperatureWord"), DW_AT_symbol_name("_WIOTemperatureWord")
     333                      .dwattr DW$87, DW_AT_type(*DW$T$10)
     334                      .dwattr DW$87, DW_AT_declaration(0x01)
     335                      .dwattr DW$87, DW_AT_external(0x01)
     336              
     337              DW$88   .dwtag  DW_TAG_subprogram, DW_AT_name("WIOActivityWord"), DW_AT_symbol_name("_WIOActivityWord")
     338                      .dwattr DW$88, DW_AT_type(*DW$T$10)
     339                      .dwattr DW$88, DW_AT_declaration(0x01)
     340                      .dwattr DW$88, DW_AT_external(0x01)
     341              
     342              DW$89   .dwtag  DW_TAG_subprogram, DW_AT_name("WIOPPMWord"), DW_AT_symbol_name("_WIOPPMWord")
     343                      .dwattr DW$89, DW_AT_type(*DW$T$10)
     344                      .dwattr DW$89, DW_AT_declaration(0x01)
     345                      .dwattr DW$89, DW_AT_external(0x01)
     346              
     347              DW$90   .dwtag  DW_TAG_subprogram, DW_AT_name("Status3Flags"), DW_AT_symbol_name("_Status3Flags")
     348                      .dwattr DW$90, DW_AT_type(*DW$T$205)
     349                      .dwattr DW$90, DW_AT_declaration(0x01)
     350                      .dwattr DW$90, DW_AT_external(0x01)
     351              DW$91   .dwtag  DW_TAG_formal_parameter, DW_AT_type(*DW$T$11)
     352                      .dwendtag DW$90
     353              
     354              
     355              DW$92   .dwtag  DW_TAG_subprogram, DW_AT_name("GetAlarmFlags"), DW_AT_symbol_name("_GetAlarmFlags")
     356                      .dwattr DW$92, DW_AT_type(*DW$T$211)
     357                      .dwattr DW$92, DW_AT_declaration(0x01)
     358                      .dwattr DW$92, DW_AT_external(0x01)
     359              
     360              DW$93   .dwtag  DW_TAG_subprogram, DW_AT_name("ClearEventCodeListArea"), DW_AT_symbol_name("_ClearEventCodeLi
     361                      .dwattr DW$93, DW_AT_declaration(0x01)
     362                      .dwattr DW$93, DW_AT_external(0x01)
     363              
     364              DW$94   .dwtag  DW_TAG_subprogram, DW_AT_name("ReadFirstEventCode"), DW_AT_symbol_name("_ReadFirstEventCode")
     365                      .dwattr DW$94, DW_AT_type(*DW$T$122)
     366                      .dwattr DW$94, DW_AT_declaration(0x01)
     367                      .dwattr DW$94, DW_AT_external(0x01)
     368              
     369              DW$95   .dwtag  DW_TAG_subprogram, DW_AT_name("AlarmEventIDInc"), DW_AT_symbol_name("_AlarmEventIDInc")
     370                      .dwattr DW$95, DW_AT_declaration(0x01)
     371                      .dwattr DW$95, DW_AT_external(0x01)
     372              DW$96   .dwtag  DW_TAG_formal_parameter, DW_AT_type(*DW$T$11)
     373                      .dwendtag DW$95
     374              
     375              
     376              DW$97   .dwtag  DW_TAG_subprogram, DW_AT_name("BitEventCompiled"), DW_AT_symbol_name("_BitEventCompiled")
     377                      .dwattr DW$97, DW_AT_type(*DW$T$11)
     378                      .dwattr DW$97, DW_AT_declaration(0x01)
     379                      .dwattr DW$97, DW_AT_external(0x01)
     380              DW$98   .dwtag  DW_TAG_formal_parameter, DW_AT_type(*DW$T$11)
     381                      .dwendtag DW$97
     382              
     383              
     384              DW$99   .dwtag  DW_TAG_subprogram, DW_AT_name("ProcessReprogrammingTransferral"), DW_AT_symbol_name("_Process
     385                      .dwattr DW$99, DW_AT_declaration(0x01)
TMS320C2000 COFF Assembler PC v4.1.3 Thu Aug 18 12:16:25 2016

Tools Copyright (c) 1996-2006 Texas Instruments Incorporated
PCModBus.asm                                                         PAGE    8

     386                      .dwattr DW$99, DW_AT_external(0x01)
     387              DW$100  .dwtag  DW_TAG_formal_parameter, DW_AT_type(*DW$T$11)
     388              DW$101  .dwtag  DW_TAG_formal_parameter, DW_AT_type(*DW$T$11)
     389              DW$102  .dwtag  DW_TAG_formal_parameter, DW_AT_type(*DW$T$11)
     390              DW$103  .dwtag  DW_TAG_formal_parameter, DW_AT_type(*DW$T$122)
     391                      .dwendtag DW$99
     392              
     393              
     394              DW$104  .dwtag  DW_TAG_subprogram, DW_AT_name("TxNowtoSlave"), DW_AT_symbol_name("_TxNowtoSlave")
     395                      .dwattr DW$104, DW_AT_declaration(0x01)
     396                      .dwattr DW$104, DW_AT_external(0x01)
     397              
     398              DW$105  .dwtag  DW_TAG_subprogram, DW_AT_name("DCModeInit"), DW_AT_symbol_name("_DCModeInit")
     399                      .dwattr DW$105, DW_AT_declaration(0x01)
     400                      .dwattr DW$105, DW_AT_external(0x01)
     401              
     402              DW$106  .dwtag  DW_TAG_subprogram, DW_AT_name("DCModeClear"), DW_AT_symbol_name("_DCModeClear")
     403                      .dwattr DW$106, DW_AT_declaration(0x01)
     404                      .dwattr DW$106, DW_AT_external(0x01)
     405              
     406              DW$107  .dwtag  DW_TAG_subprogram, DW_AT_name("GetuASCaledValue"), DW_AT_symbol_name("_GetuASCaledValue")
     407                      .dwattr DW$107, DW_AT_type(*DW$T$11)
     408                      .dwattr DW$107, DW_AT_declaration(0x01)
     409                      .dwattr DW$107, DW_AT_external(0x01)
     410              DW$108  .dwtag  DW_TAG_formal_parameter, DW_AT_type(*DW$T$10)
     411                      .dwendtag DW$107
     412              
     413              
     414              DW$109  .dwtag  DW_TAG_subprogram, DW_AT_name("InitMotionCal"), DW_AT_symbol_name("_InitMotionCal")
     415                      .dwattr DW$109, DW_AT_declaration(0x01)
     416                      .dwattr DW$109, DW_AT_external(0x01)
     417              
     418              DW$110  .dwtag  DW_TAG_subprogram, DW_AT_name("ClearEngineDirCal"), DW_AT_symbol_name("_ClearEngineDirCal")
     419                      .dwattr DW$110, DW_AT_declaration(0x01)
     420                      .dwattr DW$110, DW_AT_external(0x01)
     421              
     422              DW$111  .dwtag  DW_TAG_subprogram, DW_AT_name("YearMonthUpdate"), DW_AT_symbol_name("_YearMonthUpdate")
     423                      .dwattr DW$111, DW_AT_type(*DW$T$10)
     424                      .dwattr DW$111, DW_AT_declaration(0x01)
     425                      .dwattr DW$111, DW_AT_external(0x01)
     426              
     427              DW$112  .dwtag  DW_TAG_subprogram, DW_AT_name("DateHoursUpdate"), DW_AT_symbol_name("_DateHoursUpdate")
     428                      .dwattr DW$112, DW_AT_type(*DW$T$10)
     429                      .dwattr DW$112, DW_AT_declaration(0x01)
     430                      .dwattr DW$112, DW_AT_external(0x01)
     431              
     432              DW$113  .dwtag  DW_TAG_subprogram, DW_AT_name("MinsSecsUpdate"), DW_AT_symbol_name("_MinsSecsUpdate")
     433                      .dwattr DW$113, DW_AT_type(*DW$T$10)
     434                      .dwattr DW$113, DW_AT_declaration(0x01)
     435                      .dwattr DW$113, DW_AT_external(0x01)
     436              
     437              DW$114  .dwtag  DW_TAG_subprogram, DW_AT_name("InputNumtoString"), DW_AT_symbol_name("_InputNumtoString")
     438                      .dwattr DW$114, DW_AT_type(*DW$T$10)
     439                      .dwattr DW$114, DW_AT_declaration(0x01)
     440                      .dwattr DW$114, DW_AT_external(0x01)
TMS320C2000 COFF Assembler PC v4.1.3 Thu Aug 18 12:16:25 2016

Tools Copyright (c) 1996-2006 Texas Instruments Incorporated
PCModBus.asm                                                         PAGE    9

     441              
     442              DW$115  .dwtag  DW_TAG_subprogram, DW_AT_name("WriteDateHrsData"), DW_AT_symbol_name("_WriteDateHrsData")
     443                      .dwattr DW$115, DW_AT_type(*DW$T$10)
     444                      .dwattr DW$115, DW_AT_declaration(0x01)
     445                      .dwattr DW$115, DW_AT_external(0x01)
     446              
     447              DW$116  .dwtag  DW_TAG_subprogram, DW_AT_name("FRAMInit"), DW_AT_symbol_name("_FRAMInit")
     448                      .dwattr DW$116, DW_AT_type(*DW$T$10)
     449                      .dwattr DW$116, DW_AT_declaration(0x01)
     450                      .dwattr DW$116, DW_AT_external(0x01)
     451              
     452              DW$117  .dwtag  DW_TAG_subprogram, DW_AT_name("GetRealtimePreCompValue"), DW_AT_symbol_name("_GetRealtimePreC
     453                      .dwattr DW$117, DW_AT_type(*DW$T$10)
     454                      .dwattr DW$117, DW_AT_declaration(0x01)
     455                      .dwattr DW$117, DW_AT_external(0x01)
     456              
     457              DW$118  .dwtag  DW_TAG_subprogram, DW_AT_name("GetRealtimeuAScaledValue"), DW_AT_symbol_name("_GetRealtimeuAS
     458                      .dwattr DW$118, DW_AT_type(*DW$T$10)
     459                      .dwattr DW$118, DW_AT_declaration(0x01)
     460                      .dwattr DW$118, DW_AT_external(0x01)
     461              
     462              DW$119  .dwtag  DW_TAG_subprogram, DW_AT_name("WriteMANCaltoNVMEM"), DW_AT_symbol_name("_WriteMANCaltoNVMEM")
     463                      .dwattr DW$119, DW_AT_type(*DW$T$10)
     464                      .dwattr DW$119, DW_AT_declaration(0x01)
     465                      .dwattr DW$119, DW_AT_external(0x01)
     466              
     467              DW$120  .dwtag  DW_TAG_subprogram, DW_AT_name("CalibrationtdUpdate"), DW_AT_symbol_name("_CalibrationtdUpdate
     468                      .dwattr DW$120, DW_AT_type(*DW$T$10)
     469                      .dwattr DW$120, DW_AT_declaration(0x01)
     470                      .dwattr DW$120, DW_AT_external(0x01)
     471              
     472              DW$121  .dwtag  DW_TAG_subprogram, DW_AT_name("ReadAccCalNVMEM"), DW_AT_symbol_name("_ReadAccCalNVMEM")
     473                      .dwattr DW$121, DW_AT_type(*DW$T$10)
     474                      .dwattr DW$121, DW_AT_declaration(0x01)
     475                      .dwattr DW$121, DW_AT_external(0x01)
     476              
     477              DW$122  .dwtag  DW_TAG_subprogram, DW_AT_name("WriteClockData"), DW_AT_symbol_name("_WriteClockData")
     478                      .dwattr DW$122, DW_AT_type(*DW$T$10)
     479                      .dwattr DW$122, DW_AT_declaration(0x01)
     480                      .dwattr DW$122, DW_AT_external(0x01)
     481              
     482              DW$123  .dwtag  DW_TAG_subprogram, DW_AT_name("SPUUnitReset"), DW_AT_symbol_name("_SPUUnitReset")
     483                      .dwattr DW$123, DW_AT_type(*DW$T$10)
     484                      .dwattr DW$123, DW_AT_declaration(0x01)
     485                      .dwattr DW$123, DW_AT_external(0x01)
     486              
     487              DW$124  .dwtag  DW_TAG_subprogram, DW_AT_name("PCModifyParameter"), DW_AT_symbol_name("_PCModifyParameter")
     488                      .dwattr DW$124, DW_AT_type(*DW$T$10)
     489                      .dwattr DW$124, DW_AT_declaration(0x01)
     490                      .dwattr DW$124, DW_AT_external(0x01)
     491              
     492              DW$125  .dwtag  DW_TAG_subprogram, DW_AT_name("WriteEngineStructtoNVMEM"), DW_AT_symbol_name("_WriteEngineStr
     493                      .dwattr DW$125, DW_AT_type(*DW$T$10)
     494                      .dwattr DW$125, DW_AT_declaration(0x01)
     495                      .dwattr DW$125, DW_AT_external(0x01)
TMS320C2000 COFF Assembler PC v4.1.3 Thu Aug 18 12:16:25 2016

Tools Copyright (c) 1996-2006 Texas Instruments Incorporated
PCModBus.asm                                                         PAGE   10

     496              DW$126  .dwtag  DW_TAG_variable, DW_AT_name("CRCHiTbl"), DW_AT_symbol_name("_CRCHiTbl")
     497                      .dwattr DW$126, DW_AT_type(*DW$T$176)
     498                      .dwattr DW$126, DW_AT_declaration(0x01)
     499                      .dwattr DW$126, DW_AT_external(0x01)
     500              DW$127  .dwtag  DW_TAG_variable, DW_AT_name("CRCLoTbl"), DW_AT_symbol_name("_CRCLoTbl")
     501                      .dwattr DW$127, DW_AT_type(*DW$T$176)
     502                      .dwattr DW$127, DW_AT_declaration(0x01)
     503                      .dwattr DW$127, DW_AT_external(0x01)
     504              DW$128  .dwtag  DW_TAG_variable, DW_AT_name("gpf"), DW_AT_symbol_name("_gpf")
     505                      .dwattr DW$128, DW_AT_type(*DW$T$217)
     506                      .dwattr DW$128, DW_AT_declaration(0x01)
     507                      .dwattr DW$128, DW_AT_external(0x01)
     508              DW$129  .dwtag  DW_TAG_variable, DW_AT_name("settings"), DW_AT_symbol_name("_settings")
     509                      .dwattr DW$129, DW_AT_type(*DW$T$220)
     510                      .dwattr DW$129, DW_AT_declaration(0x01)
     511                      .dwattr DW$129, DW_AT_external(0x01)
     512              DW$130  .dwtag  DW_TAG_variable, DW_AT_name("motion"), DW_AT_symbol_name("_motion")
     513                      .dwattr DW$130, DW_AT_type(*DW$T$221)
     514                      .dwattr DW$130, DW_AT_declaration(0x01)
     515                      .dwattr DW$130, DW_AT_external(0x01)
     516              DW$131  .dwtag  DW_TAG_variable, DW_AT_name("livetime"), DW_AT_symbol_name("_livetime")
     517                      .dwattr DW$131, DW_AT_type(*DW$T$222)
     518                      .dwattr DW$131, DW_AT_declaration(0x01)
     519                      .dwattr DW$131, DW_AT_external(0x01)
     520              DW$132  .dwtag  DW_TAG_variable, DW_AT_name("calibrationtd"), DW_AT_symbol_name("_calibrationtd")
     521                      .dwattr DW$132, DW_AT_type(*DW$T$224)
     522                      .dwattr DW$132, DW_AT_declaration(0x01)
     523                      .dwattr DW$132, DW_AT_external(0x01)
     524              DW$133  .dwtag  DW_TAG_variable, DW_AT_name("safe2"), DW_AT_symbol_name("_safe2")
     525                      .dwattr DW$133, DW_AT_type(*DW$T$226)
     526                      .dwattr DW$133, DW_AT_declaration(0x01)
     527                      .dwattr DW$133, DW_AT_external(0x01)
     528              DW$134  .dwtag  DW_TAG_variable, DW_AT_name("clocktime"), DW_AT_symbol_name("_clocktime")
     529                      .dwattr DW$134, DW_AT_type(*DW$T$227)
     530                      .dwattr DW$134, DW_AT_declaration(0x01)
     531                      .dwattr DW$134, DW_AT_external(0x01)
     532              DW$135  .dwtag  DW_TAG_variable, DW_AT_name("timers"), DW_AT_symbol_name("_timers")
     533                      .dwattr DW$135, DW_AT_type(*DW$T$229)
     534                      .dwattr DW$135, DW_AT_declaration(0x01)
     535                      .dwattr DW$135, DW_AT_external(0x01)
     536              DW$136  .dwtag  DW_TAG_variable, DW_AT_name("allsensors"), DW_AT_symbol_name("_allsensors")
     537                      .dwattr DW$136, DW_AT_type(*DW$T$231)
     538                      .dwattr DW$136, DW_AT_declaration(0x01)
     539                      .dwattr DW$136, DW_AT_external(0x01)
     540              DW$137  .dwtag  DW_TAG_variable, DW_AT_name("engine"), DW_AT_symbol_name("_engine")
     541                      .dwattr DW$137, DW_AT_type(*DW$T$233)
     542                      .dwattr DW$137, DW_AT_declaration(0x01)
     543                      .dwattr DW$137, DW_AT_external(0x01)
     544              DW$138  .dwtag  DW_TAG_variable, DW_AT_name("cylinders"), DW_AT_symbol_name("_cylinders")
     545                      .dwattr DW$138, DW_AT_type(*DW$T$235)
     546                      .dwattr DW$138, DW_AT_declaration(0x01)
     547                      .dwattr DW$138, DW_AT_external(0x01)
     548              DW$139  .dwtag  DW_TAG_variable, DW_AT_name("config"), DW_AT_symbol_name("_config")
     549                      .dwattr DW$139, DW_AT_type(*DW$T$238)
     550                      .dwattr DW$139, DW_AT_declaration(0x01)
TMS320C2000 COFF Assembler PC v4.1.3 Thu Aug 18 12:16:25 2016

Tools Copyright (c) 1996-2006 Texas Instruments Incorporated
PCModBus.asm                                                         PAGE   11

     551                      .dwattr DW$139, DW_AT_external(0x01)
     552              DW$140  .dwtag  DW_TAG_variable, DW_AT_name("transferbuffer"), DW_AT_symbol_name("_transferbuffer")
     553                      .dwattr DW$140, DW_AT_type(*DW$T$178)
     554                      .dwattr DW$140, DW_AT_declaration(0x01)
     555                      .dwattr DW$140, DW_AT_external(0x01)
     556              DW$141  .dwtag  DW_TAG_variable, DW_AT_name("stringbuffer"), DW_AT_symbol_name("_stringbuffer")
     557                      .dwattr DW$141, DW_AT_type(*DW$T$267)
     558                      .dwattr DW$141, DW_AT_declaration(0x01)
     559                      .dwattr DW$141, DW_AT_external(0x01)
     560              DW$142  .dwtag  DW_TAG_variable, DW_AT_name("eventlogentry"), DW_AT_symbol_name("_eventlogentry")
     561                      .dwattr DW$142, DW_AT_type(*DW$T$239)
     562                      .dwattr DW$142, DW_AT_declaration(0x01)
     563                      .dwattr DW$142, DW_AT_external(0x01)
     564              DW$143  .dwtag  DW_TAG_variable, DW_AT_name("versionreg"), DW_AT_symbol_name("_versionreg")
     565                      .dwattr DW$143, DW_AT_type(*DW$T$175)
     566                      .dwattr DW$143, DW_AT_declaration(0x01)
     567                      .dwattr DW$143, DW_AT_external(0x01)
     568              DW$144  .dwtag  DW_TAG_variable, DW_AT_name("digout"), DW_AT_symbol_name("_digout")
     569                      .dwattr DW$144, DW_AT_type(*DW$T$240)
     570                      .dwattr DW$144, DW_AT_declaration(0x01)
     571                      .dwattr DW$144, DW_AT_external(0x01)
     572              DW$145  .dwtag  DW_TAG_variable, DW_AT_name("prewarn"), DW_AT_symbol_name("_prewarn")
     573                      .dwattr DW$145, DW_AT_type(*DW$T$241)
     574                      .dwattr DW$145, DW_AT_declaration(0x01)
     575                      .dwattr DW$145, DW_AT_external(0x01)
     576              DW$146  .dwtag  DW_TAG_variable, DW_AT_name("offsetA"), DW_AT_symbol_name("_offsetA")
     577                      .dwattr DW$146, DW_AT_type(*DW$T$243)
     578                      .dwattr DW$146, DW_AT_declaration(0x01)
     579                      .dwattr DW$146, DW_AT_external(0x01)
     580              DW$147  .dwtag  DW_TAG_variable, DW_AT_name("offsetB"), DW_AT_symbol_name("_offsetB")
     581                      .dwattr DW$147, DW_AT_type(*DW$T$243)
     582                      .dwattr DW$147, DW_AT_declaration(0x01)
     583                      .dwattr DW$147, DW_AT_external(0x01)
     584              DW$148  .dwtag  DW_TAG_variable, DW_AT_name("sensor"), DW_AT_symbol_name("_sensor")
     585                      .dwattr DW$148, DW_AT_type(*DW$T$246)
     586                      .dwattr DW$148, DW_AT_declaration(0x01)
     587                      .dwattr DW$148, DW_AT_external(0x01)
     588              DW$149  .dwtag  DW_TAG_variable, DW_AT_name("iSensorInRepalceMode"), DW_AT_symbol_name("_iSensorInRepalceMode
     589                      .dwattr DW$149, DW_AT_type(*DW$T$10)
     590                      .dwattr DW$149, DW_AT_declaration(0x01)
     591                      .dwattr DW$149, DW_AT_external(0x01)
     592              DW$150  .dwtag  DW_TAG_variable, DW_AT_name("iSensorInRepalceTimer"), DW_AT_symbol_name("_iSensorInRepalceTim
     593                      .dwattr DW$150, DW_AT_type(*DW$T$10)
     594                      .dwattr DW$150, DW_AT_declaration(0x01)
     595                      .dwattr DW$150, DW_AT_external(0x01)
     596              DW$151  .dwtag  DW_TAG_variable, DW_AT_name("iSensorInRepalce"), DW_AT_symbol_name("_iSensorInRepalce")
     597                      .dwattr DW$151, DW_AT_type(*DW$T$10)
     598                      .dwattr DW$151, DW_AT_declaration(0x01)
     599                      .dwattr DW$151, DW_AT_external(0x01)
     600              DW$152  .dwtag  DW_TAG_variable, DW_AT_name("function"), DW_AT_symbol_name("_function")
     601                      .dwattr DW$152, DW_AT_type(*DW$T$249)
     602                      .dwattr DW$152, DW_AT_declaration(0x01)
     603                      .dwattr DW$152, DW_AT_external(0x01)
     604              DW$153  .dwtag  DW_TAG_variable, DW_AT_name("manref"), DW_AT_symbol_name("_manref")
     605                      .dwattr DW$153, DW_AT_type(*DW$T$252)
TMS320C2000 COFF Assembler PC v4.1.3 Thu Aug 18 12:16:25 2016

Tools Copyright (c) 1996-2006 Texas Instruments Incorporated
PCModBus.asm                                                         PAGE   12

     606                      .dwattr DW$153, DW_AT_declaration(0x01)
     607                      .dwattr DW$153, DW_AT_external(0x01)
     608              DW$154  .dwtag  DW_TAG_variable, DW_AT_name("manrefsum"), DW_AT_symbol_name("_manrefsum")
     609                      .dwattr DW$154, DW_AT_type(*DW$T$256)
     610                      .dwattr DW$154, DW_AT_declaration(0x01)
     611                      .dwattr DW$154, DW_AT_external(0x01)
     612              DW$155  .dwtag  DW_TAG_variable, DW_AT_name("dynalarmlevels"), DW_AT_symbol_name("_dynalarmlevels")
     613                      .dwattr DW$155, DW_AT_type(*DW$T$259)
     614                      .dwattr DW$155, DW_AT_declaration(0x01)
     615                      .dwattr DW$155, DW_AT_external(0x01)
     616              DW$156  .dwtag  DW_TAG_variable, DW_AT_name("damalarms"), DW_AT_symbol_name("_damalarms")
     617                      .dwattr DW$156, DW_AT_type(*DW$T$260)
     618                      .dwattr DW$156, DW_AT_declaration(0x01)
     619                      .dwattr DW$156, DW_AT_external(0x01)
     620              DW$157  .dwtag  DW_TAG_variable, DW_AT_name("checkmanalarms"), DW_AT_symbol_name("_checkmanalarms")
     621                      .dwattr DW$157, DW_AT_type(*DW$T$179)
     622                      .dwattr DW$157, DW_AT_declaration(0x01)
     623                      .dwattr DW$157, DW_AT_external(0x01)
     624              DW$158  .dwtag  DW_TAG_variable, DW_AT_name("mancal"), DW_AT_symbol_name("_mancal")
     625                      .dwattr DW$158, DW_AT_type(*DW$T$262)
     626                      .dwattr DW$158, DW_AT_declaration(0x01)
     627                      .dwattr DW$158, DW_AT_external(0x01)
     628              DW$159  .dwtag  DW_TAG_variable, DW_AT_name("calibration"), DW_AT_symbol_name("_calibration")
     629                      .dwattr DW$159, DW_AT_type(*DW$T$263)
     630                      .dwattr DW$159, DW_AT_declaration(0x01)
     631                      .dwattr DW$159, DW_AT_external(0x01)
     632              DW$160  .dwtag  DW_TAG_variable, DW_AT_name("speedcompcoeffs"), DW_AT_symbol_name("_speedcompcoeffs")
     633                      .dwattr DW$160, DW_AT_type(*DW$T$265)
     634                      .dwattr DW$160, DW_AT_declaration(0x01)
     635                      .dwattr DW$160, DW_AT_external(0x01)
     636              DW$161  .dwtag  DW_TAG_variable, DW_AT_name("fileregs"), DW_AT_symbol_name("_fileregs")
     637                      .dwattr DW$161, DW_AT_type(*DW$T$270)
     638                      .dwattr DW$161, DW_AT_declaration(0x01)
     639                      .dwattr DW$161, DW_AT_external(0x01)
     640              DW$162  .dwtag  DW_TAG_variable, DW_AT_name("sdsettings"), DW_AT_symbol_name("_sdsettings")
     641                      .dwattr DW$162, DW_AT_type(*DW$T$272)
     642                      .dwattr DW$162, DW_AT_declaration(0x01)
     643                      .dwattr DW$162, DW_AT_external(0x01)
     644              DW$163  .dwtag  DW_TAG_variable, DW_AT_name("waterinoil"), DW_AT_symbol_name("_waterinoil")
     645                      .dwattr DW$163, DW_AT_type(*DW$T$273)
     646                      .dwattr DW$163, DW_AT_declaration(0x01)
     647                      .dwattr DW$163, DW_AT_external(0x01)
     648              DW$164  .dwtag  DW_TAG_variable, DW_AT_name("wioerrorcode"), DW_AT_symbol_name("_wioerrorcode")
     649                      .dwattr DW$164, DW_AT_type(*DW$T$11)
     650                      .dwattr DW$164, DW_AT_declaration(0x01)
     651                      .dwattr DW$164, DW_AT_external(0x01)
     652              DW$165  .dwtag  DW_TAG_variable, DW_AT_name("noisefilterLOAD"), DW_AT_symbol_name("_noisefilterLOAD")
     653                      .dwattr DW$165, DW_AT_type(*DW$T$70)
     654                      .dwattr DW$165, DW_AT_declaration(0x01)
     655                      .dwattr DW$165, DW_AT_external(0x01)
     656              DW$166  .dwtag  DW_TAG_variable, DW_AT_name("damagemonignore"), DW_AT_symbol_name("_damagemonignore")
     657                      .dwattr DW$166, DW_AT_type(*DW$T$70)
     658                      .dwattr DW$166, DW_AT_declaration(0x01)
     659                      .dwattr DW$166, DW_AT_external(0x01)
     660              DW$167  .dwtag  DW_TAG_variable, DW_AT_name("bitalarmlist"), DW_AT_symbol_name("_bitalarmlist")
TMS320C2000 COFF Assembler PC v4.1.3 Thu Aug 18 12:16:25 2016

Tools Copyright (c) 1996-2006 Texas Instruments Incorporated
PCModBus.asm                                                         PAGE   13

     661                      .dwattr DW$167, DW_AT_type(*DW$T$180)
     662                      .dwattr DW$167, DW_AT_declaration(0x01)
     663                      .dwattr DW$167, DW_AT_external(0x01)
     664              DW$168  .dwtag  DW_TAG_variable, DW_AT_name("bearingstatus"), DW_AT_symbol_name("_bearingstatus")
     665                      .dwattr DW$168, DW_AT_type(*DW$T$275)
     666                      .dwattr DW$168, DW_AT_declaration(0x01)
     667                      .dwattr DW$168, DW_AT_external(0x01)
     668              DW$169  .dwtag  DW_TAG_variable, DW_AT_name("slem"), DW_AT_symbol_name("_slem")
     669                      .dwattr DW$169, DW_AT_type(*DW$T$277)
     670                      .dwattr DW$169, DW_AT_declaration(0x01)
     671                      .dwattr DW$169, DW_AT_external(0x01)
     672              DW$170  .dwtag  DW_TAG_variable, DW_AT_name("rtcbat"), DW_AT_symbol_name("_rtcbat")
     673                      .dwattr DW$170, DW_AT_type(*DW$T$279)
     674                      .dwattr DW$170, DW_AT_declaration(0x01)
     675                      .dwattr DW$170, DW_AT_external(0x01)
     676              DW$171  .dwtag  DW_TAG_variable, DW_AT_name("loadlevel"), DW_AT_symbol_name("_loadlevel")
     677                      .dwattr DW$171, DW_AT_type(*DW$T$281)
     678                      .dwattr DW$171, DW_AT_declaration(0x01)
     679                      .dwattr DW$171, DW_AT_external(0x01)
     680              DW$172  .dwtag  DW_TAG_variable, DW_AT_name("DCModePeakReset"), DW_AT_symbol_name("_DCModePeakReset")
     681                      .dwattr DW$172, DW_AT_type(*DW$T$82)
     682                      .dwattr DW$172, DW_AT_declaration(0x01)
     683                      .dwattr DW$172, DW_AT_external(0x01)
     684              DW$173  .dwtag  DW_TAG_variable, DW_AT_name("DCModeCylinderComparison"), DW_AT_symbol_name("_DCModeCylinderCo
     685                      .dwattr DW$173, DW_AT_type(*DW$T$11)
     686                      .dwattr DW$173, DW_AT_declaration(0x01)
     687                      .dwattr DW$173, DW_AT_external(0x01)
     688              DW$174  .dwtag  DW_TAG_variable, DW_AT_name("DCModeInRangeOK"), DW_AT_symbol_name("_DCModeInRangeOK")
     689                      .dwattr DW$174, DW_AT_type(*DW$T$82)
     690                      .dwattr DW$174, DW_AT_declaration(0x01)
     691                      .dwattr DW$174, DW_AT_external(0x01)
     692              DW$175  .dwtag  DW_TAG_variable, DW_AT_name("DCModeInRangeIdeal"), DW_AT_symbol_name("_DCModeInRangeIdeal")
     693                      .dwattr DW$175, DW_AT_type(*DW$T$82)
     694                      .dwattr DW$175, DW_AT_declaration(0x01)
     695                      .dwattr DW$175, DW_AT_external(0x01)
     696                      .global _pcmodbus
     697 00000000       _pcmodbus:      .usect  ".commssection1",272,0,0
     698              DW$176  .dwtag  DW_TAG_variable, DW_AT_name("pcmodbus"), DW_AT_symbol_name("_pcmodbus")
     699                      .dwattr DW$176, DW_AT_location[DW_OP_addr _pcmodbus]
     700                      .dwattr DW$176, DW_AT_type(*DW$T$282)
     701                      .dwattr DW$176, DW_AT_external(0x01)
     702                      .global _modbuscmdbuf
     703 00000000       _modbuscmdbuf:  .usect  ".ebss",266,1,0
     704              DW$177  .dwtag  DW_TAG_variable, DW_AT_name("modbuscmdbuf"), DW_AT_symbol_name("_modbuscmdbuf")
     705                      .dwattr DW$177, DW_AT_location[DW_OP_addr _modbuscmdbuf]
     706                      .dwattr DW$177, DW_AT_type(*DW$T$112)
     707                      .dwattr DW$177, DW_AT_external(0x01)
     708                      .global _responsemsg
     709 00000140       _responsemsg:   .usect  ".ebss",266,1,0
     710              DW$178  .dwtag  DW_TAG_variable, DW_AT_name("responsemsg"), DW_AT_symbol_name("_responsemsg")
     711                      .dwattr DW$178, DW_AT_location[DW_OP_addr _responsemsg]
     712                      .dwattr DW$178, DW_AT_type(*DW$T$112)
     713                      .dwattr DW$178, DW_AT_external(0x01)
     714                      .global _modbusdummy
     715 0000010a       _modbusdummy:   .usect  ".ebss",1,1,0
TMS320C2000 COFF Assembler PC v4.1.3 Thu Aug 18 12:16:25 2016

Tools Copyright (c) 1996-2006 Texas Instruments Incorporated
PCModBus.asm                                                         PAGE   14

     716              DW$179  .dwtag  DW_TAG_variable, DW_AT_name("modbusdummy"), DW_AT_symbol_name("_modbusdummy")
     717                      .dwattr DW$179, DW_AT_location[DW_OP_addr _modbusdummy]
     718                      .dwattr DW$179, DW_AT_type(*DW$T$11)
     719                      .dwattr DW$179, DW_AT_external(0x01)
     720                      .global _modbuscmdbufptr
     721 0000010c       _modbuscmdbufptr:       .usect  ".ebss",2,1,1
     722              DW$180  .dwtag  DW_TAG_variable, DW_AT_name("modbuscmdbufptr"), DW_AT_symbol_name("_modbuscmdbufptr")
     723                      .dwattr DW$180, DW_AT_location[DW_OP_addr _modbuscmdbufptr]
     724                      .dwattr DW$180, DW_AT_type(*DW$T$122)
     725                      .dwattr DW$180, DW_AT_external(0x01)
     726                      .global _modbusrxcharcount
     727 0000010b       _modbusrxcharcount:     .usect  ".ebss",1,1,0
     728              DW$181  .dwtag  DW_TAG_variable, DW_AT_name("modbusrxcharcount"), DW_AT_symbol_name("_modbusrxcharcount")
     729                      .dwattr DW$181, DW_AT_location[DW_OP_addr _modbusrxcharcount]
     730                      .dwattr DW$181, DW_AT_type(*DW$T$11)
     731                      .dwattr DW$181, DW_AT_external(0x01)
     732                      .global _numbytesexpected
     733 0000010e       _numbytesexpected:      .usect  ".ebss",1,1,0
     734              DW$182  .dwtag  DW_TAG_variable, DW_AT_name("numbytesexpected"), DW_AT_symbol_name("_numbytesexpected")
     735                      .dwattr DW$182, DW_AT_location[DW_OP_addr _numbytesexpected]
     736                      .dwattr DW$182, DW_AT_type(*DW$T$11)
     737                      .dwattr DW$182, DW_AT_external(0x01)
     738                      .global _modbusrxchar
     739 0000010f       _modbusrxchar:  .usect  ".ebss",1,1,0
     740              DW$183  .dwtag  DW_TAG_variable, DW_AT_name("modbusrxchar"), DW_AT_symbol_name("_modbusrxchar")
     741                      .dwattr DW$183, DW_AT_location[DW_OP_addr _modbusrxchar]
     742                      .dwattr DW$183, DW_AT_type(*DW$T$6)
     743                      .dwattr DW$183, DW_AT_external(0x01)
     744                      .global _modbusupdate
     745 00000110       _modbusupdate:  .usect  ".ebss",2,1,0
     746              DW$184  .dwtag  DW_TAG_variable, DW_AT_name("modbusupdate"), DW_AT_symbol_name("_modbusupdate")
     747                      .dwattr DW$184, DW_AT_location[DW_OP_addr _modbusupdate]
     748                      .dwattr DW$184, DW_AT_type(*DW$T$284)
     749                      .dwattr DW$184, DW_AT_external(0x01)
     750                      .global _modbusackbuffer
     751 00000112       _modbusackbuffer:       .usect  ".ebss",14,1,0
     752              DW$185  .dwtag  DW_TAG_variable, DW_AT_name("modbusackbuffer"), DW_AT_symbol_name("_modbusackbuffer")
     753                      .dwattr DW$185, DW_AT_location[DW_OP_addr _modbusackbuffer]
     754                      .dwattr DW$185, DW_AT_type(*DW$T$48)
     755                      .dwattr DW$185, DW_AT_external(0x01)
     756              ;       C:\CCStudio_v3.3\C2000\cgtools\bin\opt2000.exe C:\Users\Andrew\AppData\Local\Temp\TI4122 C:\Users\And
     757              ;       C:\CCStudio_v3.3\C2000\cgtools\bin\ac2000.exe -q -D_INLINE -DLARGE_MODEL -IC:/CCStudio_v3.3/C2000/xda
     758 00000000               .sect   ".text"
     759                      .global _HandleChar
     760              
     761              DW$186  .dwtag  DW_TAG_subprogram, DW_AT_name("HandleChar"), DW_AT_symbol_name("_HandleChar")
     762                      .dwattr DW$186, DW_AT_low_pc(_HandleChar)
     763                      .dwattr DW$186, DW_AT_high_pc(0x00)
     764                      .dwattr DW$186, DW_AT_begin_file("PCModBus.c")
     765                      .dwattr DW$186, DW_AT_begin_line(0x54)
     766                      .dwattr DW$186, DW_AT_begin_column(0x06)
     767                      .dwattr DW$186, DW_AT_frame_base[DW_OP_breg20 -2]
     768                      .dwattr DW$186, DW_AT_skeletal(0x01)
     769                      .dwpsn  "PCModBus.c",85,1
     770              
TMS320C2000 COFF Assembler PC v4.1.3 Thu Aug 18 12:16:25 2016

Tools Copyright (c) 1996-2006 Texas Instruments Incorporated
PCModBus.asm                                                         PAGE   15

     771              ;***************************************************************
     772              ;* FNAME: _HandleChar                   FR SIZE:   0           *
     773              ;*                                                             *
     774              ;* FUNCTION ENVIRONMENT                                        *
     775              ;*                                                             *
     776              ;* FUNCTION PROPERTIES                                         *
     777              ;*                            0 Parameter,  0 Auto,  0 SOE     *
     778              ;***************************************************************
     779              
     780 00000000       _HandleChar:
     781 00000000 761F-         MOVW      DP,#_modbusrxcharcount
         00000001 0004 
     782 00000002 1B0B-         CMP       @_modbusrxcharcount,#266 ; |86| 
         00000003 010A 
     783 00000004 56C7          BF        L1,HIS                ; |86| 
         00000005 0013 
     784                      ; branchcc occurs ; |86| 
     785 00000006 761F-         MOVW      DP,#_modbusrxcharcount
         00000007 0004 
     786 00000008 0A0B-         INC       @_modbusrxcharcount   ; |93| 
     787 00000009 761F-         MOVW      DP,#_modbuscmdbufptr
         0000000a 0004 
     788 0000000b 8A0C-         MOVL      XAR4,@_modbuscmdbufptr ; |94| 
     789 0000000c 761F-         MOVW      DP,#_modbusrxchar
         0000000d 0004 
     790 0000000e 920F-         MOV       AL,@_modbusrxchar     ; |94| 
     791 0000000f 96C4          MOV       *+XAR4[0],AL          ; |94| 
     792 00000010 0201          MOVB      ACC,#1
     793 00000011 761F-         MOVW      DP,#_modbuscmdbufptr
         00000012 0004 
     794 00000013 5601-         ADDL      @_modbuscmdbufptr,ACC ; |95| 
         00000014 000C 
     795 00000015 56CF          BF        L2,UNC                ; |95| 
         00000016 000A 
     796                      ; branch occurs ; |95| 
     797 00000017       L1:    
     798 00000017 8F00-         MOVL      XAR4,#_modbuscmdbuf   ; |88| 
         00000018 0000 
     799 00000019 761F-         MOVW      DP,#_modbuscmdbufptr
         0000001a 0004 
     800 0000001b A80C-         MOVL      @_modbuscmdbufptr,XAR4 ; |88| 
     801 0000001c 761F-         MOVW      DP,#_modbusrxcharcount
         0000001d 0004 
     802 0000001e 2B0B-         MOV       @_modbusrxcharcount,#0 ; |89| 
     803              L2:    
     804                      .dwpsn  "PCModBus.c",97,1
     805 0000001f 0006          LRETR
     806                      ; return occurs
     807                      .dwattr DW$186, DW_AT_end_file("PCModBus.c")
     808                      .dwattr DW$186, DW_AT_end_line(0x61)
     809                      .dwattr DW$186, DW_AT_end_column(0x01)
     810                      .dwendtag DW$186
     811              
     812 00000020               .sect   ".text"
     813                      .global _CalcCRC
TMS320C2000 COFF Assembler PC v4.1.3 Thu Aug 18 12:16:25 2016

Tools Copyright (c) 1996-2006 Texas Instruments Incorporated
PCModBus.asm                                                         PAGE   16

     814              
     815              DW$187  .dwtag  DW_TAG_subprogram, DW_AT_name("CalcCRC"), DW_AT_symbol_name("_CalcCRC")
     816                      .dwattr DW$187, DW_AT_low_pc(_CalcCRC)
     817                      .dwattr DW$187, DW_AT_high_pc(0x00)
     818                      .dwattr DW$187, DW_AT_begin_file("PCModBus.c")
     819                      .dwattr DW$187, DW_AT_begin_line(0x66)
     820                      .dwattr DW$187, DW_AT_begin_column(0x06)
     821                      .dwattr DW$187, DW_AT_frame_base[DW_OP_breg20 -4]
     822                      .dwattr DW$187, DW_AT_skeletal(0x01)
     823                      .dwpsn  "PCModBus.c",103,1
     824              
     825              ;***************************************************************
     826              ;* FNAME: _CalcCRC                      FR SIZE:   2           *
     827              ;*                                                             *
     828              ;* FUNCTION ENVIRONMENT                                        *
     829              ;*                                                             *
     830              ;* FUNCTION PROPERTIES                                         *
     831              ;*                            0 Parameter,  0 Auto,  2 SOE     *
     832              ;***************************************************************
     833              
     834              _CalcCRC:
     835              ;* AR4   assigned to _ptr
     836              DW$188  .dwtag  DW_TAG_formal_parameter, DW_AT_name("ptr"), DW_AT_symbol_name("_ptr")
     837                      .dwattr DW$188, DW_AT_type(*DW$T$122)
     838                      .dwattr DW$188, DW_AT_location[DW_OP_reg12]
     839              ;* AL    assigned to _len
     840              DW$189  .dwtag  DW_TAG_formal_parameter, DW_AT_name("len"), DW_AT_symbol_name("_len")
     841                      .dwattr DW$189, DW_AT_type(*DW$T$11)
     842                      .dwattr DW$189, DW_AT_location[DW_OP_reg0]
     843              ;* AR5   assigned to _crc
     844              DW$190  .dwtag  DW_TAG_formal_parameter, DW_AT_name("crc"), DW_AT_symbol_name("_crc")
     845                      .dwattr DW$190, DW_AT_type(*DW$T$122)
     846                      .dwattr DW$190, DW_AT_location[DW_OP_reg14]
     847 00000020 9BFF          MOVB      AH,#255               ; |105| 
     848 00000021 88A9          MOVZ      AR6,AL                ; |103| 
     849 00000022 5200          CMPB      AL,#0                 ; |108| 
     850 00000023 AABD          MOVL      *SP++,XAR2
     851 00000024 D2FF          MOVB      XAR2,#255             ; |104| 
     852 00000025 EC10          BF        L4,EQ                 ; |108| 
     853                      ; branchcc occurs ; |108| 
     854              L3:    
     855              DW$L$_CalcCRC$2$B:
     856                      .dwpsn  "PCModBus.c",109,0
     857 00000026 9284          MOV       AL,*XAR4++            ; |110| 
     858 00000027 90FF          ANDB      AL,#0xff              ; |110| 
     859 00000028 70A2          XOR       AL,AR2                ; |110| 
     860 00000029 58A9          MOVZ      AR0,AL                ; |110| 
     861 0000002a 76C0!         MOVL      XAR7,#_CRCHiTbl       ; |112| 
         0000002b 0000 
     862 0000002c DE81          SUBB      XAR6,#1               ; |114| 
     863 0000002d 9297          MOV       AL,*+XAR7[AR0]        ; |112| 
     864 0000002e 70A8          XOR       AL,AH                 ; |112| 
     865 0000002f 76C0!         MOVL      XAR7,#_CRCLoTbl       ; |113| 
         00000030 0000 
     866 00000031 5AA9          MOVZ      AR2,AL                ; |112| 
TMS320C2000 COFF Assembler PC v4.1.3 Thu Aug 18 12:16:25 2016

Tools Copyright (c) 1996-2006 Texas Instruments Incorporated
PCModBus.asm                                                         PAGE   17

     867 00000032 9397          MOV       AH,*+XAR7[AR0]        ; |113| 
     868 00000033 92A6          MOV       AL,AR6                ; |114| 
     869                      .dwpsn  "PCModBus.c",114,0
     870 00000034 EDF2          BF        L3,NEQ                ; |114| 
     871                      ; branchcc occurs ; |114| 
     872 00000035       DW$L$_CalcCRC$2$E:
     873 00000035       L4:    
     874 00000035 7AC5          MOV       *+XAR5[0],AR2         ; |115| 
     875 00000036 97CD          MOV       *+XAR5[1],AH          ; |116| 
     876 00000037 86BE          MOVL      XAR2,*--SP
     877                      .dwpsn  "PCModBus.c",117,1
     878 00000038 0006          LRETR
     879                      ; return occurs
     880              
     881              DW$191  .dwtag  DW_TAG_loop
     882                      .dwattr DW$191, DW_AT_name("D:\DEV\Amot\BearingWear\XTSW_V6_20\PCModBus.asm:L3:1:1471518984")
     883                      .dwattr DW$191, DW_AT_begin_file("PCModBus.c")
     884                      .dwattr DW$191, DW_AT_begin_line(0x6c)
     885                      .dwattr DW$191, DW_AT_end_line(0x72)
     886              DW$192  .dwtag  DW_TAG_loop_range
     887                      .dwattr DW$192, DW_AT_low_pc(DW$L$_CalcCRC$2$B)
     888                      .dwattr DW$192, DW_AT_high_pc(DW$L$_CalcCRC$2$E)
     889                      .dwendtag DW$191
     890              
     891                      .dwattr DW$187, DW_AT_end_file("PCModBus.c")
     892                      .dwattr DW$187, DW_AT_end_line(0x75)
     893                      .dwattr DW$187, DW_AT_end_column(0x01)
     894                      .dwendtag DW$187
     895              
     896 00000039               .sect   ".text"
     897                      .global _TerminateCmd
     898              
     899              DW$193  .dwtag  DW_TAG_subprogram, DW_AT_name("TerminateCmd"), DW_AT_symbol_name("_TerminateCmd")
     900                      .dwattr DW$193, DW_AT_low_pc(_TerminateCmd)
     901                      .dwattr DW$193, DW_AT_high_pc(0x00)
     902                      .dwattr DW$193, DW_AT_begin_file("PCModBus.c")
     903                      .dwattr DW$193, DW_AT_begin_line(0x7c)
     904                      .dwattr DW$193, DW_AT_begin_column(0x06)
     905                      .dwattr DW$193, DW_AT_frame_base[DW_OP_breg20 -2]
     906                      .dwattr DW$193, DW_AT_skeletal(0x01)
     907                      .dwpsn  "PCModBus.c",125,1
     908              
     909              ;***************************************************************
     910              ;* FNAME: _TerminateCmd                 FR SIZE:   0           *
     911              ;*                                                             *
     912              ;* FUNCTION ENVIRONMENT                                        *
     913              ;*                                                             *
     914              ;* FUNCTION PROPERTIES                                         *
     915              ;*                            0 Parameter,  0 Auto,  0 SOE     *
     916              ;***************************************************************
     917              
     918 00000039       _TerminateCmd:
     919 00000039 761F-         MOVW      DP,#_modbuscmdbufptr
         0000003a 0004 
     920 0000003b 8A0C-         MOVL      XAR4,@_modbuscmdbufptr ; |126| 
TMS320C2000 COFF Assembler PC v4.1.3 Thu Aug 18 12:16:25 2016

Tools Copyright (c) 1996-2006 Texas Instruments Incorporated
PCModBus.asm                                                         PAGE   18

     921 0000003c 761F-         MOVW      DP,#_modbuscmdbufptr
         0000003d 0004 
     922 0000003e 2BC4          MOV       *+XAR4[0],#0          ; |126| 
     923 0000003f 8F00-         MOVL      XAR4,#_modbuscmdbuf   ; |127| 
         00000040 0000 
     924 00000041 A80C-         MOVL      @_modbuscmdbufptr,XAR4 ; |127| 
     925                      .dwpsn  "PCModBus.c",128,1
     926 00000042 0006          LRETR
     927                      ; return occurs
     928                      .dwattr DW$193, DW_AT_end_file("PCModBus.c")
     929                      .dwattr DW$193, DW_AT_end_line(0x80)
     930                      .dwattr DW$193, DW_AT_end_column(0x01)
     931                      .dwendtag DW$193
     932              
     933 00000043               .sect   ".text"
     934                      .global _ModbusParseCmd
     935              
     936              DW$194  .dwtag  DW_TAG_subprogram, DW_AT_name("ModbusParseCmd"), DW_AT_symbol_name("_ModbusParseCmd")
     937                      .dwattr DW$194, DW_AT_low_pc(_ModbusParseCmd)
     938                      .dwattr DW$194, DW_AT_high_pc(0x00)
     939                      .dwattr DW$194, DW_AT_begin_file("PCModBus.c")
     940                      .dwattr DW$194, DW_AT_begin_line(0x86)
     941                      .dwattr DW$194, DW_AT_begin_column(0x06)
     942                      .dwattr DW$194, DW_AT_frame_base[DW_OP_breg20 -6]
     943                      .dwattr DW$194, DW_AT_skeletal(0x01)
     944                      .dwpsn  "PCModBus.c",135,1
     945              
     946              ;***************************************************************
     947              ;* FNAME: _ModbusParseCmd               FR SIZE:   4           *
     948              ;*                                                             *
     949              ;* FUNCTION ENVIRONMENT                                        *
     950              ;*                                                             *
     951              ;* FUNCTION PROPERTIES                                         *
     952              ;*                            0 Parameter,  2 Auto,  2 SOE     *
     953              ;***************************************************************
     954              
     955 00000043       _ModbusParseCmd:
     956 00000043 761F-         MOVW      DP,#_modbusrxcharcount
         00000044 0004 
     957 00000045 B2BD          MOVL      *SP++,XAR1
     958 00000046 270B-         MOV       PL,@_modbusrxcharcount ; |141| 
     959 00000047 FE02          ADDB      SP,#2
     960 00000048 761F-         MOVW      DP,#_modbusrxcharcount
         00000049 0004 
     961 0000004a 2B0B-         MOV       @_modbusrxcharcount,#0 ; |142| 
     962 0000004b 5DAD          MOVZ      AR5,SP                ; |143| 
     963 0000004c 761F-         MOVW      DP,#_modbuscmdbufptr
         0000004d 0004 
     964 0000004e 92AB          MOV       AL,PL                 ; |143| 
     965 0000004f 8A0C-         MOVL      XAR4,@_modbuscmdbufptr ; |143| 
     966 00000050 DD82          SUBB      XAR5,#2               ; |143| 
     967 00000051 9CFE          ADDB      AL,#-2
     968 00000052 7640'         LCR       #_CalcCRC             ; |143| 
         00000053 0020 
     969                      ; call occurs [#_CalcCRC] ; |143| 
TMS320C2000 COFF Assembler PC v4.1.3 Thu Aug 18 12:16:25 2016

Tools Copyright (c) 1996-2006 Texas Instruments Incorporated
PCModBus.asm                                                         PAGE   19

     970 00000054 5CAD          MOVZ      AR4,SP                ; |144| 
     971 00000055 DC82          SUBB      XAR4,#2               ; |144| 
     972 00000056 0EAB          MOVU      ACC,PL
     973 00000057 7640'         LCR       #_CompareCRC          ; |144| 
         00000058 00CE 
     974                      ; call occurs [#_CompareCRC] ; |144| 
     975 00000059 5200          CMPB      AL,#0                 ; |144| 
     976 0000005a ED05          BF        L5,NEQ                ; |144| 
     977                      ; branchcc occurs ; |144| 
     978 0000005b 28A9          MOV       AL,#-3                ; |150| 
         0000005c FFFD 
     979 0000005d 56CF          BF        L12,UNC               ; |150| 
         0000005e 006E 
     980                      ; branch occurs ; |150| 
     981 0000005f       L5:    
     982 0000005f 8F00-         MOVL      XAR4,#_modbuscmdbuf   ; |153| 
         00000060 0000 
     983 00000061 92C4          MOV       AL,*+XAR4[0]          ; |153| 
     984 00000062 5201          CMPB      AL,#1                 ; |153| 
     985 00000063 EC05          BF        L6,EQ                 ; |153| 
     986                      ; branchcc occurs ; |153| 
     987 00000064 28A9          MOV       AL,#-1                ; |197| 
         00000065 FFFF 
     988 00000066 56CF          BF        L12,UNC               ; |197| 
         00000067 0065 
     989                      ; branch occurs ; |197| 
     990 00000068       L6:    
     991 00000068 92C4          MOV       AL,*+XAR4[0]          ; |155| 
     992 00000069 761F-         MOVW      DP,#_pcmodbus
         0000006a 0000 
     993 0000006b 9600-         MOV       @_pcmodbus,AL         ; |155| 
     994 0000006c 761F-         MOVW      DP,#_pcmodbus+1
         0000006d 0000 
     995 0000006e 92CC          MOV       AL,*+XAR4[1]          ; |156| 
     996 0000006f 9601-         MOV       @_pcmodbus+1,AL       ; |156| 
     997 00000070 93DC          MOV       AH,*+XAR4[3]          ; |159| 
     998 00000071 92D4          MOV       AL,*+XAR4[2]          ; |157| 
     999 00000072 91FF          ANDB      AH,#0xff              ; |159| 
    1000 00000073 FF87          LSL       AL,8                  ; |158| 
    1001 00000074 761F-         MOVW      DP,#_pcmodbus+2
         00000075 0000 
    1002 00000076 94A8          ADD       AL,AH                 ; |159| 
    1003 00000077 9602-         MOV       @_pcmodbus+2,AL       ; |160| 
    1004 00000078 761F-         MOVW      DP,#_pcmodbus+1
         00000079 0000 
    1005 0000007a 9201-         MOV       AL,@_pcmodbus+1       ; |161| 
    1006 0000007b 5203          CMPB      AL,#3                 ; |161| 
    1007 0000007c EC3F          BF        L10,EQ                ; |161| 
    1008                      ; branchcc occurs ; |161| 
    1009 0000007d 5206          CMPB      AL,#6                 ; |161| 
    1010 0000007e EC05          BF        L7,EQ                 ; |161| 
    1011                      ; branchcc occurs ; |161| 
    1012 0000007f 5210          CMPB      AL,#16                ; |161| 
    1013 00000080 EC11          BF        L8,EQ                 ; |161| 
    1014                      ; branchcc occurs ; |161| 
TMS320C2000 COFF Assembler PC v4.1.3 Thu Aug 18 12:16:25 2016

Tools Copyright (c) 1996-2006 Texas Instruments Incorporated
PCModBus.asm                                                         PAGE   20

    1015 00000081 56CF          BF        L11,UNC               ; |161| 
         00000082 0049 
    1016                      ; branch occurs ; |161| 
    1017 00000083       L7:    
    1018 00000083 761F-         MOVW      DP,#_pcmodbus+3
         00000084 0000 
    1019 00000085 2803-         MOV       @_pcmodbus+3,#1       ; |171| 
         00000086 0001 
    1020 00000087 92E4          MOV       AL,*+XAR4[4]          ; |172| 
    1021 00000088 93EC          MOV       AH,*+XAR4[5]          ; |174| 
    1022 00000089 FF87          LSL       AL,8                  ; |173| 
    1023 0000008a 91FF          ANDB      AH,#0xff              ; |174| 
    1024 0000008b 94A8          ADD       AL,AH                 ; |174| 
    1025 0000008c 761F-         MOVW      DP,#_pcmodbus+5
         0000008d 0000 
    1026 0000008e 9605-         MOV       @_pcmodbus+5,AL       ; |175| 
    1027 0000008f 56CF          BF        L11,UNC               ; |176| 
         00000090 003B 
    1028                      ; branch occurs ; |176| 
    1029 00000091       L8:    
    1030 00000091 93EC          MOV       AH,*+XAR4[5]          ; |180| 
    1031 00000092 92E4          MOV       AL,*+XAR4[4]          ; |178| 
    1032 00000093 761F-         MOVW      DP,#_pcmodbus+3
         00000094 0000 
    1033 00000095 91FF          ANDB      AH,#0xff              ; |180| 
    1034 00000096 FF87          LSL       AL,8                  ; |179| 
    1035 00000097 94A8          ADD       AL,AH                 ; |180| 
    1036 00000098 9603-         MOV       @_pcmodbus+3,AL       ; |181| 
    1037 00000099 761F-         MOVW      DP,#_pcmodbus+4
         0000009a 0000 
    1038 0000009b 92F4          MOV       AL,*+XAR4[6]          ; |182| 
    1039 0000009c 9604-         MOV       @_pcmodbus+4,AL       ; |182| 
    1040 0000009d 761F-         MOVW      DP,#_pcmodbus+3
         0000009e 0000 
    1041 0000009f 9203-         MOV       AL,@_pcmodbus+3       ; |184| 
    1042 000000a0 D107          MOVB      XAR1,#7               ; |183| 
    1043 000000a1 D400          MOVB      XAR4,#0
    1044 000000a2 EC28          BF        L11,EQ                ; |184| 
    1045                      ; branchcc occurs ; |184| 
    1046              L9:    
    1047              DW$L$_ModbusParseCmd$11$B:
    1048                      .dwpsn  "PCModBus.c",185,0
    1049 000000a3 93A1          MOV       AH,AR1
    1050 000000a4 D001          MOVB      XAR0,#1               ; |188| 
    1051 000000a5 73A0          ADD       AR0,AH
    1052 000000a6 8F40-         MOVL      XAR5,#_modbuscmdbuf   ; |186| 
         000000a7 0000 
    1053 000000a8 929D          MOV       AL,*+XAR5[AR1]        ; |186| 
    1054 000000a9 761F-         MOVW      DP,#_pcmodbus+3
         000000aa 0000 
    1055 000000ab 9395          MOV       AH,*+XAR5[AR0]        ; |188| 
    1056 000000ac FF87          LSL       AL,8                  ; |187| 
    1057 000000ad 91FF          ANDB      AH,#0xff              ; |188| 
    1058 000000ae D902          ADDB      XAR1,#2               ; |190| 
    1059 000000af 58A4          MOVZ      AR0,AR4               ; |189| 
TMS320C2000 COFF Assembler PC v4.1.3 Thu Aug 18 12:16:25 2016

Tools Copyright (c) 1996-2006 Texas Instruments Incorporated
PCModBus.asm                                                         PAGE   21

    1060 000000b0 94A8          ADD       AL,AH                 ; |188| 
    1061 000000b1 8F40-         MOVL      XAR5,#_pcmodbus+5     ; |189| 
         000000b2 0005 
    1062 000000b3 DC01          ADDB      XAR4,#1               ; |184| 
    1063 000000b4 9695          MOV       *+XAR5[AR0],AL        ; |189| 
    1064 000000b5 92A4          MOV       AL,AR4                ; |184| 
    1065 000000b6 5403-         CMP       AL,@_pcmodbus+3       ; |184| 
    1066                      .dwpsn  "PCModBus.c",191,0
    1067 000000b7 56C8          BF        L9,LO                 ; |184| 
         000000b8 FFEC 
    1068                      ; branchcc occurs ; |184| 
    1069 000000b9       DW$L$_ModbusParseCmd$11$E:
    1070 000000b9 56CF          BF        L11,UNC               ; |184| 
         000000ba 0011 
    1071                      ; branch occurs ; |184| 
    1072 000000bb       L10:    
    1073 000000bb 92E4          MOV       AL,*+XAR4[4]          ; |164| 
    1074 000000bc 93EC          MOV       AH,*+XAR4[5]          ; |166| 
    1075 000000bd FF87          LSL       AL,8                  ; |165| 
    1076 000000be 761F-         MOVW      DP,#_pcmodbus+3
         000000bf 0000 
    1077 000000c0 91FF          ANDB      AH,#0xff              ; |166| 
    1078 000000c1 94A8          ADD       AL,AH                 ; |166| 
    1079 000000c2 9603-         MOV       @_pcmodbus+3,AL       ; |167| 
    1080 000000c3 761F-         MOVW      DP,#_pcmodbus+3
         000000c4 0000 
    1081 000000c5 5603-         MOV       ACC,@_pcmodbus+3 << #1 ; |168| 
         000000c6 0103 
    1082 000000c7 761F-         MOVW      DP,#_pcmodbus+4
         000000c8 0000 
    1083 000000c9 9604-         MOV       @_pcmodbus+4,AL       ; |168| 
    1084 000000ca       L11:    
    1085 000000ca 9A01          MOVB      AL,#1                 ; |194| 
    1086 000000cb       L12:    
    1087 000000cb FE82          SUBB      SP,#2                 ; |194| 
    1088 000000cc 8BBE          MOVL      XAR1,*--SP            ; |194| 
    1089                      .dwpsn  "PCModBus.c",199,1
    1090 000000cd 0006          LRETR
    1091                      ; return occurs
    1092              
    1093              DW$195  .dwtag  DW_TAG_loop
    1094                      .dwattr DW$195, DW_AT_name("D:\DEV\Amot\BearingWear\XTSW_V6_20\PCModBus.asm:L9:1:1471518984")
    1095                      .dwattr DW$195, DW_AT_begin_file("PCModBus.c")
    1096                      .dwattr DW$195, DW_AT_begin_line(0xb8)
    1097                      .dwattr DW$195, DW_AT_end_line(0xbf)
    1098              DW$196  .dwtag  DW_TAG_loop_range
    1099                      .dwattr DW$196, DW_AT_low_pc(DW$L$_ModbusParseCmd$11$B)
    1100                      .dwattr DW$196, DW_AT_high_pc(DW$L$_ModbusParseCmd$11$E)
    1101                      .dwendtag DW$195
    1102              
    1103                      .dwattr DW$194, DW_AT_end_file("PCModBus.c")
    1104                      .dwattr DW$194, DW_AT_end_line(0xc7)
    1105                      .dwattr DW$194, DW_AT_end_column(0x01)
    1106                      .dwendtag DW$194
    1107              
TMS320C2000 COFF Assembler PC v4.1.3 Thu Aug 18 12:16:25 2016

Tools Copyright (c) 1996-2006 Texas Instruments Incorporated
PCModBus.asm                                                         PAGE   22

    1108 000000ce               .sect   ".text"
    1109                      .global _CompareCRC
    1110              
    1111              DW$197  .dwtag  DW_TAG_subprogram, DW_AT_name("CompareCRC"), DW_AT_symbol_name("_CompareCRC")
    1112                      .dwattr DW$197, DW_AT_low_pc(_CompareCRC)
    1113                      .dwattr DW$197, DW_AT_high_pc(0x00)
    1114                      .dwattr DW$197, DW_AT_begin_file("PCModBus.c")
    1115                      .dwattr DW$197, DW_AT_begin_line(0xcc)
    1116                      .dwattr DW$197, DW_AT_begin_column(0x0f)
    1117                      .dwattr DW$197, DW_AT_frame_base[DW_OP_breg20 -2]
    1118                      .dwattr DW$197, DW_AT_skeletal(0x01)
    1119                      .dwpsn  "PCModBus.c",205,1
    1120              
    1121              ;***************************************************************
    1122              ;* FNAME: _CompareCRC                   FR SIZE:   0           *
    1123              ;*                                                             *
    1124              ;* FUNCTION ENVIRONMENT                                        *
    1125              ;*                                                             *
    1126              ;* FUNCTION PROPERTIES                                         *
    1127              ;*                            0 Parameter,  0 Auto,  0 SOE     *
    1128              ;***************************************************************
    1129              
    1130              _CompareCRC:
    1131              ;* AR4   assigned to _crc
    1132              DW$198  .dwtag  DW_TAG_formal_parameter, DW_AT_name("crc"), DW_AT_symbol_name("_crc")
    1133                      .dwattr DW$198, DW_AT_type(*DW$T$122)
    1134                      .dwattr DW$198, DW_AT_location[DW_OP_reg12]
    1135              ;* AL    assigned to _len
    1136              DW$199  .dwtag  DW_TAG_formal_parameter, DW_AT_name("len"), DW_AT_symbol_name("_len")
    1137                      .dwattr DW$199, DW_AT_type(*DW$T$13)
    1138                      .dwattr DW$199, DW_AT_location[DW_OP_reg0]
    1139 000000ce 76BF-         MOVL      XAR6,#_modbuscmdbuf-2 ; |206| 
         000000cf FFFE 
    1140 000000d0 5601          ADDL      XAR6,ACC
         000000d1 00A6 
    1141 000000d2 D500          MOVB      XAR5,#0
    1142 000000d3 1EA7          MOVL      XAR7,ACC              ; |205| 
    1143 000000d4 92C4          MOV       AL,*+XAR4[0]          ; |206| 
    1144 000000d5 54C6          CMP       AL,*+XAR6[0]          ; |206| 
    1145 000000d6 ED0A          BF        L13,NEQ               ; |206| 
    1146                      ; branchcc occurs ; |206| 
    1147 000000d7 06A7          MOVL      ACC,XAR7              ; |206| 
    1148 000000d8 76BF-         MOVL      XAR6,#_modbuscmdbuf-1 ; |206| 
         000000d9 FFFF 
    1149 000000da 5601          ADDL      XAR6,ACC
         000000db 00A6 
    1150 000000dc 93CC          MOV       AH,*+XAR4[1]          ; |206| 
    1151 000000dd 55C6          CMP       AH,*+XAR6[0]          ; |206| 
    1152 000000de ED02          BF        L13,NEQ               ; |206| 
    1153                      ; branchcc occurs ; |206| 
    1154 000000df D501          MOVB      XAR5,#1               ; |206| 
    1155 000000e0       L13:    
    1156 000000e0 92A5          MOV       AL,AR5                ; |206| 
    1157                      .dwpsn  "PCModBus.c",212,1
    1158 000000e1 0006          LRETR
TMS320C2000 COFF Assembler PC v4.1.3 Thu Aug 18 12:16:25 2016

Tools Copyright (c) 1996-2006 Texas Instruments Incorporated
PCModBus.asm                                                         PAGE   23

    1159                      ; return occurs
    1160                      .dwattr DW$197, DW_AT_end_file("PCModBus.c")
    1161                      .dwattr DW$197, DW_AT_end_line(0xd4)
    1162                      .dwattr DW$197, DW_AT_end_column(0x01)
    1163                      .dwendtag DW$197
    1164              
    1165 000000e2               .sect   ".text"
    1166                      .global _ParseHeader
    1167              
    1168              DW$200  .dwtag  DW_TAG_subprogram, DW_AT_name("ParseHeader"), DW_AT_symbol_name("_ParseHeader")
    1169                      .dwattr DW$200, DW_AT_low_pc(_ParseHeader)
    1170                      .dwattr DW$200, DW_AT_high_pc(0x00)
    1171                      .dwattr DW$200, DW_AT_begin_file("PCModBus.c")
    1172                      .dwattr DW$200, DW_AT_begin_line(0xd6)
    1173                      .dwattr DW$200, DW_AT_begin_column(0x06)
    1174                      .dwattr DW$200, DW_AT_frame_base[DW_OP_breg20 -2]
    1175                      .dwattr DW$200, DW_AT_skeletal(0x01)
    1176                      .dwpsn  "PCModBus.c",215,1
    1177              
    1178              ;***************************************************************
    1179              ;* FNAME: _ParseHeader                  FR SIZE:   0           *
    1180              ;*                                                             *
    1181              ;* FUNCTION ENVIRONMENT                                        *
    1182              ;*                                                             *
    1183              ;* FUNCTION PROPERTIES                                         *
    1184              ;*                            0 Parameter,  0 Auto,  0 SOE     *
    1185              ;***************************************************************
    1186              
    1187 000000e2       _ParseHeader:
    1188 000000e2 761F-         MOVW      DP,#_modbusrxcharcount
         000000e3 0004 
    1189 000000e4 920B-         MOV       AL,@_modbusrxcharcount ; |218| 
    1190 000000e5 5206          CMPB      AL,#6                 ; |218| 
    1191 000000e6 56C9          BF        L16,LOS               ; |218| 
         000000e7 0040 
    1192                      ; branchcc occurs ; |218| 
    1193 000000e8 761F-         MOVW      DP,#_numbytesexpected
         000000e9 0004 
    1194 000000ea 920E-         MOV       AL,@_numbytesexpected ; |218| 
    1195 000000eb ED3B          BF        L16,NEQ               ; |218| 
    1196                      ; branchcc occurs ; |218| 
    1197 000000ec 761F!         MOVW      DP,#_safe2+14
         000000ed 0000 
    1198 000000ee 8F00-         MOVL      XAR4,#_modbuscmdbuf   ; |220| 
         000000ef 0000 
    1199 000000f0 920E!         MOV       AL,@_safe2+14         ; |220| 
    1200 000000f1 54C4          CMP       AL,*+XAR4[0]          ; |220| 
    1201 000000f2 ED20          BF        L14,NEQ               ; |220| 
    1202                      ; branchcc occurs ; |220| 
    1203 000000f3 92C4          MOV       AL,*+XAR4[0]          ; |222| 
    1204 000000f4 761F-         MOVW      DP,#_pcmodbus
         000000f5 0000 
    1205 000000f6 9600-         MOV       @_pcmodbus,AL         ; |222| 
    1206 000000f7 761F-         MOVW      DP,#_pcmodbus+1
         000000f8 0000 
TMS320C2000 COFF Assembler PC v4.1.3 Thu Aug 18 12:16:25 2016

Tools Copyright (c) 1996-2006 Texas Instruments Incorporated
PCModBus.asm                                                         PAGE   24

    1207 000000f9 92CC          MOV       AL,*+XAR4[1]          ; |223| 
    1208 000000fa 9601-         MOV       @_pcmodbus+1,AL       ; |223| 
    1209 000000fb 93DC          MOV       AH,*+XAR4[3]          ; |226| 
    1210 000000fc 92D4          MOV       AL,*+XAR4[2]          ; |224| 
    1211 000000fd 91FF          ANDB      AH,#0xff              ; |226| 
    1212 000000fe FF87          LSL       AL,8                  ; |225| 
    1213 000000ff 761F-         MOVW      DP,#_pcmodbus+2
         00000100 0000 
    1214 00000101 94A8          ADD       AL,AH                 ; |226| 
    1215 00000102 9602-         MOV       @_pcmodbus+2,AL       ; |227| 
    1216 00000103 93EC          MOV       AH,*+XAR4[5]          ; |230| 
    1217 00000104 92E4          MOV       AL,*+XAR4[4]          ; |228| 
    1218 00000105 91FF          ANDB      AH,#0xff              ; |230| 
    1219 00000106 FF87          LSL       AL,8                  ; |229| 
    1220 00000107 761F-         MOVW      DP,#_pcmodbus+3
         00000108 0000 
    1221 00000109 94A8          ADD       AL,AH                 ; |230| 
    1222 0000010a 9603-         MOV       @_pcmodbus+3,AL       ; |231| 
    1223 0000010b 761F-         MOVW      DP,#_pcmodbus+3
         0000010c 0000 
    1224 0000010d 5603-         MOV       ACC,@_pcmodbus+3 << #1 ; |232| 
         0000010e 0103 
    1225 0000010f 761F-         MOVW      DP,#_pcmodbus+4
         00000110 0000 
    1226 00000111 9604-         MOV       @_pcmodbus+4,AL       ; |232| 
    1227 00000112       L14:    
    1228 00000112 761F-         MOVW      DP,#_pcmodbus+1
         00000113 0000 
    1229 00000114 9201-         MOV       AL,@_pcmodbus+1       ; |234| 
    1230 00000115 5203          CMPB      AL,#3                 ; |234| 
    1231 00000116 EC0C          BF        L15,EQ                ; |234| 
    1232                      ; branchcc occurs ; |234| 
    1233 00000117 5210          CMPB      AL,#16                ; |234| 
    1234 00000118 ED0E          BF        L16,NEQ               ; |234| 
    1235                      ; branchcc occurs ; |234| 
    1236 00000119 761F-         MOVW      DP,#_pcmodbus+4
         0000011a 0000 
    1237 0000011b 9204-         MOV       AL,@_pcmodbus+4       ; |240| 
    1238 0000011c 9C09          ADDB      AL,#9                 ; |240| 
    1239 0000011d 761F-         MOVW      DP,#_numbytesexpected
         0000011e 0004 
    1240 0000011f 960E-         MOV       @_numbytesexpected,AL ; |240| 
    1241 00000120 56CF          BF        L16,UNC               ; |241| 
         00000121 0006 
    1242                      ; branch occurs ; |241| 
    1243 00000122       L15:    
    1244 00000122 761F-         MOVW      DP,#_numbytesexpected
         00000123 0004 
    1245 00000124 280E-         MOV       @_numbytesexpected,#8 ; |237| 
         00000125 0008 
    1246              L16:    
    1247                      .dwpsn  "PCModBus.c",244,1
    1248 00000126 0006          LRETR
    1249                      ; return occurs
    1250                      .dwattr DW$200, DW_AT_end_file("PCModBus.c")
TMS320C2000 COFF Assembler PC v4.1.3 Thu Aug 18 12:16:25 2016

Tools Copyright (c) 1996-2006 Texas Instruments Incorporated
PCModBus.asm                                                         PAGE   25

    1251                      .dwattr DW$200, DW_AT_end_line(0xf4)
    1252                      .dwattr DW$200, DW_AT_end_column(0x01)
    1253                      .dwendtag DW$200
    1254              
    1255 00000127               .sect   ".text"
    1256                      .global _Serial
    1257              
    1258              DW$201  .dwtag  DW_TAG_subprogram, DW_AT_name("Serial"), DW_AT_symbol_name("_Serial")
    1259                      .dwattr DW$201, DW_AT_low_pc(_Serial)
    1260                      .dwattr DW$201, DW_AT_high_pc(0x00)
    1261                      .dwattr DW$201, DW_AT_begin_file("PCModBus.c")
    1262                      .dwattr DW$201, DW_AT_begin_line(0xf6)
    1263                      .dwattr DW$201, DW_AT_begin_column(0x06)
    1264                      .dwattr DW$201, DW_AT_frame_base[DW_OP_breg20 -4]
    1265                      .dwattr DW$201, DW_AT_skeletal(0x01)
    1266                      .dwpsn  "PCModBus.c",247,1
    1267              
    1268              ;***************************************************************
    1269              ;* FNAME: _Serial                       FR SIZE:   2           *
    1270              ;*                                                             *
    1271              ;* FUNCTION ENVIRONMENT                                        *
    1272              ;*                                                             *
    1273              ;* FUNCTION PROPERTIES                                         *
    1274              ;*                            0 Parameter,  0 Auto,  2 SOE     *
    1275              ;***************************************************************
    1276              
    1277 00000127       _Serial:
    1278 00000127 B2BD          MOVL      *SP++,XAR1
    1279 00000128 D100          MOVB      XAR1,#0
    1280 00000129 56CF          BF        L18,UNC
         0000012a 0006 
    1281                      ; branch occurs
    1282 0000012b       L17:    
    1283 0000012b       DW$L$_Serial$2$B:
    1284 0000012b 761F!         MOVW      DP,#_timers+38
         0000012c 0000 
    1285 0000012d 2826!         MOV       @_timers+38,#4        ; |258| 
         0000012e 0004 
    1286 0000012f       DW$L$_Serial$2$E:
    1287 0000012f       L18:    
    1288 0000012f       DW$L$_Serial$3$B:
    1289 0000012f 7640!         LCR       #_ReadCharfromUartB   ; |252| 
         00000130 0000 
    1290                      ; call occurs [#_ReadCharfromUartB] ; |252| 
    1291 00000131 5200          CMPB      AL,#0                 ; |252| 
    1292 00000132 ED14          BF        L19,NEQ               ; |252| 
    1293                      ; branchcc occurs ; |252| 
    1294 00000133       DW$L$_Serial$3$E:
    1295 00000133       DW$L$_Serial$4$B:
    1296 00000133 761F!         MOVW      DP,#_timers+38
         00000134 0000 
    1297 00000135 9226!         MOV       AL,@_timers+38        ; |260| 
    1298 00000136 ED1F          BF        L20,NEQ               ; |260| 
    1299                      ; branchcc occurs ; |260| 
    1300 00000137       DW$L$_Serial$4$E:
TMS320C2000 COFF Assembler PC v4.1.3 Thu Aug 18 12:16:25 2016

Tools Copyright (c) 1996-2006 Texas Instruments Incorporated
PCModBus.asm                                                         PAGE   26

    1301 00000137       DW$L$_Serial$5$B:
    1302 00000137 92A1          MOV       AL,AR1
    1303 00000138 5201          CMPB      AL,#1                 ; |260| 
    1304 00000139 ED1C          BF        L20,NEQ               ; |260| 
    1305                      ; branchcc occurs ; |260| 
    1306 0000013a       DW$L$_Serial$5$E:
    1307 0000013a 761F-         MOVW      DP,#_numbytesexpected
         0000013b 0004 
    1308 0000013c 8F00-         MOVL      XAR4,#_modbuscmdbuf   ; |263| 
         0000013d 0000 
    1309 0000013e 2B0E-         MOV       @_numbytesexpected,#0 ; |262| 
    1310 0000013f 761F-         MOVW      DP,#_modbuscmdbufptr
         00000140 0004 
    1311 00000141 A80C-         MOVL      @_modbuscmdbufptr,XAR4 ; |263| 
    1312 00000142 7640'         LCR       #_ModbusParseCmd      ; |264| 
         00000143 0043 
    1313                      ; call occurs [#_ModbusParseCmd] ; |264| 
    1314 00000144 56CF          BF        L21,UNC               ; |264| 
         00000145 0015 
    1315                      ; branch occurs ; |264| 
    1316 00000146       L19:    
    1317 00000146       DW$L$_Serial$7$B:
    1318 00000146 7640'         LCR       #_HandleChar          ; |254| 
         00000147 0000 
    1319                      ; call occurs [#_HandleChar] ; |254| 
    1320 00000148 7640'         LCR       #_ParseHeader         ; |255| 
         00000149 00E2 
    1321                      ; call occurs [#_ParseHeader] ; |255| 
    1322 0000014a D101          MOVB      XAR1,#1               ; |256| 
    1323 0000014b 761F-         MOVW      DP,#_modbusrxcharcount
         0000014c 0004 
    1324 0000014d 920B-         MOV       AL,@_modbusrxcharcount ; |257| 
    1325 0000014e 761F-         MOVW      DP,#_numbytesexpected
         0000014f 0004 
    1326 00000150 540E-         CMP       AL,@_numbytesexpected ; |257| 
    1327 00000151 EDDA          BF        L17,NEQ               ; |257| 
    1328                      ; branchcc occurs ; |257| 
    1329 00000152       DW$L$_Serial$7$E:
    1330 00000152       DW$L$_Serial$8$B:
    1331 00000152 761F!         MOVW      DP,#_timers+38
         00000153 0000 
    1332 00000154 2B26!         MOV       @_timers+38,#0        ; |257| 
    1333 00000155       DW$L$_Serial$8$E:
    1334 00000155       L20:    
    1335 00000155       DW$L$_Serial$9$B:
    1336 00000155 92A1          MOV       AL,AR1
    1337 00000156 5201          CMPB      AL,#1                 ; |266| 
    1338 00000157 ECD8          BF        L18,EQ                ; |266| 
    1339                      ; branchcc occurs ; |266| 
    1340 00000158       DW$L$_Serial$9$E:
    1341 00000158 9A00          MOVB      AL,#0
    1342 00000159       L21:    
    1343 00000159 8BBE          MOVL      XAR1,*--SP            ; |267| 
    1344                      .dwpsn  "PCModBus.c",268,1
    1345 0000015a 0006          LRETR
TMS320C2000 COFF Assembler PC v4.1.3 Thu Aug 18 12:16:25 2016

Tools Copyright (c) 1996-2006 Texas Instruments Incorporated
PCModBus.asm                                                         PAGE   27

    1346                      ; return occurs
    1347              
    1348              DW$202  .dwtag  DW_TAG_loop
    1349                      .dwattr DW$202, DW_AT_name("D:\DEV\Amot\BearingWear\XTSW_V6_20\PCModBus.asm:L18:1:1471518984")
    1350                      .dwattr DW$202, DW_AT_begin_file("PCModBus.c")
    1351                      .dwattr DW$202, DW_AT_begin_line(0xfc)
    1352                      .dwattr DW$202, DW_AT_end_line(0x10a)
    1353              DW$203  .dwtag  DW_TAG_loop_range
    1354                      .dwattr DW$203, DW_AT_low_pc(DW$L$_Serial$3$B)
    1355                      .dwattr DW$203, DW_AT_high_pc(DW$L$_Serial$3$E)
    1356              DW$204  .dwtag  DW_TAG_loop_range
    1357                      .dwattr DW$204, DW_AT_low_pc(DW$L$_Serial$4$B)
    1358                      .dwattr DW$204, DW_AT_high_pc(DW$L$_Serial$4$E)
    1359              DW$205  .dwtag  DW_TAG_loop_range
    1360                      .dwattr DW$205, DW_AT_low_pc(DW$L$_Serial$5$B)
    1361                      .dwattr DW$205, DW_AT_high_pc(DW$L$_Serial$5$E)
    1362              DW$206  .dwtag  DW_TAG_loop_range
    1363                      .dwattr DW$206, DW_AT_low_pc(DW$L$_Serial$8$B)
    1364                      .dwattr DW$206, DW_AT_high_pc(DW$L$_Serial$8$E)
    1365              DW$207  .dwtag  DW_TAG_loop_range
    1366                      .dwattr DW$207, DW_AT_low_pc(DW$L$_Serial$7$B)
    1367                      .dwattr DW$207, DW_AT_high_pc(DW$L$_Serial$7$E)
    1368              DW$208  .dwtag  DW_TAG_loop_range
    1369                      .dwattr DW$208, DW_AT_low_pc(DW$L$_Serial$9$B)
    1370                      .dwattr DW$208, DW_AT_high_pc(DW$L$_Serial$9$E)
    1371              DW$209  .dwtag  DW_TAG_loop_range
    1372                      .dwattr DW$209, DW_AT_low_pc(DW$L$_Serial$2$B)
    1373                      .dwattr DW$209, DW_AT_high_pc(DW$L$_Serial$2$E)
    1374                      .dwendtag DW$202
    1375              
    1376                      .dwattr DW$201, DW_AT_end_file("PCModBus.c")
    1377                      .dwattr DW$201, DW_AT_end_line(0x10c)
    1378                      .dwattr DW$201, DW_AT_end_column(0x01)
    1379                      .dwendtag DW$201
    1380              
    1381 0000015b               .sect   ".text"
    1382                      .global _PCModBus
    1383              
    1384              DW$210  .dwtag  DW_TAG_subprogram, DW_AT_name("PCModBus"), DW_AT_symbol_name("_PCModBus")
    1385                      .dwattr DW$210, DW_AT_low_pc(_PCModBus)
    1386                      .dwattr DW$210, DW_AT_high_pc(0x00)
    1387                      .dwattr DW$210, DW_AT_begin_file("PCModBus.c")
    1388                      .dwattr DW$210, DW_AT_begin_line(0x111)
    1389                      .dwattr DW$210, DW_AT_begin_column(0x06)
    1390                      .dwattr DW$210, DW_AT_frame_base[DW_OP_breg20 -2]
    1391                      .dwattr DW$210, DW_AT_skeletal(0x01)
    1392                      .dwpsn  "PCModBus.c",274,1
    1393              
    1394              ;***************************************************************
    1395              ;* FNAME: _PCModBus                     FR SIZE:   0           *
    1396              ;*                                                             *
    1397              ;* FUNCTION ENVIRONMENT                                        *
    1398              ;*                                                             *
    1399              ;* FUNCTION PROPERTIES                                         *
    1400              ;*                            0 Parameter,  0 Auto,  0 SOE     *
TMS320C2000 COFF Assembler PC v4.1.3 Thu Aug 18 12:16:25 2016

Tools Copyright (c) 1996-2006 Texas Instruments Incorporated
PCModBus.asm                                                         PAGE   28

    1401              ;***************************************************************
    1402              
    1403 0000015b       _PCModBus:
    1404 0000015b 7640'         LCR       #_Serial              ; |276| 
         0000015c 0127 
    1405                      ; call occurs [#_Serial] ; |276| 
    1406 0000015d 5201          CMPB      AL,#1                 ; |276| 
    1407 0000015e ED0C          BF        L22,NEQ               ; |276| 
    1408                      ; branchcc occurs ; |276| 
    1409 0000015f 0201          MOVB      ACC,#1
    1410 00000160 761F!         MOVW      DP,#_config+20
         00000161 0000 
    1411 00000162 5601!         ADDL      @_config+20,ACC       ; |278| 
         00000163 0014 
    1412 00000164 7640'         LCR       #_SendResponse        ; |279| 
         00000165 017B 
    1413                      ; call occurs [#_SendResponse] ; |279| 
    1414 00000166 761F!         MOVW      DP,#_settings
         00000167 0000 
    1415 00000168 2800!         MOV       @_settings,#1         ; |280| 
         00000169 0001 
    1416 0000016a       L22:    
    1417 0000016a 761F!         MOVW      DP,#_timers+57
         0000016b 0000 
    1418 0000016c 9239!         MOV       AL,@_timers+57        ; |282| 
    1419 0000016d ED09          BF        L23,NEQ               ; |282| 
    1420                      ; branchcc occurs ; |282| 
    1421 0000016e 761F-         MOVW      DP,#_pcmodbus+271
         0000016f 0004 
    1422 00000170 920F-         MOV       AL,@_pcmodbus+271     ; |282| 
    1423 00000171 ED05          BF        L23,NEQ               ; |282| 
    1424                      ; branchcc occurs ; |282| 
    1425 00000172 761F-         MOVW      DP,#_pcmodbus+271
         00000173 0004 
    1426 00000174 280F-         MOV       @_pcmodbus+271,#1     ; |286| 
         00000175 0001 
    1427              L23:    
    1428                      .dwpsn  "PCModBus.c",292,1
    1429 00000176 0006          LRETR
    1430                      ; return occurs
    1431                      .dwattr DW$210, DW_AT_end_file("PCModBus.c")
    1432                      .dwattr DW$210, DW_AT_end_line(0x124)
    1433                      .dwattr DW$210, DW_AT_end_column(0x01)
    1434                      .dwendtag DW$210
    1435              
    1436 00000177               .sect   ".text"
    1437                      .global _ReadPCCommsFlag
    1438              
    1439              DW$211  .dwtag  DW_TAG_subprogram, DW_AT_name("ReadPCCommsFlag"), DW_AT_symbol_name("_ReadPCCommsFlag")
    1440                      .dwattr DW$211, DW_AT_low_pc(_ReadPCCommsFlag)
    1441                      .dwattr DW$211, DW_AT_high_pc(0x00)
    1442                      .dwattr DW$211, DW_AT_begin_file("PCModBus.c")
    1443                      .dwattr DW$211, DW_AT_begin_line(0x126)
    1444                      .dwattr DW$211, DW_AT_begin_column(0x05)
    1445                      .dwattr DW$211, DW_AT_frame_base[DW_OP_breg20 -2]
TMS320C2000 COFF Assembler PC v4.1.3 Thu Aug 18 12:16:25 2016

Tools Copyright (c) 1996-2006 Texas Instruments Incorporated
PCModBus.asm                                                         PAGE   29

    1446                      .dwattr DW$211, DW_AT_skeletal(0x01)
    1447                      .dwpsn  "PCModBus.c",295,1
    1448              
    1449              ;***************************************************************
    1450              ;* FNAME: _ReadPCCommsFlag              FR SIZE:   0           *
    1451              ;*                                                             *
    1452              ;* FUNCTION ENVIRONMENT                                        *
    1453              ;*                                                             *
    1454              ;* FUNCTION PROPERTIES                                         *
    1455              ;*                            0 Parameter,  0 Auto,  0 SOE     *
    1456              ;***************************************************************
    1457              
    1458 00000177       _ReadPCCommsFlag:
    1459 00000177 761F-         MOVW      DP,#_pcmodbus+271
         00000178 0004 
    1460 00000179 920F-         MOV       AL,@_pcmodbus+271     ; |296| 
    1461                      .dwpsn  "PCModBus.c",297,1
    1462 0000017a 0006          LRETR
    1463                      ; return occurs
    1464                      .dwattr DW$211, DW_AT_end_file("PCModBus.c")
    1465                      .dwattr DW$211, DW_AT_end_line(0x129)
    1466                      .dwattr DW$211, DW_AT_end_column(0x01)
    1467                      .dwendtag DW$211
    1468              
    1469 0000017b               .sect   ".text"
    1470                      .global _SendResponse
    1471              
    1472              DW$212  .dwtag  DW_TAG_subprogram, DW_AT_name("SendResponse"), DW_AT_symbol_name("_SendResponse")
    1473                      .dwattr DW$212, DW_AT_low_pc(_SendResponse)
    1474                      .dwattr DW$212, DW_AT_high_pc(0x00)
    1475                      .dwattr DW$212, DW_AT_begin_file("PCModBus.c")
    1476                      .dwattr DW$212, DW_AT_begin_line(0x13a)
    1477                      .dwattr DW$212, DW_AT_begin_column(0x06)
    1478                      .dwattr DW$212, DW_AT_frame_base[DW_OP_breg20 -12]
    1479                      .dwattr DW$212, DW_AT_skeletal(0x01)
    1480                      .dwpsn  "PCModBus.c",315,1
    1481              
    1482              ;***************************************************************
    1483              ;* FNAME: _SendResponse                 FR SIZE:  10           *
    1484              ;*                                                             *
    1485              ;* FUNCTION ENVIRONMENT                                        *
    1486              ;*                                                             *
    1487              ;* FUNCTION PROPERTIES                                         *
    1488              ;*                            2 Parameter,  2 Auto,  6 SOE     *
    1489              ;***************************************************************
    1490              
    1491 0000017b       _SendResponse:
    1492 0000017b B2BD          MOVL      *SP++,XAR1
    1493 0000017c AABD          MOVL      *SP++,XAR2
    1494 0000017d A2BD          MOVL      *SP++,XAR3
    1495 0000017e FE04          ADDB      SP,#4
    1496 0000017f 7640'         LCR       #_Registers           ; |319| 
         00000180 0226 
    1497                      ; call occurs [#_Registers] ; |319| 
    1498 00000181 7640!         LCR       #_TxNowtoSlave        ; |321| 
TMS320C2000 COFF Assembler PC v4.1.3 Thu Aug 18 12:16:25 2016

Tools Copyright (c) 1996-2006 Texas Instruments Incorporated
PCModBus.asm                                                         PAGE   30

         00000182 0000 
    1499                      ; call occurs [#_TxNowtoSlave] ; |321| 
    1500 00000183 D200          MOVB      XAR2,#0
    1501 00000184 59A2          MOVZ      AR1,AR2               ; |316| 
    1502 00000185 761F-         MOVW      DP,#_pcmodbus+1
         00000186 0000 
    1503 00000187 9201-         MOV       AL,@_pcmodbus+1       ; |322| 
    1504 00000188 5203          CMPB      AL,#3                 ; |322| 
    1505 00000189 EC07          BF        L24,EQ                ; |322| 
    1506                      ; branchcc occurs ; |322| 
    1507 0000018a 5206          CMPB      AL,#6                 ; |322| 
    1508 0000018b EC4C          BF        L28,EQ                ; |322| 
    1509                      ; branchcc occurs ; |322| 
    1510 0000018c 5210          CMPB      AL,#16                ; |322| 
    1511 0000018d EC33          BF        L27,EQ                ; |322| 
    1512                      ; branchcc occurs ; |322| 
    1513 0000018e 56CF          BF        L30,UNC               ; |322| 
         0000018f 0064 
    1514                      ; branch occurs ; |322| 
    1515 00000190       L24:    
    1516 00000190 761F-         MOVW      DP,#_pcmodbus
         00000191 0000 
    1517 00000192 8F00-         MOVL      XAR4,#_responsemsg    ; |325| 
         00000193 0140 
    1518 00000194 9300-         MOV       AH,@_pcmodbus         ; |325| 
    1519 00000195 D103          MOVB      XAR1,#3               ; |328| 
    1520 00000196 97C4          MOV       *+XAR4[0],AH          ; |325| 
    1521 00000197 761F-         MOVW      DP,#_pcmodbus+4
         00000198 0000 
    1522 00000199 96CC          MOV       *+XAR4[1],AL          ; |326| 
    1523 0000019a 9204-         MOV       AL,@_pcmodbus+4       ; |327| 
    1524 0000019b 761F-         MOVW      DP,#_pcmodbus+3
         0000019c 0000 
    1525 0000019d 96D4          MOV       *+XAR4[2],AL          ; |327| 
    1526 0000019e 9203-         MOV       AL,@_pcmodbus+3       ; |329| 
    1527 0000019f EC53          BF        L30,EQ                ; |329| 
    1528                      ; branchcc occurs ; |329| 
    1529              L25:    
    1530              DW$L$_SendResponse$6$B:
    1531                      .dwpsn  "PCModBus.c",330,0
    1532 000001a0 58A2          MOVZ      AR0,AR2               ; |331| 
    1533 000001a1 8F00-         MOVL      XAR4,#_pcmodbus+5     ; |331| 
         000001a2 0005 
    1534 000001a3 9294          MOV       AL,*+XAR4[AR0]        ; |331| 
    1535 000001a4 93A9          MOV       AH,AL                 ; |331| 
    1536 000001a5 FFD7          LSR       AH,8                  ; |331| 
    1537 000001a6 8F00-         MOVL      XAR4,#_responsemsg    ; |331| 
         000001a7 0140 
    1538 000001a8 979C          MOV       *+XAR4[AR1],AH        ; |331| 
    1539 000001a9 90FF          ANDB      AL,#255               ; |333| 
    1540 000001aa D901          ADDB      XAR1,#1               ; |333| 
    1541 000001ab 969C          MOV       *+XAR4[AR1],AL        ; |333| 
    1542 000001ac 92A2          MOV       AL,AR2                ; |334| 
    1543 000001ad 527F          CMPB      AL,#127               ; |335| 
    1544 000001ae D901          ADDB      XAR1,#1               ; |334| 
TMS320C2000 COFF Assembler PC v4.1.3 Thu Aug 18 12:16:25 2016

Tools Copyright (c) 1996-2006 Texas Instruments Incorporated
PCModBus.asm                                                         PAGE   31

    1545 000001af 56C6          BF        L26,HI                ; |335| 
         000001b0 000B 
    1546                      ; branchcc occurs ; |335| 
    1547 000001b1       DW$L$_SendResponse$6$E:
    1548 000001b1       DW$L$_SendResponse$7$B:
    1549 000001b1 DA01          ADDB      XAR2,#1               ; |329| 
    1550 000001b2 761F-         MOVW      DP,#_pcmodbus+3
         000001b3 0000 
    1551 000001b4 92A2          MOV       AL,AR2                ; |329| 
    1552 000001b5 5403-         CMP       AL,@_pcmodbus+3       ; |329| 
    1553                      .dwpsn  "PCModBus.c",341,0
    1554 000001b6 56C8          BF        L25,LO                ; |329| 
         000001b7 FFEA 
    1555                      ; branchcc occurs ; |329| 
    1556 000001b8       DW$L$_SendResponse$7$E:
    1557 000001b8 56CF          BF        L30,UNC               ; |329| 
         000001b9 003A 
    1558                      ; branch occurs ; |329| 
    1559 000001ba       L26:    
    1560 000001ba 761F-         MOVW      DP,#_pcmodbus+3
         000001bb 0000 
    1561 000001bc 2803-         MOV       @_pcmodbus+3,#127     ; |338| 
         000001bd 007F 
    1562 000001be 56CF          BF        L30,UNC               ; |339| 
         000001bf 0034 
    1563                      ; branch occurs ; |339| 
    1564 000001c0       L27:    
    1565 000001c0 761F-         MOVW      DP,#_pcmodbus
         000001c1 0000 
    1566 000001c2 8F00-         MOVL      XAR4,#_responsemsg    ; |353| 
         000001c3 0140 
    1567 000001c4 9200-         MOV       AL,@_pcmodbus         ; |353| 
    1568 000001c5 761F-         MOVW      DP,#_pcmodbus+1
         000001c6 0000 
    1569 000001c7 96C4          MOV       *+XAR4[0],AL          ; |353| 
    1570 000001c8 9201-         MOV       AL,@_pcmodbus+1       ; |354| 
    1571 000001c9 761F-         MOVW      DP,#_pcmodbus+2
         000001ca 0000 
    1572 000001cb 96CC          MOV       *+XAR4[1],AL          ; |354| 
    1573 000001cc 9202-         MOV       AL,@_pcmodbus+2       ; |355| 
    1574 000001cd 93A9          MOV       AH,AL                 ; |355| 
    1575 000001ce FFD7          LSR       AH,8                  ; |355| 
    1576 000001cf 90FF          ANDB      AL,#255               ; |356| 
    1577 000001d0 97D4          MOV       *+XAR4[2],AH          ; |355| 
    1578 000001d1 761F-         MOVW      DP,#_pcmodbus+3
         000001d2 0000 
    1579 000001d3 96DC          MOV       *+XAR4[3],AL          ; |356| 
    1580 000001d4 9203-         MOV       AL,@_pcmodbus+3       ; |357| 
    1581 000001d5 56CF          BF        L29,UNC               ; |360| 
         000001d6 0017 
    1582                      ; branch occurs ; |360| 
    1583 000001d7       L28:    
    1584 000001d7 761F-         MOVW      DP,#_pcmodbus
         000001d8 0000 
    1585 000001d9 8F00-         MOVL      XAR4,#_responsemsg    ; |344| 
TMS320C2000 COFF Assembler PC v4.1.3 Thu Aug 18 12:16:25 2016

Tools Copyright (c) 1996-2006 Texas Instruments Incorporated
PCModBus.asm                                                         PAGE   32

         000001da 0140 
    1586 000001db 9200-         MOV       AL,@_pcmodbus         ; |344| 
    1587 000001dc 761F-         MOVW      DP,#_pcmodbus+1
         000001dd 0000 
    1588 000001de 96C4          MOV       *+XAR4[0],AL          ; |344| 
    1589 000001df 9201-         MOV       AL,@_pcmodbus+1       ; |345| 
    1590 000001e0 761F-         MOVW      DP,#_pcmodbus+2
         000001e1 0000 
    1591 000001e2 96CC          MOV       *+XAR4[1],AL          ; |345| 
    1592 000001e3 9202-         MOV       AL,@_pcmodbus+2       ; |346| 
    1593 000001e4 93A9          MOV       AH,AL                 ; |346| 
    1594 000001e5 FFD7          LSR       AH,8                  ; |346| 
    1595 000001e6 90FF          ANDB      AL,#255               ; |347| 
    1596 000001e7 97D4          MOV       *+XAR4[2],AH          ; |346| 
    1597 000001e8 761F-         MOVW      DP,#_pcmodbus+5
         000001e9 0000 
    1598 000001ea 96DC          MOV       *+XAR4[3],AL          ; |347| 
    1599 000001eb 9205-         MOV       AL,@_pcmodbus+5       ; |348| 
    1600 000001ec       L29:    
    1601 000001ec 93A9          MOV       AH,AL                 ; |348| 
    1602 000001ed D106          MOVB      XAR1,#6               ; |350| 
    1603 000001ee FFD7          LSR       AH,8                  ; |348| 
    1604 000001ef 90FF          ANDB      AL,#255               ; |349| 
    1605 000001f0 97E4          MOV       *+XAR4[4],AH          ; |348| 
    1606 000001f1 96EC          MOV       *+XAR4[5],AL          ; |349| 
    1607 000001f2       L30:    
    1608 000001f2 5DAD          MOVZ      AR5,SP                ; |362| 
    1609 000001f3 8DC0-         MOVL      XAR3,#_responsemsg    ; |362| 
         000001f4 0140 
    1610 000001f5 8AA3          MOVL      XAR4,XAR3             ; |362| 
    1611 000001f6 92A1          MOV       AL,AR1                ; |362| 
    1612 000001f7 DD84          SUBB      XAR5,#4               ; |362| 
    1613 000001f8 7640'         LCR       #_CalcCRC             ; |362| 
         000001f9 0020 
    1614                      ; call occurs [#_CalcCRC] ; |362| 
    1615 000001fa 9244          MOV       AL,*-SP[4]            ; |363| 
    1616 000001fb 969B          MOV       *+XAR3[AR1],AL        ; |363| 
    1617 000001fc D001          MOVB      XAR0,#1               ; |364| 
    1618 000001fd 92A1          MOV       AL,AR1
    1619 000001fe 72A0          ADD       AR0,AL
    1620 000001ff 761F-         MOVW      DP,#_pcmodbus
         00000200 0000 
    1621 00000201 9243          MOV       AL,*-SP[3]            ; |364| 
    1622 00000202 9693          MOV       *+XAR3[AR0],AL        ; |364| 
    1623 00000203 9200-         MOV       AL,@_pcmodbus         ; |367| 
    1624 00000204 D902          ADDB      XAR1,#2               ; |365| 
    1625 00000205 EC1C          BF        L32,EQ                ; |367| 
    1626                      ; branchcc occurs ; |367| 
    1627 00000206 761F!         MOVW      DP,#_timers+39
         00000207 0000 
    1628 00000208 9227!         MOV       AL,@_timers+39        ; |368| 
    1629 00000209 ED13          BF        L31,NEQ               ; |368| 
    1630                      ; branchcc occurs ; |368| 
    1631 0000020a 8F00+         MOVL      XAR4,#FSL1            ; |371| 
         0000020b 0000 
TMS320C2000 COFF Assembler PC v4.1.3 Thu Aug 18 12:16:25 2016

Tools Copyright (c) 1996-2006 Texas Instruments Incorporated
PCModBus.asm                                                         PAGE   33

    1632 0000020c 8DC0!         MOVL      XAR3,#_stringbuffer   ; |371| 
         0000020d 0000 
    1633 0000020e 0201          MOVB      ACC,#1
    1634 0000020f A842          MOVL      *-SP[2],XAR4          ; |371| 
    1635 00000210 8AA3          MOVL      XAR4,XAR3             ; |371| 
    1636 00000211 761F!         MOVW      DP,#_config+22
         00000212 0000 
    1637 00000213 5601!         ADDL      @_config+22,ACC       ; |370| 
         00000214 0016 
    1638 00000215 7640!         LCR       #_sprintf             ; |371| 
         00000216 0000 
    1639                      ; call occurs [#_sprintf] ; |371| 
    1640 00000217 8AA3          MOVL      XAR4,XAR3             ; |371| 
    1641 00000218 7640!         LCR       #_DebugStringOut      ; |371| 
         00000219 0000 
    1642                      ; call occurs [#_DebugStringOut] ; |371| 
    1643 0000021a 56CF          BF        L32,UNC               ; |371| 
         0000021b 0007 
    1644                      ; branch occurs ; |371| 
    1645 0000021c       L31:    
    1646 0000021c 92A1          MOV       AL,AR1                ; |368| 
    1647 0000021d 8F00-         MOVL      XAR4,#_responsemsg    ; |368| 
         0000021e 0140 
    1648 0000021f 7640!         LCR       #_LoadSendBufferB     ; |368| 
         00000220 0000 
    1649                      ; call occurs [#_LoadSendBufferB] ; |368| 
    1650 00000221       L32:    
    1651 00000221 FE84          SUBB      SP,#4
    1652 00000222 82BE          MOVL      XAR3,*--SP
    1653 00000223 86BE          MOVL      XAR2,*--SP
    1654 00000224 8BBE          MOVL      XAR1,*--SP
    1655                      .dwpsn  "PCModBus.c",374,1
    1656 00000225 0006          LRETR
    1657                      ; return occurs
    1658              
    1659              DW$213  .dwtag  DW_TAG_loop
    1660                      .dwattr DW$213, DW_AT_name("D:\DEV\Amot\BearingWear\XTSW_V6_20\PCModBus.asm:L25:1:1471518984")
    1661                      .dwattr DW$213, DW_AT_begin_file("PCModBus.c")
    1662                      .dwattr DW$213, DW_AT_begin_line(0x149)
    1663                      .dwattr DW$213, DW_AT_end_line(0x155)
    1664              DW$214  .dwtag  DW_TAG_loop_range
    1665                      .dwattr DW$214, DW_AT_low_pc(DW$L$_SendResponse$6$B)
    1666                      .dwattr DW$214, DW_AT_high_pc(DW$L$_SendResponse$6$E)
    1667              DW$215  .dwtag  DW_TAG_loop_range
    1668                      .dwattr DW$215, DW_AT_low_pc(DW$L$_SendResponse$7$B)
    1669                      .dwattr DW$215, DW_AT_high_pc(DW$L$_SendResponse$7$E)
    1670                      .dwendtag DW$213
    1671              
    1672                      .dwattr DW$212, DW_AT_end_file("PCModBus.c")
    1673                      .dwattr DW$212, DW_AT_end_line(0x176)
    1674                      .dwattr DW$212, DW_AT_end_column(0x01)
    1675                      .dwendtag DW$212
    1676              
    1677 00000226               .sect   ".text"
    1678                      .global _Registers
TMS320C2000 COFF Assembler PC v4.1.3 Thu Aug 18 12:16:25 2016

Tools Copyright (c) 1996-2006 Texas Instruments Incorporated
PCModBus.asm                                                         PAGE   34

    1679              
    1680              DW$216  .dwtag  DW_TAG_subprogram, DW_AT_name("Registers"), DW_AT_symbol_name("_Registers")
    1681                      .dwattr DW$216, DW_AT_low_pc(_Registers)
    1682                      .dwattr DW$216, DW_AT_high_pc(0x00)
    1683                      .dwattr DW$216, DW_AT_begin_file("PCModBus.c")
    1684                      .dwattr DW$216, DW_AT_begin_line(0x179)
    1685                      .dwattr DW$216, DW_AT_begin_column(0x06)
    1686                      .dwattr DW$216, DW_AT_frame_base[DW_OP_breg20 -50]
    1687                      .dwattr DW$216, DW_AT_skeletal(0x01)
    1688                      .dwpsn  "PCModBus.c",378,1
    1689              
    1690              ;***************************************************************
    1691              ;* FNAME: _Registers                    FR SIZE:  48           *
    1692              ;*                                                             *
    1693              ;* FUNCTION ENVIRONMENT                                        *
    1694              ;*                                                             *
    1695              ;* FUNCTION PROPERTIES                                         *
    1696              ;*                            2 Parameter, 40 Auto,  6 SOE     *
    1697              ;***************************************************************
    1698              
    1699 00000226       _Registers:
    1700 00000226 B2BD          MOVL      *SP++,XAR1
    1701 00000227 761F-         MOVW      DP,#_pcmodbus+1
         00000228 0000 
    1702 00000229 AABD          MOVL      *SP++,XAR2
    1703 0000022a A2BD          MOVL      *SP++,XAR3
    1704 0000022b 9201-         MOV       AL,@_pcmodbus+1       ; |392| 
    1705 0000022c FE2A          ADDB      SP,#42
    1706 0000022d 5210          CMPB      AL,#16                ; |392| 
    1707 0000022e D300          MOVB      XAR3,#0
    1708 0000022f EC03          BF        L33,EQ                ; |392| 
    1709                      ; branchcc occurs ; |392| 
    1710 00000230 5206          CMPB      AL,#6                 ; |392| 
    1711 00000231 ED05          BF        L34,NEQ               ; |392| 
    1712                      ; branchcc occurs ; |392| 
    1713 00000232       L33:    
    1714 00000232 2865          MOV       *-SP[37],#16          ; |392| 
         00000233 0010 
    1715 00000234 56CF          BF        L35,UNC               ; |392| 
         00000235 0004 
    1716                      ; branch occurs ; |392| 
    1717 00000236       L34:    
    1718 00000236 2865          MOV       *-SP[37],#3           ; |392| 
         00000237 0003 
    1719 00000238       L35:    
    1720 00000238 761F-         MOVW      DP,#_pcmodbus+2
         00000239 0000 
    1721 0000023a 5A02-         MOVZ      AR2,@_pcmodbus+2      ; |394| 
    1722 0000023b 761F-         MOVW      DP,#_pcmodbus+3
         0000023c 0000 
    1723 0000023d 9203-         MOV       AL,@_pcmodbus+3       ; |401| 
    1724 0000023e D100          MOVB      XAR1,#0
    1725 0000023f 56C1          BF        L301,EQ               ; |401| 
         00000240 0B16 
    1726                      ; branchcc occurs ; |401| 
TMS320C2000 COFF Assembler PC v4.1.3 Thu Aug 18 12:16:25 2016

Tools Copyright (c) 1996-2006 Texas Instruments Incorporated
PCModBus.asm                                                         PAGE   35

    1727              L36:    
    1728              DW$L$_Registers$6$B:
    1729                      .dwpsn  "PCModBus.c",402,0
    1730 00000241 92A2          MOV       AL,AR2
    1731 00000242 ED10          BF        L37,NEQ               ; |403| 
    1732                      ; branchcc occurs ; |403| 
    1733 00000243       DW$L$_Registers$6$E:
    1734 00000243       DW$L$_Registers$7$B:
    1735 00000243 8DC0!         MOVL      XAR3,#_livetime       ; |406| 
         00000244 0000 
    1736 00000245 8AA3          MOVL      XAR4,XAR3             ; |407| 
    1737 00000246 9A01          MOVB      AL,#1                 ; |405| 
    1738 00000247 93A1          MOV       AH,AR1                ; |407| 
    1739 00000248 7640'         LCR       #_ProcessRegister     ; |407| 
         00000249 0D5A 
    1740                      ; call occurs [#_ProcessRegister] ; |407| 
    1741 0000024a 9265          MOV       AL,*-SP[37]           ; |407| 
    1742 0000024b 5210          CMPB      AL,#16                ; |408| 
    1743 0000024c 56C0          BF        L300,NEQ              ; |408| 
         0000024d 0B01 
    1744                      ; branchcc occurs ; |408| 
    1745 0000024e       DW$L$_Registers$7$E:
    1746 0000024e       DW$L$_Registers$8$B:
    1747 0000024e 7640!         LCR       #_YearMonthUpdate     ; |408| 
         0000024f 0000 
    1748                      ; call occurs [#_YearMonthUpdate] ; |408| 
    1749 00000250 56CF          BF        L300,UNC              ; |408| 
         00000251 0AFD 
    1750                      ; branch occurs ; |408| 
    1751 00000252       DW$L$_Registers$8$E:
    1752 00000252       L37:    
    1753 00000252       DW$L$_Registers$9$B:
    1754 00000252 5201          CMPB      AL,#1                 ; |410| 
    1755 00000253 56C1          BF        L299,EQ               ; |410| 
         00000254 0AEE 
    1756                      ; branchcc occurs ; |410| 
    1757 00000255       DW$L$_Registers$9$E:
    1758 00000255       DW$L$_Registers$10$B:
    1759 00000255 5202          CMPB      AL,#2                 ; |417| 
    1760 00000256 56C1          BF        L298,EQ               ; |417| 
         00000257 0ADD 
    1761                      ; branchcc occurs ; |417| 
    1762 00000258       DW$L$_Registers$10$E:
    1763 00000258       DW$L$_Registers$11$B:
    1764 00000258 5203          CMPB      AL,#3                 ; |424| 
    1765 00000259 56C8          BF        L69,LO                ; |424| 
         0000025a 0352 
    1766                      ; branchcc occurs ; |424| 
    1767 0000025b       DW$L$_Registers$11$E:
    1768 0000025b       DW$L$_Registers$12$B:
    1769 0000025b 521F          CMPB      AL,#31                ; |424| 
    1770 0000025c 56C8          BF        L297,LO               ; |424| 
         0000025d 0ACE 
    1771                      ; branchcc occurs ; |424| 
    1772 0000025e       DW$L$_Registers$12$E:
TMS320C2000 COFF Assembler PC v4.1.3 Thu Aug 18 12:16:25 2016

Tools Copyright (c) 1996-2006 Texas Instruments Incorporated
PCModBus.asm                                                         PAGE   36

    1773 0000025e       DW$L$_Registers$13$B:
    1774 0000025e 521F          CMPB      AL,#31                ; |431| 
    1775 0000025f 56C8          BF        L69,LO                ; |431| 
         00000260 034C 
    1776                      ; branchcc occurs ; |431| 
    1777 00000261       DW$L$_Registers$13$E:
    1778 00000261       DW$L$_Registers$14$B:
    1779 00000261 523B          CMPB      AL,#59                ; |431| 
    1780 00000262 56C8          BF        L296,LO               ; |431| 
         00000263 0ABF 
    1781                      ; branchcc occurs ; |431| 
    1782 00000264       DW$L$_Registers$14$E:
    1783 00000264       DW$L$_Registers$15$B:
    1784 00000264 523B          CMPB      AL,#59                ; |439| 
    1785 00000265 56C8          BF        L69,LO                ; |439| 
         00000266 0346 
    1786                      ; branchcc occurs ; |439| 
    1787 00000267       DW$L$_Registers$15$E:
    1788 00000267       DW$L$_Registers$16$B:
    1789 00000267 5257          CMPB      AL,#87                ; |439| 
    1790 00000268 56C8          BF        L295,LO               ; |439| 
         00000269 0AB0 
    1791                      ; branchcc occurs ; |439| 
    1792 0000026a       DW$L$_Registers$16$E:
    1793 0000026a       DW$L$_Registers$17$B:
    1794 0000026a 5258          CMPB      AL,#88                ; |447| 
    1795 0000026b 56C8          BF        L69,LO                ; |447| 
         0000026c 0340 
    1796                      ; branchcc occurs ; |447| 
    1797 0000026d       DW$L$_Registers$17$E:
    1798 0000026d       DW$L$_Registers$18$B:
    1799 0000026d 5274          CMPB      AL,#116               ; |447| 
    1800 0000026e 56C8          BF        L294,LO               ; |447| 
         0000026f 0AA1 
    1801                      ; branchcc occurs ; |447| 
    1802 00000270       DW$L$_Registers$18$E:
    1803 00000270       DW$L$_Registers$19$B:
    1804 00000270 5275          CMPB      AL,#117               ; |454| 
    1805 00000271 56C8          BF        L69,LO                ; |454| 
         00000272 033A 
    1806                      ; branchcc occurs ; |454| 
    1807 00000273       DW$L$_Registers$19$E:
    1808 00000273       DW$L$_Registers$20$B:
    1809 00000273 5291          CMPB      AL,#145               ; |454| 
    1810 00000274 56C8          BF        L291,LO               ; |454| 
         00000275 0A56 
    1811                      ; branchcc occurs ; |454| 
    1812 00000276       DW$L$_Registers$20$E:
    1813 00000276       DW$L$_Registers$21$B:
    1814 00000276 5292          CMPB      AL,#146               ; |506| 
    1815 00000277 56C8          BF        L69,LO                ; |506| 
         00000278 0334 
    1816                      ; branchcc occurs ; |506| 
    1817 00000279       DW$L$_Registers$21$E:
    1818 00000279       DW$L$_Registers$22$B:
TMS320C2000 COFF Assembler PC v4.1.3 Thu Aug 18 12:16:25 2016

Tools Copyright (c) 1996-2006 Texas Instruments Incorporated
PCModBus.asm                                                         PAGE   37

    1819 00000279 52AE          CMPB      AL,#174               ; |506| 
    1820 0000027a 56C8          BF        L289,LO               ; |506| 
         0000027b 0A48 
    1821                      ; branchcc occurs ; |506| 
    1822 0000027c       DW$L$_Registers$22$E:
    1823 0000027c       DW$L$_Registers$23$B:
    1824 0000027c 52AF          CMPB      AL,#175               ; |512| 
    1825 0000027d 56C8          BF        L69,LO                ; |512| 
         0000027e 032E 
    1826                      ; branchcc occurs ; |512| 
    1827 0000027f       DW$L$_Registers$23$E:
    1828 0000027f       DW$L$_Registers$24$B:
    1829 0000027f 52CB          CMPB      AL,#203               ; |512| 
    1830 00000280 56C8          BF        L288,LO               ; |512| 
         00000281 0A3B 
    1831                      ; branchcc occurs ; |512| 
    1832 00000282       DW$L$_Registers$24$E:
    1833 00000282       DW$L$_Registers$25$B:
    1834 00000282 52CB          CMPB      AL,#203               ; |518| 
    1835 00000283 56C8          BF        L69,LO                ; |518| 
         00000284 0328 
    1836                      ; branchcc occurs ; |518| 
    1837 00000285       DW$L$_Registers$25$E:
    1838 00000285       DW$L$_Registers$26$B:
    1839 00000285 52E7          CMPB      AL,#231               ; |518| 
    1840 00000286 56C8          BF        L287,LO               ; |518| 
         00000287 0A2F 
    1841                      ; branchcc occurs ; |518| 
    1842 00000288       DW$L$_Registers$26$E:
    1843 00000288       DW$L$_Registers$27$B:
    1844 00000288 52E7          CMPB      AL,#231               ; |523| 
    1845 00000289 56C1          BF        L285,EQ               ; |523| 
         0000028a 0A1C 
    1846                      ; branchcc occurs ; |523| 
    1847 0000028b       DW$L$_Registers$27$E:
    1848 0000028b       DW$L$_Registers$28$B:
    1849 0000028b 52E8          CMPB      AL,#232               ; |531| 
    1850 0000028c 56C8          BF        L69,LO                ; |531| 
         0000028d 031F 
    1851                      ; branchcc occurs ; |531| 
    1852 0000028e       DW$L$_Registers$28$E:
    1853 0000028e       DW$L$_Registers$29$B:
    1854 0000028e 52E9          CMPB      AL,#233               ; |531| 
    1855 0000028f 56C9          BF        L283,LOS              ; |531| 
         00000290 0A06 
    1856                      ; branchcc occurs ; |531| 
    1857 00000291       DW$L$_Registers$29$E:
    1858 00000291       DW$L$_Registers$30$B:
    1859 00000291 52EA          CMPB      AL,#234               ; |539| 
    1860 00000292 56C8          BF        L69,LO                ; |539| 
         00000293 0319 
    1861                      ; branchcc occurs ; |539| 
    1862 00000294       DW$L$_Registers$30$E:
    1863 00000294       DW$L$_Registers$31$B:
    1864 00000294 52EB          CMPB      AL,#235               ; |539| 
TMS320C2000 COFF Assembler PC v4.1.3 Thu Aug 18 12:16:25 2016

Tools Copyright (c) 1996-2006 Texas Instruments Incorporated
PCModBus.asm                                                         PAGE   38

    1865 00000295 56C9          BF        L281,LOS              ; |539| 
         00000296 09F0 
    1866                      ; branchcc occurs ; |539| 
    1867 00000297       DW$L$_Registers$31$E:
    1868 00000297       DW$L$_Registers$32$B:
    1869 00000297 52EC          CMPB      AL,#236               ; |547| 
    1870 00000298 56C8          BF        L69,LO                ; |547| 
         00000299 0313 
    1871                      ; branchcc occurs ; |547| 
    1872 0000029a       DW$L$_Registers$32$E:
    1873 0000029a       DW$L$_Registers$33$B:
    1874 0000029a 52ED          CMPB      AL,#237               ; |547| 
    1875 0000029b 56C9          BF        L276,LOS              ; |547| 
         0000029c 09D4 
    1876                      ; branchcc occurs ; |547| 
    1877 0000029d       DW$L$_Registers$33$E:
    1878 0000029d       DW$L$_Registers$34$B:
    1879 0000029d 1BA2          CMP       AR2,#256              ; |556| 
         0000029e 0100 
    1880 0000029f 56C8          BF        L69,LO                ; |556| 
         000002a0 030C 
    1881                      ; branchcc occurs ; |556| 
    1882 000002a1       DW$L$_Registers$34$E:
    1883 000002a1       DW$L$_Registers$35$B:
    1884 000002a1 1BA2          CMP       AR2,#270              ; |556| 
         000002a2 010E 
    1885 000002a3 56C8          BF        L275,LO               ; |556| 
         000002a4 09C6 
    1886                      ; branchcc occurs ; |556| 
    1887 000002a5       DW$L$_Registers$35$E:
    1888 000002a5       DW$L$_Registers$36$B:
    1889 000002a5 1BA2          CMP       AR2,#270              ; |560| 
         000002a6 010E 
    1890 000002a7 56C8          BF        L69,LO                ; |560| 
         000002a8 0304 
    1891                      ; branchcc occurs ; |560| 
    1892 000002a9       DW$L$_Registers$36$E:
    1893 000002a9       DW$L$_Registers$37$B:
    1894 000002a9 1BA2          CMP       AR2,#284              ; |560| 
         000002aa 011C 
    1895 000002ab 56C8          BF        L274,LO               ; |560| 
         000002ac 09B8 
    1896                      ; branchcc occurs ; |560| 
    1897 000002ad       DW$L$_Registers$37$E:
    1898 000002ad       DW$L$_Registers$38$B:
    1899 000002ad 1BA2          CMP       AR2,#284              ; |564| 
         000002ae 011C 
    1900 000002af 56C8          BF        L69,LO                ; |564| 
         000002b0 02FC 
    1901                      ; branchcc occurs ; |564| 
    1902 000002b1       DW$L$_Registers$38$E:
    1903 000002b1       DW$L$_Registers$39$B:
    1904 000002b1 1BA2          CMP       AR2,#298              ; |564| 
         000002b2 012A 
    1905 000002b3 56C8          BF        L272,LO               ; |564| 
TMS320C2000 COFF Assembler PC v4.1.3 Thu Aug 18 12:16:25 2016

Tools Copyright (c) 1996-2006 Texas Instruments Incorporated
PCModBus.asm                                                         PAGE   39

         000002b4 09A5 
    1906                      ; branchcc occurs ; |564| 
    1907 000002b5       DW$L$_Registers$39$E:
    1908 000002b5       DW$L$_Registers$40$B:
    1909 000002b5 1BA2          CMP       AR2,#298              ; |570| 
         000002b6 012A 
    1910 000002b7 56C8          BF        L69,LO                ; |570| 
         000002b8 02F4 
    1911                      ; branchcc occurs ; |570| 
    1912 000002b9       DW$L$_Registers$40$E:
    1913 000002b9       DW$L$_Registers$41$B:
    1914 000002b9 1BA2          CMP       AR2,#312              ; |570| 
         000002ba 0138 
    1915 000002bb 56C8          BF        L271,LO               ; |570| 
         000002bc 0996 
    1916                      ; branchcc occurs ; |570| 
    1917 000002bd       DW$L$_Registers$41$E:
    1918 000002bd       DW$L$_Registers$42$B:
    1919 000002bd 1BA2          CMP       AR2,#312              ; |576| 
         000002be 0138 
    1920 000002bf 56C8          BF        L69,LO                ; |576| 
         000002c0 02EC 
    1921                      ; branchcc occurs ; |576| 
    1922 000002c1       DW$L$_Registers$42$E:
    1923 000002c1       DW$L$_Registers$43$B:
    1924 000002c1 1BA2          CMP       AR2,#340              ; |576| 
         000002c2 0154 
    1925 000002c3 56C8          BF        L270,LO               ; |576| 
         000002c4 0988 
    1926                      ; branchcc occurs ; |576| 
    1927 000002c5       DW$L$_Registers$43$E:
    1928 000002c5       DW$L$_Registers$44$B:
    1929 000002c5 1BA2          CMP       AR2,#382              ; |581| 
         000002c6 017E 
    1930 000002c7 56C1          BF        L269,EQ               ; |581| 
         000002c8 097F 
    1931                      ; branchcc occurs ; |581| 
    1932 000002c9       DW$L$_Registers$44$E:
    1933 000002c9       DW$L$_Registers$45$B:
    1934 000002c9 1BA2          CMP       AR2,#383              ; |585| 
         000002ca 017F 
    1935 000002cb 56C1          BF        L268,EQ               ; |585| 
         000002cc 0976 
    1936                      ; branchcc occurs ; |585| 
    1937 000002cd       DW$L$_Registers$45$E:
    1938 000002cd       DW$L$_Registers$46$B:
    1939 000002cd 1BA2          CMP       AR2,#384              ; |589| 
         000002ce 0180 
    1940 000002cf 56C8          BF        L69,LO                ; |589| 
         000002d0 02DC 
    1941                      ; branchcc occurs ; |589| 
    1942 000002d1       DW$L$_Registers$46$E:
    1943 000002d1       DW$L$_Registers$47$B:
    1944 000002d1 1BA2          CMP       AR2,#412              ; |589| 
         000002d2 019C 
TMS320C2000 COFF Assembler PC v4.1.3 Thu Aug 18 12:16:25 2016

Tools Copyright (c) 1996-2006 Texas Instruments Incorporated
PCModBus.asm                                                         PAGE   40

    1945 000002d3 56C8          BF        L267,LO               ; |589| 
         000002d4 0963 
    1946                      ; branchcc occurs ; |589| 
    1947 000002d5       DW$L$_Registers$47$E:
    1948 000002d5       DW$L$_Registers$48$B:
    1949 000002d5 1BA2          CMP       AR2,#412              ; |596| 
         000002d6 019C 
    1950 000002d7 56C8          BF        L69,LO                ; |596| 
         000002d8 02D4 
    1951                      ; branchcc occurs ; |596| 
    1952 000002d9       DW$L$_Registers$48$E:
    1953 000002d9       DW$L$_Registers$49$B:
    1954 000002d9 1BA2          CMP       AR2,#440              ; |596| 
         000002da 01B8 
    1955 000002db 56C8          BF        L266,LO               ; |596| 
         000002dc 094E 
    1956                      ; branchcc occurs ; |596| 
    1957 000002dd       DW$L$_Registers$49$E:
    1958 000002dd       DW$L$_Registers$50$B:
    1959 000002dd 1BA2          CMP       AR2,#440              ; |603| 
         000002de 01B8 
    1960 000002df 56C8          BF        L69,LO                ; |603| 
         000002e0 02CC 
    1961                      ; branchcc occurs ; |603| 
    1962 000002e1       DW$L$_Registers$50$E:
    1963 000002e1       DW$L$_Registers$51$B:
    1964 000002e1 1BA2          CMP       AR2,#468              ; |603| 
         000002e2 01D4 
    1965 000002e3 56C8          BF        L265,LO               ; |603| 
         000002e4 093B 
    1966                      ; branchcc occurs ; |603| 
    1967 000002e5       DW$L$_Registers$51$E:
    1968 000002e5       DW$L$_Registers$52$B:
    1969 000002e5 1BA2          CMP       AR2,#468              ; |610| 
         000002e6 01D4 
    1970 000002e7 56C1          BF        L264,EQ               ; |610| 
         000002e8 092F 
    1971                      ; branchcc occurs ; |610| 
    1972 000002e9       DW$L$_Registers$52$E:
    1973 000002e9       DW$L$_Registers$53$B:
    1974 000002e9 1BA2          CMP       AR2,#469              ; |614| 
         000002ea 01D5 
    1975 000002eb 56C1          BF        L263,EQ               ; |614| 
         000002ec 0923 
    1976                      ; branchcc occurs ; |614| 
    1977 000002ed       DW$L$_Registers$53$E:
    1978 000002ed       DW$L$_Registers$54$B:
    1979 000002ed 1BA2          CMP       AR2,#470              ; |618| 
         000002ee 01D6 
    1980 000002ef 56C1          BF        L262,EQ               ; |618| 
         000002f0 0917 
    1981                      ; branchcc occurs ; |618| 
    1982 000002f1       DW$L$_Registers$54$E:
    1983 000002f1       DW$L$_Registers$55$B:
    1984 000002f1 1BA2          CMP       AR2,#471              ; |622| 
TMS320C2000 COFF Assembler PC v4.1.3 Thu Aug 18 12:16:25 2016

Tools Copyright (c) 1996-2006 Texas Instruments Incorporated
PCModBus.asm                                                         PAGE   41

         000002f2 01D7 
    1985 000002f3 56C1          BF        L261,EQ               ; |622| 
         000002f4 090A 
    1986                      ; branchcc occurs ; |622| 
    1987 000002f5       DW$L$_Registers$55$E:
    1988 000002f5       DW$L$_Registers$56$B:
    1989 000002f5 1BA2          CMP       AR2,#472              ; |627| 
         000002f6 01D8 
    1990 000002f7 56C1          BF        L260,EQ               ; |627| 
         000002f8 08FD 
    1991                      ; branchcc occurs ; |627| 
    1992 000002f9       DW$L$_Registers$56$E:
    1993 000002f9       DW$L$_Registers$57$B:
    1994 000002f9 1BA2          CMP       AR2,#473              ; |631| 
         000002fa 01D9 
    1995 000002fb 56C1          BF        L259,EQ               ; |631| 
         000002fc 08F0 
    1996                      ; branchcc occurs ; |631| 
    1997 000002fd       DW$L$_Registers$57$E:
    1998 000002fd       DW$L$_Registers$58$B:
    1999 000002fd 1BA2          CMP       AR2,#474              ; |635| 
         000002fe 01DA 
    2000 000002ff 56C1          BF        L258,EQ               ; |635| 
         00000300 08E3 
    2001                      ; branchcc occurs ; |635| 
    2002 00000301       DW$L$_Registers$58$E:
    2003 00000301       DW$L$_Registers$59$B:
    2004 00000301 1BA2          CMP       AR2,#475              ; |639| 
         00000302 01DB 
    2005 00000303 56C1          BF        L257,EQ               ; |639| 
         00000304 08D6 
    2006                      ; branchcc occurs ; |639| 
    2007 00000305       DW$L$_Registers$59$E:
    2008 00000305       DW$L$_Registers$60$B:
    2009 00000305 1BA2          CMP       AR2,#476              ; |645| 
         00000306 01DC 
    2010 00000307 56C1          BF        L256,EQ               ; |645| 
         00000308 08C9 
    2011                      ; branchcc occurs ; |645| 
    2012 00000309       DW$L$_Registers$60$E:
    2013 00000309       DW$L$_Registers$61$B:
    2014 00000309 1BA2          CMP       AR2,#480              ; |650| 
         0000030a 01E0 
    2015 0000030b 56C1          BF        L255,EQ               ; |650| 
         0000030c 08BD 
    2016                      ; branchcc occurs ; |650| 
    2017 0000030d       DW$L$_Registers$61$E:
    2018 0000030d       DW$L$_Registers$62$B:
    2019 0000030d 1BA2          CMP       AR2,#512              ; |654| 
         0000030e 0200 
    2020 0000030f 56C1          BF        L253,EQ               ; |654| 
         00000310 08A7 
    2021                      ; branchcc occurs ; |654| 
    2022 00000311       DW$L$_Registers$62$E:
    2023 00000311       DW$L$_Registers$63$B:
TMS320C2000 COFF Assembler PC v4.1.3 Thu Aug 18 12:16:25 2016

Tools Copyright (c) 1996-2006 Texas Instruments Incorporated
PCModBus.asm                                                         PAGE   42

    2024 00000311 1BA2          CMP       AR2,#513              ; |663| 
         00000312 0201 
    2025 00000313 56C8          BF        L69,LO                ; |663| 
         00000314 0298 
    2026                      ; branchcc occurs ; |663| 
    2027 00000315       DW$L$_Registers$63$E:
    2028 00000315       DW$L$_Registers$64$B:
    2029 00000315 1BA2          CMP       AR2,#528              ; |663| 
         00000316 0210 
    2030 00000317 56C9          BF        L252,LOS              ; |663| 
         00000318 0894 
    2031                      ; branchcc occurs ; |663| 
    2032 00000319       DW$L$_Registers$64$E:
    2033 00000319       DW$L$_Registers$65$B:
    2034 00000319 1BA2          CMP       AR2,#529              ; |667| 
         0000031a 0211 
    2035 0000031b 56C8          BF        L69,LO                ; |667| 
         0000031c 0290 
    2036                      ; branchcc occurs ; |667| 
    2037 0000031d       DW$L$_Registers$65$E:
    2038 0000031d       DW$L$_Registers$66$B:
    2039 0000031d 1BA2          CMP       AR2,#542              ; |667| 
         0000031e 021E 
    2040 0000031f 56C9          BF        L251,LOS              ; |667| 
         00000320 0881 
    2041                      ; branchcc occurs ; |667| 
    2042 00000321       DW$L$_Registers$66$E:
    2043 00000321       DW$L$_Registers$67$B:
    2044 00000321 1BA2          CMP       AR2,#543              ; |671| 
         00000322 021F 
    2045 00000323 56C8          BF        L69,LO                ; |671| 
         00000324 0288 
    2046                      ; branchcc occurs ; |671| 
    2047 00000325       DW$L$_Registers$67$E:
    2048 00000325       DW$L$_Registers$68$B:
    2049 00000325 1BA2          CMP       AR2,#556              ; |671| 
         00000326 022C 
    2050 00000327 56C9          BF        L250,LOS              ; |671| 
         00000328 086E 
    2051                      ; branchcc occurs ; |671| 
    2052 00000329       DW$L$_Registers$68$E:
    2053 00000329       DW$L$_Registers$69$B:
    2054 00000329 1BA2          CMP       AR2,#640              ; |675| 
         0000032a 0280 
    2055 0000032b 56C1          BF        L249,EQ               ; |675| 
         0000032c 0856 
    2056                      ; branchcc occurs ; |675| 
    2057 0000032d       DW$L$_Registers$69$E:
    2058 0000032d       DW$L$_Registers$70$B:
    2059 0000032d 1BA2          CMP       AR2,#641              ; |687| 
         0000032e 0281 
    2060 0000032f 56C1          BF        L246,EQ               ; |687| 
         00000330 0845 
    2061                      ; branchcc occurs ; |687| 
    2062 00000331       DW$L$_Registers$70$E:
TMS320C2000 COFF Assembler PC v4.1.3 Thu Aug 18 12:16:25 2016

Tools Copyright (c) 1996-2006 Texas Instruments Incorporated
PCModBus.asm                                                         PAGE   43

    2063 00000331       DW$L$_Registers$71$B:
    2064 00000331 1BA2          CMP       AR2,#642              ; |692| 
         00000332 0282 
    2065 00000333 56C1          BF        L245,EQ               ; |692| 
         00000334 0833 
    2066                      ; branchcc occurs ; |692| 
    2067 00000335       DW$L$_Registers$71$E:
    2068 00000335       DW$L$_Registers$72$B:
    2069 00000335 1BA2          CMP       AR2,#643              ; |701| 
         00000336 0283 
    2070 00000337 56C1          BF        L244,EQ               ; |701| 
         00000338 0825 
    2071                      ; branchcc occurs ; |701| 
    2072 00000339       DW$L$_Registers$72$E:
    2073 00000339       DW$L$_Registers$73$B:
    2074 00000339 1BA2          CMP       AR2,#644              ; |706| 
         0000033a 0284 
    2075 0000033b 56C1          BF        L243,EQ               ; |706| 
         0000033c 081D 
    2076                      ; branchcc occurs ; |706| 
    2077 0000033d       DW$L$_Registers$73$E:
    2078 0000033d       DW$L$_Registers$74$B:
    2079 0000033d 1BA2          CMP       AR2,#645              ; |710| 
         0000033e 0285 
    2080 0000033f 56C1          BF        L242,EQ               ; |710| 
         00000340 080B 
    2081                      ; branchcc occurs ; |710| 
    2082 00000341       DW$L$_Registers$74$E:
    2083 00000341       DW$L$_Registers$75$B:
    2084 00000341 1BA2          CMP       AR2,#647              ; |726| 
         00000342 0287 
    2085 00000343 56C8          BF        L69,LO                ; |726| 
         00000344 0268 
    2086                      ; branchcc occurs ; |726| 
    2087 00000345       DW$L$_Registers$75$E:
    2088 00000345       DW$L$_Registers$76$B:
    2089 00000345 1BA2          CMP       AR2,#678              ; |726| 
         00000346 02A6 
    2090 00000347 56C9          BF        L241,LOS              ; |726| 
         00000348 07F8 
    2091                      ; branchcc occurs ; |726| 
    2092 00000349       DW$L$_Registers$76$E:
    2093 00000349       DW$L$_Registers$77$B:
    2094 00000349 1BA2          CMP       AR2,#679              ; |735| 
         0000034a 02A7 
    2095 0000034b 56C8          BF        L69,LO                ; |735| 
         0000034c 0260 
    2096                      ; branchcc occurs ; |735| 
    2097 0000034d       DW$L$_Registers$77$E:
    2098 0000034d       DW$L$_Registers$78$B:
    2099 0000034d 1BA2          CMP       AR2,#694              ; |735| 
         0000034e 02B6 
    2100 0000034f 56C9          BF        L240,LOS              ; |735| 
         00000350 07E5 
    2101                      ; branchcc occurs ; |735| 
TMS320C2000 COFF Assembler PC v4.1.3 Thu Aug 18 12:16:25 2016

Tools Copyright (c) 1996-2006 Texas Instruments Incorporated
PCModBus.asm                                                         PAGE   44

    2102 00000351       DW$L$_Registers$78$E:
    2103 00000351       DW$L$_Registers$79$B:
    2104 00000351 1BA2          CMP       AR2,#765              ; |743| 
         00000352 02FD 
    2105 00000353 56C1          BF        L238,EQ               ; |743| 
         00000354 07D3 
    2106                      ; branchcc occurs ; |743| 
    2107 00000355       DW$L$_Registers$79$E:
    2108 00000355       DW$L$_Registers$80$B:
    2109 00000355 1BA2          CMP       AR2,#766              ; |752| 
         00000356 02FE 
    2110 00000357 56C1          BF        L237,EQ               ; |752| 
         00000358 07CB 
    2111                      ; branchcc occurs ; |752| 
    2112 00000359       DW$L$_Registers$80$E:
    2113 00000359       DW$L$_Registers$81$B:
    2114 00000359 1BA2          CMP       AR2,#767              ; |757| 
         0000035a 02FF 
    2115 0000035b 56C1          BF        L236,EQ               ; |757| 
         0000035c 07BC 
    2116                      ; branchcc occurs ; |757| 
    2117 0000035d       DW$L$_Registers$81$E:
    2118 0000035d       DW$L$_Registers$82$B:
    2119 0000035d 1BA2          CMP       AR2,#768              ; |762| 
         0000035e 0300 
    2120 0000035f 56C8          BF        L69,LO                ; |762| 
         00000360 024C 
    2121                      ; branchcc occurs ; |762| 
    2122 00000361       DW$L$_Registers$82$E:
    2123 00000361       DW$L$_Registers$83$B:
    2124 00000361 1BA2          CMP       AR2,#817              ; |762| 
         00000362 0331 
    2125 00000363 56C8          BF        L235,LO               ; |762| 
         00000364 07AD 
    2126                      ; branchcc occurs ; |762| 
    2127 00000365       DW$L$_Registers$83$E:
    2128 00000365       DW$L$_Registers$84$B:
    2129 00000365 1BA2          CMP       AR2,#817              ; |767| 
         00000366 0331 
    2130 00000367 56C8          BF        L69,LO                ; |767| 
         00000368 0244 
    2131                      ; branchcc occurs ; |767| 
    2132 00000369       DW$L$_Registers$84$E:
    2133 00000369       DW$L$_Registers$85$B:
    2134 00000369 1BA2          CMP       AR2,#831              ; |767| 
         0000036a 033F 
    2135 0000036b 56C8          BF        L234,LO               ; |767| 
         0000036c 0793 
    2136                      ; branchcc occurs ; |767| 
    2137 0000036d       DW$L$_Registers$85$E:
    2138 0000036d       DW$L$_Registers$86$B:
    2139 0000036d 1BA2          CMP       AR2,#995              ; |798| 
         0000036e 03E3 
    2140 0000036f 56C1          BF        L232,EQ               ; |798| 
         00000370 0784 
TMS320C2000 COFF Assembler PC v4.1.3 Thu Aug 18 12:16:25 2016

Tools Copyright (c) 1996-2006 Texas Instruments Incorporated
PCModBus.asm                                                         PAGE   45

    2141                      ; branchcc occurs ; |798| 
    2142 00000371       DW$L$_Registers$86$E:
    2143 00000371       DW$L$_Registers$87$B:
    2144 00000371 1BA2          CMP       AR2,#996              ; |807| 
         00000372 03E4 
    2145 00000373 56C1          BF        L230,EQ               ; |807| 
         00000374 0770 
    2146                      ; branchcc occurs ; |807| 
    2147 00000375       DW$L$_Registers$87$E:
    2148 00000375       DW$L$_Registers$88$B:
    2149 00000375 1BA2          CMP       AR2,#999              ; |816| 
         00000376 03E7 
    2150 00000377 56C1          BF        L228,EQ               ; |816| 
         00000378 075D 
    2151                      ; branchcc occurs ; |816| 
    2152 00000379       DW$L$_Registers$88$E:
    2153 00000379       DW$L$_Registers$89$B:
    2154 00000379 1BA2          CMP       AR2,#1000             ; |827| 
         0000037a 03E8 
    2155 0000037b 56C1          BF        L227,EQ               ; |827| 
         0000037c 0754 
    2156                      ; branchcc occurs ; |827| 
    2157 0000037d       DW$L$_Registers$89$E:
    2158 0000037d       DW$L$_Registers$90$B:
    2159 0000037d 1BA2          CMP       AR2,#1003             ; |831| 
         0000037e 03EB 
    2160 0000037f 56C1          BF        L225,EQ               ; |831| 
         00000380 0745 
    2161                      ; branchcc occurs ; |831| 
    2162 00000381       DW$L$_Registers$90$E:
    2163 00000381       DW$L$_Registers$91$B:
    2164 00000381 1BA2          CMP       AR2,#1004             ; |839| 
         00000382 03EC 
    2165 00000383 56C1          BF        L223,EQ               ; |839| 
         00000384 0736 
    2166                      ; branchcc occurs ; |839| 
    2167 00000385       DW$L$_Registers$91$E:
    2168 00000385       DW$L$_Registers$92$B:
    2169 00000385 1BA2          CMP       AR2,#1010             ; |848| 
         00000386 03F2 
    2170 00000387 56C1          BF        L221,EQ               ; |848| 
         00000388 071E 
    2171                      ; branchcc occurs ; |848| 
    2172 00000389       DW$L$_Registers$92$E:
    2173 00000389       DW$L$_Registers$93$B:
    2174 00000389 1BA2          CMP       AR2,#1024             ; |857| 
         0000038a 0400 
    2175 0000038b 56C1          BF        L218,EQ               ; |857| 
         0000038c 06FF 
    2176                      ; branchcc occurs ; |857| 
    2177 0000038d       DW$L$_Registers$93$E:
    2178 0000038d       DW$L$_Registers$94$B:
    2179 0000038d 1BA2          CMP       AR2,#1025             ; |866| 
         0000038e 0401 
    2180 0000038f 56C1          BF        L215,EQ               ; |866| 
TMS320C2000 COFF Assembler PC v4.1.3 Thu Aug 18 12:16:25 2016

Tools Copyright (c) 1996-2006 Texas Instruments Incorporated
PCModBus.asm                                                         PAGE   46

         00000390 06E0 
    2181                      ; branchcc occurs ; |866| 
    2182 00000391       DW$L$_Registers$94$E:
    2183 00000391       DW$L$_Registers$95$B:
    2184 00000391 1BA2          CMP       AR2,#1026             ; |875| 
         00000392 0402 
    2185 00000393 56C1          BF        L211,EQ               ; |875| 
         00000394 06C2 
    2186                      ; branchcc occurs ; |875| 
    2187 00000395       DW$L$_Registers$95$E:
    2188 00000395       DW$L$_Registers$96$B:
    2189 00000395 1BA2          CMP       AR2,#1031             ; |896| 
         00000396 0407 
    2190 00000397 56C1          BF        L210,EQ               ; |896| 
         00000398 06B2 
    2191                      ; branchcc occurs ; |896| 
    2192 00000399       DW$L$_Registers$96$E:
    2193 00000399       DW$L$_Registers$97$B:
    2194 00000399 1BA2          CMP       AR2,#1033             ; |905| 
         0000039a 0409 
    2195 0000039b 56C1          BF        L209,EQ               ; |905| 
         0000039c 06A8 
    2196                      ; branchcc occurs ; |905| 
    2197 0000039d       DW$L$_Registers$97$E:
    2198 0000039d       DW$L$_Registers$98$B:
    2199 0000039d 1BA2          CMP       AR2,#1035             ; |909| 
         0000039e 040B 
    2200 0000039f 56C1          BF        L207,EQ               ; |909| 
         000003a0 0690 
    2201                      ; branchcc occurs ; |909| 
    2202 000003a1       DW$L$_Registers$98$E:
    2203 000003a1       DW$L$_Registers$99$B:
    2204 000003a1 1BA2          CMP       AR2,#1036             ; |925| 
         000003a2 040C 
    2205 000003a3 56C1          BF        L206,EQ               ; |925| 
         000003a4 0687 
    2206                      ; branchcc occurs ; |925| 
    2207 000003a5       DW$L$_Registers$99$E:
    2208 000003a5       DW$L$_Registers$100$B:
    2209 000003a5 1BA2          CMP       AR2,#1038             ; |929| 
         000003a6 040E 
    2210 000003a7 56C1          BF        L205,EQ               ; |929| 
         000003a8 067E 
    2211                      ; branchcc occurs ; |929| 
    2212 000003a9       DW$L$_Registers$100$E:
    2213 000003a9       DW$L$_Registers$101$B:
    2214 000003a9 1BA2          CMP       AR2,#1039             ; |933| 
         000003aa 040F 
    2215 000003ab 56C1          BF        L202,EQ               ; |933| 
         000003ac 065B 
    2216                      ; branchcc occurs ; |933| 
    2217 000003ad       DW$L$_Registers$101$E:
    2218 000003ad       DW$L$_Registers$102$B:
    2219 000003ad 1BA2          CMP       AR2,#1040             ; |950| 
         000003ae 0410 
TMS320C2000 COFF Assembler PC v4.1.3 Thu Aug 18 12:16:25 2016

Tools Copyright (c) 1996-2006 Texas Instruments Incorporated
PCModBus.asm                                                         PAGE   47

    2220 000003af 56C1          BF        L200,EQ               ; |950| 
         000003b0 0647 
    2221                      ; branchcc occurs ; |950| 
    2222 000003b1       DW$L$_Registers$102$E:
    2223 000003b1       DW$L$_Registers$103$B:
    2224 000003b1 1BA2          CMP       AR2,#1041             ; |956| 
         000003b2 0411 
    2225 000003b3 56C1          BF        L199,EQ               ; |956| 
         000003b4 0637 
    2226                      ; branchcc occurs ; |956| 
    2227 000003b5       DW$L$_Registers$103$E:
    2228 000003b5       DW$L$_Registers$104$B:
    2229 000003b5 1BA2          CMP       AR2,#1042             ; |962| 
         000003b6 0412 
    2230 000003b7 56C1          BF        L197,EQ               ; |962| 
         000003b8 0623 
    2231                      ; branchcc occurs ; |962| 
    2232 000003b9       DW$L$_Registers$104$E:
    2233 000003b9       DW$L$_Registers$105$B:
    2234 000003b9 1BA2          CMP       AR2,#1043             ; |967| 
         000003ba 0413 
    2235 000003bb 56C1          BF        L194,EQ               ; |967| 
         000003bc 0607 
    2236                      ; branchcc occurs ; |967| 
    2237 000003bd       DW$L$_Registers$105$E:
    2238 000003bd       DW$L$_Registers$106$B:
    2239 000003bd 1BA2          CMP       AR2,#1044             ; |983| 
         000003be 0414 
    2240 000003bf 56C1          BF        L192,EQ               ; |983| 
         000003c0 05F3 
    2241                      ; branchcc occurs ; |983| 
    2242 000003c1       DW$L$_Registers$106$E:
    2243 000003c1       DW$L$_Registers$107$B:
    2244 000003c1 1BA2          CMP       AR2,#1047             ; |988| 
         000003c2 0417 
    2245 000003c3 56C1          BF        L191,EQ               ; |988| 
         000003c4 05E1 
    2246                      ; branchcc occurs ; |988| 
    2247 000003c5       DW$L$_Registers$107$E:
    2248 000003c5       DW$L$_Registers$108$B:
    2249 000003c5 1BA2          CMP       AR2,#1048             ; |995| 
         000003c6 0418 
    2250 000003c7 56C1          BF        L190,EQ               ; |995| 
         000003c8 05CF 
    2251                      ; branchcc occurs ; |995| 
    2252 000003c9       DW$L$_Registers$108$E:
    2253 000003c9       DW$L$_Registers$109$B:
    2254 000003c9 1BA2          CMP       AR2,#1049             ; |999| 
         000003ca 0419 
    2255 000003cb 56C1          BF        L189,EQ               ; |999| 
         000003cc 05C2 
    2256                      ; branchcc occurs ; |999| 
    2257 000003cd       DW$L$_Registers$109$E:
    2258 000003cd       DW$L$_Registers$110$B:
    2259 000003cd 1BA2          CMP       AR2,#1061             ; |1003| 
TMS320C2000 COFF Assembler PC v4.1.3 Thu Aug 18 12:16:25 2016

Tools Copyright (c) 1996-2006 Texas Instruments Incorporated
PCModBus.asm                                                         PAGE   48

         000003ce 0425 
    2260 000003cf 56C1          BF        L188,EQ               ; |1003| 
         000003d0 05AF 
    2261                      ; branchcc occurs ; |1003| 
    2262 000003d1       DW$L$_Registers$110$E:
    2263 000003d1       DW$L$_Registers$111$B:
    2264 000003d1 1BA2          CMP       AR2,#1062             ; |1010| 
         000003d2 0426 
    2265 000003d3 56C1          BF        L186,EQ               ; |1010| 
         000003d4 059B 
    2266                      ; branchcc occurs ; |1010| 
    2267 000003d5       DW$L$_Registers$111$E:
    2268 000003d5       DW$L$_Registers$112$B:
    2269 000003d5 1BA2          CMP       AR2,#1063             ; |1029| 
         000003d6 0427 
    2270 000003d7 56C1          BF        L184,EQ               ; |1029| 
         000003d8 0587 
    2271                      ; branchcc occurs ; |1029| 
    2272 000003d9       DW$L$_Registers$112$E:
    2273 000003d9       DW$L$_Registers$113$B:
    2274 000003d9 1BA2          CMP       AR2,#1064             ; |1037| 
         000003da 0428 
    2275 000003db 56C8          BF        L69,LO                ; |1037| 
         000003dc 01D0 
    2276                      ; branchcc occurs ; |1037| 
    2277 000003dd       DW$L$_Registers$113$E:
    2278 000003dd       DW$L$_Registers$114$B:
    2279 000003dd 1BA2          CMP       AR2,#1092             ; |1037| 
         000003de 0444 
    2280 000003df 56C8          BF        L179,LO               ; |1037| 
         000003e0 04EA 
    2281                      ; branchcc occurs ; |1037| 
    2282 000003e1       DW$L$_Registers$114$E:
    2283 000003e1       DW$L$_Registers$115$B:
    2284 000003e1 1BA2          CMP       AR2,#1093             ; |1127| 
         000003e2 0445 
    2285 000003e3 56C1          BF        L178,EQ               ; |1127| 
         000003e4 04D8 
    2286                      ; branchcc occurs ; |1127| 
    2287 000003e5       DW$L$_Registers$115$E:
    2288 000003e5       DW$L$_Registers$116$B:
    2289 000003e5 1BA2          CMP       AR2,#1094             ; |1135| 
         000003e6 0446 
    2290 000003e7 56C8          BF        L69,LO                ; |1135| 
         000003e8 01C4 
    2291                      ; branchcc occurs ; |1135| 
    2292 000003e9       DW$L$_Registers$116$E:
    2293 000003e9       DW$L$_Registers$117$B:
    2294 000003e9 1BA2          CMP       AR2,#1122             ; |1135| 
         000003ea 0462 
    2295 000003eb 56C8          BF        L177,LO               ; |1135| 
         000003ec 04C5 
    2296                      ; branchcc occurs ; |1135| 
    2297 000003ed       DW$L$_Registers$117$E:
    2298 000003ed       DW$L$_Registers$118$B:
TMS320C2000 COFF Assembler PC v4.1.3 Thu Aug 18 12:16:25 2016

Tools Copyright (c) 1996-2006 Texas Instruments Incorporated
PCModBus.asm                                                         PAGE   49

    2299 000003ed 1BA2          CMP       AR2,#1122             ; |1142| 
         000003ee 0462 
    2300 000003ef 56C8          BF        L69,LO                ; |1142| 
         000003f0 01BC 
    2301                      ; branchcc occurs ; |1142| 
    2302 000003f1       DW$L$_Registers$118$E:
    2303 000003f1       DW$L$_Registers$119$B:
    2304 000003f1 1BA2          CMP       AR2,#1150             ; |1142| 
         000003f2 047E 
    2305 000003f3 56C8          BF        L176,LO               ; |1142| 
         000003f4 04B2 
    2306                      ; branchcc occurs ; |1142| 
    2307 000003f5       DW$L$_Registers$119$E:
    2308 000003f5       DW$L$_Registers$120$B:
    2309 000003f5 1BA2          CMP       AR2,#1150             ; |1151| 
         000003f6 047E 
    2310 000003f7 56C8          BF        L69,LO                ; |1151| 
         000003f8 01B4 
    2311                      ; branchcc occurs ; |1151| 
    2312 000003f9       DW$L$_Registers$120$E:
    2313 000003f9       DW$L$_Registers$121$B:
    2314 000003f9 1BA2          CMP       AR2,#1177             ; |1151| 
         000003fa 0499 
    2315 000003fb 56C8          BF        L175,LO               ; |1151| 
         000003fc 049F 
    2316                      ; branchcc occurs ; |1151| 
    2317 000003fd       DW$L$_Registers$121$E:
    2318 000003fd       DW$L$_Registers$122$B:
    2319 000003fd 1BA2          CMP       AR2,#2000             ; |1159| 
         000003fe 07D0 
    2320 000003ff 56C1          BF        L173,EQ               ; |1159| 
         00000400 048B 
    2321                      ; branchcc occurs ; |1159| 
    2322 00000401       DW$L$_Registers$122$E:
    2323 00000401       DW$L$_Registers$123$B:
    2324 00000401 1BA2          CMP       AR2,#2001             ; |1167| 
         00000402 07D1 
    2325 00000403 56C1          BF        L171,EQ               ; |1167| 
         00000404 046C 
    2326                      ; branchcc occurs ; |1167| 
    2327 00000405       DW$L$_Registers$123$E:
    2328 00000405       DW$L$_Registers$124$B:
    2329 00000405 1BA2          CMP       AR2,#2002             ; |1182| 
         00000406 07D2 
    2330 00000407 56C8          BF        L69,LO                ; |1182| 
         00000408 01A4 
    2331                      ; branchcc occurs ; |1182| 
    2332 00000409       DW$L$_Registers$124$E:
    2333 00000409       DW$L$_Registers$125$B:
    2334 00000409 1BA2          CMP       AR2,#2025             ; |1182| 
         0000040a 07E9 
    2335 0000040b 56C8          BF        L300,LO               ; |1182| 
         0000040c 0942 
    2336                      ; branchcc occurs ; |1182| 
    2337 0000040d       DW$L$_Registers$125$E:
TMS320C2000 COFF Assembler PC v4.1.3 Thu Aug 18 12:16:25 2016

Tools Copyright (c) 1996-2006 Texas Instruments Incorporated
PCModBus.asm                                                         PAGE   50

    2338 0000040d       DW$L$_Registers$126$B:
    2339 0000040d 1BA2          CMP       AR2,#2025             ; |1183| 
         0000040e 07E9 
    2340 0000040f 56C1          BF        L170,EQ               ; |1183| 
         00000410 0452 
    2341                      ; branchcc occurs ; |1183| 
    2342 00000411       DW$L$_Registers$126$E:
    2343 00000411       DW$L$_Registers$127$B:
    2344 00000411 1BA2          CMP       AR2,#2026             ; |1190| 
         00000412 07EA 
    2345 00000413 56C1          BF        L169,EQ               ; |1190| 
         00000414 0440 
    2346                      ; branchcc occurs ; |1190| 
    2347 00000415       DW$L$_Registers$127$E:
    2348 00000415       DW$L$_Registers$128$B:
    2349 00000415 1BA2          CMP       AR2,#2027             ; |1197| 
         00000416 07EB 
    2350 00000417 56C1          BF        L168,EQ               ; |1197| 
         00000418 042E 
    2351                      ; branchcc occurs ; |1197| 
    2352 00000419       DW$L$_Registers$128$E:
    2353 00000419       DW$L$_Registers$129$B:
    2354 00000419 1BA2          CMP       AR2,#2028             ; |1204| 
         0000041a 07EC 
    2355 0000041b 56C8          BF        L69,LO                ; |1204| 
         0000041c 0190 
    2356                      ; branchcc occurs ; |1204| 
    2357 0000041d       DW$L$_Registers$129$E:
    2358 0000041d       DW$L$_Registers$130$B:
    2359 0000041d 1BA2          CMP       AR2,#2035             ; |1204| 
         0000041e 07F3 
    2360 0000041f 56C8          BF        L165,LO               ; |1204| 
         00000420 040D 
    2361                      ; branchcc occurs ; |1204| 
    2362 00000421       DW$L$_Registers$130$E:
    2363 00000421       DW$L$_Registers$131$B:
    2364 00000421 1BA2          CMP       AR2,#2060             ; |1216| 
         00000422 080C 
    2365 00000423 56C1          BF        L163,EQ               ; |1216| 
         00000424 03F9 
    2366                      ; branchcc occurs ; |1216| 
    2367 00000425       DW$L$_Registers$131$E:
    2368 00000425       DW$L$_Registers$132$B:
    2369 00000425 1BA2          CMP       AR2,#2061             ; |1224| 
         00000426 080D 
    2370 00000427 56C1          BF        L161,EQ               ; |1224| 
         00000428 03E5 
    2371                      ; branchcc occurs ; |1224| 
    2372 00000429       DW$L$_Registers$132$E:
    2373 00000429       DW$L$_Registers$133$B:
    2374 00000429 1BA2          CMP       AR2,#2063             ; |1232| 
         0000042a 080F 
    2375 0000042b 56C1          BF        L160,EQ               ; |1232| 
         0000042c 03D9 
    2376                      ; branchcc occurs ; |1232| 
TMS320C2000 COFF Assembler PC v4.1.3 Thu Aug 18 12:16:25 2016

Tools Copyright (c) 1996-2006 Texas Instruments Incorporated
PCModBus.asm                                                         PAGE   51

    2377 0000042d       DW$L$_Registers$133$E:
    2378 0000042d       DW$L$_Registers$134$B:
    2379 0000042d 1BA2          CMP       AR2,#2071             ; |1239| 
         0000042e 0817 
    2380 0000042f 56C8          BF        L69,LO                ; |1239| 
         00000430 017C 
    2381                      ; branchcc occurs ; |1239| 
    2382 00000431       DW$L$_Registers$134$E:
    2383 00000431       DW$L$_Registers$135$B:
    2384 00000431 1BA2          CMP       AR2,#2073             ; |1239| 
         00000432 0819 
    2385 00000433 56C8          BF        L159,LO               ; |1239| 
         00000434 03CC 
    2386                      ; branchcc occurs ; |1239| 
    2387 00000435       DW$L$_Registers$135$E:
    2388 00000435       DW$L$_Registers$136$B:
    2389 00000435 1BA2          CMP       AR2,#2073             ; |1243| 
         00000436 0819 
    2390 00000437 56C1          BF        L158,EQ               ; |1243| 
         00000438 03C3 
    2391                      ; branchcc occurs ; |1243| 
    2392 00000439       DW$L$_Registers$136$E:
    2393 00000439       DW$L$_Registers$137$B:
    2394 00000439 1BA2          CMP       AR2,#2074             ; |1247| 
         0000043a 081A 
    2395 0000043b 56C1          BF        L156,EQ               ; |1247| 
         0000043c 03AF 
    2396                      ; branchcc occurs ; |1247| 
    2397 0000043d       DW$L$_Registers$137$E:
    2398 0000043d       DW$L$_Registers$138$B:
    2399 0000043d 1BA2          CMP       AR2,#2999             ; |1253| 
         0000043e 0BB7 
    2400 0000043f 56C1          BF        L155,EQ               ; |1253| 
         00000440 039C 
    2401                      ; branchcc occurs ; |1253| 
    2402 00000441       DW$L$_Registers$138$E:
    2403 00000441       DW$L$_Registers$139$B:
    2404 00000441 1BA2          CMP       AR2,#3000             ; |1263| 
         00000442 0BB8 
    2405 00000443 56C1          BF        L152,EQ               ; |1263| 
         00000444 037E 
    2406                      ; branchcc occurs ; |1263| 
    2407 00000445       DW$L$_Registers$139$E:
    2408 00000445       DW$L$_Registers$140$B:
    2409 00000445 1BA2          CMP       AR2,#3001             ; |1275| 
         00000446 0BB9 
    2410 00000447 56C1          BF        L150,EQ               ; |1275| 
         00000448 036A 
    2411                      ; branchcc occurs ; |1275| 
    2412 00000449       DW$L$_Registers$140$E:
    2413 00000449       DW$L$_Registers$141$B:
    2414 00000449 1BA2          CMP       AR2,#3013             ; |1281| 
         0000044a 0BC5 
    2415 0000044b 56C1          BF        L149,EQ               ; |1281| 
         0000044c 0362 
TMS320C2000 COFF Assembler PC v4.1.3 Thu Aug 18 12:16:25 2016

Tools Copyright (c) 1996-2006 Texas Instruments Incorporated
PCModBus.asm                                                         PAGE   52

    2416                      ; branchcc occurs ; |1281| 
    2417 0000044d       DW$L$_Registers$141$E:
    2418 0000044d       DW$L$_Registers$142$B:
    2419 0000044d 1BA2          CMP       AR2,#3014             ; |1285| 
         0000044e 0BC6 
    2420 0000044f 56C1          BF        L148,EQ               ; |1285| 
         00000450 035A 
    2421                      ; branchcc occurs ; |1285| 
    2422 00000451       DW$L$_Registers$142$E:
    2423 00000451       DW$L$_Registers$143$B:
    2424 00000451 1BA2          CMP       AR2,#3015             ; |1289| 
         00000452 0BC7 
    2425 00000453 56C1          BF        L147,EQ               ; |1289| 
         00000454 0352 
    2426                      ; branchcc occurs ; |1289| 
    2427 00000455       DW$L$_Registers$143$E:
    2428 00000455       DW$L$_Registers$144$B:
    2429 00000455 1BA2          CMP       AR2,#3016             ; |1293| 
         00000456 0BC8 
    2430 00000457 56C1          BF        L146,EQ               ; |1293| 
         00000458 0349 
    2431                      ; branchcc occurs ; |1293| 
    2432 00000459       DW$L$_Registers$144$E:
    2433 00000459       DW$L$_Registers$145$B:
    2434 00000459 1BA2          CMP       AR2,#3017             ; |1297| 
         0000045a 0BC9 
    2435 0000045b 56C1          BF        L145,EQ               ; |1297| 
         0000045c 0340 
    2436                      ; branchcc occurs ; |1297| 
    2437 0000045d       DW$L$_Registers$145$E:
    2438 0000045d       DW$L$_Registers$146$B:
    2439 0000045d 1BA2          CMP       AR2,#3018             ; |1301| 
         0000045e 0BCA 
    2440 0000045f 56C8          BF        L69,LO                ; |1301| 
         00000460 014C 
    2441                      ; branchcc occurs ; |1301| 
    2442 00000461       DW$L$_Registers$146$E:
    2443 00000461       DW$L$_Registers$147$B:
    2444 00000461 1BA2          CMP       AR2,#3024             ; |1301| 
         00000462 0BD0 
    2445 00000463 56C8          BF        L144,LO               ; |1301| 
         00000464 0331 
    2446                      ; branchcc occurs ; |1301| 
    2447 00000465       DW$L$_Registers$147$E:
    2448 00000465       DW$L$_Registers$148$B:
    2449 00000465 1BA2          CMP       AR2,#3024             ; |1306| 
         00000466 0BD0 
    2450 00000467 56C1          BF        L141,EQ               ; |1306| 
         00000468 031B 
    2451                      ; branchcc occurs ; |1306| 
    2452 00000469       DW$L$_Registers$148$E:
    2453 00000469       DW$L$_Registers$149$B:
    2454 00000469 1BA2          CMP       AR2,#3025             ; |1316| 
         0000046a 0BD1 
    2455 0000046b 56C1          BF        L139,EQ               ; |1316| 
TMS320C2000 COFF Assembler PC v4.1.3 Thu Aug 18 12:16:25 2016

Tools Copyright (c) 1996-2006 Texas Instruments Incorporated
PCModBus.asm                                                         PAGE   53

         0000046c 0307 
    2456                      ; branchcc occurs ; |1316| 
    2457 0000046d       DW$L$_Registers$149$E:
    2458 0000046d       DW$L$_Registers$150$B:
    2459 0000046d 1BA2          CMP       AR2,#3026             ; |1323| 
         0000046e 0BD2 
    2460 0000046f 56C1          BF        L138,EQ               ; |1323| 
         00000470 02FF 
    2461                      ; branchcc occurs ; |1323| 
    2462 00000471       DW$L$_Registers$150$E:
    2463 00000471       DW$L$_Registers$151$B:
    2464 00000471 1BA2          CMP       AR2,#3027             ; |1330| 
         00000472 0BD3 
    2465 00000473 56C1          BF        L137,EQ               ; |1330| 
         00000474 02F7 
    2466                      ; branchcc occurs ; |1330| 
    2467 00000475       DW$L$_Registers$151$E:
    2468 00000475       DW$L$_Registers$152$B:
    2469 00000475 1BA2          CMP       AR2,#3028             ; |1337| 
         00000476 0BD4 
    2470 00000477 56C1          BF        L136,EQ               ; |1337| 
         00000478 02EF 
    2471                      ; branchcc occurs ; |1337| 
    2472 00000479       DW$L$_Registers$152$E:
    2473 00000479       DW$L$_Registers$153$B:
    2474 00000479 1BA2          CMP       AR2,#3029             ; |1344| 
         0000047a 0BD5 
    2475 0000047b 56C1          BF        L135,EQ               ; |1344| 
         0000047c 02E7 
    2476                      ; branchcc occurs ; |1344| 
    2477 0000047d       DW$L$_Registers$153$E:
    2478 0000047d       DW$L$_Registers$154$B:
    2479 0000047d 1BA2          CMP       AR2,#3030             ; |1351| 
         0000047e 0BD6 
    2480 0000047f 56C1          BF        L134,EQ               ; |1351| 
         00000480 02DF 
    2481                      ; branchcc occurs ; |1351| 
    2482 00000481       DW$L$_Registers$154$E:
    2483 00000481       DW$L$_Registers$155$B:
    2484 00000481 1BA2          CMP       AR2,#4096             ; |1359| 
         00000482 1000 
    2485 00000483 56C1          BF        L132,EQ               ; |1359| 
         00000484 02CB 
    2486                      ; branchcc occurs ; |1359| 
    2487 00000485       DW$L$_Registers$155$E:
    2488 00000485       DW$L$_Registers$156$B:
    2489 00000485 1BA2          CMP       AR2,#4098             ; |1367| 
         00000486 1002 
    2490 00000487 56C8          BF        L69,LO                ; |1367| 
         00000488 0124 
    2491                      ; branchcc occurs ; |1367| 
    2492 00000489       DW$L$_Registers$156$E:
    2493 00000489       DW$L$_Registers$157$B:
    2494 00000489 1BA2          CMP       AR2,#4154             ; |1367| 
         0000048a 103A 
TMS320C2000 COFF Assembler PC v4.1.3 Thu Aug 18 12:16:25 2016

Tools Copyright (c) 1996-2006 Texas Instruments Incorporated
PCModBus.asm                                                         PAGE   54

    2495 0000048b 56C8          BF        L119,LO               ; |1367| 
         0000048c 0270 
    2496                      ; branchcc occurs ; |1367| 
    2497 0000048d       DW$L$_Registers$157$E:
    2498 0000048d       DW$L$_Registers$158$B:
    2499 0000048d 1BA2          CMP       AR2,#4154             ; |1397| 
         0000048e 103A 
    2500 0000048f 56C8          BF        L69,LO                ; |1397| 
         00000490 011C 
    2501                      ; branchcc occurs ; |1397| 
    2502 00000491       DW$L$_Registers$158$E:
    2503 00000491       DW$L$_Registers$159$B:
    2504 00000491 1BA2          CMP       AR2,#4455             ; |1397| 
         00000492 1167 
    2505 00000493 56C8          BF        L117,LO               ; |1397| 
         00000494 0258 
    2506                      ; branchcc occurs ; |1397| 
    2507 00000495       DW$L$_Registers$159$E:
    2508 00000495       DW$L$_Registers$160$B:
    2509 00000495 1BA2          CMP       AR2,#4608             ; |1406| 
         00000496 1200 
    2510 00000497 56C8          BF        L69,LO                ; |1406| 
         00000498 0114 
    2511                      ; branchcc occurs ; |1406| 
    2512 00000499       DW$L$_Registers$160$E:
    2513 00000499       DW$L$_Registers$161$B:
    2514 00000499 1BA2          CMP       AR2,#4615             ; |1406| 
         0000049a 1207 
    2515 0000049b 56C8          BF        L115,LO               ; |1406| 
         0000049c 0238 
    2516                      ; branchcc occurs ; |1406| 
    2517 0000049d       DW$L$_Registers$161$E:
    2518 0000049d       DW$L$_Registers$162$B:
    2519 0000049d 1BA2          CMP       AR2,#4650             ; |1417| 
         0000049e 122A 
    2520 0000049f 56C8          BF        L63,LO                ; |1417| 
         000004a0 00D2 
    2521                      ; branchcc occurs ; |1417| 
    2522 000004a1       DW$L$_Registers$162$E:
    2523 000004a1       DW$L$_Registers$163$B:
    2524 000004a1 1BA2          CMP       AR2,#4677             ; |1417| 
         000004a2 1245 
    2525 000004a3 56C6          BF        L38,HI                ; |1417| 
         000004a4 0006 
    2526                      ; branchcc occurs ; |1417| 
    2527 000004a5       DW$L$_Registers$163$E:
    2528 000004a5       DW$L$_Registers$164$B:
    2529 000004a5 9265          MOV       AL,*-SP[37]
    2530 000004a6 5203          CMPB      AL,#3                 ; |1417| 
    2531 000004a7 56C1          BF        L114,EQ               ; |1417| 
         000004a8 0225 
    2532                      ; branchcc occurs ; |1417| 
    2533 000004a9       DW$L$_Registers$164$E:
    2534 000004a9       L38:    
    2535 000004a9       DW$L$_Registers$165$B:
TMS320C2000 COFF Assembler PC v4.1.3 Thu Aug 18 12:16:25 2016

Tools Copyright (c) 1996-2006 Texas Instruments Incorporated
PCModBus.asm                                                         PAGE   55

    2536 000004a9 1BA2          CMP       AR2,#4678             ; |1418| 
         000004aa 1246 
    2537 000004ab 56C8          BF        L63,LO                ; |1418| 
         000004ac 00C6 
    2538                      ; branchcc occurs ; |1418| 
    2539 000004ad       DW$L$_Registers$165$E:
    2540 000004ad       DW$L$_Registers$166$B:
    2541 000004ad 1BA2          CMP       AR2,#4705             ; |1418| 
         000004ae 1261 
    2542 000004af 56C6          BF        L39,HI                ; |1418| 
         000004b0 0006 
    2543                      ; branchcc occurs ; |1418| 
    2544 000004b1       DW$L$_Registers$166$E:
    2545 000004b1       DW$L$_Registers$167$B:
    2546 000004b1 9265          MOV       AL,*-SP[37]
    2547 000004b2 5203          CMPB      AL,#3                 ; |1418| 
    2548 000004b3 56C1          BF        L107,EQ               ; |1418| 
         000004b4 0209 
    2549                      ; branchcc occurs ; |1418| 
    2550 000004b5       DW$L$_Registers$167$E:
    2551 000004b5       L39:    
    2552 000004b5       DW$L$_Registers$168$B:
    2553 000004b5 1BA2          CMP       AR2,#4706             ; |1419| 
         000004b6 1262 
    2554 000004b7 56C8          BF        L63,LO                ; |1419| 
         000004b8 00BA 
    2555                      ; branchcc occurs ; |1419| 
    2556 000004b9       DW$L$_Registers$168$E:
    2557 000004b9       DW$L$_Registers$169$B:
    2558 000004b9 1BA2          CMP       AR2,#4733             ; |1419| 
         000004ba 127D 
    2559 000004bb 56C6          BF        L40,HI                ; |1419| 
         000004bc 0006 
    2560                      ; branchcc occurs ; |1419| 
    2561 000004bd       DW$L$_Registers$169$E:
    2562 000004bd       DW$L$_Registers$170$B:
    2563 000004bd 9265          MOV       AL,*-SP[37]
    2564 000004be 5203          CMPB      AL,#3                 ; |1419| 
    2565 000004bf 56C1          BF        L106,EQ               ; |1419| 
         000004c0 01F6 
    2566                      ; branchcc occurs ; |1419| 
    2567 000004c1       DW$L$_Registers$170$E:
    2568 000004c1       L40:    
    2569 000004c1       DW$L$_Registers$171$B:
    2570 000004c1 1BA2          CMP       AR2,#4734             ; |1420| 
         000004c2 127E 
    2571 000004c3 56C8          BF        L63,LO                ; |1420| 
         000004c4 00AE 
    2572                      ; branchcc occurs ; |1420| 
    2573 000004c5       DW$L$_Registers$171$E:
    2574 000004c5       DW$L$_Registers$172$B:
    2575 000004c5 1BA2          CMP       AR2,#4747             ; |1420| 
         000004c6 128B 
    2576 000004c7 56C6          BF        L41,HI                ; |1420| 
         000004c8 0006 
TMS320C2000 COFF Assembler PC v4.1.3 Thu Aug 18 12:16:25 2016

Tools Copyright (c) 1996-2006 Texas Instruments Incorporated
PCModBus.asm                                                         PAGE   56

    2577                      ; branchcc occurs ; |1420| 
    2578 000004c9       DW$L$_Registers$172$E:
    2579 000004c9       DW$L$_Registers$173$B:
    2580 000004c9 9265          MOV       AL,*-SP[37]
    2581 000004ca 5203          CMPB      AL,#3                 ; |1420| 
    2582 000004cb 56C1          BF        L104,EQ               ; |1420| 
         000004cc 01E1 
    2583                      ; branchcc occurs ; |1420| 
    2584 000004cd       DW$L$_Registers$173$E:
    2585 000004cd       L41:    
    2586 000004cd       DW$L$_Registers$174$B:
    2587 000004cd 1BA2          CMP       AR2,#4748             ; |1421| 
         000004ce 128C 
    2588 000004cf 56C8          BF        L63,LO                ; |1421| 
         000004d0 00A2 
    2589                      ; branchcc occurs ; |1421| 
    2590 000004d1       DW$L$_Registers$174$E:
    2591 000004d1       DW$L$_Registers$175$B:
    2592 000004d1 1BA2          CMP       AR2,#4761             ; |1421| 
         000004d2 1299 
    2593 000004d3 56C6          BF        L42,HI                ; |1421| 
         000004d4 0006 
    2594                      ; branchcc occurs ; |1421| 
    2595 000004d5       DW$L$_Registers$175$E:
    2596 000004d5       DW$L$_Registers$176$B:
    2597 000004d5 9265          MOV       AL,*-SP[37]
    2598 000004d6 5203          CMPB      AL,#3                 ; |1421| 
    2599 000004d7 56C1          BF        L103,EQ               ; |1421| 
         000004d8 01CE 
    2600                      ; branchcc occurs ; |1421| 
    2601 000004d9       DW$L$_Registers$176$E:
    2602 000004d9       L42:    
    2603 000004d9       DW$L$_Registers$177$B:
    2604 000004d9 1BA2          CMP       AR2,#4762             ; |1422| 
         000004da 129A 
    2605 000004db ED05          BF        L43,NEQ               ; |1422| 
    2606                      ; branchcc occurs ; |1422| 
    2607 000004dc       DW$L$_Registers$177$E:
    2608 000004dc       DW$L$_Registers$178$B:
    2609 000004dc 9265          MOV       AL,*-SP[37]
    2610 000004dd 5203          CMPB      AL,#3                 ; |1422| 
    2611 000004de 56C1          BF        L102,EQ               ; |1422| 
         000004df 01C2 
    2612                      ; branchcc occurs ; |1422| 
    2613 000004e0       DW$L$_Registers$178$E:
    2614 000004e0       L43:    
    2615 000004e0       DW$L$_Registers$179$B:
    2616 000004e0 1BA2          CMP       AR2,#4763             ; |1423| 
         000004e1 129B 
    2617 000004e2 ED05          BF        L44,NEQ               ; |1423| 
    2618                      ; branchcc occurs ; |1423| 
    2619 000004e3       DW$L$_Registers$179$E:
    2620 000004e3       DW$L$_Registers$180$B:
    2621 000004e3 9265          MOV       AL,*-SP[37]
    2622 000004e4 5203          CMPB      AL,#3                 ; |1423| 
TMS320C2000 COFF Assembler PC v4.1.3 Thu Aug 18 12:16:25 2016

Tools Copyright (c) 1996-2006 Texas Instruments Incorporated
PCModBus.asm                                                         PAGE   57

    2623 000004e5 56C1          BF        L101,EQ               ; |1423| 
         000004e6 01B6 
    2624                      ; branchcc occurs ; |1423| 
    2625 000004e7       DW$L$_Registers$180$E:
    2626 000004e7       L44:    
    2627 000004e7       DW$L$_Registers$181$B:
    2628 000004e7 1BA2          CMP       AR2,#4764             ; |1424| 
         000004e8 129C 
    2629 000004e9 ED05          BF        L45,NEQ               ; |1424| 
    2630                      ; branchcc occurs ; |1424| 
    2631 000004ea       DW$L$_Registers$181$E:
    2632 000004ea       DW$L$_Registers$182$B:
    2633 000004ea 9265          MOV       AL,*-SP[37]
    2634 000004eb 5203          CMPB      AL,#3                 ; |1424| 
    2635 000004ec 56C1          BF        L100,EQ               ; |1424| 
         000004ed 01AA 
    2636                      ; branchcc occurs ; |1424| 
    2637 000004ee       DW$L$_Registers$182$E:
    2638 000004ee       L45:    
    2639 000004ee       DW$L$_Registers$183$B:
    2640 000004ee 1BA2          CMP       AR2,#4765             ; |1425| 
         000004ef 129D 
    2641 000004f0 ED05          BF        L46,NEQ               ; |1425| 
    2642                      ; branchcc occurs ; |1425| 
    2643 000004f1       DW$L$_Registers$183$E:
    2644 000004f1       DW$L$_Registers$184$B:
    2645 000004f1 9265          MOV       AL,*-SP[37]
    2646 000004f2 5203          CMPB      AL,#3                 ; |1425| 
    2647 000004f3 56C1          BF        L99,EQ                ; |1425| 
         000004f4 019E 
    2648                      ; branchcc occurs ; |1425| 
    2649 000004f5       DW$L$_Registers$184$E:
    2650 000004f5       L46:    
    2651 000004f5       DW$L$_Registers$185$B:
    2652 000004f5 1BA2          CMP       AR2,#4766             ; |1426| 
         000004f6 129E 
    2653 000004f7 ED05          BF        L47,NEQ               ; |1426| 
    2654                      ; branchcc occurs ; |1426| 
    2655 000004f8       DW$L$_Registers$185$E:
    2656 000004f8       DW$L$_Registers$186$B:
    2657 000004f8 9265          MOV       AL,*-SP[37]
    2658 000004f9 5203          CMPB      AL,#3                 ; |1426| 
    2659 000004fa 56C1          BF        L98,EQ                ; |1426| 
         000004fb 0192 
    2660                      ; branchcc occurs ; |1426| 
    2661 000004fc       DW$L$_Registers$186$E:
    2662 000004fc       L47:    
    2663 000004fc       DW$L$_Registers$187$B:
    2664 000004fc 1BA2          CMP       AR2,#4767             ; |1427| 
         000004fd 129F 
    2665 000004fe ED05          BF        L48,NEQ               ; |1427| 
    2666                      ; branchcc occurs ; |1427| 
    2667 000004ff       DW$L$_Registers$187$E:
    2668 000004ff       DW$L$_Registers$188$B:
    2669 000004ff 9265          MOV       AL,*-SP[37]
TMS320C2000 COFF Assembler PC v4.1.3 Thu Aug 18 12:16:25 2016

Tools Copyright (c) 1996-2006 Texas Instruments Incorporated
PCModBus.asm                                                         PAGE   58

    2670 00000500 5203          CMPB      AL,#3                 ; |1427| 
    2671 00000501 56C1          BF        L97,EQ                ; |1427| 
         00000502 0186 
    2672                      ; branchcc occurs ; |1427| 
    2673 00000503       DW$L$_Registers$188$E:
    2674 00000503       L48:    
    2675 00000503       DW$L$_Registers$189$B:
    2676 00000503 1BA2          CMP       AR2,#4768             ; |1428| 
         00000504 12A0 
    2677 00000505 ED05          BF        L49,NEQ               ; |1428| 
    2678                      ; branchcc occurs ; |1428| 
    2679 00000506       DW$L$_Registers$189$E:
    2680 00000506       DW$L$_Registers$190$B:
    2681 00000506 9265          MOV       AL,*-SP[37]
    2682 00000507 5203          CMPB      AL,#3                 ; |1428| 
    2683 00000508 56C1          BF        L96,EQ                ; |1428| 
         00000509 017A 
    2684                      ; branchcc occurs ; |1428| 
    2685 0000050a       DW$L$_Registers$190$E:
    2686 0000050a       L49:    
    2687 0000050a       DW$L$_Registers$191$B:
    2688 0000050a 1BA2          CMP       AR2,#4769             ; |1429| 
         0000050b 12A1 
    2689 0000050c ED05          BF        L50,NEQ               ; |1429| 
    2690                      ; branchcc occurs ; |1429| 
    2691 0000050d       DW$L$_Registers$191$E:
    2692 0000050d       DW$L$_Registers$192$B:
    2693 0000050d 9265          MOV       AL,*-SP[37]
    2694 0000050e 5203          CMPB      AL,#3                 ; |1429| 
    2695 0000050f 56C1          BF        L95,EQ                ; |1429| 
         00000510 016E 
    2696                      ; branchcc occurs ; |1429| 
    2697 00000511       DW$L$_Registers$192$E:
    2698 00000511       L50:    
    2699 00000511       DW$L$_Registers$193$B:
    2700 00000511 1BA2          CMP       AR2,#4770             ; |1430| 
         00000512 12A2 
    2701 00000513 ED05          BF        L51,NEQ               ; |1430| 
    2702                      ; branchcc occurs ; |1430| 
    2703 00000514       DW$L$_Registers$193$E:
    2704 00000514       DW$L$_Registers$194$B:
    2705 00000514 9265          MOV       AL,*-SP[37]
    2706 00000515 5203          CMPB      AL,#3                 ; |1430| 
    2707 00000516 56C1          BF        L94,EQ                ; |1430| 
         00000517 0162 
    2708                      ; branchcc occurs ; |1430| 
    2709 00000518       DW$L$_Registers$194$E:
    2710 00000518       L51:    
    2711 00000518       DW$L$_Registers$195$B:
    2712 00000518 1BA2          CMP       AR2,#4771             ; |1431| 
         00000519 12A3 
    2713 0000051a ED05          BF        L52,NEQ               ; |1431| 
    2714                      ; branchcc occurs ; |1431| 
    2715 0000051b       DW$L$_Registers$195$E:
    2716 0000051b       DW$L$_Registers$196$B:
TMS320C2000 COFF Assembler PC v4.1.3 Thu Aug 18 12:16:25 2016

Tools Copyright (c) 1996-2006 Texas Instruments Incorporated
PCModBus.asm                                                         PAGE   59

    2717 0000051b 9265          MOV       AL,*-SP[37]
    2718 0000051c 5203          CMPB      AL,#3                 ; |1431| 
    2719 0000051d 56C1          BF        L93,EQ                ; |1431| 
         0000051e 0156 
    2720                      ; branchcc occurs ; |1431| 
    2721 0000051f       DW$L$_Registers$196$E:
    2722 0000051f       L52:    
    2723 0000051f       DW$L$_Registers$197$B:
    2724 0000051f 1BA2          CMP       AR2,#4772             ; |1432| 
         00000520 12A4 
    2725 00000521 ED05          BF        L53,NEQ               ; |1432| 
    2726                      ; branchcc occurs ; |1432| 
    2727 00000522       DW$L$_Registers$197$E:
    2728 00000522       DW$L$_Registers$198$B:
    2729 00000522 9265          MOV       AL,*-SP[37]
    2730 00000523 5203          CMPB      AL,#3                 ; |1432| 
    2731 00000524 56C1          BF        L92,EQ                ; |1432| 
         00000525 014A 
    2732                      ; branchcc occurs ; |1432| 
    2733 00000526       DW$L$_Registers$198$E:
    2734 00000526       L53:    
    2735 00000526       DW$L$_Registers$199$B:
    2736 00000526 1BA2          CMP       AR2,#4773             ; |1433| 
         00000527 12A5 
    2737 00000528 ED05          BF        L54,NEQ               ; |1433| 
    2738                      ; branchcc occurs ; |1433| 
    2739 00000529       DW$L$_Registers$199$E:
    2740 00000529       DW$L$_Registers$200$B:
    2741 00000529 9265          MOV       AL,*-SP[37]
    2742 0000052a 5203          CMPB      AL,#3                 ; |1433| 
    2743 0000052b 56C1          BF        L91,EQ                ; |1433| 
         0000052c 013E 
    2744                      ; branchcc occurs ; |1433| 
    2745 0000052d       DW$L$_Registers$200$E:
    2746 0000052d       L54:    
    2747 0000052d       DW$L$_Registers$201$B:
    2748 0000052d 1BA2          CMP       AR2,#4774             ; |1434| 
         0000052e 12A6 
    2749 0000052f ED05          BF        L55,NEQ               ; |1434| 
    2750                      ; branchcc occurs ; |1434| 
    2751 00000530       DW$L$_Registers$201$E:
    2752 00000530       DW$L$_Registers$202$B:
    2753 00000530 9265          MOV       AL,*-SP[37]
    2754 00000531 5203          CMPB      AL,#3                 ; |1434| 
    2755 00000532 56C1          BF        L90,EQ                ; |1434| 
         00000533 0132 
    2756                      ; branchcc occurs ; |1434| 
    2757 00000534       DW$L$_Registers$202$E:
    2758 00000534       L55:    
    2759 00000534       DW$L$_Registers$203$B:
    2760 00000534 1BA2          CMP       AR2,#4775             ; |1435| 
         00000535 12A7 
    2761 00000536 ED05          BF        L56,NEQ               ; |1435| 
    2762                      ; branchcc occurs ; |1435| 
    2763 00000537       DW$L$_Registers$203$E:
TMS320C2000 COFF Assembler PC v4.1.3 Thu Aug 18 12:16:25 2016

Tools Copyright (c) 1996-2006 Texas Instruments Incorporated
PCModBus.asm                                                         PAGE   60

    2764 00000537       DW$L$_Registers$204$B:
    2765 00000537 9265          MOV       AL,*-SP[37]
    2766 00000538 5203          CMPB      AL,#3                 ; |1435| 
    2767 00000539 56C1          BF        L89,EQ                ; |1435| 
         0000053a 0126 
    2768                      ; branchcc occurs ; |1435| 
    2769 0000053b       DW$L$_Registers$204$E:
    2770 0000053b       L56:    
    2771 0000053b       DW$L$_Registers$205$B:
    2772 0000053b 1BA2          CMP       AR2,#4776             ; |1436| 
         0000053c 12A8 
    2773 0000053d ED05          BF        L57,NEQ               ; |1436| 
    2774                      ; branchcc occurs ; |1436| 
    2775 0000053e       DW$L$_Registers$205$E:
    2776 0000053e       DW$L$_Registers$206$B:
    2777 0000053e 9265          MOV       AL,*-SP[37]
    2778 0000053f 5203          CMPB      AL,#3                 ; |1436| 
    2779 00000540 56C1          BF        L88,EQ                ; |1436| 
         00000541 011A 
    2780                      ; branchcc occurs ; |1436| 
    2781 00000542       DW$L$_Registers$206$E:
    2782 00000542       L57:    
    2783 00000542       DW$L$_Registers$207$B:
    2784 00000542 1BA2          CMP       AR2,#4777             ; |1437| 
         00000543 12A9 
    2785 00000544 ED05          BF        L58,NEQ               ; |1437| 
    2786                      ; branchcc occurs ; |1437| 
    2787 00000545       DW$L$_Registers$207$E:
    2788 00000545       DW$L$_Registers$208$B:
    2789 00000545 9265          MOV       AL,*-SP[37]
    2790 00000546 5203          CMPB      AL,#3                 ; |1437| 
    2791 00000547 56C1          BF        L87,EQ                ; |1437| 
         00000548 010E 
    2792                      ; branchcc occurs ; |1437| 
    2793 00000549       DW$L$_Registers$208$E:
    2794 00000549       L58:    
    2795 00000549       DW$L$_Registers$209$B:
    2796 00000549 1BA2          CMP       AR2,#4778             ; |1438| 
         0000054a 12AA 
    2797 0000054b ED05          BF        L59,NEQ               ; |1438| 
    2798                      ; branchcc occurs ; |1438| 
    2799 0000054c       DW$L$_Registers$209$E:
    2800 0000054c       DW$L$_Registers$210$B:
    2801 0000054c 9265          MOV       AL,*-SP[37]
    2802 0000054d 5203          CMPB      AL,#3                 ; |1438| 
    2803 0000054e 56C1          BF        L86,EQ                ; |1438| 
         0000054f 0102 
    2804                      ; branchcc occurs ; |1438| 
    2805 00000550       DW$L$_Registers$210$E:
    2806 00000550       L59:    
    2807 00000550       DW$L$_Registers$211$B:
    2808 00000550 1BA2          CMP       AR2,#4779             ; |1439| 
         00000551 12AB 
    2809 00000552 ED05          BF        L60,NEQ               ; |1439| 
    2810                      ; branchcc occurs ; |1439| 
TMS320C2000 COFF Assembler PC v4.1.3 Thu Aug 18 12:16:25 2016

Tools Copyright (c) 1996-2006 Texas Instruments Incorporated
PCModBus.asm                                                         PAGE   61

    2811 00000553       DW$L$_Registers$211$E:
    2812 00000553       DW$L$_Registers$212$B:
    2813 00000553 9265          MOV       AL,*-SP[37]
    2814 00000554 5203          CMPB      AL,#3                 ; |1439| 
    2815 00000555 56C1          BF        L85,EQ                ; |1439| 
         00000556 00F6 
    2816                      ; branchcc occurs ; |1439| 
    2817 00000557       DW$L$_Registers$212$E:
    2818 00000557       L60:    
    2819 00000557       DW$L$_Registers$213$B:
    2820 00000557 1BA2          CMP       AR2,#4780             ; |1440| 
         00000558 12AC 
    2821 00000559 ED05          BF        L61,NEQ               ; |1440| 
    2822                      ; branchcc occurs ; |1440| 
    2823 0000055a       DW$L$_Registers$213$E:
    2824 0000055a       DW$L$_Registers$214$B:
    2825 0000055a 9265          MOV       AL,*-SP[37]
    2826 0000055b 5203          CMPB      AL,#3                 ; |1440| 
    2827 0000055c 56C1          BF        L84,EQ                ; |1440| 
         0000055d 00EA 
    2828                      ; branchcc occurs ; |1440| 
    2829 0000055e       DW$L$_Registers$214$E:
    2830 0000055e       L61:    
    2831 0000055e       DW$L$_Registers$215$B:
    2832 0000055e 1BA2          CMP       AR2,#4781             ; |1441| 
         0000055f 12AD 
    2833 00000560 ED05          BF        L62,NEQ               ; |1441| 
    2834                      ; branchcc occurs ; |1441| 
    2835 00000561       DW$L$_Registers$215$E:
    2836 00000561       DW$L$_Registers$216$B:
    2837 00000561 9265          MOV       AL,*-SP[37]
    2838 00000562 5203          CMPB      AL,#3                 ; |1441| 
    2839 00000563 56C1          BF        L83,EQ                ; |1441| 
         00000564 00DE 
    2840                      ; branchcc occurs ; |1441| 
    2841 00000565       DW$L$_Registers$216$E:
    2842 00000565       L62:    
    2843 00000565       DW$L$_Registers$217$B:
    2844 00000565 1BA2          CMP       AR2,#4782             ; |1444| 
         00000566 12AE 
    2845 00000567 56C8          BF        L63,LO                ; |1444| 
         00000568 000A 
    2846                      ; branchcc occurs ; |1444| 
    2847 00000569       DW$L$_Registers$217$E:
    2848 00000569       DW$L$_Registers$218$B:
    2849 00000569 1BA2          CMP       AR2,#4783             ; |1444| 
         0000056a 12AF 
    2850 0000056b 56C9          BF        L81,LOS               ; |1444| 
         0000056c 00C8 
    2851                      ; branchcc occurs ; |1444| 
    2852 0000056d       DW$L$_Registers$218$E:
    2853 0000056d       DW$L$_Registers$219$B:
    2854 0000056d 1BA2          CMP       AR2,#8192             ; |1458| 
         0000056e 2000 
    2855 0000056f 56C7          BF        L67,HIS               ; |1458| 
TMS320C2000 COFF Assembler PC v4.1.3 Thu Aug 18 12:16:25 2016

Tools Copyright (c) 1996-2006 Texas Instruments Incorporated
PCModBus.asm                                                         PAGE   62

         00000570 0024 
    2856                      ; branchcc occurs ; |1458| 
    2857 00000571       DW$L$_Registers$219$E:
    2858 00000571       L63:    
    2859 00000571       DW$L$_Registers$220$B:
    2860 00000571 1BA2          CMP       AR2,#4638             ; |1462| 
         00000572 121E 
    2861 00000573 ED04          BF        L64,NEQ               ; |1462| 
    2862                      ; branchcc occurs ; |1462| 
    2863 00000574       DW$L$_Registers$220$E:
    2864 00000574       DW$L$_Registers$221$B:
    2865 00000574 9265          MOV       AL,*-SP[37]
    2866 00000575 5203          CMPB      AL,#3                 ; |1462| 
    2867 00000576 EC10          BF        L65,EQ                ; |1462| 
    2868                      ; branchcc occurs ; |1462| 
    2869 00000577       DW$L$_Registers$221$E:
    2870 00000577       L64:    
    2871 00000577       DW$L$_Registers$222$B:
    2872 00000577 1BA2          CMP       AR2,#4639             ; |1463| 
         00000578 121F 
    2873 00000579 ED1E          BF        L68,NEQ               ; |1463| 
    2874                      ; branchcc occurs ; |1463| 
    2875 0000057a       DW$L$_Registers$222$E:
    2876 0000057a       DW$L$_Registers$223$B:
    2877 0000057a 9265          MOV       AL,*-SP[37]
    2878 0000057b 5203          CMPB      AL,#3                 ; |1463| 
    2879 0000057c ED1B          BF        L68,NEQ               ; |1463| 
    2880                      ; branchcc occurs ; |1463| 
    2881 0000057d       DW$L$_Registers$223$E:
    2882 0000057d       DW$L$_Registers$224$B:
    2883 0000057d 28A8          MOV       AH,#17096
         0000057e 42C8 
    2884 0000057f 9A00          MOV       AL,#0
    2885 00000580 761F!         MOVW      DP,#_loadlevel+4
         00000581 0000 
    2886 00000582 1E42          MOVL      *-SP[2],ACC           ; |1463| 
    2887 00000583 0604!         MOVL      ACC,@_loadlevel+4     ; |1463| 
    2888 00000584 56CF          BF        L66,UNC               ; |1463| 
         00000585 0009 
    2889                      ; branch occurs ; |1463| 
    2890 00000586       DW$L$_Registers$224$E:
    2891 00000586       L65:    
    2892 00000586       DW$L$_Registers$225$B:
    2893 00000586 28A8          MOV       AH,#17530
         00000587 447A 
    2894 00000588 9A00          MOV       AL,#0
    2895 00000589 761F!         MOVW      DP,#_loadlevel+2
         0000058a 0000 
    2896 0000058b 1E42          MOVL      *-SP[2],ACC           ; |1462| 
    2897 0000058c 0602!         MOVL      ACC,@_loadlevel+2     ; |1462| 
    2898 0000058d       DW$L$_Registers$225$E:
    2899 0000058d       L66:    
    2900 0000058d       DW$L$_Registers$226$B:
    2901 0000058d 7640!         LCR       #FS$$MPY              ; |1462| 
         0000058e 0000 
TMS320C2000 COFF Assembler PC v4.1.3 Thu Aug 18 12:16:25 2016

Tools Copyright (c) 1996-2006 Texas Instruments Incorporated
PCModBus.asm                                                         PAGE   63

    2902                      ; call occurs [#FS$$MPY] ; |1462| 
    2903 0000058f 7640!         LCR       #FS$$TOU              ; |1462| 
         00000590 0000 
    2904                      ; call occurs [#FS$$TOU] ; |1462| 
    2905 00000591 56CF          BF        L112,UNC              ; |1462| 
         00000592 0136 
    2906                      ; branch occurs ; |1462| 
    2907 00000593       DW$L$_Registers$226$E:
    2908 00000593       L67:    
    2909 00000593       DW$L$_Registers$227$B:
    2910 00000593 1BA2          CMP       AR2,#8339             ; |1458| 
         00000594 2093 
    2911 00000595 56C8          BF        L80,LO                ; |1458| 
         00000596 0098 
    2912                      ; branchcc occurs ; |1458| 
    2913 00000597       DW$L$_Registers$227$E:
    2914 00000597       L68:    
    2915 00000597       DW$L$_Registers$228$B:
    2916 00000597 1BA2          CMP       AR2,#8400             ; |1466| 
         00000598 20D0 
    2917 00000599 56C8          BF        L69,LO                ; |1466| 
         0000059a 0012 
    2918                      ; branchcc occurs ; |1466| 
    2919 0000059b       DW$L$_Registers$228$E:
    2920 0000059b       DW$L$_Registers$229$B:
    2921 0000059b 1BA2          CMP       AR2,#8535             ; |1466| 
         0000059c 2157 
    2922 0000059d 56C9          BF        L79,LOS               ; |1466| 
         0000059e 0082 
    2923                      ; branchcc occurs ; |1466| 
    2924 0000059f       DW$L$_Registers$229$E:
    2925 0000059f       DW$L$_Registers$230$B:
    2926 0000059f 1BA2          CMP       AR2,#65514            ; |1509| 
         000005a0 FFEA 
    2927 000005a1 EC32          BF        L73,EQ                ; |1509| 
    2928                      ; branchcc occurs ; |1509| 
    2929 000005a2       DW$L$_Registers$230$E:
    2930 000005a2       DW$L$_Registers$231$B:
    2931 000005a2 1BA2          CMP       AR2,#65533            ; |1535| 
         000005a3 FFFD 
    2932 000005a4 EC21          BF        L72,EQ                ; |1535| 
    2933                      ; branchcc occurs ; |1535| 
    2934 000005a5       DW$L$_Registers$231$E:
    2935 000005a5       DW$L$_Registers$232$B:
    2936 000005a5 1BA2          CMP       AR2,#65534            ; |1542| 
         000005a6 FFFE 
    2937 000005a7 EC16          BF        L71,EQ                ; |1542| 
    2938                      ; branchcc occurs ; |1542| 
    2939 000005a8       DW$L$_Registers$232$E:
    2940 000005a8       DW$L$_Registers$233$B:
    2941 000005a8 1BA2          CMP       AR2,#65535            ; |1546| 
         000005a9 FFFF 
    2942 000005aa EC0A          BF        L70,EQ                ; |1546| 
    2943                      ; branchcc occurs ; |1546| 
    2944 000005ab       DW$L$_Registers$233$E:
TMS320C2000 COFF Assembler PC v4.1.3 Thu Aug 18 12:16:25 2016

Tools Copyright (c) 1996-2006 Texas Instruments Incorporated
PCModBus.asm                                                         PAGE   64

    2945 000005ab       L69:    
    2946 000005ab       DW$L$_Registers$234$B:
    2947 000005ab 92A2          MOV       AL,AR2                ; |1552| 
    2948 000005ac 93A1          MOV       AH,AR1                ; |1552| 
    2949 000005ad 7640!         LCR       #_PCModifyParameter   ; |1552| 
         000005ae 0000 
    2950                      ; call occurs [#_PCModifyParameter] ; |1552| 
    2951 000005af 5200          CMPB      AL,#0                 ; |1552| 
    2952 000005b0 56C1          BF        L247,EQ               ; |1552| 
         000005b1 05C7 
    2953                      ; branchcc occurs ; |1552| 
    2954 000005b2       DW$L$_Registers$234$E:
    2955 000005b2       DW$L$_Registers$235$B:
    2956 000005b2 56CF          BF        L300,UNC              ; |1552| 
         000005b3 079B 
    2957                      ; branch occurs ; |1552| 
    2958 000005b4       DW$L$_Registers$235$E:
    2959 000005b4       L70:    
    2960 000005b4       DW$L$_Registers$236$B:
    2961 000005b4 9265          MOV       AL,*-SP[37]
    2962 000005b5 5203          CMPB      AL,#3                 ; |1548| 
    2963 000005b6 56C0          BF        L300,NEQ              ; |1548| 
         000005b7 0797 
    2964                      ; branchcc occurs ; |1548| 
    2965 000005b8       DW$L$_Registers$236$E:
    2966 000005b8       DW$L$_Registers$237$B:
    2967 000005b8 761F!         MOVW      DP,#_versionreg
         000005b9 0000 
    2968 000005ba 9200!         MOV       AL,@_versionreg       ; |1548| 
    2969 000005bb 56CF          BF        L112,UNC              ; |1548| 
         000005bc 010C 
    2970                      ; branch occurs ; |1548| 
    2971 000005bd       DW$L$_Registers$237$E:
    2972 000005bd       L71:    
    2973 000005bd       DW$L$_Registers$238$B:
    2974 000005bd 9265          MOV       AL,*-SP[37]
    2975 000005be 5203          CMPB      AL,#3                 ; |1544| 
    2976 000005bf 56C0          BF        L300,NEQ              ; |1544| 
         000005c0 078E 
    2977                      ; branchcc occurs ; |1544| 
    2978 000005c1       DW$L$_Registers$238$E:
    2979 000005c1       DW$L$_Registers$239$B:
    2980 000005c1 7640!         LCR       #_GetSlaveVersion     ; |1544| 
         000005c2 0000 
    2981                      ; call occurs [#_GetSlaveVersion] ; |1544| 
    2982 000005c3 56CF          BF        L112,UNC              ; |1544| 
         000005c4 0104 
    2983                      ; branch occurs ; |1544| 
    2984 000005c5       DW$L$_Registers$239$E:
    2985 000005c5       L72:    
    2986 000005c5       DW$L$_Registers$240$B:
    2987 000005c5 9265          MOV       AL,*-SP[37]
    2988 000005c6 5210          CMPB      AL,#16                ; |1537| 
    2989 000005c7 56C0          BF        L300,NEQ              ; |1537| 
         000005c8 0786 
TMS320C2000 COFF Assembler PC v4.1.3 Thu Aug 18 12:16:25 2016

Tools Copyright (c) 1996-2006 Texas Instruments Incorporated
PCModBus.asm                                                         PAGE   65

    2990                      ; branchcc occurs ; |1537| 
    2991 000005c9       DW$L$_Registers$240$E:
    2992 000005c9       DW$L$_Registers$241$B:
    2993 000005c9 8F00-         MOVL      XAR4,#_pcmodbus+5     ; |1537| 
         000005ca 0005 
    2994 000005cb 1B9C          CMP       *+XAR4[AR1],#43605    ; |1537| 
         000005cc AA55 
    2995 000005cd 56C0          BF        L300,NEQ              ; |1537| 
         000005ce 0780 
    2996                      ; branchcc occurs ; |1537| 
    2997 000005cf       DW$L$_Registers$241$E:
    2998 000005cf       DW$L$_Registers$242$B:
    2999 000005cf 7640!         LCR       #_SPUUnitReset        ; |1539| 
         000005d0 0000 
    3000                      ; call occurs [#_SPUUnitReset] ; |1539| 
    3001 000005d1 56CF          BF        L300,UNC              ; |1539| 
         000005d2 077C 
    3002                      ; branch occurs ; |1539| 
    3003 000005d3       DW$L$_Registers$242$E:
    3004 000005d3       L73:    
    3005 000005d3       DW$L$_Registers$243$B:
    3006 000005d3 761F!         MOVW      DP,#_clocktime+5
         000005d4 0000 
    3007 000005d5 9205!         MOV       AL,@_clocktime+5      ; |1511| 
    3008 000005d6 5231          CMPB      AL,#49                ; |1511| 
    3009 000005d7 56C9          BF        L75,LOS               ; |1511| 
         000005d8 002C 
    3010                      ; branchcc occurs ; |1511| 
    3011 000005d9       DW$L$_Registers$243$E:
    3012 000005d9       DW$L$_Registers$244$B:
    3013 000005d9 761F!         MOVW      DP,#_clocktime+5
         000005da 0000 
    3014 000005db 2805!         MOV       @_clocktime+5,#1      ; |1520| 
         000005dc 0001 
    3015 000005dd 761F!         MOVW      DP,#_clocktime+6
         000005de 0000 
    3016 000005df 9206!         MOV       AL,@_clocktime+6      ; |1521| 
    3017 000005e0 5212          CMPB      AL,#18                ; |1521| 
    3018 000005e1 56C8          BF        L74,LO                ; |1521| 
         000005e2 0014 
    3019                      ; branchcc occurs ; |1521| 
    3020 000005e3       DW$L$_Registers$244$E:
    3021 000005e3       DW$L$_Registers$245$B:
    3022 000005e3 761F!         MOVW      DP,#_clocktime+6
         000005e4 0000 
    3023 000005e5 2806!         MOV       @_clocktime+6,#1      ; |1528| 
         000005e6 0001 
    3024 000005e7 761F!         MOVW      DP,#_clocktime+7
         000005e8 0000 
    3025 000005e9 0A07!         INC       @_clocktime+7         ; |1529| 
    3026 000005ea 761F!         MOVW      DP,#_clocktime+7
         000005eb 0000 
    3027 000005ec 9207!         MOV       AL,@_clocktime+7      ; |1530| 
    3028 000005ed 520A          CMPB      AL,#10                ; |1530| 
    3029 000005ee ED2D          BF        L78,NEQ               ; |1530| 
TMS320C2000 COFF Assembler PC v4.1.3 Thu Aug 18 12:16:25 2016

Tools Copyright (c) 1996-2006 Texas Instruments Incorporated
PCModBus.asm                                                         PAGE   66

    3030                      ; branchcc occurs ; |1530| 
    3031 000005ef       DW$L$_Registers$245$E:
    3032 000005ef       DW$L$_Registers$246$B:
    3033 000005ef 761F!         MOVW      DP,#_clocktime+7
         000005f0 0000 
    3034 000005f1 2807!         MOV       @_clocktime+7,#16     ; |1530| 
         000005f2 0010 
    3035 000005f3 56CF          BF        L78,UNC               ; |1530| 
         000005f4 0028 
    3036                      ; branch occurs ; |1530| 
    3037 000005f5       DW$L$_Registers$246$E:
    3038 000005f5       L74:    
    3039 000005f5       DW$L$_Registers$247$B:
    3040 000005f5 761F!         MOVW      DP,#_clocktime+6
         000005f6 0000 
    3041 000005f7 0A06!         INC       @_clocktime+6         ; |1523| 
    3042 000005f8 761F!         MOVW      DP,#_clocktime+6
         000005f9 0000 
    3043 000005fa 9206!         MOV       AL,@_clocktime+6      ; |1524| 
    3044 000005fb 520A          CMPB      AL,#10                ; |1524| 
    3045 000005fc ED1F          BF        L78,NEQ               ; |1524| 
    3046                      ; branchcc occurs ; |1524| 
    3047 000005fd       DW$L$_Registers$247$E:
    3048 000005fd       DW$L$_Registers$248$B:
    3049 000005fd 761F!         MOVW      DP,#_clocktime+6
         000005fe 0000 
    3050 000005ff 2806!         MOV       @_clocktime+6,#16     ; |1524| 
         00000600 0010 
    3051 00000601 56CF          BF        L78,UNC               ; |1524| 
         00000602 001A 
    3052                      ; branch occurs ; |1524| 
    3053 00000603       DW$L$_Registers$248$E:
    3054 00000603       L75:    
    3055 00000603       DW$L$_Registers$249$B:
    3056 00000603 761F!         MOVW      DP,#_clocktime+5
         00000604 0000 
    3057 00000605 0A05!         INC       @_clocktime+5         ; |1513| 
    3058 00000606 761F!         MOVW      DP,#_clocktime+5
         00000607 0000 
    3059 00000608 9205!         MOV       AL,@_clocktime+5      ; |1514| 
    3060 00000609 520A          CMPB      AL,#10                ; |1514| 
    3061 0000060a ED05          BF        L76,NEQ               ; |1514| 
    3062                      ; branchcc occurs ; |1514| 
    3063 0000060b       DW$L$_Registers$249$E:
    3064 0000060b       DW$L$_Registers$250$B:
    3065 0000060b 9A10          MOVB      AL,#16                ; |1514| 
    3066 0000060c 761F!         MOVW      DP,#_clocktime+5
         0000060d 0000 
    3067 0000060e 9605!         MOV       @_clocktime+5,AL      ; |1514| 
    3068 0000060f       DW$L$_Registers$250$E:
    3069 0000060f       L76:    
    3070 0000060f       DW$L$_Registers$251$B:
    3071 0000060f 521A          CMPB      AL,#26                ; |1515| 
    3072 00000610 ED05          BF        L77,NEQ               ; |1515| 
    3073                      ; branchcc occurs ; |1515| 
TMS320C2000 COFF Assembler PC v4.1.3 Thu Aug 18 12:16:25 2016

Tools Copyright (c) 1996-2006 Texas Instruments Incorporated
PCModBus.asm                                                         PAGE   67

    3074 00000611       DW$L$_Registers$251$E:
    3075 00000611       DW$L$_Registers$252$B:
    3076 00000611 9A20          MOVB      AL,#32                ; |1515| 
    3077 00000612 761F!         MOVW      DP,#_clocktime+5
         00000613 0000 
    3078 00000614 9605!         MOV       @_clocktime+5,AL      ; |1515| 
    3079 00000615       DW$L$_Registers$252$E:
    3080 00000615       L77:    
    3081 00000615       DW$L$_Registers$253$B:
    3082 00000615 522A          CMPB      AL,#42                ; |1516| 
    3083 00000616 ED05          BF        L78,NEQ               ; |1516| 
    3084                      ; branchcc occurs ; |1516| 
    3085 00000617       DW$L$_Registers$253$E:
    3086 00000617       DW$L$_Registers$254$B:
    3087 00000617 761F!         MOVW      DP,#_clocktime+5
         00000618 0000 
    3088 00000619 2805!         MOV       @_clocktime+5,#48     ; |1516| 
         0000061a 0030 
    3089 0000061b       DW$L$_Registers$254$E:
    3090 0000061b       L78:    
    3091 0000061b       DW$L$_Registers$255$B:
    3092 0000061b 7640!         LCR       #_WriteClockData      ; |1533| 
         0000061c 0000 
    3093                      ; call occurs [#_WriteClockData] ; |1533| 
    3094 0000061d 56CF          BF        L300,UNC              ; |1534| 
         0000061e 0730 
    3095                      ; branch occurs ; |1534| 
    3096 0000061f       DW$L$_Registers$255$E:
    3097 0000061f       L79:    
    3098 0000061f       DW$L$_Registers$256$B:
    3099 0000061f 8F00-         MOVL      XAR4,#_pcmodbus+5     ; |1468| 
         00000620 0005 
    3100 00000621 761F-         MOVW      DP,#_pcmodbus+1
         00000622 0000 
    3101 00000623 A8A9          MOVL      ACC,XAR4              ; |1468| 
    3102 00000624 0DA1          ADDU      ACC,AR1               ; |1468| 
    3103 00000625 5D01-         MOVZ      AR5,@_pcmodbus+1      ; |1468| 
    3104 00000626 8AA9          MOVL      XAR4,ACC              ; |1468| 
    3105 00000627 92A2          MOV       AL,AR2                ; |1468| 
    3106 00000628 93A1          MOV       AH,AR1                ; |1468| 
    3107 00000629 7640!         LCR       #_ProcessReprogrammingTransferral ; |1468| 
         0000062a 0000 
    3108                      ; call occurs [#_ProcessReprogrammingTransferral] ; |1468| 
    3109 0000062b 56CF          BF        L300,UNC              ; |1469| 
         0000062c 0722 
    3110                      ; branch occurs ; |1469| 
    3111 0000062d       DW$L$_Registers$256$E:
    3112 0000062d       L80:    
    3113 0000062d       DW$L$_Registers$257$B:
    3114 0000062d 92A2          MOV       AL,AR2                ; |1460| 
    3115 0000062e 93A1          MOV       AH,AR1                ; |1460| 
    3116 0000062f 7640'         LCR       #_ProcessFileTransferral ; |1460| 
         00000630 0DDC 
    3117                      ; call occurs [#_ProcessFileTransferral] ; |1460| 
    3118 00000631 56CF          BF        L300,UNC              ; |1461| 
TMS320C2000 COFF Assembler PC v4.1.3 Thu Aug 18 12:16:25 2016

Tools Copyright (c) 1996-2006 Texas Instruments Incorporated
PCModBus.asm                                                         PAGE   68

         00000632 071C 
    3119                      ; branch occurs ; |1461| 
    3120 00000633       DW$L$_Registers$257$E:
    3121 00000633       L81:    
    3122 00000633       DW$L$_Registers$258$B:
    3123 00000633 1BA2          CMP       AR2,#4782             ; |1446| 
         00000634 12AE 
    3124 00000635 ED07          BF        L82,NEQ               ; |1446| 
    3125                      ; branchcc occurs ; |1446| 
    3126 00000636       DW$L$_Registers$258$E:
    3127 00000636       DW$L$_Registers$259$B:
    3128 00000636 761F!         MOVW      DP,#_dynalarmlevels+34
         00000637 0000 
    3129 00000638 8F00-         MOVL      XAR4,#_pcmodbus+5     ; |1450| 
         00000639 0005 
    3130 0000063a 0622!         MOVL      ACC,@_dynalarmlevels+34 ; |1448| 
    3131 0000063b 979C          MOVH      *+XAR4[AR1],ACC << 0  ; |1450| 
    3132 0000063c       DW$L$_Registers$259$E:
    3133 0000063c       L82:    
    3134 0000063c       DW$L$_Registers$260$B:
    3135 0000063c 1BA2          CMP       AR2,#4783             ; |1452| 
         0000063d 12AF 
    3136 0000063e EC08          BF        L84,EQ                ; |1452| 
    3137                      ; branchcc occurs ; |1452| 
    3138 0000063f       DW$L$_Registers$260$E:
    3139 0000063f       DW$L$_Registers$261$B:
    3140 0000063f 56CF          BF        L300,UNC              ; |1452| 
         00000640 070E 
    3141                      ; branch occurs ; |1452| 
    3142 00000641       DW$L$_Registers$261$E:
    3143 00000641       L83:    
    3144 00000641       DW$L$_Registers$262$B:
    3145 00000641 761F!         MOVW      DP,#_damalarms+1
         00000642 0000 
    3146 00000643 9201!         MOV       AL,@_damalarms+1      ; |1441| 
    3147 00000644 56CF          BF        L112,UNC              ; |1441| 
         00000645 0083 
    3148                      ; branch occurs ; |1441| 
    3149 00000646       DW$L$_Registers$262$E:
    3150 00000646       L84:    
    3151 00000646       DW$L$_Registers$263$B:
    3152 00000646 761F!         MOVW      DP,#_dynalarmlevels+34
         00000647 0000 
    3153 00000648 9222!         MOV       AL,@_dynalarmlevels+34 ; |1440| 
    3154 00000649 56CF          BF        L112,UNC              ; |1440| 
         0000064a 007E 
    3155                      ; branch occurs ; |1440| 
    3156 0000064b       DW$L$_Registers$263$E:
    3157 0000064b       L85:    
    3158 0000064b       DW$L$_Registers$264$B:
    3159 0000064b 761F!         MOVW      DP,#_dynalarmlevels+32
         0000064c 0000 
    3160 0000064d 9220!         MOV       AL,@_dynalarmlevels+32 ; |1439| 
    3161 0000064e 56CF          BF        L112,UNC              ; |1439| 
         0000064f 0079 
TMS320C2000 COFF Assembler PC v4.1.3 Thu Aug 18 12:16:25 2016

Tools Copyright (c) 1996-2006 Texas Instruments Incorporated
PCModBus.asm                                                         PAGE   69

    3162                      ; branch occurs ; |1439| 
    3163 00000650       DW$L$_Registers$264$E:
    3164 00000650       L86:    
    3165 00000650       DW$L$_Registers$265$B:
    3166 00000650 761F!         MOVW      DP,#_dynalarmlevels+31
         00000651 0000 
    3167 00000652 921F!         MOV       AL,@_dynalarmlevels+31 ; |1438| 
    3168 00000653 56CF          BF        L112,UNC              ; |1438| 
         00000654 0074 
    3169                      ; branch occurs ; |1438| 
    3170 00000655       DW$L$_Registers$265$E:
    3171 00000655       L87:    
    3172 00000655       DW$L$_Registers$266$B:
    3173 00000655 761F!         MOVW      DP,#_dynalarmlevels+30
         00000656 0000 
    3174 00000657 921E!         MOV       AL,@_dynalarmlevels+30 ; |1437| 
    3175 00000658 56CF          BF        L112,UNC              ; |1437| 
         00000659 006F 
    3176                      ; branch occurs ; |1437| 
    3177 0000065a       DW$L$_Registers$266$E:
    3178 0000065a       L88:    
    3179 0000065a       DW$L$_Registers$267$B:
    3180 0000065a 761F!         MOVW      DP,#_dynalarmlevels+29
         0000065b 0000 
    3181 0000065c 921D!         MOV       AL,@_dynalarmlevels+29 ; |1436| 
    3182 0000065d 56CF          BF        L112,UNC              ; |1436| 
         0000065e 006A 
    3183                      ; branch occurs ; |1436| 
    3184 0000065f       DW$L$_Registers$267$E:
    3185 0000065f       L89:    
    3186 0000065f       DW$L$_Registers$268$B:
    3187 0000065f 761F!         MOVW      DP,#_dynalarmlevels+28
         00000660 0000 
    3188 00000661 921C!         MOV       AL,@_dynalarmlevels+28 ; |1435| 
    3189 00000662 56CF          BF        L112,UNC              ; |1435| 
         00000663 0065 
    3190                      ; branch occurs ; |1435| 
    3191 00000664       DW$L$_Registers$268$E:
    3192 00000664       L90:    
    3193 00000664       DW$L$_Registers$269$B:
    3194 00000664 761F!         MOVW      DP,#_dynalarmlevels+27
         00000665 0000 
    3195 00000666 921B!         MOV       AL,@_dynalarmlevels+27 ; |1434| 
    3196 00000667 56CF          BF        L112,UNC              ; |1434| 
         00000668 0060 
    3197                      ; branch occurs ; |1434| 
    3198 00000669       DW$L$_Registers$269$E:
    3199 00000669       L91:    
    3200 00000669       DW$L$_Registers$270$B:
    3201 00000669 761F!         MOVW      DP,#_dynalarmlevels+26
         0000066a 0000 
    3202 0000066b 921A!         MOV       AL,@_dynalarmlevels+26 ; |1433| 
    3203 0000066c 56CF          BF        L112,UNC              ; |1433| 
         0000066d 005B 
    3204                      ; branch occurs ; |1433| 
TMS320C2000 COFF Assembler PC v4.1.3 Thu Aug 18 12:16:25 2016

Tools Copyright (c) 1996-2006 Texas Instruments Incorporated
PCModBus.asm                                                         PAGE   70

    3205 0000066e       DW$L$_Registers$270$E:
    3206 0000066e       L92:    
    3207 0000066e       DW$L$_Registers$271$B:
    3208 0000066e 761F!         MOVW      DP,#_dynalarmlevels+25
         0000066f 0000 
    3209 00000670 9219!         MOV       AL,@_dynalarmlevels+25 ; |1432| 
    3210 00000671 56CF          BF        L112,UNC              ; |1432| 
         00000672 0056 
    3211                      ; branch occurs ; |1432| 
    3212 00000673       DW$L$_Registers$271$E:
    3213 00000673       L93:    
    3214 00000673       DW$L$_Registers$272$B:
    3215 00000673 761F!         MOVW      DP,#_dynalarmlevels+24
         00000674 0000 
    3216 00000675 9218!         MOV       AL,@_dynalarmlevels+24 ; |1431| 
    3217 00000676 56CF          BF        L112,UNC              ; |1431| 
         00000677 0051 
    3218                      ; branch occurs ; |1431| 
    3219 00000678       DW$L$_Registers$272$E:
    3220 00000678       L94:    
    3221 00000678       DW$L$_Registers$273$B:
    3222 00000678 761F!         MOVW      DP,#_dynalarmlevels+23
         00000679 0000 
    3223 0000067a 9217!         MOV       AL,@_dynalarmlevels+23 ; |1430| 
    3224 0000067b 56CF          BF        L112,UNC              ; |1430| 
         0000067c 004C 
    3225                      ; branch occurs ; |1430| 
    3226 0000067d       DW$L$_Registers$273$E:
    3227 0000067d       L95:    
    3228 0000067d       DW$L$_Registers$274$B:
    3229 0000067d 761F!         MOVW      DP,#_dynalarmlevels+22
         0000067e 0000 
    3230 0000067f 9216!         MOV       AL,@_dynalarmlevels+22 ; |1429| 
    3231 00000680 56CF          BF        L112,UNC              ; |1429| 
         00000681 0047 
    3232                      ; branch occurs ; |1429| 
    3233 00000682       DW$L$_Registers$274$E:
    3234 00000682       L96:    
    3235 00000682       DW$L$_Registers$275$B:
    3236 00000682 761F!         MOVW      DP,#_dynalarmlevels+21
         00000683 0000 
    3237 00000684 9215!         MOV       AL,@_dynalarmlevels+21 ; |1428| 
    3238 00000685 56CF          BF        L112,UNC              ; |1428| 
         00000686 0042 
    3239                      ; branch occurs ; |1428| 
    3240 00000687       DW$L$_Registers$275$E:
    3241 00000687       L97:    
    3242 00000687       DW$L$_Registers$276$B:
    3243 00000687 761F!         MOVW      DP,#_dynalarmlevels+20
         00000688 0000 
    3244 00000689 9214!         MOV       AL,@_dynalarmlevels+20 ; |1427| 
    3245 0000068a 56CF          BF        L112,UNC              ; |1427| 
         0000068b 003D 
    3246                      ; branch occurs ; |1427| 
    3247 0000068c       DW$L$_Registers$276$E:
TMS320C2000 COFF Assembler PC v4.1.3 Thu Aug 18 12:16:25 2016

Tools Copyright (c) 1996-2006 Texas Instruments Incorporated
PCModBus.asm                                                         PAGE   71

    3248 0000068c       L98:    
    3249 0000068c       DW$L$_Registers$277$B:
    3250 0000068c 761F!         MOVW      DP,#_dynalarmlevels+19
         0000068d 0000 
    3251 0000068e 9213!         MOV       AL,@_dynalarmlevels+19 ; |1426| 
    3252 0000068f 56CF          BF        L112,UNC              ; |1426| 
         00000690 0038 
    3253                      ; branch occurs ; |1426| 
    3254 00000691       DW$L$_Registers$277$E:
    3255 00000691       L99:    
    3256 00000691       DW$L$_Registers$278$B:
    3257 00000691 761F!         MOVW      DP,#_dynalarmlevels+18
         00000692 0000 
    3258 00000693 9212!         MOV       AL,@_dynalarmlevels+18 ; |1425| 
    3259 00000694 56CF          BF        L112,UNC              ; |1425| 
         00000695 0033 
    3260                      ; branch occurs ; |1425| 
    3261 00000696       DW$L$_Registers$278$E:
    3262 00000696       L100:    
    3263 00000696       DW$L$_Registers$279$B:
    3264 00000696 761F!         MOVW      DP,#_damalarms+3
         00000697 0000 
    3265 00000698 9203!         MOV       AL,@_damalarms+3      ; |1424| 
    3266 00000699 56CF          BF        L112,UNC              ; |1424| 
         0000069a 002E 
    3267                      ; branch occurs ; |1424| 
    3268 0000069b       DW$L$_Registers$279$E:
    3269 0000069b       L101:    
    3270 0000069b       DW$L$_Registers$280$B:
    3271 0000069b 761F!         MOVW      DP,#_damalarms+2
         0000069c 0000 
    3272 0000069d 9202!         MOV       AL,@_damalarms+2      ; |1423| 
    3273 0000069e 56CF          BF        L112,UNC              ; |1423| 
         0000069f 0029 
    3274                      ; branch occurs ; |1423| 
    3275 000006a0       DW$L$_Registers$280$E:
    3276 000006a0       L102:    
    3277 000006a0       DW$L$_Registers$281$B:
    3278 000006a0 761F!         MOVW      DP,#_damalarms
         000006a1 0000 
    3279 000006a2 9200!         MOV       AL,@_damalarms        ; |1422| 
    3280 000006a3 56CF          BF        L112,UNC              ; |1422| 
         000006a4 0024 
    3281                      ; branch occurs ; |1422| 
    3282 000006a5       DW$L$_Registers$281$E:
    3283 000006a5       L103:    
    3284 000006a5       DW$L$_Registers$282$B:
    3285 000006a5 92A2          MOV       AL,AR2                ; |1421| 
    3286 000006a6 8F00!         MOVL      XAR4,#_manrefsum+1    ; |1421| 
         000006a7 0001 
    3287 000006a8 08A9          SUB       AL,#4748              ; |1421| 
         000006a9 ED74 
    3288 000006aa 56CF          BF        L105,UNC              ; |1421| 
         000006ab 0007 
    3289                      ; branch occurs ; |1421| 
TMS320C2000 COFF Assembler PC v4.1.3 Thu Aug 18 12:16:25 2016

Tools Copyright (c) 1996-2006 Texas Instruments Incorporated
PCModBus.asm                                                         PAGE   72

    3290 000006ac       DW$L$_Registers$282$E:
    3291 000006ac       L104:    
    3292 000006ac       DW$L$_Registers$283$B:
    3293 000006ac 92A2          MOV       AL,AR2                ; |1420| 
    3294 000006ad 8F00!         MOVL      XAR4,#_manrefsum      ; |1420| 
         000006ae 0000 
    3295 000006af 08A9          SUB       AL,#4734              ; |1420| 
         000006b0 ED82 
    3296 000006b1       DW$L$_Registers$283$E:
    3297 000006b1       L105:    
    3298 000006b1       DW$L$_Registers$284$B:
    3299 000006b1 0EA9          MOVU      ACC,AL
    3300 000006b2 FF30          LSL       ACC,1                 ; |1420| 
    3301 000006b3 56CF          BF        L110,UNC              ; |1420| 
         000006b4 0011 
    3302                      ; branch occurs ; |1420| 
    3303 000006b5       DW$L$_Registers$284$E:
    3304 000006b5       L106:    
    3305 000006b5       DW$L$_Registers$285$B:
    3306 000006b5 93A2          MOV       AH,AR2                ; |1419| 
    3307 000006b6 8F00!         MOVL      XAR4,#_manref+8       ; |1419| 
         000006b7 0008 
    3308 000006b8 08A8          SUB       AH,#4706              ; |1419| 
         000006b9 ED9E 
    3309 000006ba 56CF          BF        L108,UNC              ; |1419| 
         000006bb 0007 
    3310                      ; branch occurs ; |1419| 
    3311 000006bc       DW$L$_Registers$285$E:
    3312 000006bc       L107:    
    3313 000006bc       DW$L$_Registers$286$B:
    3314 000006bc 93A2          MOV       AH,AR2                ; |1418| 
    3315 000006bd 08A8          SUB       AH,#4678              ; |1418| 
         000006be EDBA 
    3316 000006bf 8F00!         MOVL      XAR4,#_manref+7       ; |1418| 
         000006c0 0007 
    3317 000006c1       DW$L$_Registers$286$E:
    3318 000006c1       L108:    
    3319 000006c1       DW$L$_Registers$287$B:
    3320 000006c1 28AC          MOV       T,#10                 ; |1418| 
         000006c2 000A 
    3321 000006c3       DW$L$_Registers$287$E:
    3322 000006c3       L109:    
    3323 000006c3       DW$L$_Registers$288$B:
    3324 000006c3 30A8          MPYXU     ACC,T,AH              ; |1418| 
    3325 000006c4       DW$L$_Registers$288$E:
    3326 000006c4       L110:    
    3327 000006c4       DW$L$_Registers$289$B:
    3328 000006c4 5601          ADDL      XAR4,ACC
         000006c5 00A4 
    3329 000006c6       DW$L$_Registers$289$E:
    3330 000006c6       L111:    
    3331 000006c6       DW$L$_Registers$290$B:
    3332 000006c6 92C4          MOV       AL,*+XAR4[0]          ; |1418| 
    3333 000006c7       DW$L$_Registers$290$E:
    3334 000006c7       L112:    
TMS320C2000 COFF Assembler PC v4.1.3 Thu Aug 18 12:16:25 2016

Tools Copyright (c) 1996-2006 Texas Instruments Incorporated
PCModBus.asm                                                         PAGE   73

    3335 000006c7       DW$L$_Registers$291$B:
    3336 000006c7 8F00-         MOVL      XAR4,#_pcmodbus+5     ; |1418| 
         000006c8 0005 
    3337 000006c9       DW$L$_Registers$291$E:
    3338 000006c9       L113:    
    3339 000006c9       DW$L$_Registers$292$B:
    3340 000006c9 969C          MOV       *+XAR4[AR1],AL        ; |1418| 
    3341 000006ca 56CF          BF        L300,UNC              ; |1418| 
         000006cb 0683 
    3342                      ; branch occurs ; |1418| 
    3343 000006cc       DW$L$_Registers$292$E:
    3344 000006cc       L114:    
    3345 000006cc       DW$L$_Registers$293$B:
    3346 000006cc 93A2          MOV       AH,AR2                ; |1417| 
    3347 000006cd 8F00!         MOVL      XAR4,#_manref+6       ; |1417| 
         000006ce 0006 
    3348 000006cf 08A8          SUB       AH,#4650              ; |1417| 
         000006d0 EDD6 
    3349 000006d1 56CF          BF        L108,UNC              ; |1417| 
         000006d2 FFF0 
    3350                      ; branch occurs ; |1417| 
    3351 000006d3       DW$L$_Registers$293$E:
    3352 000006d3       L115:    
    3353 000006d3       DW$L$_Registers$294$B:
    3354 000006d3 9265          MOV       AL,*-SP[37]           ; |1408| 
    3355 000006d4 8F00!         MOVL      XAR4,#_function       ; |1408| 
         000006d5 0000 
    3356 000006d6 5210          CMPB      AL,#16                ; |1409| 
    3357 000006d7 EC06          BF        L116,EQ               ; |1409| 
    3358                      ; branchcc occurs ; |1409| 
    3359 000006d8       DW$L$_Registers$294$E:
    3360 000006d8       DW$L$_Registers$295$B:
    3361 000006d8 58A2          MOVZ      AR0,AR2               ; |1414| 
    3362 000006d9 08A0          SUB       AR0,#4608             ; |1414| 
         000006da EE00 
    3363 000006db 56CF          BF        L278,UNC              ; |1414| 
         000006dc 059C 
    3364                      ; branch occurs ; |1414| 
    3365 000006dd       DW$L$_Registers$295$E:
    3366 000006dd       L116:    
    3367 000006dd       DW$L$_Registers$296$B:
    3368 000006dd 58A2          MOVZ      AR0,AR2               ; |1411| 
    3369 000006de 8F40-         MOVL      XAR5,#_pcmodbus+5     ; |1411| 
         000006df 0005 
    3370 000006e0 929D          MOV       AL,*+XAR5[AR1]        ; |1411| 
    3371 000006e1 08A0          SUB       AR0,#4608             ; |1411| 
         000006e2 EE00 
    3372 000006e3 761F!         MOVW      DP,#_function+2
         000006e4 0000 
    3373 000006e5 9694          MOV       *+XAR4[AR0],AL        ; |1411| 
    3374 000006e6 9202!         MOV       AL,@_function+2       ; |1412| 
    3375 000006e7 7640!         LCR       #_EnableNoiseFilter   ; |1412| 
         000006e8 0000 
    3376                      ; call occurs [#_EnableNoiseFilter] ; |1412| 
    3377 000006e9 56CF          BF        L300,UNC              ; |1413| 
TMS320C2000 COFF Assembler PC v4.1.3 Thu Aug 18 12:16:25 2016

Tools Copyright (c) 1996-2006 Texas Instruments Incorporated
PCModBus.asm                                                         PAGE   74

         000006ea 0664 
    3378                      ; branch occurs ; |1413| 
    3379 000006eb       DW$L$_Registers$296$E:
    3380 000006eb       L117:    
    3381 000006eb       DW$L$_Registers$297$B:
    3382 000006eb 9A00          MOVB      AL,#0
    3383 000006ec 7640!         LCR       #_ReadNumPoints       ; |1400| 
         000006ed 0000 
    3384                      ; call occurs [#_ReadNumPoints] ; |1400| 
    3385 000006ee CCA2          AND       AL,AR2,#0x0001        ; |1402| 
         000006ef 0001 
    3386 000006f0 EC06          BF        L118,EQ               ; |1402| 
    3387                      ; branchcc occurs ; |1402| 
    3388 000006f1       DW$L$_Registers$297$E:
    3389 000006f1       DW$L$_Registers$298$B:
    3390 000006f1 88A2          MOVZ      AR6,AR2               ; |1402| 
    3391 000006f2 08A6          SUB       AR6,#4155             ; |1402| 
         000006f3 EFC5 
    3392 000006f4 56CF          BF        L129,UNC              ; |1402| 
         000006f5 0050 
    3393                      ; branch occurs ; |1402| 
    3394 000006f6       DW$L$_Registers$298$E:
    3395 000006f6       L118:    
    3396 000006f6       DW$L$_Registers$299$B:
    3397 000006f6 88A2          MOVZ      AR6,AR2               ; |1402| 
    3398 000006f7 08A6          SUB       AR6,#4153             ; |1402| 
         000006f8 EFC7 
    3399 000006f9 56CF          BF        L129,UNC              ; |1403| 
         000006fa 004B 
    3400                      ; branch occurs ; |1403| 
    3401 000006fb       DW$L$_Registers$299$E:
    3402 000006fb       L119:    
    3403 000006fb       DW$L$_Registers$300$B:
    3404 000006fb 761F!         MOVW      DP,#_settings+4
         000006fc 0000 
    3405 000006fd D400          MOVB      XAR4,#0
    3406 000006fe 9204!         MOV       AL,@_settings+4       ; |1369| 
    3407 000006ff EC02          BF        L120,EQ               ; |1369| 
    3408                      ; branchcc occurs ; |1369| 
    3409 00000700       DW$L$_Registers$300$E:
    3410 00000700       DW$L$_Registers$301$B:
    3411 00000700 D401          MOVB      XAR4,#1               ; |1369| 
    3412 00000701       DW$L$_Registers$301$E:
    3413 00000701       L120:    
    3414 00000701       DW$L$_Registers$302$B:
    3415 00000701 9B00          MOVB      AH,#0
    3416 00000702 5297          CMPB      AL,#151               ; |1369| 
    3417 00000703 56C7          BF        L121,HIS              ; |1369| 
         00000704 0003 
    3418                      ; branchcc occurs ; |1369| 
    3419 00000705       DW$L$_Registers$302$E:
    3420 00000705       DW$L$_Registers$303$B:
    3421 00000705 9B01          MOVB      AH,#1                 ; |1369| 
    3422 00000706       DW$L$_Registers$303$E:
    3423 00000706       L121:    
TMS320C2000 COFF Assembler PC v4.1.3 Thu Aug 18 12:16:25 2016

Tools Copyright (c) 1996-2006 Texas Instruments Incorporated
PCModBus.asm                                                         PAGE   75

    3424 00000706       DW$L$_Registers$304$B:
    3425 00000706 CFA4          AND       AH,AR4                ; |1369| 
    3426 00000707 EC1D          BF        L125,EQ               ; |1369| 
    3427                      ; branchcc occurs ; |1369| 
    3428 00000708       DW$L$_Registers$304$E:
    3429 00000708       DW$L$_Registers$305$B:
    3430 00000708 9365          MOV       AH,*-SP[37]
    3431 00000709 5310          CMPB      AH,#16                ; |1374| 
    3432 0000070a EC15          BF        L124,EQ               ; |1374| 
    3433                      ; branchcc occurs ; |1374| 
    3434 0000070b       DW$L$_Registers$305$E:
    3435 0000070b       DW$L$_Registers$306$B:
    3436 0000070b 9CFF          ADDB      AL,#-1
    3437 0000070c 7640!         LCR       #_ReadAccCalNVMEM     ; |1378| 
         0000070d 0000 
    3438                      ; call occurs [#_ReadAccCalNVMEM] ; |1378| 
    3439 0000070e 0200          MOVB      ACC,#0
    3440 0000070f 7640!         LCR       #_ReadAccAverageVal   ; |1379| 
         00000710 0000 
    3441                      ; call occurs [#_ReadAccAverageVal] ; |1379| 
    3442 00000711 CCA2          AND       AL,AR2,#0x0001        ; |1381| 
         00000712 0001 
    3443 00000713 EC06          BF        L122,EQ               ; |1381| 
    3444                      ; branchcc occurs ; |1381| 
    3445 00000714       DW$L$_Registers$306$E:
    3446 00000714       DW$L$_Registers$307$B:
    3447 00000714 88A2          MOVZ      AR6,AR2               ; |1381| 
    3448 00000715 08A6          SUB       AR6,#4099             ; |1381| 
         00000716 EFFD 
    3449 00000717 56CF          BF        L123,UNC              ; |1381| 
         00000718 0005 
    3450                      ; branch occurs ; |1381| 
    3451 00000719       DW$L$_Registers$307$E:
    3452 00000719       L122:    
    3453 00000719       DW$L$_Registers$308$B:
    3454 00000719 88A2          MOVZ      AR6,AR2               ; |1381| 
    3455 0000071a 08A6          SUB       AR6,#4097             ; |1381| 
         0000071b EFFF 
    3456 0000071c       DW$L$_Registers$308$E:
    3457 0000071c       L123:    
    3458 0000071c       DW$L$_Registers$309$B:
    3459 0000071c A8A9          MOVL      ACC,XAR4              ; |1381| 
    3460 0000071d 0DA6          ADDU      ACC,AR6               ; |1381| 
    3461 0000071e 82A9          MOVL      XAR3,ACC              ; |1381| 
    3462 0000071f       DW$L$_Registers$309$E:
    3463 0000071f       L124:    
    3464 0000071f       DW$L$_Registers$310$B:
    3465 0000071f 8AA3          MOVL      XAR4,XAR3             ; |1384| 
    3466 00000720 9A01          MOVB      AL,#1                 ; |405| 
    3467 00000721 93A1          MOV       AH,AR1                ; |1384| 
    3468 00000722 7640'         LCR       #_ProcessRegister     ; |1384| 
         00000723 0D5A 
    3469                      ; call occurs [#_ProcessRegister] ; |1384| 
    3470 00000724       DW$L$_Registers$310$E:
    3471 00000724       L125:    
TMS320C2000 COFF Assembler PC v4.1.3 Thu Aug 18 12:16:25 2016

Tools Copyright (c) 1996-2006 Texas Instruments Incorporated
PCModBus.asm                                                         PAGE   76

    3472 00000724       DW$L$_Registers$311$B:
    3473 00000724 761F!         MOVW      DP,#_settings+4
         00000725 0000 
    3474 00000726 9304!         MOV       AH,@_settings+4       ; |1387| 
    3475 00000727 D400          MOVB      XAR4,#0
    3476 00000728 5397          CMPB      AH,#151               ; |1387| 
    3477 00000729 56C8          BF        L126,LO               ; |1387| 
         0000072a 0003 
    3478                      ; branchcc occurs ; |1387| 
    3479 0000072b       DW$L$_Registers$311$E:
    3480 0000072b       DW$L$_Registers$312$B:
    3481 0000072b D401          MOVB      XAR4,#1               ; |1387| 
    3482 0000072c       DW$L$_Registers$312$E:
    3483 0000072c       L126:    
    3484 0000072c       DW$L$_Registers$313$B:
    3485 0000072c 9A00          MOVB      AL,#0
    3486 0000072d 539A          CMPB      AH,#154               ; |1387| 
    3487 0000072e 56C7          BF        L127,HIS              ; |1387| 
         0000072f 0003 
    3488                      ; branchcc occurs ; |1387| 
    3489 00000730       DW$L$_Registers$313$E:
    3490 00000730       DW$L$_Registers$314$B:
    3491 00000730 9A01          MOVB      AL,#1                 ; |1387| 
    3492 00000731       DW$L$_Registers$314$E:
    3493 00000731       L127:    
    3494 00000731       DW$L$_Registers$315$B:
    3495 00000731 CEA4          AND       AL,AR4                ; |1387| 
    3496 00000732 56C1          BF        L300,EQ               ; |1387| 
         00000733 061B 
    3497                      ; branchcc occurs ; |1387| 
    3498 00000734       DW$L$_Registers$315$E:
    3499 00000734       DW$L$_Registers$316$B:
    3500 00000734 9A97          MOVB      AL,#151               ; |1389| 
    3501 00000735 9FA9          SUB       AH,AL                 ; |1389| 
    3502 00000736 9A00          MOVB      AL,#0
    3503 00000737 7640!         LCR       #_ReadAverageSpeedAcc ; |1389| 
         00000738 0000 
    3504                      ; call occurs [#_ReadAverageSpeedAcc] ; |1389| 
    3505 00000739 CCA2          AND       AL,AR2,#0x0001        ; |1391| 
         0000073a 0001 
    3506 0000073b EC06          BF        L128,EQ               ; |1391| 
    3507                      ; branchcc occurs ; |1391| 
    3508 0000073c       DW$L$_Registers$316$E:
    3509 0000073c       DW$L$_Registers$317$B:
    3510 0000073c 88A2          MOVZ      AR6,AR2               ; |1391| 
    3511 0000073d 08A6          SUB       AR6,#4099             ; |1391| 
         0000073e EFFD 
    3512 0000073f 56CF          BF        L129,UNC              ; |1391| 
         00000740 0005 
    3513                      ; branch occurs ; |1391| 
    3514 00000741       DW$L$_Registers$317$E:
    3515 00000741       L128:    
    3516 00000741       DW$L$_Registers$318$B:
    3517 00000741 88A2          MOVZ      AR6,AR2               ; |1391| 
    3518 00000742 08A6          SUB       AR6,#4097             ; |1391| 
TMS320C2000 COFF Assembler PC v4.1.3 Thu Aug 18 12:16:25 2016

Tools Copyright (c) 1996-2006 Texas Instruments Incorporated
PCModBus.asm                                                         PAGE   77

         00000743 EFFF 
    3519 00000744       DW$L$_Registers$318$E:
    3520 00000744       L129:    
    3521 00000744       DW$L$_Registers$319$B:
    3522 00000744 A8A9          MOVL      ACC,XAR4              ; |1391| 
    3523 00000745 0DA6          ADDU      ACC,AR6               ; |1391| 
    3524 00000746 82A9          MOVL      XAR3,ACC              ; |1391| 
    3525 00000747       DW$L$_Registers$319$E:
    3526 00000747       L130:    
    3527 00000747       DW$L$_Registers$320$B:
    3528 00000747 8AA3          MOVL      XAR4,XAR3             ; |1393| 
    3529 00000748       DW$L$_Registers$320$E:
    3530 00000748       L131:    
    3531 00000748       DW$L$_Registers$321$B:
    3532 00000748 9A01          MOVB      AL,#1                 ; |405| 
    3533 00000749 93A1          MOV       AH,AR1                ; |1393| 
    3534 0000074a 7640'         LCR       #_ProcessRegister     ; |1393| 
         0000074b 0D5A 
    3535                      ; call occurs [#_ProcessRegister] ; |1393| 
    3536 0000074c 56CF          BF        L300,UNC              ; |1393| 
         0000074d 0601 
    3537                      ; branch occurs ; |1393| 
    3538 0000074e       DW$L$_Registers$321$E:
    3539 0000074e       L132:    
    3540 0000074e       DW$L$_Registers$322$B:
    3541 0000074e 9265          MOV       AL,*-SP[37]
    3542 0000074f 5210          CMPB      AL,#16                ; |1361| 
    3543 00000750 EC06          BF        L133,EQ               ; |1361| 
    3544                      ; branchcc occurs ; |1361| 
    3545 00000751       DW$L$_Registers$322$E:
    3546 00000751       DW$L$_Registers$323$B:
    3547 00000751 761F!         MOVW      DP,#_settings+4
         00000752 0000 
    3548 00000753 9204!         MOV       AL,@_settings+4       ; |1365| 
    3549 00000754 56CF          BF        L112,UNC              ; |1365| 
         00000755 FF73 
    3550                      ; branch occurs ; |1365| 
    3551 00000756       DW$L$_Registers$323$E:
    3552 00000756       L133:    
    3553 00000756       DW$L$_Registers$324$B:
    3554 00000756 8F00-         MOVL      XAR4,#_pcmodbus+5     ; |1363| 
         00000757 0005 
    3555 00000758 761F!         MOVW      DP,#_settings+4
         00000759 0000 
    3556 0000075a 929C          MOV       AL,*+XAR4[AR1]        ; |1363| 
    3557 0000075b 9604!         MOV       @_settings+4,AL       ; |1363| 
    3558 0000075c 56CF          BF        L300,UNC              ; |1364| 
         0000075d 05F1 
    3559                      ; branch occurs ; |1364| 
    3560 0000075e       DW$L$_Registers$324$E:
    3561 0000075e       L134:    
    3562 0000075e       DW$L$_Registers$325$B:
    3563 0000075e 8DC0!         MOVL      XAR3,#_calibrationtd+5 ; |1354| 
         0000075f 0005 
    3564 00000760 56CF          BF        L140,UNC              ; |1356| 
TMS320C2000 COFF Assembler PC v4.1.3 Thu Aug 18 12:16:25 2016

Tools Copyright (c) 1996-2006 Texas Instruments Incorporated
PCModBus.asm                                                         PAGE   78

         00000761 0014 
    3565                      ; branch occurs ; |1356| 
    3566 00000762       DW$L$_Registers$325$E:
    3567 00000762       L135:    
    3568 00000762       DW$L$_Registers$326$B:
    3569 00000762 8DC0!         MOVL      XAR3,#_calibrationtd+4 ; |1347| 
         00000763 0004 
    3570 00000764 56CF          BF        L140,UNC              ; |1349| 
         00000765 0010 
    3571                      ; branch occurs ; |1349| 
    3572 00000766       DW$L$_Registers$326$E:
    3573 00000766       L136:    
    3574 00000766       DW$L$_Registers$327$B:
    3575 00000766 8DC0!         MOVL      XAR3,#_calibrationtd+3 ; |1340| 
         00000767 0003 
    3576 00000768 56CF          BF        L140,UNC              ; |1342| 
         00000769 000C 
    3577                      ; branch occurs ; |1342| 
    3578 0000076a       DW$L$_Registers$327$E:
    3579 0000076a       L137:    
    3580 0000076a       DW$L$_Registers$328$B:
    3581 0000076a 8DC0!         MOVL      XAR3,#_calibrationtd+2 ; |1333| 
         0000076b 0002 
    3582 0000076c 56CF          BF        L140,UNC              ; |1335| 
         0000076d 0008 
    3583                      ; branch occurs ; |1335| 
    3584 0000076e       DW$L$_Registers$328$E:
    3585 0000076e       L138:    
    3586 0000076e       DW$L$_Registers$329$B:
    3587 0000076e 8DC0!         MOVL      XAR3,#_calibrationtd+1 ; |1326| 
         0000076f 0001 
    3588 00000770 56CF          BF        L140,UNC              ; |1328| 
         00000771 0004 
    3589                      ; branch occurs ; |1328| 
    3590 00000772       DW$L$_Registers$329$E:
    3591 00000772       L139:    
    3592 00000772       DW$L$_Registers$330$B:
    3593 00000772 8DC0!         MOVL      XAR3,#_calibrationtd  ; |1319| 
         00000773 0000 
    3594 00000774       DW$L$_Registers$330$E:
    3595 00000774       L140:    
    3596 00000774       DW$L$_Registers$331$B:
    3597 00000774 8AA3          MOVL      XAR4,XAR3             ; |1320| 
    3598 00000775 9A01          MOVB      AL,#1                 ; |1318| 
    3599 00000776 93A1          MOV       AH,AR1                ; |1320| 
    3600 00000777 7640'         LCR       #_ProcessRegister     ; |1320| 
         00000778 0D5A 
    3601                      ; call occurs [#_ProcessRegister] ; |1320| 
    3602 00000779 9265          MOV       AL,*-SP[37]
    3603 0000077a 5210          CMPB      AL,#16                ; |1321| 
    3604 0000077b 56C0          BF        L300,NEQ              ; |1321| 
         0000077c 05D2 
    3605                      ; branchcc occurs ; |1321| 
    3606 0000077d       DW$L$_Registers$331$E:
    3607 0000077d       DW$L$_Registers$332$B:
TMS320C2000 COFF Assembler PC v4.1.3 Thu Aug 18 12:16:25 2016

Tools Copyright (c) 1996-2006 Texas Instruments Incorporated
PCModBus.asm                                                         PAGE   79

    3608 0000077d 9A00          MOVB      AL,#0
    3609 0000077e 7640!         LCR       #_CalibrationtdUpdate ; |1321| 
         0000077f 0000 
    3610                      ; call occurs [#_CalibrationtdUpdate] ; |1321| 
    3611 00000780 56CF          BF        L300,UNC              ; |1321| 
         00000781 05CD 
    3612                      ; branch occurs ; |1321| 
    3613 00000782       DW$L$_Registers$332$E:
    3614 00000782       L141:    
    3615 00000782       DW$L$_Registers$333$B:
    3616 00000782 9265          MOV       AL,*-SP[37]
    3617 00000783 5210          CMPB      AL,#16                ; |1308| 
    3618 00000784 EC09          BF        L142,EQ               ; |1308| 
    3619                      ; branchcc occurs ; |1308| 
    3620 00000785       DW$L$_Registers$333$E:
    3621 00000785       DW$L$_Registers$334$B:
    3622 00000785 761F!         MOVW      DP,#_mancal+3
         00000786 0000 
    3623 00000787 8F00-         MOVL      XAR4,#_pcmodbus+5     ; |1312| 
         00000788 0005 
    3624 00000789 9203!         MOV       AL,@_mancal+3         ; |1312| 
    3625 0000078a 969C          MOV       *+XAR4[AR1],AL        ; |1312| 
    3626 0000078b 56CF          BF        L143,UNC              ; |1312| 
         0000078c 0005 
    3627                      ; branch occurs ; |1312| 
    3628 0000078d       DW$L$_Registers$334$E:
    3629 0000078d       L142:    
    3630 0000078d       DW$L$_Registers$335$B:
    3631 0000078d 761F!         MOVW      DP,#_mancal+3
         0000078e 0000 
    3632 0000078f 2B03!         MOV       @_mancal+3,#0         ; |1310| 
    3633 00000790       DW$L$_Registers$335$E:
    3634 00000790       L143:    
    3635 00000790       DW$L$_Registers$336$B:
    3636 00000790 7640!         LCR       #_WriteMANCaltoNVMEM  ; |1313| 
         00000791 0000 
    3637                      ; call occurs [#_WriteMANCaltoNVMEM] ; |1313| 
    3638 00000792 56CF          BF        L300,UNC              ; |1314| 
         00000793 05BB 
    3639                      ; branch occurs ; |1314| 
    3640 00000794       DW$L$_Registers$336$E:
    3641 00000794       L144:    
    3642 00000794       DW$L$_Registers$337$B:
    3643 00000794 58A2          MOVZ      AR0,AR2               ; |1304| 
    3644 00000795 08A0          SUB       AR0,#3018             ; |1304| 
         00000796 F436 
    3645 00000797 8F00!         MOVL      XAR4,#_calibration+1  ; |1304| 
         00000798 0001 
    3646 00000799 56CF          BF        L278,UNC              ; |1305| 
         0000079a 04DE 
    3647                      ; branch occurs ; |1305| 
    3648 0000079b       DW$L$_Registers$337$E:
    3649 0000079b       L145:    
    3650 0000079b       DW$L$_Registers$338$B:
    3651 0000079b 761F!         MOVW      DP,#_calibration+650
TMS320C2000 COFF Assembler PC v4.1.3 Thu Aug 18 12:16:25 2016

Tools Copyright (c) 1996-2006 Texas Instruments Incorporated
PCModBus.asm                                                         PAGE   80

         0000079c 000A 
    3652 0000079d 920A!         MOV       AL,@_calibration+650  ; |1299| 
    3653 0000079e 56CF          BF        L112,UNC              ; |1300| 
         0000079f FF29 
    3654                      ; branch occurs ; |1300| 
    3655 000007a0       DW$L$_Registers$338$E:
    3656 000007a0       L146:    
    3657 000007a0       DW$L$_Registers$339$B:
    3658 000007a0 761F!         MOVW      DP,#_calibration
         000007a1 0000 
    3659 000007a2 9200!         MOV       AL,@_calibration      ; |1295| 
    3660 000007a3 56CF          BF        L112,UNC              ; |1296| 
         000007a4 FF24 
    3661                      ; branch occurs ; |1296| 
    3662 000007a5       DW$L$_Registers$339$E:
    3663 000007a5       L147:    
    3664 000007a5       DW$L$_Registers$340$B:
    3665 000007a5 7640!         LCR       #_GetPercentageLeft   ; |1291| 
         000007a6 0000 
    3666                      ; call occurs [#_GetPercentageLeft] ; |1291| 
    3667 000007a7 56CF          BF        L112,UNC              ; |1292| 
         000007a8 FF20 
    3668                      ; branch occurs ; |1292| 
    3669 000007a9       DW$L$_Registers$340$E:
    3670 000007a9       L148:    
    3671 000007a9       DW$L$_Registers$341$B:
    3672 000007a9 7640!         LCR       #_GetIntervalTimeLeft ; |1287| 
         000007aa 0000 
    3673                      ; call occurs [#_GetIntervalTimeLeft] ; |1287| 
    3674 000007ab 56CF          BF        L112,UNC              ; |1288| 
         000007ac FF1C 
    3675                      ; branch occurs ; |1288| 
    3676 000007ad       DW$L$_Registers$341$E:
    3677 000007ad       L149:    
    3678 000007ad       DW$L$_Registers$342$B:
    3679 000007ad 7640!         LCR       #_GetLearningTimeLeft ; |1283| 
         000007ae 0000 
    3680                      ; call occurs [#_GetLearningTimeLeft] ; |1283| 
    3681 000007af 56CF          BF        L112,UNC              ; |1284| 
         000007b0 FF18 
    3682                      ; branch occurs ; |1284| 
    3683 000007b1       DW$L$_Registers$342$E:
    3684 000007b1       L150:    
    3685 000007b1       DW$L$_Registers$343$B:
    3686 000007b1 9265          MOV       AL,*-SP[37]
    3687 000007b2 5210          CMPB      AL,#16                ; |1277| 
    3688 000007b3 EC06          BF        L151,EQ               ; |1277| 
    3689                      ; branchcc occurs ; |1277| 
    3690 000007b4       DW$L$_Registers$343$E:
    3691 000007b4       DW$L$_Registers$344$B:
    3692 000007b4 761F!         MOVW      DP,#_speedcompcoeffs+1
         000007b5 0000 
    3693 000007b6 9201!         MOV       AL,@_speedcompcoeffs+1 ; |1278| 
    3694 000007b7 56CF          BF        L112,UNC              ; |1278| 
         000007b8 FF10 
TMS320C2000 COFF Assembler PC v4.1.3 Thu Aug 18 12:16:25 2016

Tools Copyright (c) 1996-2006 Texas Instruments Incorporated
PCModBus.asm                                                         PAGE   81

    3695                      ; branch occurs ; |1278| 
    3696 000007b9       DW$L$_Registers$344$E:
    3697 000007b9       L151:    
    3698 000007b9       DW$L$_Registers$345$B:
    3699 000007b9 8F00-         MOVL      XAR4,#_pcmodbus+5     ; |1277| 
         000007ba 0005 
    3700 000007bb 761F!         MOVW      DP,#_speedcompcoeffs+1
         000007bc 0000 
    3701 000007bd 929C          MOV       AL,*+XAR4[AR1]        ; |1277| 
    3702 000007be 9601!         MOV       @_speedcompcoeffs+1,AL ; |1277| 
    3703 000007bf 56CF          BF        L300,UNC              ; |1277| 
         000007c0 058E 
    3704                      ; branch occurs ; |1277| 
    3705 000007c1       DW$L$_Registers$345$E:
    3706 000007c1       L152:    
    3707 000007c1       DW$L$_Registers$346$B:
    3708 000007c1 9265          MOV       AL,*-SP[37]
    3709 000007c2 5210          CMPB      AL,#16                ; |1265| 
    3710 000007c3 EC10          BF        L154,EQ               ; |1265| 
    3711                      ; branchcc occurs ; |1265| 
    3712 000007c4       DW$L$_Registers$346$E:
    3713 000007c4       DW$L$_Registers$347$B:
    3714 000007c4 761F!         MOVW      DP,#_motion+4
         000007c5 0000 
    3715 000007c6 8F00-         MOVL      XAR4,#_pcmodbus+5     ; |1269| 
         000007c7 0005 
    3716 000007c8 1B04!         CMP       @_motion+4,#-2        ; |1269| 
         000007c9 FFFE 
    3717 000007ca ED04          BF        L153,NEQ              ; |1269| 
    3718                      ; branchcc occurs ; |1269| 
    3719 000007cb       DW$L$_Registers$347$E:
    3720 000007cb       DW$L$_Registers$348$B:
    3721 000007cb 9A0C          MOVB      AL,#12                ; |1269| 
    3722 000007cc 56CF          BF        L113,UNC              ; |1269| 
         000007cd FEFD 
    3723                      ; branch occurs ; |1269| 
    3724 000007ce       DW$L$_Registers$348$E:
    3725 000007ce       L153:    
    3726 000007ce       DW$L$_Registers$349$B:
    3727 000007ce 761F!         MOVW      DP,#_speedcompcoeffs
         000007cf 0000 
    3728 000007d0 9200!         MOV       AL,@_speedcompcoeffs  ; |1269| 
    3729 000007d1 56CF          BF        L113,UNC              ; |1269| 
         000007d2 FEF8 
    3730                      ; branch occurs ; |1269| 
    3731 000007d3       DW$L$_Registers$349$E:
    3732 000007d3       L154:    
    3733 000007d3       DW$L$_Registers$350$B:
    3734 000007d3 8F00-         MOVL      XAR4,#_pcmodbus+5     ; |1265| 
         000007d4 0005 
    3735 000007d5 761F!         MOVW      DP,#_speedcompcoeffs
         000007d6 0000 
    3736 000007d7 929C          MOV       AL,*+XAR4[AR1]        ; |1265| 
    3737 000007d8 9600!         MOV       @_speedcompcoeffs,AL  ; |1265| 
    3738 000007d9 56CF          BF        L300,UNC              ; |1265| 
TMS320C2000 COFF Assembler PC v4.1.3 Thu Aug 18 12:16:25 2016

Tools Copyright (c) 1996-2006 Texas Instruments Incorporated
PCModBus.asm                                                         PAGE   82

         000007da 0574 
    3739                      ; branch occurs ; |1265| 
    3740 000007db       DW$L$_Registers$350$E:
    3741 000007db       L155:    
    3742 000007db       DW$L$_Registers$351$B:
    3743 000007db 761F!         MOVW      DP,#_speedcompcoeffs
         000007dc 0000 
    3744 000007dd 9200!         MOV       AL,@_speedcompcoeffs  ; |1255| 
    3745 000007de 56C1          BF        L247,EQ               ; |1255| 
         000007df 0399 
    3746                      ; branchcc occurs ; |1255| 
    3747 000007e0       DW$L$_Registers$351$E:
    3748 000007e0       DW$L$_Registers$352$B:
    3749 000007e0 5209          CMPB      AL,#9                 ; |1255| 
    3750 000007e1 56C6          BF        L247,HI               ; |1255| 
         000007e2 0396 
    3751                      ; branchcc occurs ; |1255| 
    3752 000007e3       DW$L$_Registers$352$E:
    3753 000007e3       DW$L$_Registers$353$B:
    3754 000007e3 761F!         MOVW      DP,#_settings+34
         000007e4 0000 
    3755 000007e5 9222!         MOV       AL,@_settings+34      ; |1255| 
    3756 000007e6 56C1          BF        L212,EQ               ; |1255| 
         000007e7 0277 
    3757                      ; branchcc occurs ; |1255| 
    3758 000007e8       DW$L$_Registers$353$E:
    3759 000007e8       DW$L$_Registers$354$B:
    3760 000007e8 56CF          BF        L247,UNC              ; |1255| 
         000007e9 038F 
    3761                      ; branch occurs ; |1255| 
    3762 000007ea       DW$L$_Registers$354$E:
    3763 000007ea       L156:    
    3764 000007ea       DW$L$_Registers$355$B:
    3765 000007ea 9265          MOV       AL,*-SP[37]
    3766 000007eb 5210          CMPB      AL,#16                ; |1249| 
    3767 000007ec EC06          BF        L157,EQ               ; |1249| 
    3768                      ; branchcc occurs ; |1249| 
    3769 000007ed       DW$L$_Registers$355$E:
    3770 000007ed       DW$L$_Registers$356$B:
    3771 000007ed 761F!         MOVW      DP,#_motion+7
         000007ee 0000 
    3772 000007ef 9207!         MOV       AL,@_motion+7         ; |1250| 
    3773 000007f0 56CF          BF        L112,UNC              ; |1250| 
         000007f1 FED7 
    3774                      ; branch occurs ; |1250| 
    3775 000007f2       DW$L$_Registers$356$E:
    3776 000007f2       L157:    
    3777 000007f2       DW$L$_Registers$357$B:
    3778 000007f2 8F00-         MOVL      XAR4,#_pcmodbus+5     ; |1249| 
         000007f3 0005 
    3779 000007f4 761F!         MOVW      DP,#_motion+7
         000007f5 0000 
    3780 000007f6 929C          MOV       AL,*+XAR4[AR1]        ; |1249| 
    3781 000007f7 9607!         MOV       @_motion+7,AL         ; |1249| 
    3782 000007f8 56CF          BF        L300,UNC              ; |1249| 
TMS320C2000 COFF Assembler PC v4.1.3 Thu Aug 18 12:16:25 2016

Tools Copyright (c) 1996-2006 Texas Instruments Incorporated
PCModBus.asm                                                         PAGE   83

         000007f9 0555 
    3783                      ; branch occurs ; |1249| 
    3784 000007fa       DW$L$_Registers$357$E:
    3785 000007fa       L158:    
    3786 000007fa       DW$L$_Registers$358$B:
    3787 000007fa 761F!         MOVW      DP,#_allsensors+4
         000007fb 0000 
    3788 000007fc 9204!         MOV       AL,@_allsensors+4     ; |1245| 
    3789 000007fd 56CF          BF        L112,UNC              ; |1246| 
         000007fe FECA 
    3790                      ; branch occurs ; |1246| 
    3791 000007ff       DW$L$_Registers$358$E:
    3792 000007ff       L159:    
    3793 000007ff       DW$L$_Registers$359$B:
    3794 000007ff 93A1          MOV       AH,AR1                ; |1241| 
    3795 00000800 7640'         LCR       #_ProcessEngineRunT   ; |1241| 
         00000801 0DA4 
    3796                      ; call occurs [#_ProcessEngineRunT] ; |1241| 
    3797 00000802 56CF          BF        L300,UNC              ; |1242| 
         00000803 054B 
    3798                      ; branch occurs ; |1242| 
    3799 00000804       DW$L$_Registers$359$E:
    3800 00000804       L160:    
    3801 00000804       DW$L$_Registers$360$B:
    3802 00000804 9265          MOV       AL,*-SP[37]
    3803 00000805 5210          CMPB      AL,#16                ; |1234| 
    3804 00000806 56C0          BF        L300,NEQ              ; |1234| 
         00000807 0547 
    3805                      ; branchcc occurs ; |1234| 
    3806 00000808       DW$L$_Registers$360$E:
    3807 00000808       DW$L$_Registers$361$B:
    3808 00000808 7640!         LCR       #_ClearCalibrationAlarms ; |1236| 
         00000809 0000 
    3809                      ; call occurs [#_ClearCalibrationAlarms] ; |1236| 
    3810 0000080a 56CF          BF        L300,UNC              ; |1236| 
         0000080b 0543 
    3811                      ; branch occurs ; |1236| 
    3812 0000080c       DW$L$_Registers$361$E:
    3813 0000080c       L161:    
    3814 0000080c       DW$L$_Registers$362$B:
    3815 0000080c 9265          MOV       AL,*-SP[37]
    3816 0000080d 5210          CMPB      AL,#16                ; |1226| 
    3817 0000080e EC06          BF        L162,EQ               ; |1226| 
    3818                      ; branchcc occurs ; |1226| 
    3819 0000080f       DW$L$_Registers$362$E:
    3820 0000080f       DW$L$_Registers$363$B:
    3821 0000080f 761F!         MOVW      DP,#_allsensors+18
         00000810 0000 
    3822 00000811 9212!         MOV       AL,@_allsensors+18    ; |1230| 
    3823 00000812 56CF          BF        L112,UNC              ; |1230| 
         00000813 FEB5 
    3824                      ; branch occurs ; |1230| 
    3825 00000814       DW$L$_Registers$363$E:
    3826 00000814       L162:    
    3827 00000814       DW$L$_Registers$364$B:
TMS320C2000 COFF Assembler PC v4.1.3 Thu Aug 18 12:16:25 2016

Tools Copyright (c) 1996-2006 Texas Instruments Incorporated
PCModBus.asm                                                         PAGE   84

    3828 00000814 8F00-         MOVL      XAR4,#_pcmodbus+5     ; |1228| 
         00000815 0005 
    3829 00000816 761F!         MOVW      DP,#_allsensors+18
         00000817 0000 
    3830 00000818 929C          MOV       AL,*+XAR4[AR1]        ; |1228| 
    3831 00000819 9612!         MOV       @_allsensors+18,AL    ; |1228| 
    3832 0000081a 56CF          BF        L300,UNC              ; |1229| 
         0000081b 0533 
    3833                      ; branch occurs ; |1229| 
    3834 0000081c       DW$L$_Registers$364$E:
    3835 0000081c       L163:    
    3836 0000081c       DW$L$_Registers$365$B:
    3837 0000081c 9265          MOV       AL,*-SP[37]
    3838 0000081d 5210          CMPB      AL,#16                ; |1218| 
    3839 0000081e EC06          BF        L164,EQ               ; |1218| 
    3840                      ; branchcc occurs ; |1218| 
    3841 0000081f       DW$L$_Registers$365$E:
    3842 0000081f       DW$L$_Registers$366$B:
    3843 0000081f 761F!         MOVW      DP,#_allsensors+17
         00000820 0000 
    3844 00000821 9211!         MOV       AL,@_allsensors+17    ; |1222| 
    3845 00000822 56CF          BF        L112,UNC              ; |1222| 
         00000823 FEA5 
    3846                      ; branch occurs ; |1222| 
    3847 00000824       DW$L$_Registers$366$E:
    3848 00000824       L164:    
    3849 00000824       DW$L$_Registers$367$B:
    3850 00000824 8F00-         MOVL      XAR4,#_pcmodbus+5     ; |1220| 
         00000825 0005 
    3851 00000826 761F!         MOVW      DP,#_allsensors+17
         00000827 0000 
    3852 00000828 929C          MOV       AL,*+XAR4[AR1]        ; |1220| 
    3853 00000829 9611!         MOV       @_allsensors+17,AL    ; |1220| 
    3854 0000082a 56CF          BF        L300,UNC              ; |1221| 
         0000082b 0523 
    3855                      ; branch occurs ; |1221| 
    3856 0000082c       DW$L$_Registers$367$E:
    3857 0000082c       L165:    
    3858 0000082c       DW$L$_Registers$368$B:
    3859 0000082c 9265          MOV       AL,*-SP[37]
    3860 0000082d 5210          CMPB      AL,#16                ; |1206| 
    3861 0000082e EC08          BF        L166,EQ               ; |1206| 
    3862                      ; branchcc occurs ; |1206| 
    3863 0000082f       DW$L$_Registers$368$E:
    3864 0000082f       DW$L$_Registers$369$B:
    3865 0000082f 58A2          MOVZ      AR0,AR2               ; |1213| 
    3866 00000830 08A0          SUB       AR0,#2028             ; |1213| 
         00000831 F814 
    3867 00000832 8F00!         MOVL      XAR4,#_allsensors+21  ; |1213| 
         00000833 0015 
    3868 00000834 56CF          BF        L278,UNC              ; |1213| 
         00000835 0443 
    3869                      ; branch occurs ; |1213| 
    3870 00000836       DW$L$_Registers$369$E:
    3871 00000836       L166:    
TMS320C2000 COFF Assembler PC v4.1.3 Thu Aug 18 12:16:25 2016

Tools Copyright (c) 1996-2006 Texas Instruments Incorporated
PCModBus.asm                                                         PAGE   85

    3872 00000836       DW$L$_Registers$370$B:
    3873 00000836 58A2          MOVZ      AR0,AR2               ; |1208| 
    3874 00000837 08A0          SUB       AR0,#2028             ; |1208| 
         00000838 F814 
    3875 00000839 8F00-         MOVL      XAR4,#_pcmodbus+5     ; |1208| 
         0000083a 0005 
    3876 0000083b 929C          MOV       AL,*+XAR4[AR1]        ; |1208| 
    3877 0000083c 8F00!         MOVL      XAR4,#_allsensors+21  ; |1208| 
         0000083d 0015 
    3878 0000083e 9694          MOV       *+XAR4[AR0],AL        ; |1208| 
    3879 0000083f       DW$L$_Registers$370$E:
    3880 0000083f       L167:    
    3881 0000083f       DW$L$_Registers$371$B:
    3882 0000083f 761F!         MOVW      DP,#_settings+10
         00000840 0000 
    3883 00000841 280A!         MOV       @_settings+10,#1      ; |1209| 
         00000842 0001 
    3884 00000843 56CF          BF        L300,UNC              ; |1210| 
         00000844 050A 
    3885                      ; branch occurs ; |1210| 
    3886 00000845       DW$L$_Registers$371$E:
    3887 00000845       L168:    
    3888 00000845       DW$L$_Registers$372$B:
    3889 00000845 9265          MOV       AL,*-SP[37]
    3890 00000846 5210          CMPB      AL,#16                ; |1199| 
    3891 00000847 56C0          BF        L300,NEQ              ; |1199| 
         00000848 0506 
    3892                      ; branchcc occurs ; |1199| 
    3893 00000849       DW$L$_Registers$372$E:
    3894 00000849       DW$L$_Registers$373$B:
    3895 00000849 8F00-         MOVL      XAR4,#_pcmodbus+5     ; |1199| 
         0000084a 0005 
    3896 0000084b 929C          MOV       AL,*+XAR4[AR1]        ; |1199| 
    3897 0000084c 5201          CMPB      AL,#1                 ; |1199| 
    3898 0000084d 56C0          BF        L300,NEQ              ; |1199| 
         0000084e 0500 
    3899                      ; branchcc occurs ; |1199| 
    3900 0000084f       DW$L$_Registers$373$E:
    3901 0000084f       DW$L$_Registers$374$B:
    3902 0000084f 7640!         LCR       #_ClearEngineDirCal   ; |1201| 
         00000850 0000 
    3903                      ; call occurs [#_ClearEngineDirCal] ; |1201| 
    3904 00000851 56CF          BF        L300,UNC              ; |1201| 
         00000852 04FC 
    3905                      ; branch occurs ; |1201| 
    3906 00000853       DW$L$_Registers$374$E:
    3907 00000853       L169:    
    3908 00000853       DW$L$_Registers$375$B:
    3909 00000853 9265          MOV       AL,*-SP[37]
    3910 00000854 5210          CMPB      AL,#16                ; |1192| 
    3911 00000855 56C0          BF        L300,NEQ              ; |1192| 
         00000856 04F8 
    3912                      ; branchcc occurs ; |1192| 
    3913 00000857       DW$L$_Registers$375$E:
    3914 00000857       DW$L$_Registers$376$B:
TMS320C2000 COFF Assembler PC v4.1.3 Thu Aug 18 12:16:25 2016

Tools Copyright (c) 1996-2006 Texas Instruments Incorporated
PCModBus.asm                                                         PAGE   86

    3915 00000857 8F00-         MOVL      XAR4,#_pcmodbus+5     ; |1192| 
         00000858 0005 
    3916 00000859 929C          MOV       AL,*+XAR4[AR1]        ; |1192| 
    3917 0000085a 5201          CMPB      AL,#1                 ; |1192| 
    3918 0000085b 56C0          BF        L300,NEQ              ; |1192| 
         0000085c 04F2 
    3919                      ; branchcc occurs ; |1192| 
    3920 0000085d       DW$L$_Registers$376$E:
    3921 0000085d       DW$L$_Registers$377$B:
    3922 0000085d 7640!         LCR       #_InitMotionCal       ; |1194| 
         0000085e 0000 
    3923                      ; call occurs [#_InitMotionCal] ; |1194| 
    3924 0000085f 56CF          BF        L300,UNC              ; |1194| 
         00000860 04EE 
    3925                      ; branch occurs ; |1194| 
    3926 00000861       DW$L$_Registers$377$E:
    3927 00000861       L170:    
    3928 00000861       DW$L$_Registers$378$B:
    3929 00000861 9265          MOV       AL,*-SP[37]
    3930 00000862 5210          CMPB      AL,#16                ; |1185| 
    3931 00000863 56C0          BF        L300,NEQ              ; |1185| 
         00000864 04EA 
    3932                      ; branchcc occurs ; |1185| 
    3933 00000865       DW$L$_Registers$378$E:
    3934 00000865       DW$L$_Registers$379$B:
    3935 00000865 8F00-         MOVL      XAR4,#_pcmodbus+5     ; |1185| 
         00000866 0005 
    3936 00000867 929C          MOV       AL,*+XAR4[AR1]        ; |1185| 
    3937 00000868 5201          CMPB      AL,#1                 ; |1185| 
    3938 00000869 56C0          BF        L300,NEQ              ; |1185| 
         0000086a 04E4 
    3939                      ; branchcc occurs ; |1185| 
    3940 0000086b       DW$L$_Registers$379$E:
    3941 0000086b       DW$L$_Registers$380$B:
    3942 0000086b 7640!         LCR       #_SetAllEventMsgs     ; |1187| 
         0000086c 0000 
    3943                      ; call occurs [#_SetAllEventMsgs] ; |1187| 
    3944 0000086d 56CF          BF        L300,UNC              ; |1187| 
         0000086e 04E0 
    3945                      ; branch occurs ; |1187| 
    3946 0000086f       DW$L$_Registers$380$E:
    3947 0000086f       L171:    
    3948 0000086f       DW$L$_Registers$381$B:
    3949 0000086f 9265          MOV       AL,*-SP[37]
    3950 00000870 5210          CMPB      AL,#16                ; |1170| 
    3951 00000871 EC0D          BF        L172,EQ               ; |1170| 
    3952                      ; branchcc occurs ; |1170| 
    3953 00000872       DW$L$_Registers$381$E:
    3954 00000872       DW$L$_Registers$382$B:
    3955 00000872 8F00-         MOVL      XAR4,#_pcmodbus+5     ; |1177| 
         00000873 0005 
    3956 00000874 A8A9          MOVL      ACC,XAR4              ; |1177| 
    3957 00000875 0DA1          ADDU      ACC,AR1               ; |1177| 
    3958 00000876 8AA9          MOVL      XAR4,ACC              ; |1177| 
    3959 00000877 761F!         MOVW      DP,#_settings+5
TMS320C2000 COFF Assembler PC v4.1.3 Thu Aug 18 12:16:25 2016

Tools Copyright (c) 1996-2006 Texas Instruments Incorporated
PCModBus.asm                                                         PAGE   87

         00000878 0000 
    3960 00000879 9205!         MOV       AL,@_settings+5       ; |1177| 
    3961 0000087a 7640!         LCR       #_SDReadEventMessage  ; |1177| 
         0000087b 0000 
    3962                      ; call occurs [#_SDReadEventMessage] ; |1177| 
    3963 0000087c 56CF          BF        L300,UNC              ; |1177| 
         0000087d 04D1 
    3964                      ; branch occurs ; |1177| 
    3965 0000087e       DW$L$_Registers$382$E:
    3966 0000087e       L172:    
    3967 0000087e       DW$L$_Registers$383$B:
    3968 0000087e 8F00-         MOVL      XAR4,#_pcmodbus+5     ; |1173| 
         0000087f 0005 
    3969 00000880 A8A9          MOVL      ACC,XAR4              ; |1173| 
    3970 00000881 0DA1          ADDU      ACC,AR1               ; |1173| 
    3971 00000882 8AA9          MOVL      XAR4,ACC              ; |1173| 
    3972 00000883 761F!         MOVW      DP,#_settings+5
         00000884 0000 
    3973 00000885 9205!         MOV       AL,@_settings+5       ; |1173| 
    3974 00000886 7640!         LCR       #_SDEventMessageUpdate ; |1173| 
         00000887 0000 
    3975                      ; call occurs [#_SDEventMessageUpdate] ; |1173| 
    3976 00000888 56CF          BF        L300,UNC              ; |1174| 
         00000889 04C5 
    3977                      ; branch occurs ; |1174| 
    3978 0000088a       DW$L$_Registers$383$E:
    3979 0000088a       L173:    
    3980 0000088a       DW$L$_Registers$384$B:
    3981 0000088a 9265          MOV       AL,*-SP[37]
    3982 0000088b 5210          CMPB      AL,#16                ; |1161| 
    3983 0000088c EC06          BF        L174,EQ               ; |1161| 
    3984                      ; branchcc occurs ; |1161| 
    3985 0000088d       DW$L$_Registers$384$E:
    3986 0000088d       DW$L$_Registers$385$B:
    3987 0000088d 761F!         MOVW      DP,#_settings+5
         0000088e 0000 
    3988 0000088f 9205!         MOV       AL,@_settings+5       ; |1165| 
    3989 00000890 56CF          BF        L112,UNC              ; |1165| 
         00000891 FE37 
    3990                      ; branch occurs ; |1165| 
    3991 00000892       DW$L$_Registers$385$E:
    3992 00000892       L174:    
    3993 00000892       DW$L$_Registers$386$B:
    3994 00000892 8F00-         MOVL      XAR4,#_pcmodbus+5     ; |1163| 
         00000893 0005 
    3995 00000894 761F!         MOVW      DP,#_settings+5
         00000895 0000 
    3996 00000896 929C          MOV       AL,*+XAR4[AR1]        ; |1163| 
    3997 00000897 9605!         MOV       @_settings+5,AL       ; |1163| 
    3998 00000898 56CF          BF        L300,UNC              ; |1164| 
         00000899 04B5 
    3999                      ; branch occurs ; |1164| 
    4000 0000089a       DW$L$_Registers$386$E:
    4001 0000089a       L175:    
    4002 0000089a       DW$L$_Registers$387$B:
TMS320C2000 COFF Assembler PC v4.1.3 Thu Aug 18 12:16:25 2016

Tools Copyright (c) 1996-2006 Texas Instruments Incorporated
PCModBus.asm                                                         PAGE   88

    4003 0000089a 9265          MOV       AL,*-SP[37]
    4004 0000089b 5203          CMPB      AL,#3                 ; |1153| 
    4005 0000089c 56C0          BF        L300,NEQ              ; |1153| 
         0000089d 04B1 
    4006                      ; branchcc occurs ; |1153| 
    4007 0000089e       DW$L$_Registers$387$E:
    4008 0000089e       DW$L$_Registers$388$B:
    4009 0000089e 58A2          MOVZ      AR0,AR2               ; |1155| 
    4010 0000089f 08A0          SUB       AR0,#1150             ; |1155| 
         000008a0 FB82 
    4011 000008a1 8F00!         MOVL      XAR4,#_offsetA        ; |1155| 
         000008a2 0000 
    4012 000008a3 56CF          BF        L278,UNC              ; |1155| 
         000008a4 03D4 
    4013                      ; branch occurs ; |1155| 
    4014 000008a5       DW$L$_Registers$388$E:
    4015 000008a5       L176:    
    4016 000008a5       DW$L$_Registers$389$B:
    4017 000008a5 9265          MOV       AL,*-SP[37]
    4018 000008a6 5203          CMPB      AL,#3                 ; |1144| 
    4019 000008a7 56C0          BF        L300,NEQ              ; |1144| 
         000008a8 04A6 
    4020                      ; branchcc occurs ; |1144| 
    4021 000008a9       DW$L$_Registers$389$E:
    4022 000008a9       DW$L$_Registers$390$B:
    4023 000008a9 92A2          MOV       AL,AR2                ; |1146| 
    4024 000008aa 08A9          SUB       AL,#1122              ; |1146| 
         000008ab FB9E 
    4025 000008ac 7640!         LCR       #_GetRealtimeuAScaledValue ; |1146| 
         000008ad 0000 
    4026                      ; call occurs [#_GetRealtimeuAScaledValue] ; |1146| 
    4027 000008ae 56CF          BF        L112,UNC              ; |1146| 
         000008af FE19 
    4028                      ; branch occurs ; |1146| 
    4029 000008b0       DW$L$_Registers$390$E:
    4030 000008b0       L177:    
    4031 000008b0       DW$L$_Registers$391$B:
    4032 000008b0 9265          MOV       AL,*-SP[37]
    4033 000008b1 5203          CMPB      AL,#3                 ; |1137| 
    4034 000008b2 56C0          BF        L300,NEQ              ; |1137| 
         000008b3 049B 
    4035                      ; branchcc occurs ; |1137| 
    4036 000008b4       DW$L$_Registers$391$E:
    4037 000008b4       DW$L$_Registers$392$B:
    4038 000008b4 92A2          MOV       AL,AR2                ; |1139| 
    4039 000008b5 08A9          SUB       AL,#1094              ; |1139| 
         000008b6 FBBA 
    4040 000008b7 7640!         LCR       #_GetRealtimePreCompValue ; |1139| 
         000008b8 0000 
    4041                      ; call occurs [#_GetRealtimePreCompValue] ; |1139| 
    4042 000008b9 56CF          BF        L112,UNC              ; |1139| 
         000008ba FE0E 
    4043                      ; branch occurs ; |1139| 
    4044 000008bb       DW$L$_Registers$392$E:
    4045 000008bb       L178:    
TMS320C2000 COFF Assembler PC v4.1.3 Thu Aug 18 12:16:25 2016

Tools Copyright (c) 1996-2006 Texas Instruments Incorporated
PCModBus.asm                                                         PAGE   89

    4046 000008bb       DW$L$_Registers$393$B:
    4047 000008bb 9265          MOV       AL,*-SP[37]
    4048 000008bc 5210          CMPB      AL,#16                ; |1129| 
    4049 000008bd 56C0          BF        L300,NEQ              ; |1129| 
         000008be 0490 
    4050                      ; branchcc occurs ; |1129| 
    4051 000008bf       DW$L$_Registers$393$E:
    4052 000008bf       DW$L$_Registers$394$B:
    4053 000008bf 8F00-         MOVL      XAR4,#_pcmodbus+5     ; |1129| 
         000008c0 0005 
    4054 000008c1 929C          MOV       AL,*+XAR4[AR1]        ; |1129| 
    4055 000008c2 5201          CMPB      AL,#1                 ; |1129| 
    4056 000008c3 56C0          BF        L300,NEQ              ; |1129| 
         000008c4 048A 
    4057                      ; branchcc occurs ; |1129| 
    4058 000008c5       DW$L$_Registers$394$E:
    4059 000008c5       DW$L$_Registers$395$B:
    4060 000008c5 7640!         LCR       #_PreWarnLevelReset   ; |1131| 
         000008c6 0000 
    4061                      ; call occurs [#_PreWarnLevelReset] ; |1131| 
    4062 000008c7 56CF          BF        L300,UNC              ; |1131| 
         000008c8 0486 
    4063                      ; branch occurs ; |1131| 
    4064 000008c9       DW$L$_Registers$395$E:
    4065 000008c9       L179:    
    4066 000008c9       DW$L$_Registers$396$B:
    4067 000008c9 761F!         MOVW      DP,#_settings+3
         000008ca 0000 
    4068 000008cb 9303!         MOV       AH,@_settings+3       ; |1039| 
    4069 000008cc 5303          CMPB      AH,#3                 ; |1039| 
    4070 000008cd EC4D          BF        L181,EQ               ; |1039| 
    4071                      ; branchcc occurs ; |1039| 
    4072 000008ce       DW$L$_Registers$396$E:
    4073 000008ce       DW$L$_Registers$397$B:
    4074 000008ce 5304          CMPB      AH,#4                 ; |1077| 
    4075 000008cf EC1B          BF        L180,EQ               ; |1077| 
    4076                      ; branchcc occurs ; |1077| 
    4077 000008d0       DW$L$_Registers$397$E:
    4078 000008d0       DW$L$_Registers$398$B:
    4079 000008d0 5305          CMPB      AH,#5                 ; |1116| 
    4080 000008d1 56C8          BF        L300,LO               ; |1116| 
         000008d2 047C 
    4081                      ; branchcc occurs ; |1116| 
    4082 000008d3       DW$L$_Registers$398$E:
    4083 000008d3       DW$L$_Registers$399$B:
    4084 000008d3 539B          CMPB      AH,#155               ; |1116| 
    4085 000008d4 56C7          BF        L300,HIS              ; |1116| 
         000008d5 0479 
    4086                      ; branchcc occurs ; |1116| 
    4087 000008d6       DW$L$_Registers$399$E:
    4088 000008d6       DW$L$_Registers$400$B:
    4089 000008d6 08A9          SUB       AL,#1064              ; |1121| 
         000008d7 FBD8 
    4090 000008d8 9DFB          ADDB      AH,#-5
    4091 000008d9 7640!         LCR       #_MANCompTable        ; |1121| 
TMS320C2000 COFF Assembler PC v4.1.3 Thu Aug 18 12:16:25 2016

Tools Copyright (c) 1996-2006 Texas Instruments Incorporated
PCModBus.asm                                                         PAGE   90

         000008da 0000 
    4092                      ; call occurs [#_MANCompTable] ; |1121| 
    4093 000008db 9A01          MOVB      AL,#1                 ; |1122| 
    4094 000008dc 82A4          MOVL      XAR3,XAR4             ; |1121| 
    4095 000008dd 93A1          MOV       AH,AR1                ; |1123| 
    4096 000008de 7640'         LCR       #_ProcessRegister     ; |1123| 
         000008df 0D5A 
    4097                      ; call occurs [#_ProcessRegister] ; |1123| 
    4098 000008e0 9265          MOV       AL,*-SP[37]           ; |1123| 
    4099 000008e1 5210          CMPB      AL,#16                ; |1124| 
    4100 000008e2 56C0          BF        L300,NEQ              ; |1124| 
         000008e3 046B 
    4101                      ; branchcc occurs ; |1124| 
    4102 000008e4       DW$L$_Registers$400$E:
    4103 000008e4       DW$L$_Registers$401$B:
    4104 000008e4 761F!         MOVW      DP,#_settings+2
         000008e5 0000 
    4105 000008e6 2802!         MOV       @_settings+2,#7       ; |1124| 
         000008e7 0007 
    4106 000008e8 56CF          BF        L300,UNC              ; |1124| 
         000008e9 0465 
    4107                      ; branch occurs ; |1124| 
    4108 000008ea       DW$L$_Registers$401$E:
    4109 000008ea       L180:    
    4110 000008ea       DW$L$_Registers$402$B:
    4111 000008ea 5CAD          MOVZ      AR4,SP                ; |1079| 
    4112 000008eb 021E          MOVB      ACC,#30
    4113 000008ec D500          MOVB      XAR5,#0
    4114 000008ed DCA0          SUBB      XAR4,#32              ; |1079| 
    4115 000008ee 7640!         LCR       #_memset              ; |1079| 
         000008ef 0000 
    4116                      ; call occurs [#_memset] ; |1079| 
    4117 000008f0 88A2          MOVZ      AR6,AR2               ; |1083| 
    4118 000008f1 08A6          SUB       AR6,#1064             ; |1083| 
         000008f2 FBD8 
    4119 000008f3 3B01          SETC      SXM
    4120 000008f4 8DC0!         MOVL      XAR3,#_offsetB        ; |1083| 
         000008f5 0000 
    4121 000008f6 85A6          MOV       ACC,AR6               ; |1083| 
    4122 000008f7 5601          ADDL      XAR3,ACC
         000008f8 00A3 
    4123 000008f9 9365          MOV       AH,*-SP[37]           ; |1083| 
    4124 000008fa 5310          CMPB      AH,#16                ; |1085| 
    4125 000008fb ED60          BF        L183,NEQ              ; |1085| 
    4126                      ; branchcc occurs ; |1085| 
    4127 000008fc       DW$L$_Registers$402$E:
    4128 000008fc       DW$L$_Registers$403$B:
    4129 000008fc 8F00-         MOVL      XAR4,#_pcmodbus+5     ; |1087| 
         000008fd 0005 
    4130 000008fe 939C          MOV       AH,*+XAR4[AR1]        ; |1087| 
    4131 000008ff 55C3          CMP       AH,*+XAR3[0]          ; |1087| 
    4132 00000900 56C1          BF        L300,EQ               ; |1087| 
         00000901 044D 
    4133                      ; branchcc occurs ; |1087| 
    4134 00000902       DW$L$_Registers$403$E:
TMS320C2000 COFF Assembler PC v4.1.3 Thu Aug 18 12:16:25 2016

Tools Copyright (c) 1996-2006 Texas Instruments Incorporated
PCModBus.asm                                                         PAGE   91

    4135 00000902       DW$L$_Registers$404$B:
    4136 00000902 1BA8          CMP       AH,#-2000             ; |1087| 
         00000903 F830 
    4137 00000904 56C4          BF        L300,LT               ; |1087| 
         00000905 0449 
    4138                      ; branchcc occurs ; |1087| 
    4139 00000906       DW$L$_Registers$404$E:
    4140 00000906       DW$L$_Registers$405$B:
    4141 00000906 1BA8          CMP       AH,#2000              ; |1087| 
         00000907 07D0 
    4142 00000908 56C2          BF        L300,GT               ; |1087| 
         00000909 0445 
    4143                      ; branchcc occurs ; |1087| 
    4144 0000090a       DW$L$_Registers$405$E:
    4145 0000090a       DW$L$_Registers$406$B:
    4146 0000090a 97C3          MOV       *+XAR3[0],AH          ; |1095| 
    4147 0000090b 2DA6          MOV       T,AR6                 ; |1097| 
    4148 0000090c 8F00!         MOVL      XAR4,#_sensor         ; |1097| 
         0000090d 0000 
    4149 0000090e 3512          MPYB      ACC,T,#18             ; |1097| 
    4150 0000090f 5601          ADDL      XAR4,ACC
         00000910 00A4 
    4151 00000911 761F!         MOVW      DP,#_settings+2
         00000912 0000 
    4152 00000913 2802!         MOV       @_settings+2,#9       ; |1096| 
         00000914 0009 
    4153 00000915 44C4          TBIT      *+XAR4[0],#4          ; |1097| 
    4154 00000916 56CC          BF        L300,NTC              ; |1097| 
         00000917 0437 
    4155                      ; branchcc occurs ; |1097| 
    4156 00000918       DW$L$_Registers$406$E:
    4157 00000918       DW$L$_Registers$407$B:
    4158 00000918 56CF          BF        L182,UNC              ; |1102| 
         00000919 0030 
    4159                      ; branch occurs ; |1102| 
    4160 0000091a       DW$L$_Registers$407$E:
    4161 0000091a       L181:    
    4162 0000091a       DW$L$_Registers$408$B:
    4163 0000091a 5CAD          MOVZ      AR4,SP                ; |1041| 
    4164 0000091b 021E          MOVB      ACC,#30
    4165 0000091c D500          MOVB      XAR5,#0
    4166 0000091d DCA0          SUBB      XAR4,#32              ; |1041| 
    4167 0000091e 7640!         LCR       #_memset              ; |1041| 
         0000091f 0000 
    4168                      ; call occurs [#_memset] ; |1041| 
    4169 00000920 88A2          MOVZ      AR6,AR2               ; |1045| 
    4170 00000921 08A6          SUB       AR6,#1064             ; |1045| 
         00000922 FBD8 
    4171 00000923 3B01          SETC      SXM
    4172 00000924 8DC0!         MOVL      XAR3,#_offsetA        ; |1045| 
         00000925 0000 
    4173 00000926 85A6          MOV       ACC,AR6               ; |1045| 
    4174 00000927 5601          ADDL      XAR3,ACC
         00000928 00A3 
    4175 00000929 9365          MOV       AH,*-SP[37]           ; |1045| 
TMS320C2000 COFF Assembler PC v4.1.3 Thu Aug 18 12:16:25 2016

Tools Copyright (c) 1996-2006 Texas Instruments Incorporated
PCModBus.asm                                                         PAGE   92

    4176 0000092a 5310          CMPB      AH,#16                ; |1046| 
    4177 0000092b ED30          BF        L183,NEQ              ; |1046| 
    4178                      ; branchcc occurs ; |1046| 
    4179 0000092c       DW$L$_Registers$408$E:
    4180 0000092c       DW$L$_Registers$409$B:
    4181 0000092c 8F00-         MOVL      XAR4,#_pcmodbus+5     ; |1048| 
         0000092d 0005 
    4182 0000092e 939C          MOV       AH,*+XAR4[AR1]        ; |1048| 
    4183 0000092f 55C3          CMP       AH,*+XAR3[0]          ; |1048| 
    4184 00000930 56C1          BF        L300,EQ               ; |1048| 
         00000931 041D 
    4185                      ; branchcc occurs ; |1048| 
    4186 00000932       DW$L$_Registers$409$E:
    4187 00000932       DW$L$_Registers$410$B:
    4188 00000932 1BA8          CMP       AH,#-2000             ; |1048| 
         00000933 F830 
    4189 00000934 56C4          BF        L300,LT               ; |1048| 
         00000935 0419 
    4190                      ; branchcc occurs ; |1048| 
    4191 00000936       DW$L$_Registers$410$E:
    4192 00000936       DW$L$_Registers$411$B:
    4193 00000936 1BA8          CMP       AH,#2000              ; |1048| 
         00000937 07D0 
    4194 00000938 56C2          BF        L300,GT               ; |1048| 
         00000939 0415 
    4195                      ; branchcc occurs ; |1048| 
    4196 0000093a       DW$L$_Registers$411$E:
    4197 0000093a       DW$L$_Registers$412$B:
    4198 0000093a 97C3          MOV       *+XAR3[0],AH          ; |1056| 
    4199 0000093b 2DA6          MOV       T,AR6                 ; |1059| 
    4200 0000093c 8F00!         MOVL      XAR4,#_sensor         ; |1059| 
         0000093d 0000 
    4201 0000093e 3512          MPYB      ACC,T,#18             ; |1059| 
    4202 0000093f 5601          ADDL      XAR4,ACC
         00000940 00A4 
    4203 00000941 761F!         MOVW      DP,#_settings+2
         00000942 0000 
    4204 00000943 2802!         MOV       @_settings+2,#8       ; |1057| 
         00000944 0008 
    4205 00000945 44C4          TBIT      *+XAR4[0],#4          ; |1059| 
    4206 00000946 56CC          BF        L300,NTC              ; |1059| 
         00000947 0407 
    4207                      ; branchcc occurs ; |1059| 
    4208 00000948       DW$L$_Registers$412$E:
    4209 00000948       L182:    
    4210 00000948       DW$L$_Registers$413$B:
    4211 00000948 85A6          MOV       ACC,AR6               ; |1061| 
    4212 00000949 8F00!         MOVL      XAR4,#_damagemonignore ; |1061| 
         0000094a 0000 
    4213 0000094b 5601          ADDL      XAR4,ACC
         0000094c 00A4 
    4214 0000094d 761F!         MOVW      DP,#_iSensorInRepalce
         0000094e 0000 
    4215 0000094f 28C4          MOV       *+XAR4[0],#3          ; |1061| 
         00000950 0003 
TMS320C2000 COFF Assembler PC v4.1.3 Thu Aug 18 12:16:25 2016

Tools Copyright (c) 1996-2006 Texas Instruments Incorporated
PCModBus.asm                                                         PAGE   93

    4216 00000951 7E00!         MOV       @_iSensorInRepalce,AR6 ; |1062| 
    4217 00000952 9A01          MOVB      AL,#1                 ; |1063| 
    4218 00000953 761F!         MOVW      DP,#_iSensorInRepalceMode
         00000954 0000 
    4219 00000955 9600!         MOV       @_iSensorInRepalceMode,AL ; |1063| 
    4220 00000956 761F!         MOVW      DP,#_iSensorInRepalceTimer
         00000957 0000 
    4221 00000958 9600!         MOV       @_iSensorInRepalceTimer,AL ; |1064| 
    4222 00000959 56CF          BF        L300,UNC              ; |1064| 
         0000095a 03F4 
    4223                      ; branch occurs ; |1064| 
    4224 0000095b       DW$L$_Registers$413$E:
    4225 0000095b       L183:    
    4226 0000095b       DW$L$_Registers$414$B:
    4227 0000095b 92C3          MOV       AL,*+XAR3[0]          ; |1075| 
    4228 0000095c 56CF          BF        L112,UNC              ; |1075| 
         0000095d FD6B 
    4229                      ; branch occurs ; |1075| 
    4230 0000095e       DW$L$_Registers$414$E:
    4231 0000095e       L184:    
    4232 0000095e       DW$L$_Registers$415$B:
    4233 0000095e 9265          MOV       AL,*-SP[37]
    4234 0000095f 5210          CMPB      AL,#16                ; |1031| 
    4235 00000960 EC06          BF        L185,EQ               ; |1031| 
    4236                      ; branchcc occurs ; |1031| 
    4237 00000961       DW$L$_Registers$415$E:
    4238 00000961       DW$L$_Registers$416$B:
    4239 00000961 761F!         MOVW      DP,#_settings+3
         00000962 0000 
    4240 00000963 9203!         MOV       AL,@_settings+3       ; |1035| 
    4241 00000964 56CF          BF        L112,UNC              ; |1035| 
         00000965 FD63 
    4242                      ; branch occurs ; |1035| 
    4243 00000966       DW$L$_Registers$416$E:
    4244 00000966       L185:    
    4245 00000966       DW$L$_Registers$417$B:
    4246 00000966 8F00-         MOVL      XAR4,#_pcmodbus+5     ; |1033| 
         00000967 0005 
    4247 00000968 761F!         MOVW      DP,#_settings+3
         00000969 0000 
    4248 0000096a 929C          MOV       AL,*+XAR4[AR1]        ; |1033| 
    4249 0000096b 9603!         MOV       @_settings+3,AL       ; |1033| 
    4250 0000096c 56CF          BF        L300,UNC              ; |1034| 
         0000096d 03E1 
    4251                      ; branch occurs ; |1034| 
    4252 0000096e       DW$L$_Registers$417$E:
    4253 0000096e       L186:    
    4254 0000096e       DW$L$_Registers$418$B:
    4255 0000096e 9265          MOV       AL,*-SP[37]
    4256 0000096f 5210          CMPB      AL,#16                ; |1012| 
    4257 00000970 EC06          BF        L187,EQ               ; |1012| 
    4258                      ; branchcc occurs ; |1012| 
    4259 00000971       DW$L$_Registers$418$E:
    4260 00000971       DW$L$_Registers$419$B:
    4261 00000971 761F!         MOVW      DP,#_settings+6
TMS320C2000 COFF Assembler PC v4.1.3 Thu Aug 18 12:16:25 2016

Tools Copyright (c) 1996-2006 Texas Instruments Incorporated
PCModBus.asm                                                         PAGE   94

         00000972 0000 
    4262 00000973 9206!         MOV       AL,@_settings+6       ; |1027| 
    4263 00000974 56CF          BF        L112,UNC              ; |1027| 
         00000975 FD53 
    4264                      ; branch occurs ; |1027| 
    4265 00000976       DW$L$_Registers$419$E:
    4266 00000976       L187:    
    4267 00000976       DW$L$_Registers$420$B:
    4268 00000976 8F00-         MOVL      XAR4,#_pcmodbus+5     ; |1014| 
         00000977 0005 
    4269 00000978 761F!         MOVW      DP,#_settings+6
         00000979 0000 
    4270 0000097a 929C          MOV       AL,*+XAR4[AR1]        ; |1014| 
    4271 0000097b 9606!         MOV       @_settings+6,AL       ; |1014| 
    4272 0000097c 56CF          BF        L300,UNC              ; |1018| 
         0000097d 03D1 
    4273                      ; branch occurs ; |1018| 
    4274 0000097e       DW$L$_Registers$420$E:
    4275 0000097e       L188:    
    4276 0000097e       DW$L$_Registers$421$B:
    4277 0000097e 9265          MOV       AL,*-SP[37]
    4278 0000097f 5210          CMPB      AL,#16                ; |1005| 
    4279 00000980 56C0          BF        L300,NEQ              ; |1005| 
         00000981 03CD 
    4280                      ; branchcc occurs ; |1005| 
    4281 00000982       DW$L$_Registers$421$E:
    4282 00000982       DW$L$_Registers$422$B:
    4283 00000982 8F00-         MOVL      XAR4,#_pcmodbus+5     ; |1005| 
         00000983 0005 
    4284 00000984 929C          MOV       AL,*+XAR4[AR1]        ; |1005| 
    4285 00000985 5201          CMPB      AL,#1                 ; |1005| 
    4286 00000986 56C0          BF        L300,NEQ              ; |1005| 
         00000987 03C7 
    4287                      ; branchcc occurs ; |1005| 
    4288 00000988       DW$L$_Registers$422$E:
    4289 00000988       DW$L$_Registers$423$B:
    4290 00000988 9A01          MOVB      AL,#1                 ; |1007| 
    4291 00000989 7640!         LCR       #_ClearMANTable       ; |1007| 
         0000098a 0000 
    4292                      ; call occurs [#_ClearMANTable] ; |1007| 
    4293 0000098b 56CF          BF        L300,UNC              ; |1007| 
         0000098c 03C2 
    4294                      ; branch occurs ; |1007| 
    4295 0000098d       DW$L$_Registers$423$E:
    4296 0000098d       L189:    
    4297 0000098d       DW$L$_Registers$424$B:
    4298 0000098d 9265          MOV       AL,*-SP[37]
    4299 0000098e 5203          CMPB      AL,#3                 ; |1001| 
    4300 0000098f 56C0          BF        L300,NEQ              ; |1001| 
         00000990 03BE 
    4301                      ; branchcc occurs ; |1001| 
    4302 00000991       DW$L$_Registers$424$E:
    4303 00000991       DW$L$_Registers$425$B:
    4304 00000991 761F!         MOVW      DP,#_clocktime+12
         00000992 0000 
TMS320C2000 COFF Assembler PC v4.1.3 Thu Aug 18 12:16:25 2016

Tools Copyright (c) 1996-2006 Texas Instruments Incorporated
PCModBus.asm                                                         PAGE   95

    4305 00000993 920C!         MOV       AL,@_clocktime+12     ; |1001| 
    4306 00000994 56CF          BF        L112,UNC              ; |1001| 
         00000995 FD33 
    4307                      ; branch occurs ; |1001| 
    4308 00000996       DW$L$_Registers$425$E:
    4309 00000996       L190:    
    4310 00000996       DW$L$_Registers$426$B:
    4311 00000996 9265          MOV       AL,*-SP[37]
    4312 00000997 5210          CMPB      AL,#16                ; |997| 
    4313 00000998 56C0          BF        L300,NEQ              ; |997| 
         00000999 03B5 
    4314                      ; branchcc occurs ; |997| 
    4315 0000099a       DW$L$_Registers$426$E:
    4316 0000099a       DW$L$_Registers$427$B:
    4317 0000099a 8F00-         MOVL      XAR4,#_pcmodbus+5     ; |997| 
         0000099b 0005 
    4318 0000099c 929C          MOV       AL,*+XAR4[AR1]        ; |997| 
    4319 0000099d 5201          CMPB      AL,#1                 ; |997| 
    4320 0000099e 56C0          BF        L300,NEQ              ; |997| 
         0000099f 03AF 
    4321                      ; branchcc occurs ; |997| 
    4322 000009a0       DW$L$_Registers$427$E:
    4323 000009a0       DW$L$_Registers$428$B:
    4324 000009a0 7640!         LCR       #_PreWarningInit      ; |997| 
         000009a1 0000 
    4325                      ; call occurs [#_PreWarningInit] ; |997| 
    4326 000009a2 56CF          BF        L300,UNC              ; |997| 
         000009a3 03AB 
    4327                      ; branch occurs ; |997| 
    4328 000009a4       DW$L$_Registers$428$E:
    4329 000009a4       L191:    
    4330 000009a4       DW$L$_Registers$429$B:
    4331 000009a4 9265          MOV       AL,*-SP[37]
    4332 000009a5 5210          CMPB      AL,#16                ; |990| 
    4333 000009a6 56C0          BF        L300,NEQ              ; |990| 
         000009a7 03A7 
    4334                      ; branchcc occurs ; |990| 
    4335 000009a8       DW$L$_Registers$429$E:
    4336 000009a8       DW$L$_Registers$430$B:
    4337 000009a8 8F00-         MOVL      XAR4,#_pcmodbus+5     ; |990| 
         000009a9 0005 
    4338 000009aa 929C          MOV       AL,*+XAR4[AR1]        ; |990| 
    4339 000009ab 5201          CMPB      AL,#1                 ; |990| 
    4340 000009ac 56C0          BF        L300,NEQ              ; |990| 
         000009ad 03A1 
    4341                      ; branchcc occurs ; |990| 
    4342 000009ae       DW$L$_Registers$430$E:
    4343 000009ae       DW$L$_Registers$431$B:
    4344 000009ae 7640!         LCR       #_FRAMInit            ; |992| 
         000009af 0000 
    4345                      ; call occurs [#_FRAMInit] ; |992| 
    4346 000009b0 56CF          BF        L300,UNC              ; |992| 
         000009b1 039D 
    4347                      ; branch occurs ; |992| 
    4348 000009b2       DW$L$_Registers$431$E:
TMS320C2000 COFF Assembler PC v4.1.3 Thu Aug 18 12:16:25 2016

Tools Copyright (c) 1996-2006 Texas Instruments Incorporated
PCModBus.asm                                                         PAGE   96

    4349 000009b2       L192:    
    4350 000009b2       DW$L$_Registers$432$B:
    4351 000009b2 9265          MOV       AL,*-SP[37]
    4352 000009b3 5210          CMPB      AL,#16                ; |985| 
    4353 000009b4 EC06          BF        L193,EQ               ; |985| 
    4354                      ; branchcc occurs ; |985| 
    4355 000009b5       DW$L$_Registers$432$E:
    4356 000009b5       DW$L$_Registers$433$B:
    4357 000009b5 761F!         MOVW      DP,#_digout
         000009b6 0000 
    4358 000009b7 9200!         MOV       AL,@_digout           ; |986| 
    4359 000009b8 56CF          BF        L112,UNC              ; |986| 
         000009b9 FD0F 
    4360                      ; branch occurs ; |986| 
    4361 000009ba       DW$L$_Registers$433$E:
    4362 000009ba       L193:    
    4363 000009ba       DW$L$_Registers$434$B:
    4364 000009ba 8F00-         MOVL      XAR4,#_pcmodbus+5     ; |985| 
         000009bb 0005 
    4365 000009bc 761F!         MOVW      DP,#_digout
         000009bd 0000 
    4366 000009be 929C          MOV       AL,*+XAR4[AR1]        ; |985| 
    4367 000009bf 9600!         MOV       @_digout,AL           ; |985| 
    4368 000009c0 56CF          BF        L300,UNC              ; |985| 
         000009c1 038D 
    4369                      ; branch occurs ; |985| 
    4370 000009c2       DW$L$_Registers$434$E:
    4371 000009c2       L194:    
    4372 000009c2       DW$L$_Registers$435$B:
    4373 000009c2 9265          MOV       AL,*-SP[37]
    4374 000009c3 5210          CMPB      AL,#16                ; |969| 
    4375 000009c4 ED11          BF        L196,NEQ              ; |969| 
    4376                      ; branchcc occurs ; |969| 
    4377 000009c5       DW$L$_Registers$435$E:
    4378 000009c5       DW$L$_Registers$436$B:
    4379 000009c5 8F00-         MOVL      XAR4,#_pcmodbus+5     ; |971| 
         000009c6 0005 
    4380 000009c7 929C          MOV       AL,*+XAR4[AR1]        ; |971| 
    4381 000009c8 5201          CMPB      AL,#1                 ; |971| 
    4382 000009c9 EC08          BF        L195,EQ               ; |971| 
    4383                      ; branchcc occurs ; |971| 
    4384 000009ca       DW$L$_Registers$436$E:
    4385 000009ca       DW$L$_Registers$437$B:
    4386 000009ca 5200          CMPB      AL,#0                 ; |975| 
    4387 000009cb 56C0          BF        L300,NEQ              ; |975| 
         000009cc 0382 
    4388                      ; branchcc occurs ; |975| 
    4389 000009cd       DW$L$_Registers$437$E:
    4390 000009cd       DW$L$_Registers$438$B:
    4391 000009cd 7640!         LCR       #_DCModeClear         ; |977| 
         000009ce 0000 
    4392                      ; call occurs [#_DCModeClear] ; |977| 
    4393 000009cf 56CF          BF        L300,UNC              ; |977| 
         000009d0 037E 
    4394                      ; branch occurs ; |977| 
TMS320C2000 COFF Assembler PC v4.1.3 Thu Aug 18 12:16:25 2016

Tools Copyright (c) 1996-2006 Texas Instruments Incorporated
PCModBus.asm                                                         PAGE   97

    4395 000009d1       DW$L$_Registers$438$E:
    4396 000009d1       L195:    
    4397 000009d1       DW$L$_Registers$439$B:
    4398 000009d1 7640!         LCR       #_DCModeInit          ; |973| 
         000009d2 0000 
    4399                      ; call occurs [#_DCModeInit] ; |973| 
    4400 000009d3 56CF          BF        L300,UNC              ; |974| 
         000009d4 037A 
    4401                      ; branch occurs ; |974| 
    4402 000009d5       DW$L$_Registers$439$E:
    4403 000009d5       L196:    
    4404 000009d5       DW$L$_Registers$440$B:
    4405 000009d5 761F!         MOVW      DP,#_settings+13
         000009d6 0000 
    4406 000009d7 920D!         MOV       AL,@_settings+13      ; |981| 
    4407 000009d8 56CF          BF        L112,UNC              ; |981| 
         000009d9 FCEF 
    4408                      ; branch occurs ; |981| 
    4409 000009da       DW$L$_Registers$440$E:
    4410 000009da       L197:    
    4411 000009da       DW$L$_Registers$441$B:
    4412 000009da 9265          MOV       AL,*-SP[37]
    4413 000009db 5210          CMPB      AL,#16                ; |964| 
    4414 000009dc EC06          BF        L198,EQ               ; |964| 
    4415                      ; branchcc occurs ; |964| 
    4416 000009dd       DW$L$_Registers$441$E:
    4417 000009dd       DW$L$_Registers$442$B:
    4418 000009dd 761F!         MOVW      DP,#_settings+15
         000009de 0000 
    4419 000009df 920F!         MOV       AL,@_settings+15      ; |965| 
    4420 000009e0 56CF          BF        L112,UNC              ; |965| 
         000009e1 FCE7 
    4421                      ; branch occurs ; |965| 
    4422 000009e2       DW$L$_Registers$442$E:
    4423 000009e2       L198:    
    4424 000009e2       DW$L$_Registers$443$B:
    4425 000009e2 8F00-         MOVL      XAR4,#_pcmodbus+5     ; |964| 
         000009e3 0005 
    4426 000009e4 761F!         MOVW      DP,#_settings+15
         000009e5 0000 
    4427 000009e6 929C          MOV       AL,*+XAR4[AR1]        ; |964| 
    4428 000009e7 960F!         MOV       @_settings+15,AL      ; |964| 
    4429 000009e8 56CF          BF        L300,UNC              ; |964| 
         000009e9 0365 
    4430                      ; branch occurs ; |964| 
    4431 000009ea       DW$L$_Registers$443$E:
    4432 000009ea       L199:    
    4433 000009ea       DW$L$_Registers$444$B:
    4434 000009ea 761F!         MOVW      DP,#_timers+70
         000009eb 0001 
    4435 000009ec 8F00-         MOVL      XAR4,#_pcmodbus+5     ; |958| 
         000009ed 0005 
    4436 000009ee 9206!         MOV       AL,@_timers+70        ; |958| 
    4437 000009ef 761F!         MOVW      DP,#_timers+70
         000009f0 0001 
TMS320C2000 COFF Assembler PC v4.1.3 Thu Aug 18 12:16:25 2016

Tools Copyright (c) 1996-2006 Texas Instruments Incorporated
PCModBus.asm                                                         PAGE   98

    4438 000009f1 969C          MOV       *+XAR4[AR1],AL        ; |958| 
    4439 000009f2 2806!         MOV       @_timers+70,#6000     ; |959| 
         000009f3 1770 
    4440 000009f4 56CF          BF        L300,UNC              ; |960| 
         000009f5 0359 
    4441                      ; branch occurs ; |960| 
    4442 000009f6       DW$L$_Registers$444$E:
    4443 000009f6       L200:    
    4444 000009f6       DW$L$_Registers$445$B:
    4445 000009f6 9265          MOV       AL,*-SP[37]
    4446 000009f7 5210          CMPB      AL,#16                ; |952| 
    4447 000009f8 EC06          BF        L201,EQ               ; |952| 
    4448                      ; branchcc occurs ; |952| 
    4449 000009f9       DW$L$_Registers$445$E:
    4450 000009f9       DW$L$_Registers$446$B:
    4451 000009f9 761F!         MOVW      DP,#_settings+16
         000009fa 0000 
    4452 000009fb 9210!         MOV       AL,@_settings+16      ; |953| 
    4453 000009fc 56CF          BF        L112,UNC              ; |953| 
         000009fd FCCB 
    4454                      ; branch occurs ; |953| 
    4455 000009fe       DW$L$_Registers$446$E:
    4456 000009fe       L201:    
    4457 000009fe       DW$L$_Registers$447$B:
    4458 000009fe 8F00-         MOVL      XAR4,#_pcmodbus+5     ; |952| 
         000009ff 0005 
    4459 00000a00 761F!         MOVW      DP,#_settings+16
         00000a01 0000 
    4460 00000a02 929C          MOV       AL,*+XAR4[AR1]        ; |952| 
    4461 00000a03 9610!         MOV       @_settings+16,AL      ; |952| 
    4462 00000a04 56CF          BF        L300,UNC              ; |952| 
         00000a05 0349 
    4463                      ; branch occurs ; |952| 
    4464 00000a06       DW$L$_Registers$447$E:
    4465 00000a06       L202:    
    4466 00000a06       DW$L$_Registers$448$B:
    4467 00000a06 9265          MOV       AL,*-SP[37]
    4468 00000a07 5210          CMPB      AL,#16                ; |935| 
    4469 00000a08 ED18          BF        L204,NEQ              ; |935| 
    4470                      ; branchcc occurs ; |935| 
    4471 00000a09       DW$L$_Registers$448$E:
    4472 00000a09       DW$L$_Registers$449$B:
    4473 00000a09 8F00-         MOVL      XAR4,#_pcmodbus+5     ; |937| 
         00000a0a 0005 
    4474 00000a0b 929C          MOV       AL,*+XAR4[AR1]        ; |937| 
    4475 00000a0c 5201          CMPB      AL,#1                 ; |937| 
    4476 00000a0d EC0D          BF        L203,EQ               ; |937| 
    4477                      ; branchcc occurs ; |937| 
    4478 00000a0e       DW$L$_Registers$449$E:
    4479 00000a0e       DW$L$_Registers$450$B:
    4480 00000a0e 761F!         MOVW      DP,#_settings+7
         00000a0f 0000 
    4481 00000a10 2B07!         MOV       @_settings+7,#0       ; |943| 
    4482 00000a11 761F!         MOVW      DP,#_sdsettings
         00000a12 0000 
TMS320C2000 COFF Assembler PC v4.1.3 Thu Aug 18 12:16:25 2016

Tools Copyright (c) 1996-2006 Texas Instruments Incorporated
PCModBus.asm                                                         PAGE   99

    4483 00000a13 2B00!         MOV       @_sdsettings,#0       ; |944| 
    4484 00000a14 761F!         MOVW      DP,#_settings+2
         00000a15 0000 
    4485 00000a16 2802!         MOV       @_settings+2,#3       ; |945| 
         00000a17 0003 
    4486 00000a18 56CF          BF        L300,UNC              ; |945| 
         00000a19 0335 
    4487                      ; branch occurs ; |945| 
    4488 00000a1a       DW$L$_Registers$450$E:
    4489 00000a1a       L203:    
    4490 00000a1a       DW$L$_Registers$451$B:
    4491 00000a1a 761F!         MOVW      DP,#_settings+9
         00000a1b 0000 
    4492 00000a1c 2809!         MOV       @_settings+9,#1       ; |939| 
         00000a1d 0001 
    4493 00000a1e 56CF          BF        L300,UNC              ; |940| 
         00000a1f 032F 
    4494                      ; branch occurs ; |940| 
    4495 00000a20       DW$L$_Registers$451$E:
    4496 00000a20       L204:    
    4497 00000a20       DW$L$_Registers$452$B:
    4498 00000a20 761F!         MOVW      DP,#_sdsettings
         00000a21 0000 
    4499 00000a22 9200!         MOV       AL,@_sdsettings       ; |948| 
    4500 00000a23 56CF          BF        L112,UNC              ; |948| 
         00000a24 FCA4 
    4501                      ; branch occurs ; |948| 
    4502 00000a25       DW$L$_Registers$452$E:
    4503 00000a25       L205:    
    4504 00000a25       DW$L$_Registers$453$B:
    4505 00000a25 761F!         MOVW      DP,#_settings+7
         00000a26 0000 
    4506 00000a27 9207!         MOV       AL,@_settings+7       ; |931| 
    4507 00000a28 56CF          BF        L112,UNC              ; |932| 
         00000a29 FC9F 
    4508                      ; branch occurs ; |932| 
    4509 00000a2a       DW$L$_Registers$453$E:
    4510 00000a2a       L206:    
    4511 00000a2a       DW$L$_Registers$454$B:
    4512 00000a2a 761F!         MOVW      DP,#_motion+4
         00000a2b 0000 
    4513 00000a2c 9204!         MOV       AL,@_motion+4         ; |927| 
    4514 00000a2d 56CF          BF        L112,UNC              ; |928| 
         00000a2e FC9A 
    4515                      ; branch occurs ; |928| 
    4516 00000a2f       DW$L$_Registers$454$E:
    4517 00000a2f       L207:    
    4518 00000a2f       DW$L$_Registers$455$B:
    4519 00000a2f 9265          MOV       AL,*-SP[37]
    4520 00000a30 5210          CMPB      AL,#16                ; |911| 
    4521 00000a31 56C0          BF        L247,NEQ              ; |911| 
         00000a32 0146 
    4522                      ; branchcc occurs ; |911| 
    4523 00000a33       DW$L$_Registers$455$E:
    4524 00000a33       DW$L$_Registers$456$B:
TMS320C2000 COFF Assembler PC v4.1.3 Thu Aug 18 12:16:25 2016

Tools Copyright (c) 1996-2006 Texas Instruments Incorporated
PCModBus.asm                                                         PAGE  100

    4525 00000a33 8F00-         MOVL      XAR4,#_pcmodbus+5     ; |913| 
         00000a34 0005 
    4526 00000a35 929C          MOV       AL,*+XAR4[AR1]        ; |913| 
    4527 00000a36 5201          CMPB      AL,#1                 ; |913| 
    4528 00000a37 ED05          BF        L208,NEQ              ; |913| 
    4529                      ; branchcc occurs ; |913| 
    4530 00000a38       DW$L$_Registers$456$E:
    4531 00000a38       DW$L$_Registers$457$B:
    4532 00000a38 761F!         MOVW      DP,#_allsensors+16
         00000a39 0000 
    4533 00000a3a 1A10!         OR        @_allsensors+16,#0x0004 ; |915| 
         00000a3b 0004 
    4534 00000a3c       DW$L$_Registers$457$E:
    4535 00000a3c       L208:    
    4536 00000a3c       DW$L$_Registers$458$B:
    4537 00000a3c 929C          MOV       AL,*+XAR4[AR1]        ; |917| 
    4538 00000a3d 56C0          BF        L167,NEQ              ; |917| 
         00000a3e FE02 
    4539                      ; branchcc occurs ; |917| 
    4540 00000a3f       DW$L$_Registers$458$E:
    4541 00000a3f       DW$L$_Registers$459$B:
    4542 00000a3f 7640!         LCR       #_CalAbort            ; |919| 
         00000a40 0000 
    4543                      ; call occurs [#_CalAbort] ; |919| 
    4544 00000a41 56CF          BF        L167,UNC              ; |922| 
         00000a42 FDFE 
    4545                      ; branch occurs ; |922| 
    4546 00000a43       DW$L$_Registers$459$E:
    4547 00000a43       L209:    
    4548 00000a43       DW$L$_Registers$460$B:
    4549 00000a43 9265          MOV       AL,*-SP[37]
    4550 00000a44 5203          CMPB      AL,#3                 ; |907| 
    4551 00000a45 56C1          BF        L247,EQ               ; |907| 
         00000a46 0132 
    4552                      ; branchcc occurs ; |907| 
    4553 00000a47       DW$L$_Registers$460$E:
    4554 00000a47       DW$L$_Registers$461$B:
    4555 00000a47 56CF          BF        L300,UNC              ; |907| 
         00000a48 0306 
    4556                      ; branch occurs ; |907| 
    4557 00000a49       DW$L$_Registers$461$E:
    4558 00000a49       L210:    
    4559 00000a49       DW$L$_Registers$462$B:
    4560 00000a49 9265          MOV       AL,*-SP[37]
    4561 00000a4a 5210          CMPB      AL,#16                ; |900| 
    4562 00000a4b 56C0          BF        L300,NEQ              ; |900| 
         00000a4c 0302 
    4563                      ; branchcc occurs ; |900| 
    4564 00000a4d       DW$L$_Registers$462$E:
    4565 00000a4d       DW$L$_Registers$463$B:
    4566 00000a4d 8F00-         MOVL      XAR4,#_pcmodbus+5     ; |902| 
         00000a4e 0005 
    4567 00000a4f 761F!         MOVW      DP,#_settings+10
         00000a50 0000 
    4568 00000a51 929C          MOV       AL,*+XAR4[AR1]        ; |902| 
TMS320C2000 COFF Assembler PC v4.1.3 Thu Aug 18 12:16:25 2016

Tools Copyright (c) 1996-2006 Texas Instruments Incorporated
PCModBus.asm                                                         PAGE  101

    4569 00000a52 960A!         MOV       @_settings+10,AL      ; |902| 
    4570 00000a53 56CF          BF        L300,UNC              ; |902| 
         00000a54 02FA 
    4571                      ; branch occurs ; |902| 
    4572 00000a55       DW$L$_Registers$463$E:
    4573 00000a55       L211:    
    4574 00000a55       DW$L$_Registers$464$B:
    4575 00000a55 9265          MOV       AL,*-SP[37]
    4576 00000a56 5210          CMPB      AL,#16                ; |877| 
    4577 00000a57 EC0C          BF        L213,EQ               ; |877| 
    4578                      ; branchcc occurs ; |877| 
    4579 00000a58       DW$L$_Registers$464$E:
    4580 00000a58       DW$L$_Registers$465$B:
    4581 00000a58 761F!         MOVW      DP,#_settings+23
         00000a59 0000 
    4582 00000a5a 9217!         MOV       AL,@_settings+23      ; |889| 
    4583 00000a5b 56C0          BF        L247,NEQ              ; |889| 
         00000a5c 011C 
    4584                      ; branchcc occurs ; |889| 
    4585 00000a5d       DW$L$_Registers$465$E:
    4586 00000a5d       L212:    
    4587 00000a5d       DW$L$_Registers$466$B:
    4588 00000a5d 8F00-         MOVL      XAR4,#_pcmodbus+5     ; |889| 
         00000a5e 0005 
    4589 00000a5f 289C          MOV       *+XAR4[AR1],#1        ; |889| 
         00000a60 0001 
    4590 00000a61 56CF          BF        L300,UNC              ; |889| 
         00000a62 02EC 
    4591                      ; branch occurs ; |889| 
    4592 00000a63       DW$L$_Registers$466$E:
    4593 00000a63       L213:    
    4594 00000a63       DW$L$_Registers$467$B:
    4595 00000a63 9B00          MOVB      AH,#0
    4596 00000a64 8F00-         MOVL      XAR4,#_pcmodbus+5     ; |884| 
         00000a65 0005 
    4597 00000a66 929C          MOV       AL,*+XAR4[AR1]        ; |884| 
    4598 00000a67 5201          CMPB      AL,#1                 ; |884| 
    4599 00000a68 EC02          BF        L214,EQ               ; |884| 
    4600                      ; branchcc occurs ; |884| 
    4601 00000a69       DW$L$_Registers$467$E:
    4602 00000a69       DW$L$_Registers$468$B:
    4603 00000a69 9B01          MOVB      AH,#1                 ; |884| 
    4604 00000a6a       DW$L$_Registers$468$E:
    4605 00000a6a       L214:    
    4606 00000a6a       DW$L$_Registers$469$B:
    4607 00000a6a 761F!         MOVW      DP,#_settings+23
         00000a6b 0000 
    4608 00000a6c 9717!         MOV       @_settings+23,AH      ; |884| 
    4609 00000a6d 56CF          BF        L300,UNC              ; |884| 
         00000a6e 02E0 
    4610                      ; branch occurs ; |884| 
    4611 00000a6f       DW$L$_Registers$469$E:
    4612 00000a6f       L215:    
    4613 00000a6f       DW$L$_Registers$470$B:
    4614 00000a6f 9265          MOV       AL,*-SP[37]
TMS320C2000 COFF Assembler PC v4.1.3 Thu Aug 18 12:16:25 2016

Tools Copyright (c) 1996-2006 Texas Instruments Incorporated
PCModBus.asm                                                         PAGE  102

    4615 00000a70 5210          CMPB      AL,#16                ; |868| 
    4616 00000a71 ED12          BF        L217,NEQ              ; |868| 
    4617                      ; branchcc occurs ; |868| 
    4618 00000a72       DW$L$_Registers$470$E:
    4619 00000a72       DW$L$_Registers$471$B:
    4620 00000a72 8F00-         MOVL      XAR4,#_pcmodbus+5     ; |870| 
         00000a73 0005 
    4621 00000a74 929C          MOV       AL,*+XAR4[AR1]        ; |870| 
    4622 00000a75 5201          CMPB      AL,#1                 ; |870| 
    4623 00000a76 EC07          BF        L216,EQ               ; |870| 
    4624                      ; branchcc occurs ; |870| 
    4625 00000a77       DW$L$_Registers$471$E:
    4626 00000a77       DW$L$_Registers$472$B:
    4627 00000a77 761F!         MOVW      DP,#_gpf
         00000a78 0000 
    4628 00000a79 1800!         AND       @_gpf,#0xff7f         ; |871| 
         00000a7a FF7F 
    4629 00000a7b 56CF          BF        L300,UNC              ; |871| 
         00000a7c 02D2 
    4630                      ; branch occurs ; |871| 
    4631 00000a7d       DW$L$_Registers$472$E:
    4632 00000a7d       L216:    
    4633 00000a7d       DW$L$_Registers$473$B:
    4634 00000a7d 761F!         MOVW      DP,#_gpf
         00000a7e 0000 
    4635 00000a7f 1A00!         OR        @_gpf,#0x0080         ; |870| 
         00000a80 0080 
    4636 00000a81 56CF          BF        L300,UNC              ; |870| 
         00000a82 02CC 
    4637                      ; branch occurs ; |870| 
    4638 00000a83       DW$L$_Registers$473$E:
    4639 00000a83       L217:    
    4640 00000a83       DW$L$_Registers$474$B:
    4641 00000a83 761F!         MOVW      DP,#_gpf
         00000a84 0000 
    4642 00000a85 CC00!         AND       AL,@_gpf,#0x0080      ; |873| 
         00000a86 0080 
    4643 00000a87 FFC6          LSR       AL,7                  ; |873| 
    4644 00000a88 56CF          BF        L112,UNC              ; |873| 
         00000a89 FC3F 
    4645                      ; branch occurs ; |873| 
    4646 00000a8a       DW$L$_Registers$474$E:
    4647 00000a8a       L218:    
    4648 00000a8a       DW$L$_Registers$475$B:
    4649 00000a8a 9265          MOV       AL,*-SP[37]
    4650 00000a8b 5210          CMPB      AL,#16                ; |859| 
    4651 00000a8c ED12          BF        L220,NEQ              ; |859| 
    4652                      ; branchcc occurs ; |859| 
    4653 00000a8d       DW$L$_Registers$475$E:
    4654 00000a8d       DW$L$_Registers$476$B:
    4655 00000a8d 8F00-         MOVL      XAR4,#_pcmodbus+5     ; |861| 
         00000a8e 0005 
    4656 00000a8f 929C          MOV       AL,*+XAR4[AR1]        ; |861| 
    4657 00000a90 5201          CMPB      AL,#1                 ; |861| 
    4658 00000a91 EC07          BF        L219,EQ               ; |861| 
TMS320C2000 COFF Assembler PC v4.1.3 Thu Aug 18 12:16:25 2016

Tools Copyright (c) 1996-2006 Texas Instruments Incorporated
PCModBus.asm                                                         PAGE  103

    4659                      ; branchcc occurs ; |861| 
    4660 00000a92       DW$L$_Registers$476$E:
    4661 00000a92       DW$L$_Registers$477$B:
    4662 00000a92 761F!         MOVW      DP,#_gpf
         00000a93 0000 
    4663 00000a94 1800!         AND       @_gpf,#0xffbf         ; |862| 
         00000a95 FFBF 
    4664 00000a96 56CF          BF        L300,UNC              ; |862| 
         00000a97 02B7 
    4665                      ; branch occurs ; |862| 
    4666 00000a98       DW$L$_Registers$477$E:
    4667 00000a98       L219:    
    4668 00000a98       DW$L$_Registers$478$B:
    4669 00000a98 761F!         MOVW      DP,#_gpf
         00000a99 0000 
    4670 00000a9a 1A00!         OR        @_gpf,#0x0040         ; |861| 
         00000a9b 0040 
    4671 00000a9c 56CF          BF        L300,UNC              ; |861| 
         00000a9d 02B1 
    4672                      ; branch occurs ; |861| 
    4673 00000a9e       DW$L$_Registers$478$E:
    4674 00000a9e       L220:    
    4675 00000a9e       DW$L$_Registers$479$B:
    4676 00000a9e 761F!         MOVW      DP,#_gpf
         00000a9f 0000 
    4677 00000aa0 CC00!         AND       AL,@_gpf,#0x0040      ; |864| 
         00000aa1 0040 
    4678 00000aa2 FFC5          LSR       AL,6                  ; |864| 
    4679 00000aa3 56CF          BF        L112,UNC              ; |864| 
         00000aa4 FC24 
    4680                      ; branch occurs ; |864| 
    4681 00000aa5       DW$L$_Registers$479$E:
    4682 00000aa5       L221:    
    4683 00000aa5       DW$L$_Registers$480$B:
    4684 00000aa5 9265          MOV       AL,*-SP[37]
    4685 00000aa6 5210          CMPB      AL,#16                ; |850| 
    4686 00000aa7 ED0D          BF        L222,NEQ              ; |850| 
    4687                      ; branchcc occurs ; |850| 
    4688 00000aa8       DW$L$_Registers$480$E:
    4689 00000aa8       DW$L$_Registers$481$B:
    4690 00000aa8 8F00-         MOVL      XAR4,#_pcmodbus+5     ; |852| 
         00000aa9 0005 
    4691 00000aaa 929C          MOV       AL,*+XAR4[AR1]        ; |852| 
    4692 00000aab 5201          CMPB      AL,#1                 ; |852| 
    4693 00000aac 56C0          BF        L300,NEQ              ; |852| 
         00000aad 02A1 
    4694                      ; branchcc occurs ; |852| 
    4695 00000aae       DW$L$_Registers$481$E:
    4696 00000aae       DW$L$_Registers$482$B:
    4697 00000aae 761F!         MOVW      DP,#_settings+8
         00000aaf 0000 
    4698 00000ab0 2808!         MOV       @_settings+8,#1       ; |852| 
         00000ab1 0001 
    4699 00000ab2 56CF          BF        L300,UNC              ; |852| 
         00000ab3 029B 
TMS320C2000 COFF Assembler PC v4.1.3 Thu Aug 18 12:16:25 2016

Tools Copyright (c) 1996-2006 Texas Instruments Incorporated
PCModBus.asm                                                         PAGE  104

    4700                      ; branch occurs ; |852| 
    4701 00000ab4       DW$L$_Registers$482$E:
    4702 00000ab4       L222:    
    4703 00000ab4       DW$L$_Registers$483$B:
    4704 00000ab4 761F!         MOVW      DP,#_settings+8
         00000ab5 0000 
    4705 00000ab6 9208!         MOV       AL,@_settings+8       ; |854| 
    4706 00000ab7 56CF          BF        L112,UNC              ; |854| 
         00000ab8 FC10 
    4707                      ; branch occurs ; |854| 
    4708 00000ab9       DW$L$_Registers$483$E:
    4709 00000ab9       L223:    
    4710 00000ab9       DW$L$_Registers$484$B:
    4711 00000ab9 9B00          MOVB      AH,#0
    4712 00000aba 8F00-         MOVL      XAR4,#_pcmodbus+5     ; |843| 
         00000abb 0005 
    4713 00000abc 929C          MOV       AL,*+XAR4[AR1]        ; |843| 
    4714 00000abd ED02          BF        L224,NEQ              ; |843| 
    4715                      ; branchcc occurs ; |843| 
    4716 00000abe       DW$L$_Registers$484$E:
    4717 00000abe       DW$L$_Registers$485$B:
    4718 00000abe 9B01          MOVB      AH,#1                 ; |843| 
    4719 00000abf       DW$L$_Registers$485$E:
    4720 00000abf       L224:    
    4721 00000abf       DW$L$_Registers$486$B:
    4722 00000abf 761F!         MOVW      DP,#_settings+30
         00000ac0 0000 
    4723 00000ac1 971E!         MOV       @_settings+30,AH      ; |843| 
    4724 00000ac2 56CF          BF        L300,UNC              ; |844| 
         00000ac3 028B 
    4725                      ; branch occurs ; |844| 
    4726 00000ac4       DW$L$_Registers$486$E:
    4727 00000ac4       L225:    
    4728 00000ac4       DW$L$_Registers$487$B:
    4729 00000ac4 9B00          MOVB      AH,#0
    4730 00000ac5 8F00-         MOVL      XAR4,#_pcmodbus+5     ; |835| 
         00000ac6 0005 
    4731 00000ac7 929C          MOV       AL,*+XAR4[AR1]        ; |835| 
    4732 00000ac8 ED02          BF        L226,NEQ              ; |835| 
    4733                      ; branchcc occurs ; |835| 
    4734 00000ac9       DW$L$_Registers$487$E:
    4735 00000ac9       DW$L$_Registers$488$B:
    4736 00000ac9 9B01          MOVB      AH,#1                 ; |835| 
    4737 00000aca       DW$L$_Registers$488$E:
    4738 00000aca       L226:    
    4739 00000aca       DW$L$_Registers$489$B:
    4740 00000aca 761F!         MOVW      DP,#_settings+29
         00000acb 0000 
    4741 00000acc 971D!         MOV       @_settings+29,AH      ; |835| 
    4742 00000acd 56CF          BF        L300,UNC              ; |836| 
         00000ace 0280 
    4743                      ; branch occurs ; |836| 
    4744 00000acf       DW$L$_Registers$489$E:
    4745 00000acf       L227:    
    4746 00000acf       DW$L$_Registers$490$B:
TMS320C2000 COFF Assembler PC v4.1.3 Thu Aug 18 12:16:25 2016

Tools Copyright (c) 1996-2006 Texas Instruments Incorporated
PCModBus.asm                                                         PAGE  105

    4747 00000acf 761F!         MOVW      DP,#_sdsettings+2
         00000ad0 0000 
    4748 00000ad1 9202!         MOV       AL,@_sdsettings+2     ; |829| 
    4749 00000ad2 56CF          BF        L112,UNC              ; |830| 
         00000ad3 FBF5 
    4750                      ; branch occurs ; |830| 
    4751 00000ad4       DW$L$_Registers$490$E:
    4752 00000ad4       L228:    
    4753 00000ad4       DW$L$_Registers$491$B:
    4754 00000ad4 9265          MOV       AL,*-SP[37]
    4755 00000ad5 5210          CMPB      AL,#16                ; |818| 
    4756 00000ad6 EC09          BF        L229,EQ               ; |818| 
    4757                      ; branchcc occurs ; |818| 
    4758 00000ad7       DW$L$_Registers$491$E:
    4759 00000ad7       DW$L$_Registers$492$B:
    4760 00000ad7 5203          CMPB      AL,#3                 ; |822| 
    4761 00000ad8 56C0          BF        L300,NEQ              ; |822| 
         00000ad9 0275 
    4762                      ; branchcc occurs ; |822| 
    4763 00000ada       DW$L$_Registers$492$E:
    4764 00000ada       DW$L$_Registers$493$B:
    4765 00000ada 761F!         MOVW      DP,#_sdsettings+1
         00000adb 0000 
    4766 00000adc 9201!         MOV       AL,@_sdsettings+1     ; |824| 
    4767 00000add 56CF          BF        L112,UNC              ; |824| 
         00000ade FBEA 
    4768                      ; branch occurs ; |824| 
    4769 00000adf       DW$L$_Registers$493$E:
    4770 00000adf       L229:    
    4771 00000adf       DW$L$_Registers$494$B:
    4772 00000adf 7640!         LCR       #_ClearManCompSequence ; |820| 
         00000ae0 0000 
    4773                      ; call occurs [#_ClearManCompSequence] ; |820| 
    4774 00000ae1 56CF          BF        L300,UNC              ; |821| 
         00000ae2 026C 
    4775                      ; branch occurs ; |821| 
    4776 00000ae3       DW$L$_Registers$494$E:
    4777 00000ae3       L230:    
    4778 00000ae3       DW$L$_Registers$495$B:
    4779 00000ae3 9265          MOV       AL,*-SP[37]
    4780 00000ae4 5210          CMPB      AL,#16                ; |809| 
    4781 00000ae5 EC06          BF        L231,EQ               ; |809| 
    4782                      ; branchcc occurs ; |809| 
    4783 00000ae6       DW$L$_Registers$495$E:
    4784 00000ae6       DW$L$_Registers$496$B:
    4785 00000ae6 761F!         MOVW      DP,#_fileregs+314
         00000ae7 0004 
    4786 00000ae8 923A!         MOV       AL,@_fileregs+314     ; |814| 
    4787 00000ae9 56CF          BF        L112,UNC              ; |814| 
         00000aea FBDE 
    4788                      ; branch occurs ; |814| 
    4789 00000aeb       DW$L$_Registers$496$E:
    4790 00000aeb       L231:    
    4791 00000aeb       DW$L$_Registers$497$B:
    4792 00000aeb 8F00-         MOVL      XAR4,#_pcmodbus+5     ; |812| 
TMS320C2000 COFF Assembler PC v4.1.3 Thu Aug 18 12:16:25 2016

Tools Copyright (c) 1996-2006 Texas Instruments Incorporated
PCModBus.asm                                                         PAGE  106

         00000aec 0005 
    4793 00000aed 761F!         MOVW      DP,#_fileregs+314
         00000aee 0004 
    4794 00000aef 929C          MOV       AL,*+XAR4[AR1]        ; |812| 
    4795 00000af0 963A!         MOV       @_fileregs+314,AL     ; |812| 
    4796 00000af1 56CF          BF        L300,UNC              ; |813| 
         00000af2 025C 
    4797                      ; branch occurs ; |813| 
    4798 00000af3       DW$L$_Registers$497$E:
    4799 00000af3       L232:    
    4800 00000af3       DW$L$_Registers$498$B:
    4801 00000af3 9265          MOV       AL,*-SP[37]
    4802 00000af4 5210          CMPB      AL,#16                ; |800| 
    4803 00000af5 EC05          BF        L233,EQ               ; |800| 
    4804                      ; branchcc occurs ; |800| 
    4805 00000af6       DW$L$_Registers$498$E:
    4806 00000af6       DW$L$_Registers$499$B:
    4807 00000af6 7640!         LCR       #_ReadEventLogID      ; |805| 
         00000af7 0000 
    4808                      ; call occurs [#_ReadEventLogID] ; |805| 
    4809 00000af8 56CF          BF        L112,UNC              ; |805| 
         00000af9 FBCF 
    4810                      ; branch occurs ; |805| 
    4811 00000afa       DW$L$_Registers$499$E:
    4812 00000afa       L233:    
    4813 00000afa       DW$L$_Registers$500$B:
    4814 00000afa 7640!         LCR       #_ClearAlarmListandEventLog ; |803| 
         00000afb 0000 
    4815                      ; call occurs [#_ClearAlarmListandEventLog] ; |803| 
    4816 00000afc 56CF          BF        L300,UNC              ; |804| 
         00000afd 0251 
    4817                      ; branch occurs ; |804| 
    4818 00000afe       DW$L$_Registers$500$E:
    4819 00000afe       L234:    
    4820 00000afe       DW$L$_Registers$501$B:
    4821 00000afe 9265          MOV       AL,*-SP[37]
    4822 00000aff 5210          CMPB      AL,#16                ; |769| 
    4823 00000b00 ED10          BF        L235,NEQ              ; |769| 
    4824                      ; branchcc occurs ; |769| 
    4825 00000b01       DW$L$_Registers$501$E:
    4826 00000b01       DW$L$_Registers$502$B:
    4827 00000b01 1BA2          CMP       AR2,#826              ; |773| 
         00000b02 033A 
    4828 00000b03 56C8          BF        L300,LO               ; |773| 
         00000b04 024A 
    4829                      ; branchcc occurs ; |773| 
    4830 00000b05       DW$L$_Registers$502$E:
    4831 00000b05       DW$L$_Registers$503$B:
    4832 00000b05 58A2          MOVZ      AR0,AR2               ; |773| 
    4833 00000b06 08A0          SUB       AR0,#826              ; |773| 
         00000b07 FCC6 
    4834 00000b08 8F00-         MOVL      XAR4,#_pcmodbus+5     ; |773| 
         00000b09 0005 
    4835 00000b0a 929C          MOV       AL,*+XAR4[AR1]        ; |773| 
    4836 00000b0b 8F00-         MOVL      XAR4,#_modbusackbuffer ; |773| 
TMS320C2000 COFF Assembler PC v4.1.3 Thu Aug 18 12:16:25 2016

Tools Copyright (c) 1996-2006 Texas Instruments Incorporated
PCModBus.asm                                                         PAGE  107

         00000b0c 0112 
    4837 00000b0d 9694          MOV       *+XAR4[AR0],AL        ; |773| 
    4838 00000b0e 56CF          BF        L300,UNC              ; |773| 
         00000b0f 023F 
    4839                      ; branch occurs ; |773| 
    4840 00000b10       DW$L$_Registers$503$E:
    4841 00000b10       L235:    
    4842 00000b10       DW$L$_Registers$504$B:
    4843 00000b10 92A2          MOV       AL,AR2                ; |765| 
    4844 00000b11 08A9          SUB       AL,#768               ; |765| 
         00000b12 FD00 
    4845 00000b13 7640!         LCR       #_ReadEvent           ; |765| 
         00000b14 0000 
    4846                      ; call occurs [#_ReadEvent] ; |765| 
    4847 00000b15 56CF          BF        L112,UNC              ; |766| 
         00000b16 FBB2 
    4848                      ; branch occurs ; |766| 
    4849 00000b17       DW$L$_Registers$504$E:
    4850 00000b17       L236:    
    4851 00000b17       DW$L$_Registers$505$B:
    4852 00000b17 9265          MOV       AL,*-SP[37]
    4853 00000b18 5210          CMPB      AL,#16                ; |760| 
    4854 00000b19 56C0          BF        L300,NEQ              ; |760| 
         00000b1a 0234 
    4855                      ; branchcc occurs ; |760| 
    4856 00000b1b       DW$L$_Registers$505$E:
    4857 00000b1b       DW$L$_Registers$506$B:
    4858 00000b1b 8F00-         MOVL      XAR4,#_pcmodbus+5     ; |760| 
         00000b1c 0005 
    4859 00000b1d 929C          MOV       AL,*+XAR4[AR1]        ; |760| 
    4860 00000b1e 7640!         LCR       #_SetupEventReadBack  ; |760| 
         00000b1f 0000 
    4861                      ; call occurs [#_SetupEventReadBack] ; |760| 
    4862 00000b20 56CF          BF        L300,UNC              ; |760| 
         00000b21 022D 
    4863                      ; branch occurs ; |760| 
    4864 00000b22       DW$L$_Registers$506$E:
    4865 00000b22       L237:    
    4866 00000b22       DW$L$_Registers$507$B:
    4867 00000b22 7640!         LCR       #_ReadLastEventID     ; |755| 
         00000b23 0000 
    4868                      ; call occurs [#_ReadLastEventID] ; |755| 
    4869 00000b24 56CF          BF        L112,UNC              ; |756| 
         00000b25 FBA3 
    4870                      ; branch occurs ; |756| 
    4871 00000b26       DW$L$_Registers$507$E:
    4872 00000b26       L238:    
    4873 00000b26       DW$L$_Registers$508$B:
    4874 00000b26 9265          MOV       AL,*-SP[37]
    4875 00000b27 5210          CMPB      AL,#16                ; |745| 
    4876 00000b28 EC05          BF        L239,EQ               ; |745| 
    4877                      ; branchcc occurs ; |745| 
    4878 00000b29       DW$L$_Registers$508$E:
    4879 00000b29       DW$L$_Registers$509$B:
    4880 00000b29 7640!         LCR       #_ReadMSGQueueNum     ; |750| 
TMS320C2000 COFF Assembler PC v4.1.3 Thu Aug 18 12:16:25 2016

Tools Copyright (c) 1996-2006 Texas Instruments Incorporated
PCModBus.asm                                                         PAGE  108

         00000b2a 0000 
    4881                      ; call occurs [#_ReadMSGQueueNum] ; |750| 
    4882 00000b2b 56CF          BF        L112,UNC              ; |750| 
         00000b2c FB9C 
    4883                      ; branch occurs ; |750| 
    4884 00000b2d       DW$L$_Registers$509$E:
    4885 00000b2d       L239:    
    4886 00000b2d       DW$L$_Registers$510$B:
    4887 00000b2d 8F00-         MOVL      XAR4,#_pcmodbus+5     ; |748| 
         00000b2e 0005 
    4888 00000b2f 929C          MOV       AL,*+XAR4[AR1]        ; |748| 
    4889 00000b30 7640!         LCR       #_MSGQueueNumfromPC   ; |748| 
         00000b31 0000 
    4890                      ; call occurs [#_MSGQueueNumfromPC] ; |748| 
    4891 00000b32 56CF          BF        L300,UNC              ; |749| 
         00000b33 021B 
    4892                      ; branch occurs ; |749| 
    4893 00000b34       DW$L$_Registers$510$E:
    4894 00000b34       L240:    
    4895 00000b34       DW$L$_Registers$511$B:
    4896 00000b34 9265          MOV       AL,*-SP[37]
    4897 00000b35 5203          CMPB      AL,#3                 ; |737| 
    4898 00000b36 56C0          BF        L300,NEQ              ; |737| 
         00000b37 0217 
    4899                      ; branchcc occurs ; |737| 
    4900 00000b38       DW$L$_Registers$511$E:
    4901 00000b38       DW$L$_Registers$512$B:
    4902 00000b38 92A2          MOV       AL,AR2                ; |739| 
    4903 00000b39 08A9          SUB       AL,#679               ; |739| 
         00000b3a FD59 
    4904 00000b3b 7640!         LCR       #_BitEventCompiled    ; |739| 
         00000b3c 0000 
    4905                      ; call occurs [#_BitEventCompiled] ; |739| 
    4906 00000b3d 56CF          BF        L112,UNC              ; |739| 
         00000b3e FB8A 
    4907                      ; branch occurs ; |739| 
    4908 00000b3f       DW$L$_Registers$512$E:
    4909 00000b3f       L241:    
    4910 00000b3f       DW$L$_Registers$513$B:
    4911 00000b3f 9265          MOV       AL,*-SP[37]
    4912 00000b40 5203          CMPB      AL,#3                 ; |728| 
    4913 00000b41 56C0          BF        L300,NEQ              ; |728| 
         00000b42 020C 
    4914                      ; branchcc occurs ; |728| 
    4915 00000b43       DW$L$_Registers$513$E:
    4916 00000b43       DW$L$_Registers$514$B:
    4917 00000b43 58A2          MOVZ      AR0,AR2               ; |730| 
    4918 00000b44 08A0          SUB       AR0,#647              ; |730| 
         00000b45 FD79 
    4919 00000b46 8F00!         MOVL      XAR4,#_bitalarmlist   ; |730| 
         00000b47 0000 
    4920 00000b48 56CF          BF        L278,UNC              ; |730| 
         00000b49 012F 
    4921                      ; branch occurs ; |730| 
    4922 00000b4a       DW$L$_Registers$514$E:
TMS320C2000 COFF Assembler PC v4.1.3 Thu Aug 18 12:16:25 2016

Tools Copyright (c) 1996-2006 Texas Instruments Incorporated
PCModBus.asm                                                         PAGE  109

    4923 00000b4a       L242:    
    4924 00000b4a       DW$L$_Registers$515$B:
    4925 00000b4a 9265          MOV       AL,*-SP[37]
    4926 00000b4b 5210          CMPB      AL,#16                ; |712| 
    4927 00000b4c 56C0          BF        L300,NEQ              ; |712| 
         00000b4d 0201 
    4928                      ; branchcc occurs ; |712| 
    4929 00000b4e       DW$L$_Registers$515$E:
    4930 00000b4e       DW$L$_Registers$516$B:
    4931 00000b4e 8F00-         MOVL      XAR4,#_pcmodbus+5     ; |712| 
         00000b4f 0005 
    4932 00000b50 929C          MOV       AL,*+XAR4[AR1]        ; |712| 
    4933 00000b51 5201          CMPB      AL,#1                 ; |712| 
    4934 00000b52 56C0          BF        L300,NEQ              ; |712| 
         00000b53 01FB 
    4935                      ; branchcc occurs ; |712| 
    4936 00000b54       DW$L$_Registers$516$E:
    4937 00000b54       DW$L$_Registers$517$B:
    4938 00000b54 7640!         LCR       #_ClearEventCodeListArea ; |714| 
         00000b55 0000 
    4939                      ; call occurs [#_ClearEventCodeListArea] ; |714| 
    4940 00000b56 56CF          BF        L300,UNC              ; |714| 
         00000b57 01F7 
    4941                      ; branch occurs ; |714| 
    4942 00000b58       DW$L$_Registers$517$E:
    4943 00000b58       L243:    
    4944 00000b58       DW$L$_Registers$518$B:
    4945 00000b58 7640!         LCR       #_ReadFirstEventCode  ; |708| 
         00000b59 0000 
    4946                      ; call occurs [#_ReadFirstEventCode] ; |708| 
    4947 00000b5a 56CF          BF        L300,UNC              ; |709| 
         00000b5b 01F3 
    4948                      ; branch occurs ; |709| 
    4949 00000b5c       DW$L$_Registers$518$E:
    4950 00000b5c       L244:    
    4951 00000b5c       DW$L$_Registers$519$B:
    4952 00000b5c 9265          MOV       AL,*-SP[37]
    4953 00000b5d 5210          CMPB      AL,#16                ; |703| 
    4954 00000b5e ED19          BF        L247,NEQ              ; |703| 
    4955                      ; branchcc occurs ; |703| 
    4956 00000b5f       DW$L$_Registers$519$E:
    4957 00000b5f       DW$L$_Registers$520$B:
    4958 00000b5f 8F00-         MOVL      XAR4,#_pcmodbus+5     ; |703| 
         00000b60 0005 
    4959 00000b61 929C          MOV       AL,*+XAR4[AR1]        ; |703| 
    4960 00000b62 7640!         LCR       #_AlarmEventIDInc     ; |703| 
         00000b63 0000 
    4961                      ; call occurs [#_AlarmEventIDInc] ; |703| 
    4962 00000b64 56CF          BF        L300,UNC              ; |703| 
         00000b65 01E9 
    4963                      ; branch occurs ; |703| 
    4964 00000b66       DW$L$_Registers$520$E:
    4965 00000b66       L245:    
    4966 00000b66       DW$L$_Registers$521$B:
    4967 00000b66 9265          MOV       AL,*-SP[37]
TMS320C2000 COFF Assembler PC v4.1.3 Thu Aug 18 12:16:25 2016

Tools Copyright (c) 1996-2006 Texas Instruments Incorporated
PCModBus.asm                                                         PAGE  110

    4968 00000b67 5203          CMPB      AL,#3                 ; |694| 
    4969 00000b68 ED0F          BF        L247,NEQ              ; |694| 
    4970                      ; branchcc occurs ; |694| 
    4971 00000b69       DW$L$_Registers$521$E:
    4972 00000b69       DW$L$_Registers$522$B:
    4973 00000b69 761F!         MOVW      DP,#_eventlogentry+65
         00000b6a 0001 
    4974 00000b6b 8F00-         MOVL      XAR4,#_pcmodbus+5     ; |696| 
         00000b6c 0005 
    4975 00000b6d 9201!         MOV       AL,@_eventlogentry+65 ; |696| 
    4976 00000b6e 761F!         MOVW      DP,#_eventlogentry+67
         00000b6f 0001 
    4977 00000b70 969C          MOV       *+XAR4[AR1],AL        ; |696| 
    4978 00000b71 0A03!         INC       @_eventlogentry+67    ; |697| 
    4979 00000b72 56CF          BF        L300,UNC              ; |698| 
         00000b73 01DB 
    4980                      ; branch occurs ; |698| 
    4981 00000b74       DW$L$_Registers$522$E:
    4982 00000b74       L246:    
    4983 00000b74       DW$L$_Registers$523$B:
    4984 00000b74 9265          MOV       AL,*-SP[37]
    4985 00000b75 5203          CMPB      AL,#3                 ; |689| 
    4986 00000b76 EC06          BF        L248,EQ               ; |689| 
    4987                      ; branchcc occurs ; |689| 
    4988 00000b77       DW$L$_Registers$523$E:
    4989 00000b77       L247:    
    4990 00000b77       DW$L$_Registers$524$B:
    4991 00000b77 8F00-         MOVL      XAR4,#_pcmodbus+5     ; |690| 
         00000b78 0005 
    4992 00000b79 2B9C          MOV       *+XAR4[AR1],#0        ; |690| 
    4993 00000b7a 56CF          BF        L300,UNC              ; |690| 
         00000b7b 01D3 
    4994                      ; branch occurs ; |690| 
    4995 00000b7c       DW$L$_Registers$524$E:
    4996 00000b7c       L248:    
    4997 00000b7c       DW$L$_Registers$525$B:
    4998 00000b7c 761F!         MOVW      DP,#_eventlogentry+64
         00000b7d 0001 
    4999 00000b7e 9200!         MOV       AL,@_eventlogentry+64 ; |689| 
    5000 00000b7f 56CF          BF        L112,UNC              ; |689| 
         00000b80 FB48 
    5001                      ; branch occurs ; |689| 
    5002 00000b81       DW$L$_Registers$525$E:
    5003 00000b81       L249:    
    5004 00000b81       DW$L$_Registers$526$B:
    5005 00000b81 9265          MOV       AL,*-SP[37]
    5006 00000b82 5203          CMPB      AL,#3                 ; |677| 
    5007 00000b83 56C0          BF        L300,NEQ              ; |677| 
         00000b84 01CA 
    5008                      ; branchcc occurs ; |677| 
    5009 00000b85       DW$L$_Registers$526$E:
    5010 00000b85       DW$L$_Registers$527$B:
    5011 00000b85 761F!         MOVW      DP,#_eventlogentry+63
         00000b86 0000 
    5012 00000b87 8F00-         MOVL      XAR4,#_pcmodbus+5     ; |679| 
TMS320C2000 COFF Assembler PC v4.1.3 Thu Aug 18 12:16:25 2016

Tools Copyright (c) 1996-2006 Texas Instruments Incorporated
PCModBus.asm                                                         PAGE  111

         00000b88 0005 
    5013 00000b89 923F!         MOV       AL,@_eventlogentry+63 ; |679| 
    5014 00000b8a 5201          CMPB      AL,#1                 ; |680| 
    5015 00000b8b 969C          MOV       *+XAR4[AR1],AL        ; |679| 
    5016 00000b8c 56C0          BF        L300,NEQ              ; |680| 
         00000b8d 01C1 
    5017                      ; branchcc occurs ; |680| 
    5018 00000b8e       DW$L$_Registers$527$E:
    5019 00000b8e       DW$L$_Registers$528$B:
    5020 00000b8e 7640!         LCR       #_ReadFirstEventCode  ; |682| 
         00000b8f 0000 
    5021                      ; call occurs [#_ReadFirstEventCode] ; |682| 
    5022 00000b90 761F!         MOVW      DP,#_eventlogentry+63
         00000b91 0000 
    5023 00000b92 2B3F!         MOV       @_eventlogentry+63,#0 ; |683| 
    5024 00000b93 56CF          BF        L300,UNC              ; |683| 
         00000b94 01BA 
    5025                      ; branch occurs ; |683| 
    5026 00000b95       DW$L$_Registers$528$E:
    5027 00000b95       L250:    
    5028 00000b95       DW$L$_Registers$529$B:
    5029 00000b95 9265          MOV       AL,*-SP[37]
    5030 00000b96 5203          CMPB      AL,#3                 ; |673| 
    5031 00000b97 56C0          BF        L300,NEQ              ; |673| 
         00000b98 01B6 
    5032                      ; branchcc occurs ; |673| 
    5033 00000b99       DW$L$_Registers$529$E:
    5034 00000b99       DW$L$_Registers$530$B:
    5035 00000b99 58A2          MOVZ      AR0,AR2               ; |673| 
    5036 00000b9a 08A0          SUB       AR0,#543              ; |673| 
         00000b9b FDE1 
    5037 00000b9c 8F00!         MOVL      XAR4,#_bearingstatus+16 ; |673| 
         00000b9d 0010 
    5038 00000b9e 56CF          BF        L278,UNC              ; |673| 
         00000b9f 00D9 
    5039                      ; branch occurs ; |673| 
    5040 00000ba0       DW$L$_Registers$530$E:
    5041 00000ba0       L251:    
    5042 00000ba0       DW$L$_Registers$531$B:
    5043 00000ba0 9265          MOV       AL,*-SP[37]
    5044 00000ba1 5203          CMPB      AL,#3                 ; |669| 
    5045 00000ba2 56C0          BF        L300,NEQ              ; |669| 
         00000ba3 01AB 
    5046                      ; branchcc occurs ; |669| 
    5047 00000ba4       DW$L$_Registers$531$E:
    5048 00000ba4       DW$L$_Registers$532$B:
    5049 00000ba4 58A2          MOVZ      AR0,AR2               ; |669| 
    5050 00000ba5 08A0          SUB       AR0,#529              ; |669| 
         00000ba6 FDEF 
    5051 00000ba7 8F00!         MOVL      XAR4,#_bearingstatus+30 ; |669| 
         00000ba8 001E 
    5052 00000ba9 56CF          BF        L278,UNC              ; |669| 
         00000baa 00CE 
    5053                      ; branch occurs ; |669| 
    5054 00000bab       DW$L$_Registers$532$E:
TMS320C2000 COFF Assembler PC v4.1.3 Thu Aug 18 12:16:25 2016

Tools Copyright (c) 1996-2006 Texas Instruments Incorporated
PCModBus.asm                                                         PAGE  112

    5055 00000bab       L252:    
    5056 00000bab       DW$L$_Registers$533$B:
    5057 00000bab 9265          MOV       AL,*-SP[37]
    5058 00000bac 5203          CMPB      AL,#3                 ; |665| 
    5059 00000bad 56C0          BF        L300,NEQ              ; |665| 
         00000bae 01A0 
    5060                      ; branchcc occurs ; |665| 
    5061 00000baf       DW$L$_Registers$533$E:
    5062 00000baf       DW$L$_Registers$534$B:
    5063 00000baf 58A2          MOVZ      AR0,AR2               ; |665| 
    5064 00000bb0 08A0          SUB       AR0,#513              ; |665| 
         00000bb1 FDFF 
    5065 00000bb2 8F00!         MOVL      XAR4,#_bearingstatus  ; |665| 
         00000bb3 0000 
    5066 00000bb4 56CF          BF        L278,UNC              ; |665| 
         00000bb5 00C3 
    5067                      ; branch occurs ; |665| 
    5068 00000bb6       DW$L$_Registers$534$E:
    5069 00000bb6       L253:    
    5070 00000bb6       DW$L$_Registers$535$B:
    5071 00000bb6 9265          MOV       AL,*-SP[37]
    5072 00000bb7 5210          CMPB      AL,#16                ; |656| 
    5073 00000bb8 EC06          BF        L254,EQ               ; |656| 
    5074                      ; branchcc occurs ; |656| 
    5075 00000bb9       DW$L$_Registers$535$E:
    5076 00000bb9       DW$L$_Registers$536$B:
    5077 00000bb9 761F!         MOVW      DP,#_clocktime+4
         00000bba 0000 
    5078 00000bbb 9204!         MOV       AL,@_clocktime+4      ; |661| 
    5079 00000bbc 56CF          BF        L112,UNC              ; |661| 
         00000bbd FB0B 
    5080                      ; branch occurs ; |661| 
    5081 00000bbe       DW$L$_Registers$536$E:
    5082 00000bbe       L254:    
    5083 00000bbe       DW$L$_Registers$537$B:
    5084 00000bbe 8F00-         MOVL      XAR4,#_pcmodbus+5     ; |658| 
         00000bbf 0005 
    5085 00000bc0 761F!         MOVW      DP,#_clocktime+4
         00000bc1 0000 
    5086 00000bc2 929C          MOV       AL,*+XAR4[AR1]        ; |658| 
    5087 00000bc3 9604!         MOV       @_clocktime+4,AL      ; |658| 
    5088 00000bc4 7640!         LCR       #_WriteDateHrsData    ; |659| 
         00000bc5 0000 
    5089                      ; call occurs [#_WriteDateHrsData] ; |659| 
    5090 00000bc6 56CF          BF        L300,UNC              ; |660| 
         00000bc7 0187 
    5091                      ; branch occurs ; |660| 
    5092 00000bc8       DW$L$_Registers$537$E:
    5093 00000bc8       L255:    
    5094 00000bc8       DW$L$_Registers$538$B:
    5095 00000bc8 9265          MOV       AL,*-SP[37]
    5096 00000bc9 5203          CMPB      AL,#3                 ; |652| 
    5097 00000bca 56C0          BF        L300,NEQ              ; |652| 
         00000bcb 0183 
    5098                      ; branchcc occurs ; |652| 
TMS320C2000 COFF Assembler PC v4.1.3 Thu Aug 18 12:16:25 2016

Tools Copyright (c) 1996-2006 Texas Instruments Incorporated
PCModBus.asm                                                         PAGE  113

    5099 00000bcc       DW$L$_Registers$538$E:
    5100 00000bcc       DW$L$_Registers$539$B:
    5101 00000bcc 7640!         LCR       #_GetAlarmFlags       ; |652| 
         00000bcd 0000 
    5102                      ; call occurs [#_GetAlarmFlags] ; |652| 
    5103 00000bce 56CF          BF        L111,UNC              ; |652| 
         00000bcf FAF8 
    5104                      ; branch occurs ; |652| 
    5105 00000bd0       DW$L$_Registers$539$E:
    5106 00000bd0       L256:    
    5107 00000bd0       DW$L$_Registers$540$B:
    5108 00000bd0 9265          MOV       AL,*-SP[37]
    5109 00000bd1 5203          CMPB      AL,#3                 ; |647| 
    5110 00000bd2 56C0          BF        L300,NEQ              ; |647| 
         00000bd3 017B 
    5111                      ; branchcc occurs ; |647| 
    5112 00000bd4       DW$L$_Registers$540$E:
    5113 00000bd4       DW$L$_Registers$541$B:
    5114 00000bd4 761F!         MOVW      DP,#_wioerrorcode
         00000bd5 0000 
    5115 00000bd6 9200!         MOV       AL,@_wioerrorcode     ; |647| 
    5116 00000bd7 56CF          BF        L112,UNC              ; |647| 
         00000bd8 FAF0 
    5117                      ; branch occurs ; |647| 
    5118 00000bd9       DW$L$_Registers$541$E:
    5119 00000bd9       L257:    
    5120 00000bd9       DW$L$_Registers$542$B:
    5121 00000bd9 9265          MOV       AL,*-SP[37]
    5122 00000bda 5203          CMPB      AL,#3                 ; |641| 
    5123 00000bdb 56C0          BF        L300,NEQ              ; |641| 
         00000bdc 0172 
    5124                      ; branchcc occurs ; |641| 
    5125 00000bdd       DW$L$_Registers$542$E:
    5126 00000bdd       DW$L$_Registers$543$B:
    5127 00000bdd 761F!         MOVW      DP,#_rtcbat+1
         00000bde 0000 
    5128 00000bdf 9201!         MOV       AL,@_rtcbat+1         ; |641| 
    5129 00000be0 56CF          BF        L112,UNC              ; |641| 
         00000be1 FAE7 
    5130                      ; branch occurs ; |641| 
    5131 00000be2       DW$L$_Registers$543$E:
    5132 00000be2       L258:    
    5133 00000be2       DW$L$_Registers$544$B:
    5134 00000be2 9265          MOV       AL,*-SP[37]
    5135 00000be3 5203          CMPB      AL,#3                 ; |637| 
    5136 00000be4 56C0          BF        L300,NEQ              ; |637| 
         00000be5 0169 
    5137                      ; branchcc occurs ; |637| 
    5138 00000be6       DW$L$_Registers$544$E:
    5139 00000be6       DW$L$_Registers$545$B:
    5140 00000be6 761F!         MOVW      DP,#_rtcbat
         00000be7 0000 
    5141 00000be8 9200!         MOV       AL,@_rtcbat           ; |637| 
    5142 00000be9 56CF          BF        L112,UNC              ; |637| 
         00000bea FADE 
TMS320C2000 COFF Assembler PC v4.1.3 Thu Aug 18 12:16:25 2016

Tools Copyright (c) 1996-2006 Texas Instruments Incorporated
PCModBus.asm                                                         PAGE  114

    5143                      ; branch occurs ; |637| 
    5144 00000beb       DW$L$_Registers$545$E:
    5145 00000beb       L259:    
    5146 00000beb       DW$L$_Registers$546$B:
    5147 00000beb 9265          MOV       AL,*-SP[37]
    5148 00000bec 5203          CMPB      AL,#3                 ; |633| 
    5149 00000bed 56C0          BF        L300,NEQ              ; |633| 
         00000bee 0160 
    5150                      ; branchcc occurs ; |633| 
    5151 00000bef       DW$L$_Registers$546$E:
    5152 00000bef       DW$L$_Registers$547$B:
    5153 00000bef 761F!         MOVW      DP,#_slem+1
         00000bf0 0000 
    5154 00000bf1 9201!         MOV       AL,@_slem+1           ; |633| 
    5155 00000bf2 56CF          BF        L112,UNC              ; |633| 
         00000bf3 FAD5 
    5156                      ; branch occurs ; |633| 
    5157 00000bf4       DW$L$_Registers$547$E:
    5158 00000bf4       L260:    
    5159 00000bf4       DW$L$_Registers$548$B:
    5160 00000bf4 9265          MOV       AL,*-SP[37]
    5161 00000bf5 5203          CMPB      AL,#3                 ; |629| 
    5162 00000bf6 56C0          BF        L300,NEQ              ; |629| 
         00000bf7 0157 
    5163                      ; branchcc occurs ; |629| 
    5164 00000bf8       DW$L$_Registers$548$E:
    5165 00000bf8       DW$L$_Registers$549$B:
    5166 00000bf8 761F!         MOVW      DP,#_slem
         00000bf9 0000 
    5167 00000bfa 9200!         MOV       AL,@_slem             ; |629| 
    5168 00000bfb 56CF          BF        L112,UNC              ; |629| 
         00000bfc FACC 
    5169                      ; branch occurs ; |629| 
    5170 00000bfd       DW$L$_Registers$549$E:
    5171 00000bfd       L261:    
    5172 00000bfd       DW$L$_Registers$550$B:
    5173 00000bfd 9265          MOV       AL,*-SP[37]
    5174 00000bfe 5203          CMPB      AL,#3                 ; |624| 
    5175 00000bff 56C0          BF        L300,NEQ              ; |624| 
         00000c00 014E 
    5176                      ; branchcc occurs ; |624| 
    5177 00000c01       DW$L$_Registers$550$E:
    5178 00000c01       DW$L$_Registers$551$B:
    5179 00000c01 761F!         MOVW      DP,#_waterinoil+11
         00000c02 0000 
    5180 00000c03 920B!         MOV       AL,@_waterinoil+11    ; |624| 
    5181 00000c04 56CF          BF        L112,UNC              ; |624| 
         00000c05 FAC3 
    5182                      ; branch occurs ; |624| 
    5183 00000c06       DW$L$_Registers$551$E:
    5184 00000c06       L262:    
    5185 00000c06       DW$L$_Registers$552$B:
    5186 00000c06 9265          MOV       AL,*-SP[37]
    5187 00000c07 5203          CMPB      AL,#3                 ; |620| 
    5188 00000c08 56C0          BF        L300,NEQ              ; |620| 
TMS320C2000 COFF Assembler PC v4.1.3 Thu Aug 18 12:16:25 2016

Tools Copyright (c) 1996-2006 Texas Instruments Incorporated
PCModBus.asm                                                         PAGE  115

         00000c09 0145 
    5189                      ; branchcc occurs ; |620| 
    5190 00000c0a       DW$L$_Registers$552$E:
    5191 00000c0a       DW$L$_Registers$553$B:
    5192 00000c0a 7640!         LCR       #_WIOTemperatureWord  ; |620| 
         00000c0b 0000 
    5193                      ; call occurs [#_WIOTemperatureWord] ; |620| 
    5194 00000c0c 56CF          BF        L112,UNC              ; |620| 
         00000c0d FABB 
    5195                      ; branch occurs ; |620| 
    5196 00000c0e       DW$L$_Registers$553$E:
    5197 00000c0e       L263:    
    5198 00000c0e       DW$L$_Registers$554$B:
    5199 00000c0e 9265          MOV       AL,*-SP[37]
    5200 00000c0f 5203          CMPB      AL,#3                 ; |616| 
    5201 00000c10 56C0          BF        L300,NEQ              ; |616| 
         00000c11 013D 
    5202                      ; branchcc occurs ; |616| 
    5203 00000c12       DW$L$_Registers$554$E:
    5204 00000c12       DW$L$_Registers$555$B:
    5205 00000c12 7640!         LCR       #_WIOPPMWord          ; |616| 
         00000c13 0000 
    5206                      ; call occurs [#_WIOPPMWord] ; |616| 
    5207 00000c14 56CF          BF        L112,UNC              ; |616| 
         00000c15 FAB3 
    5208                      ; branch occurs ; |616| 
    5209 00000c16       DW$L$_Registers$555$E:
    5210 00000c16       L264:    
    5211 00000c16       DW$L$_Registers$556$B:
    5212 00000c16 9265          MOV       AL,*-SP[37]
    5213 00000c17 5203          CMPB      AL,#3                 ; |612| 
    5214 00000c18 56C0          BF        L300,NEQ              ; |612| 
         00000c19 0135 
    5215                      ; branchcc occurs ; |612| 
    5216 00000c1a       DW$L$_Registers$556$E:
    5217 00000c1a       DW$L$_Registers$557$B:
    5218 00000c1a 7640!         LCR       #_WIOActivityWord     ; |612| 
         00000c1b 0000 
    5219                      ; call occurs [#_WIOActivityWord] ; |612| 
    5220 00000c1c 56CF          BF        L112,UNC              ; |612| 
         00000c1d FAAB 
    5221                      ; branch occurs ; |612| 
    5222 00000c1e       DW$L$_Registers$557$E:
    5223 00000c1e       L265:    
    5224 00000c1e       DW$L$_Registers$558$B:
    5225 00000c1e 9265          MOV       AL,*-SP[37]
    5226 00000c1f 5203          CMPB      AL,#3                 ; |605| 
    5227 00000c20 56C0          BF        L300,NEQ              ; |605| 
         00000c21 012D 
    5228                      ; branchcc occurs ; |605| 
    5229 00000c22       DW$L$_Registers$558$E:
    5230 00000c22       DW$L$_Registers$559$B:
    5231 00000c22 58A2          MOVZ      AR0,AR2               ; |607| 
    5232 00000c23 08A0          SUB       AR0,#440              ; |607| 
         00000c24 FE48 
TMS320C2000 COFF Assembler PC v4.1.3 Thu Aug 18 12:16:25 2016

Tools Copyright (c) 1996-2006 Texas Instruments Incorporated
PCModBus.asm                                                         PAGE  116

    5233 00000c25 8F00!         MOVL      XAR4,#_prewarn        ; |607| 
         00000c26 0000 
    5234 00000c27 56CF          BF        L278,UNC              ; |607| 
         00000c28 0050 
    5235                      ; branch occurs ; |607| 
    5236 00000c29       DW$L$_Registers$559$E:
    5237 00000c29       L266:    
    5238 00000c29       DW$L$_Registers$560$B:
    5239 00000c29 9265          MOV       AL,*-SP[37]
    5240 00000c2a 5203          CMPB      AL,#3                 ; |598| 
    5241 00000c2b 56C0          BF        L300,NEQ              ; |598| 
         00000c2c 0122 
    5242                      ; branchcc occurs ; |598| 
    5243 00000c2d       DW$L$_Registers$560$E:
    5244 00000c2d       DW$L$_Registers$561$B:
    5245 00000c2d 93A2          MOV       AH,AR2                ; |600| 
    5246 00000c2e 28AC          MOV       T,#18                 ; |600| 
         00000c2f 0012 
    5247 00000c30 8F00!         MOVL      XAR4,#_sensor+17      ; |600| 
         00000c31 0011 
    5248 00000c32 08A8          SUB       AH,#412               ; |600| 
         00000c33 FE64 
    5249 00000c34 56CF          BF        L109,UNC              ; |600| 
         00000c35 FA8F 
    5250                      ; branch occurs ; |600| 
    5251 00000c36       DW$L$_Registers$561$E:
    5252 00000c36       L267:    
    5253 00000c36       DW$L$_Registers$562$B:
    5254 00000c36 9265          MOV       AL,*-SP[37]
    5255 00000c37 5203          CMPB      AL,#3                 ; |591| 
    5256 00000c38 56C0          BF        L300,NEQ              ; |591| 
         00000c39 0115 
    5257                      ; branchcc occurs ; |591| 
    5258 00000c3a       DW$L$_Registers$562$E:
    5259 00000c3a       DW$L$_Registers$563$B:
    5260 00000c3a 92A2          MOV       AL,AR2                ; |593| 
    5261 00000c3b 08A9          SUB       AL,#384               ; |593| 
         00000c3c FE80 
    5262 00000c3d 7640!         LCR       #_GetRPM              ; |593| 
         00000c3e 0000 
    5263                      ; call occurs [#_GetRPM] ; |593| 
    5264 00000c3f 56CF          BF        L112,UNC              ; |593| 
         00000c40 FA88 
    5265                      ; branch occurs ; |593| 
    5266 00000c41       DW$L$_Registers$563$E:
    5267 00000c41       L268:    
    5268 00000c41       DW$L$_Registers$564$B:
    5269 00000c41 9A02          MOVB      AL,#2                 ; |587| 
    5270 00000c42 7640!         LCR       #_GetCheckedRPM       ; |587| 
         00000c43 0000 
    5271                      ; call occurs [#_GetCheckedRPM] ; |587| 
    5272 00000c44 56CF          BF        L112,UNC              ; |588| 
         00000c45 FA83 
    5273                      ; branch occurs ; |588| 
    5274 00000c46       DW$L$_Registers$564$E:
TMS320C2000 COFF Assembler PC v4.1.3 Thu Aug 18 12:16:25 2016

Tools Copyright (c) 1996-2006 Texas Instruments Incorporated
PCModBus.asm                                                         PAGE  117

    5275 00000c46       L269:    
    5276 00000c46       DW$L$_Registers$565$B:
    5277 00000c46 9A00          MOVB      AL,#0
    5278 00000c47 7640!         LCR       #_GetModalRPM         ; |583| 
         00000c48 0000 
    5279                      ; call occurs [#_GetModalRPM] ; |583| 
    5280 00000c49 56CF          BF        L112,UNC              ; |584| 
         00000c4a FA7E 
    5281                      ; branch occurs ; |584| 
    5282 00000c4b       DW$L$_Registers$565$E:
    5283 00000c4b       L270:    
    5284 00000c4b       DW$L$_Registers$566$B:
    5285 00000c4b 08A9          SUB       AL,#312               ; |579| 
         00000c4c FEC8 
    5286 00000c4d 7640!         LCR       #_GetScaledValue      ; |579| 
         00000c4e 0000 
    5287                      ; call occurs [#_GetScaledValue] ; |579| 
    5288 00000c4f 56CF          BF        L112,UNC              ; |580| 
         00000c50 FA78 
    5289                      ; branch occurs ; |580| 
    5290 00000c51       DW$L$_Registers$566$E:
    5291 00000c51       L271:    
    5292 00000c51       DW$L$_Registers$567$B:
    5293 00000c51 92A2          MOV       AL,AR2                ; |573| 
    5294 00000c52 8DC0!         MOVL      XAR3,#_cylinders+1    ; |573| 
         00000c53 0001 
    5295 00000c54 08A9          SUB       AL,#298               ; |573| 
         00000c55 FED6 
    5296 00000c56 56CF          BF        L273,UNC              ; |575| 
         00000c57 0007 
    5297                      ; branch occurs ; |575| 
    5298 00000c58       DW$L$_Registers$567$E:
    5299 00000c58       L272:    
    5300 00000c58       DW$L$_Registers$568$B:
    5301 00000c58 92A2          MOV       AL,AR2                ; |567| 
    5302 00000c59 8DC0!         MOVL      XAR3,#_cylinders      ; |567| 
         00000c5a 0000 
    5303 00000c5b 08A9          SUB       AL,#284               ; |567| 
         00000c5c FEE4 
    5304 00000c5d       DW$L$_Registers$568$E:
    5305 00000c5d       L273:    
    5306 00000c5d       DW$L$_Registers$569$B:
    5307 00000c5d 0EA9          MOVU      ACC,AL
    5308 00000c5e FF31          LSL       ACC,2                 ; |567| 
    5309 00000c5f 5601          ADDL      XAR3,ACC
         00000c60 00A3 
    5310 00000c61 56CF          BF        L130,UNC              ; |569| 
         00000c62 FAE6 
    5311                      ; branch occurs ; |569| 
    5312 00000c63       DW$L$_Registers$569$E:
    5313 00000c63       L274:    
    5314 00000c63       DW$L$_Registers$570$B:
    5315 00000c63 08A9          SUB       AL,#270               ; |562| 
         00000c64 FEF2 
    5316 00000c65 7640!         LCR       #_GetCylinderDeviationValue ; |562| 
TMS320C2000 COFF Assembler PC v4.1.3 Thu Aug 18 12:16:25 2016

Tools Copyright (c) 1996-2006 Texas Instruments Incorporated
PCModBus.asm                                                         PAGE  118

         00000c66 0000 
    5317                      ; call occurs [#_GetCylinderDeviationValue] ; |562| 
    5318 00000c67 56CF          BF        L112,UNC              ; |563| 
         00000c68 FA60 
    5319                      ; branch occurs ; |563| 
    5320 00000c69       DW$L$_Registers$570$E:
    5321 00000c69       L275:    
    5322 00000c69       DW$L$_Registers$571$B:
    5323 00000c69 08A9          SUB       AL,#256               ; |558| 
         00000c6a FF00 
    5324 00000c6b 7640!         LCR       #_GetCylinderAverageValue ; |558| 
         00000c6c 0000 
    5325                      ; call occurs [#_GetCylinderAverageValue] ; |558| 
    5326 00000c6d 56CF          BF        L112,UNC              ; |559| 
         00000c6e FA5A 
    5327                      ; branch occurs ; |559| 
    5328 00000c6f       DW$L$_Registers$571$E:
    5329 00000c6f       L276:    
    5330 00000c6f       DW$L$_Registers$572$B:
    5331 00000c6f 9265          MOV       AL,*-SP[37]
    5332 00000c70 5210          CMPB      AL,#16                ; |549| 
    5333 00000c71 EC09          BF        L279,EQ               ; |549| 
    5334                      ; branchcc occurs ; |549| 
    5335 00000c72       DW$L$_Registers$572$E:
    5336 00000c72       DW$L$_Registers$573$B:
    5337 00000c72 8F00!         MOVL      XAR4,#_DCModeInRangeIdeal ; |553| 
         00000c73 0000 
    5338 00000c74 9AEC          MOVB      AL,#236               ; |553| 
    5339 00000c75       DW$L$_Registers$573$E:
    5340 00000c75       L277:    
    5341 00000c75       DW$L$_Registers$574$B:
    5342 00000c75 58A2          MOVZ      AR0,AR2               ; |553| 
    5343 00000c76 74A0          SUB       AR0,AL                ; |553| 
    5344 00000c77       DW$L$_Registers$574$E:
    5345 00000c77       L278:    
    5346 00000c77       DW$L$_Registers$575$B:
    5347 00000c77 9294          MOV       AL,*+XAR4[AR0]        ; |553| 
    5348 00000c78 56CF          BF        L112,UNC              ; |553| 
         00000c79 FA4F 
    5349                      ; branch occurs ; |553| 
    5350 00000c7a       DW$L$_Registers$575$E:
    5351 00000c7a       L279:    
    5352 00000c7a       DW$L$_Registers$576$B:
    5353 00000c7a 8F00-         MOVL      XAR4,#_pcmodbus+5     ; |551| 
         00000c7b 0005 
    5354 00000c7c 9AEC          MOVB      AL,#236               ; |551| 
    5355 00000c7d 939C          MOV       AH,*+XAR4[AR1]        ; |551| 
    5356 00000c7e 8F00!         MOVL      XAR4,#_DCModeInRangeIdeal ; |551| 
         00000c7f 0000 
    5357 00000c80       DW$L$_Registers$576$E:
    5358 00000c80       L280:    
    5359 00000c80       DW$L$_Registers$577$B:
    5360 00000c80 58A2          MOVZ      AR0,AR2               ; |551| 
    5361 00000c81 74A0          SUB       AR0,AL                ; |551| 
    5362 00000c82 9794          MOV       *+XAR4[AR0],AH        ; |551| 
TMS320C2000 COFF Assembler PC v4.1.3 Thu Aug 18 12:16:25 2016

Tools Copyright (c) 1996-2006 Texas Instruments Incorporated
PCModBus.asm                                                         PAGE  119

    5363 00000c83 56CF          BF        L300,UNC              ; |552| 
         00000c84 00CA 
    5364                      ; branch occurs ; |552| 
    5365 00000c85       DW$L$_Registers$577$E:
    5366 00000c85       L281:    
    5367 00000c85       DW$L$_Registers$578$B:
    5368 00000c85 9265          MOV       AL,*-SP[37]
    5369 00000c86 5210          CMPB      AL,#16                ; |541| 
    5370 00000c87 EC06          BF        L282,EQ               ; |541| 
    5371                      ; branchcc occurs ; |541| 
    5372 00000c88       DW$L$_Registers$578$E:
    5373 00000c88       DW$L$_Registers$579$B:
    5374 00000c88 8F00!         MOVL      XAR4,#_DCModeInRangeOK ; |545| 
         00000c89 0000 
    5375 00000c8a 9AEA          MOVB      AL,#234               ; |545| 
    5376 00000c8b 56CF          BF        L277,UNC              ; |545| 
         00000c8c FFEA 
    5377                      ; branch occurs ; |545| 
    5378 00000c8d       DW$L$_Registers$579$E:
    5379 00000c8d       L282:    
    5380 00000c8d       DW$L$_Registers$580$B:
    5381 00000c8d 8F00-         MOVL      XAR4,#_pcmodbus+5     ; |543| 
         00000c8e 0005 
    5382 00000c8f 9AEA          MOVB      AL,#234               ; |543| 
    5383 00000c90 939C          MOV       AH,*+XAR4[AR1]        ; |543| 
    5384 00000c91 8F00!         MOVL      XAR4,#_DCModeInRangeOK ; |543| 
         00000c92 0000 
    5385 00000c93 56CF          BF        L280,UNC              ; |544| 
         00000c94 FFED 
    5386                      ; branch occurs ; |544| 
    5387 00000c95       DW$L$_Registers$580$E:
    5388 00000c95       L283:    
    5389 00000c95       DW$L$_Registers$581$B:
    5390 00000c95 9265          MOV       AL,*-SP[37]
    5391 00000c96 5210          CMPB      AL,#16                ; |533| 
    5392 00000c97 EC06          BF        L284,EQ               ; |533| 
    5393                      ; branchcc occurs ; |533| 
    5394 00000c98       DW$L$_Registers$581$E:
    5395 00000c98       DW$L$_Registers$582$B:
    5396 00000c98 8F00!         MOVL      XAR4,#_DCModePeakReset ; |537| 
         00000c99 0000 
    5397 00000c9a 9AE8          MOVB      AL,#232               ; |537| 
    5398 00000c9b 56CF          BF        L277,UNC              ; |537| 
         00000c9c FFDA 
    5399                      ; branch occurs ; |537| 
    5400 00000c9d       DW$L$_Registers$582$E:
    5401 00000c9d       L284:    
    5402 00000c9d       DW$L$_Registers$583$B:
    5403 00000c9d 8F00-         MOVL      XAR4,#_pcmodbus+5     ; |535| 
         00000c9e 0005 
    5404 00000c9f 9AE8          MOVB      AL,#232               ; |535| 
    5405 00000ca0 939C          MOV       AH,*+XAR4[AR1]        ; |535| 
    5406 00000ca1 8F00!         MOVL      XAR4,#_DCModePeakReset ; |535| 
         00000ca2 0000 
    5407 00000ca3 56CF          BF        L280,UNC              ; |536| 
TMS320C2000 COFF Assembler PC v4.1.3 Thu Aug 18 12:16:25 2016

Tools Copyright (c) 1996-2006 Texas Instruments Incorporated
PCModBus.asm                                                         PAGE  120

         00000ca4 FFDD 
    5408                      ; branch occurs ; |536| 
    5409 00000ca5       DW$L$_Registers$583$E:
    5410 00000ca5       L285:    
    5411 00000ca5       DW$L$_Registers$584$B:
    5412 00000ca5 9265          MOV       AL,*-SP[37]
    5413 00000ca6 5210          CMPB      AL,#16                ; |525| 
    5414 00000ca7 EC06          BF        L286,EQ               ; |525| 
    5415                      ; branchcc occurs ; |525| 
    5416 00000ca8       DW$L$_Registers$584$E:
    5417 00000ca8       DW$L$_Registers$585$B:
    5418 00000ca8 761F!         MOVW      DP,#_DCModeCylinderComparison
         00000ca9 0000 
    5419 00000caa 9200!         MOV       AL,@_DCModeCylinderComparison ; |529| 
    5420 00000cab 56CF          BF        L112,UNC              ; |529| 
         00000cac FA1C 
    5421                      ; branch occurs ; |529| 
    5422 00000cad       DW$L$_Registers$585$E:
    5423 00000cad       L286:    
    5424 00000cad       DW$L$_Registers$586$B:
    5425 00000cad 8F00-         MOVL      XAR4,#_pcmodbus+5     ; |527| 
         00000cae 0005 
    5426 00000caf 761F!         MOVW      DP,#_DCModeCylinderComparison
         00000cb0 0000 
    5427 00000cb1 929C          MOV       AL,*+XAR4[AR1]        ; |527| 
    5428 00000cb2 9600!         MOV       @_DCModeCylinderComparison,AL ; |527| 
    5429 00000cb3 56CF          BF        L300,UNC              ; |528| 
         00000cb4 009A 
    5430                      ; branch occurs ; |528| 
    5431 00000cb5       DW$L$_Registers$586$E:
    5432 00000cb5       L287:    
    5433 00000cb5       DW$L$_Registers$587$B:
    5434 00000cb5 9BCB          MOVB      AH,#203               ; |520| 
    5435 00000cb6 9EA8          SUB       AL,AH                 ; |520| 
    5436 00000cb7 7640!         LCR       #_GetuASCaledValue    ; |520| 
         00000cb8 0000 
    5437                      ; call occurs [#_GetuASCaledValue] ; |520| 
    5438 00000cb9 56CF          BF        L112,UNC              ; |521| 
         00000cba FA0E 
    5439                      ; branch occurs ; |521| 
    5440 00000cbb       DW$L$_Registers$587$E:
    5441 00000cbb       L288:    
    5442 00000cbb       DW$L$_Registers$588$B:
    5443 00000cbb 9BAF          MOVB      AH,#175               ; |515| 
    5444 00000cbc 92A2          MOV       AL,AR2                ; |515| 
    5445 00000cbd 9EA8          SUB       AL,AH                 ; |515| 
    5446 00000cbe 7640!         LCR       #_Status3Flags        ; |515| 
         00000cbf 0000 
    5447                      ; call occurs [#_Status3Flags] ; |515| 
    5448 00000cc0 56CF          BF        L290,UNC              ; |517| 
         00000cc1 0007 
    5449                      ; branch occurs ; |517| 
    5450 00000cc2       DW$L$_Registers$588$E:
    5451 00000cc2       L289:    
    5452 00000cc2       DW$L$_Registers$589$B:
TMS320C2000 COFF Assembler PC v4.1.3 Thu Aug 18 12:16:25 2016

Tools Copyright (c) 1996-2006 Texas Instruments Incorporated
PCModBus.asm                                                         PAGE  121

    5453 00000cc2 9B92          MOVB      AH,#146               ; |509| 
    5454 00000cc3 92A2          MOV       AL,AR2                ; |509| 
    5455 00000cc4 9EA8          SUB       AL,AH                 ; |509| 
    5456 00000cc5 7640!         LCR       #_GetStatus2Flags     ; |509| 
         00000cc6 0000 
    5457                      ; call occurs [#_GetStatus2Flags] ; |509| 
    5458 00000cc7       DW$L$_Registers$589$E:
    5459 00000cc7       L290:    
    5460 00000cc7       DW$L$_Registers$590$B:
    5461 00000cc7 82A4          MOVL      XAR3,XAR4             ; |509| 
    5462 00000cc8 56CF          BF        L131,UNC              ; |511| 
         00000cc9 FA80 
    5463                      ; branch occurs ; |511| 
    5464 00000cca       DW$L$_Registers$590$E:
    5465 00000cca       L291:    
    5466 00000cca       DW$L$_Registers$591$B:
    5467 00000cca 9265          MOV       AL,*-SP[37]
    5468 00000ccb 5210          CMPB      AL,#16                ; |456| 
    5469 00000ccc ED3D          BF        L293,NEQ              ; |456| 
    5470                      ; branchcc occurs ; |456| 
    5471 00000ccd       DW$L$_Registers$591$E:
    5472 00000ccd       DW$L$_Registers$592$B:
    5473 00000ccd 92A2          MOV       AL,AR2                ; |459| 
    5474 00000cce 9C8B          ADDB      AL,#-117
    5475 00000ccf 9666          MOV       *-SP[38],AL           ; |459| 
    5476 00000cd0 7640!         LCR       #_Status1Flags        ; |459| 
         00000cd1 0000 
    5477                      ; call occurs [#_Status1Flags] ; |459| 
    5478 00000cd2 82A4          MOVL      XAR3,XAR4             ; |459| 
    5479 00000cd3 92C3          MOV       AL,*+XAR3[0]          ; |460| 
    5480 00000cd4 8F00-         MOVL      XAR4,#_pcmodbus+5     ; |461| 
         00000cd5 0005 
    5481 00000cd6 9667          MOV       *-SP[39],AL           ; |460| 
    5482 00000cd7 A8A9          MOVL      ACC,XAR4              ; |461| 
    5483 00000cd8 0DA1          ADDU      ACC,AR1               ; |461| 
    5484 00000cd9 1E6A          MOVL      *-SP[42],ACC          ; |461| 
    5485 00000cda 8A6A          MOVL      XAR4,*-SP[42]         ; |461| 
    5486 00000cdb 9267          MOV       AL,*-SP[39]           ; |461| 
    5487 00000cdc 54C4          CMP       AL,*+XAR4[0]          ; |461| 
    5488 00000cdd EC70          BF        L300,EQ               ; |461| 
    5489                      ; branchcc occurs ; |461| 
    5490 00000cde       DW$L$_Registers$592$E:
    5491 00000cde       DW$L$_Registers$593$B:
    5492 00000cde 5CAD          MOVZ      AR4,SP                ; |463| 
    5493 00000cdf 021E          MOVB      ACC,#30
    5494 00000ce0 D500          MOVB      XAR5,#0
    5495 00000ce1 DCA0          SUBB      XAR4,#32              ; |463| 
    5496 00000ce2 7640!         LCR       #_memset              ; |463| 
         00000ce3 0000 
    5497                      ; call occurs [#_memset] ; |463| 
    5498 00000ce4 5CAD          MOVZ      AR4,SP                ; |464| 
    5499 00000ce5 9266          MOV       AL,*-SP[38]           ; |464| 
    5500 00000ce6 DCA4          SUBB      XAR4,#36              ; |464| 
    5501 00000ce7 7640!         LCR       #_InputNumtoString    ; |464| 
         00000ce8 0000 
TMS320C2000 COFF Assembler PC v4.1.3 Thu Aug 18 12:16:25 2016

Tools Copyright (c) 1996-2006 Texas Instruments Incorporated
PCModBus.asm                                                         PAGE  122

    5502                      ; call occurs [#_InputNumtoString] ; |464| 
    5503 00000ce9 9267          MOV       AL,*-SP[39]           ; |464| 
    5504 00000cea 9001          ANDB      AL,#1                 ; |465| 
    5505 00000ceb ED0F          BF        L292,NEQ              ; |465| 
    5506                      ; branchcc occurs ; |465| 
    5507 00000cec       DW$L$_Registers$593$E:
    5508 00000cec       DW$L$_Registers$594$B:
    5509 00000cec 8A6A          MOVL      XAR4,*-SP[42]
    5510 00000ced 40C4          TBIT      *+XAR4[0],#0          ; |465| 
    5511 00000cee EF0C          BF        L292,NTC              ; |465| 
    5512                      ; branchcc occurs ; |465| 
    5513 00000cef       DW$L$_Registers$594$E:
    5514 00000cef       DW$L$_Registers$595$B:
    5515 00000cef 5866          MOVZ      AR0,*-SP[38]          ; |469| 
    5516 00000cf0 9A03          MOVB      AL,#3                 ; |469| 
    5517 00000cf1 8F00!         MOVL      XAR4,#_noisefilterLOAD ; |469| 
         00000cf2 0000 
    5518 00000cf3 9694          MOV       *+XAR4[AR0],AL        ; |469| 
    5519 00000cf4 8F00!         MOVL      XAR4,#_damagemonignore ; |470| 
         00000cf5 0000 
    5520 00000cf6 9694          MOV       *+XAR4[AR0],AL        ; |470| 
    5521 00000cf7 8F00!         MOVL      XAR4,#_checkmanalarms ; |472| 
         00000cf8 0000 
    5522 00000cf9 2B94          MOV       *+XAR4[AR0],#0        ; |472| 
    5523 00000cfa       DW$L$_Registers$595$E:
    5524 00000cfa       L292:    
    5525 00000cfa       DW$L$_Registers$596$B:
    5526 00000cfa 8AA3          MOVL      XAR4,XAR3             ; |495| 
    5527 00000cfb 9A01          MOVB      AL,#1                 ; |405| 
    5528 00000cfc 93A1          MOV       AH,AR1                ; |495| 
    5529 00000cfd 7640'         LCR       #_ProcessRegister     ; |495| 
         00000cfe 0D5A 
    5530                      ; call occurs [#_ProcessRegister] ; |495| 
    5531 00000cff 92A2          MOV       AL,AR2                ; |496| 
    5532 00000d00 9C8B          ADDB      AL,#-117
    5533 00000d01 7640!         LCR       #_WriteSensorStatustoNVMEM ; |496| 
         00000d02 0000 
    5534                      ; call occurs [#_WriteSensorStatustoNVMEM] ; |496| 
    5535 00000d03 761F!         MOVW      DP,#_settings+10
         00000d04 0000 
    5536 00000d05 280A!         MOV       @_settings+10,#3      ; |497| 
         00000d06 0003 
    5537 00000d07 56CF          BF        L300,UNC              ; |497| 
         00000d08 0046 
    5538                      ; branch occurs ; |497| 
    5539 00000d09       DW$L$_Registers$596$E:
    5540 00000d09       L293:    
    5541 00000d09       DW$L$_Registers$597$B:
    5542 00000d09 92A2          MOV       AL,AR2                ; |502| 
    5543 00000d0a 9C8B          ADDB      AL,#-117
    5544 00000d0b 7640!         LCR       #_ReadStatus1Int      ; |502| 
         00000d0c 0000 
    5545                      ; call occurs [#_ReadStatus1Int] ; |502| 
    5546 00000d0d 56CF          BF        L112,UNC              ; |502| 
         00000d0e F9BA 
TMS320C2000 COFF Assembler PC v4.1.3 Thu Aug 18 12:16:25 2016

Tools Copyright (c) 1996-2006 Texas Instruments Incorporated
PCModBus.asm                                                         PAGE  123

    5547                      ; branch occurs ; |502| 
    5548 00000d0f       DW$L$_Registers$597$E:
    5549 00000d0f       L294:    
    5550 00000d0f       DW$L$_Registers$598$B:
    5551 00000d0f 9265          MOV       AL,*-SP[37]
    5552 00000d10 5203          CMPB      AL,#3                 ; |449| 
    5553 00000d11 ED3C          BF        L300,NEQ              ; |449| 
    5554                      ; branchcc occurs ; |449| 
    5555 00000d12       DW$L$_Registers$598$E:
    5556 00000d12       DW$L$_Registers$599$B:
    5557 00000d12 92A2          MOV       AL,AR2                ; |451| 
    5558 00000d13 9CA8          ADDB      AL,#-88
    5559 00000d14 7640!         LCR       #_GetSensorDeviationValue ; |451| 
         00000d15 0000 
    5560                      ; call occurs [#_GetSensorDeviationValue] ; |451| 
    5561 00000d16 56CF          BF        L112,UNC              ; |451| 
         00000d17 F9B1 
    5562                      ; branch occurs ; |451| 
    5563 00000d18       DW$L$_Registers$599$E:
    5564 00000d18       L295:    
    5565 00000d18       DW$L$_Registers$600$B:
    5566 00000d18 9265          MOV       AL,*-SP[37]
    5567 00000d19 5203          CMPB      AL,#3                 ; |441| 
    5568 00000d1a ED33          BF        L300,NEQ              ; |441| 
    5569                      ; branchcc occurs ; |441| 
    5570 00000d1b       DW$L$_Registers$600$E:
    5571 00000d1b       DW$L$_Registers$601$B:
    5572 00000d1b 92A2          MOV       AL,AR2                ; |443| 
    5573 00000d1c 9CC5          ADDB      AL,#-59
    5574 00000d1d 7640!         LCR       #_GetEndResultValue   ; |443| 
         00000d1e 0000 
    5575                      ; call occurs [#_GetEndResultValue] ; |443| 
    5576 00000d1f 56CF          BF        L112,UNC              ; |443| 
         00000d20 F9A8 
    5577                      ; branch occurs ; |443| 
    5578 00000d21       DW$L$_Registers$601$E:
    5579 00000d21       L296:    
    5580 00000d21       DW$L$_Registers$602$B:
    5581 00000d21 9265          MOV       AL,*-SP[37]
    5582 00000d22 5203          CMPB      AL,#3                 ; |433| 
    5583 00000d23 ED2A          BF        L300,NEQ              ; |433| 
    5584                      ; branchcc occurs ; |433| 
    5585 00000d24       DW$L$_Registers$602$E:
    5586 00000d24       DW$L$_Registers$603$B:
    5587 00000d24 92A2          MOV       AL,AR2                ; |435| 
    5588 00000d25 9CE1          ADDB      AL,#-31
    5589 00000d26 7640!         LCR       #_GetPostCompValue    ; |435| 
         00000d27 0000 
    5590                      ; call occurs [#_GetPostCompValue] ; |435| 
    5591 00000d28 56CF          BF        L112,UNC              ; |435| 
         00000d29 F99F 
    5592                      ; branch occurs ; |435| 
    5593 00000d2a       DW$L$_Registers$603$E:
    5594 00000d2a       L297:    
    5595 00000d2a       DW$L$_Registers$604$B:
TMS320C2000 COFF Assembler PC v4.1.3 Thu Aug 18 12:16:25 2016

Tools Copyright (c) 1996-2006 Texas Instruments Incorporated
PCModBus.asm                                                         PAGE  124

    5596 00000d2a 9265          MOV       AL,*-SP[37]
    5597 00000d2b 5203          CMPB      AL,#3                 ; |426| 
    5598 00000d2c ED21          BF        L300,NEQ              ; |426| 
    5599                      ; branchcc occurs ; |426| 
    5600 00000d2d       DW$L$_Registers$604$E:
    5601 00000d2d       DW$L$_Registers$605$B:
    5602 00000d2d 92A2          MOV       AL,AR2                ; |428| 
    5603 00000d2e 9CFD          ADDB      AL,#-3
    5604 00000d2f 7640!         LCR       #_GetPreCompValue     ; |428| 
         00000d30 0000 
    5605                      ; call occurs [#_GetPreCompValue] ; |428| 
    5606 00000d31 56CF          BF        L112,UNC              ; |428| 
         00000d32 F996 
    5607                      ; branch occurs ; |428| 
    5608 00000d33       DW$L$_Registers$605$E:
    5609 00000d33       L298:    
    5610 00000d33       DW$L$_Registers$606$B:
    5611 00000d33 8DC0!         MOVL      XAR3,#_livetime+2     ; |420| 
         00000d34 0002 
    5612 00000d35 8AA3          MOVL      XAR4,XAR3             ; |421| 
    5613 00000d36 9A01          MOVB      AL,#1                 ; |419| 
    5614 00000d37 93A1          MOV       AH,AR1                ; |421| 
    5615 00000d38 7640'         LCR       #_ProcessRegister     ; |421| 
         00000d39 0D5A 
    5616                      ; call occurs [#_ProcessRegister] ; |421| 
    5617 00000d3a 9265          MOV       AL,*-SP[37]           ; |421| 
    5618 00000d3b 5210          CMPB      AL,#16                ; |422| 
    5619 00000d3c ED11          BF        L300,NEQ              ; |422| 
    5620                      ; branchcc occurs ; |422| 
    5621 00000d3d       DW$L$_Registers$606$E:
    5622 00000d3d       DW$L$_Registers$607$B:
    5623 00000d3d 7640!         LCR       #_MinsSecsUpdate      ; |422| 
         00000d3e 0000 
    5624                      ; call occurs [#_MinsSecsUpdate] ; |422| 
    5625 00000d3f 56CF          BF        L300,UNC              ; |422| 
         00000d40 000E 
    5626                      ; branch occurs ; |422| 
    5627 00000d41       DW$L$_Registers$607$E:
    5628 00000d41       L299:    
    5629 00000d41       DW$L$_Registers$608$B:
    5630 00000d41 8DC0!         MOVL      XAR3,#_livetime+1     ; |413| 
         00000d42 0001 
    5631 00000d43 8AA3          MOVL      XAR4,XAR3             ; |414| 
    5632 00000d44 9A01          MOVB      AL,#1                 ; |412| 
    5633 00000d45 93A1          MOV       AH,AR1                ; |414| 
    5634 00000d46 7640'         LCR       #_ProcessRegister     ; |414| 
         00000d47 0D5A 
    5635                      ; call occurs [#_ProcessRegister] ; |414| 
    5636 00000d48 9265          MOV       AL,*-SP[37]           ; |414| 
    5637 00000d49 5210          CMPB      AL,#16                ; |415| 
    5638 00000d4a ED03          BF        L300,NEQ              ; |415| 
    5639                      ; branchcc occurs ; |415| 
    5640 00000d4b       DW$L$_Registers$608$E:
    5641 00000d4b       DW$L$_Registers$609$B:
    5642 00000d4b 7640!         LCR       #_DateHoursUpdate     ; |415| 
TMS320C2000 COFF Assembler PC v4.1.3 Thu Aug 18 12:16:25 2016

Tools Copyright (c) 1996-2006 Texas Instruments Incorporated
PCModBus.asm                                                         PAGE  125

         00000d4c 0000 
    5643                      ; call occurs [#_DateHoursUpdate] ; |415| 
    5644 00000d4d       DW$L$_Registers$609$E:
    5645 00000d4d       L300:    
    5646 00000d4d       DW$L$_Registers$610$B:
    5647 00000d4d D901          ADDB      XAR1,#1               ; |1557| 
    5648 00000d4e 761F-         MOVW      DP,#_pcmodbus+3
         00000d4f 0000 
    5649 00000d50 92A1          MOV       AL,AR1                ; |1557| 
    5650 00000d51 DA01          ADDB      XAR2,#1               ; |1556| 
    5651 00000d52 5403-         CMP       AL,@_pcmodbus+3       ; |1557| 
    5652                      .dwpsn  "PCModBus.c",1558,0
    5653 00000d53 56C8          BF        L36,LO                ; |1557| 
         00000d54 F4EE 
    5654                      ; branchcc occurs ; |1557| 
    5655 00000d55       DW$L$_Registers$610$E:
    5656 00000d55       L301:    
    5657 00000d55 FEAA          SUBB      SP,#42
    5658 00000d56 82BE          MOVL      XAR3,*--SP
    5659 00000d57 86BE          MOVL      XAR2,*--SP
    5660 00000d58 8BBE          MOVL      XAR1,*--SP
    5661                      .dwpsn  "PCModBus.c",1559,1
    5662 00000d59 0006          LRETR
    5663                      ; return occurs
    5664              
    5665              DW$217  .dwtag  DW_TAG_loop
    5666                      .dwattr DW$217, DW_AT_name("D:\DEV\Amot\BearingWear\XTSW_V6_20\PCModBus.asm:L36:1:1471518984")
    5667                      .dwattr DW$217, DW_AT_begin_file("PCModBus.c")
    5668                      .dwattr DW$217, DW_AT_begin_line(0x191)
    5669                      .dwattr DW$217, DW_AT_end_line(0x616)
    5670              DW$218  .dwtag  DW_TAG_loop_range
    5671                      .dwattr DW$218, DW_AT_low_pc(DW$L$_Registers$6$B)
    5672                      .dwattr DW$218, DW_AT_high_pc(DW$L$_Registers$6$E)
    5673              DW$219  .dwtag  DW_TAG_loop_range
    5674                      .dwattr DW$219, DW_AT_low_pc(DW$L$_Registers$593$B)
    5675                      .dwattr DW$219, DW_AT_high_pc(DW$L$_Registers$593$E)
    5676              DW$220  .dwtag  DW_TAG_loop_range
    5677                      .dwattr DW$220, DW_AT_low_pc(DW$L$_Registers$594$B)
    5678                      .dwattr DW$220, DW_AT_high_pc(DW$L$_Registers$594$E)
    5679              DW$221  .dwtag  DW_TAG_loop_range
    5680                      .dwattr DW$221, DW_AT_low_pc(DW$L$_Registers$595$B)
    5681                      .dwattr DW$221, DW_AT_high_pc(DW$L$_Registers$595$E)
    5682              DW$222  .dwtag  DW_TAG_loop_range
    5683                      .dwattr DW$222, DW_AT_low_pc(DW$L$_Registers$576$B)
    5684                      .dwattr DW$222, DW_AT_high_pc(DW$L$_Registers$576$E)
    5685              DW$223  .dwtag  DW_TAG_loop_range
    5686                      .dwattr DW$223, DW_AT_low_pc(DW$L$_Registers$580$B)
    5687                      .dwattr DW$223, DW_AT_high_pc(DW$L$_Registers$580$E)
    5688              DW$224  .dwtag  DW_TAG_loop_range
    5689                      .dwattr DW$224, DW_AT_low_pc(DW$L$_Registers$583$B)
    5690                      .dwattr DW$224, DW_AT_high_pc(DW$L$_Registers$583$E)
    5691              DW$225  .dwtag  DW_TAG_loop_range
    5692                      .dwattr DW$225, DW_AT_low_pc(DW$L$_Registers$354$B)
    5693                      .dwattr DW$225, DW_AT_high_pc(DW$L$_Registers$354$E)
    5694              DW$226  .dwtag  DW_TAG_loop_range
TMS320C2000 COFF Assembler PC v4.1.3 Thu Aug 18 12:16:25 2016

Tools Copyright (c) 1996-2006 Texas Instruments Incorporated
PCModBus.asm                                                         PAGE  126

    5695                      .dwattr DW$226, DW_AT_low_pc(DW$L$_Registers$521$B)
    5696                      .dwattr DW$226, DW_AT_high_pc(DW$L$_Registers$521$E)
    5697              DW$227  .dwtag  DW_TAG_loop_range
    5698                      .dwattr DW$227, DW_AT_low_pc(DW$L$_Registers$519$B)
    5699                      .dwattr DW$227, DW_AT_high_pc(DW$L$_Registers$519$E)
    5700              DW$228  .dwtag  DW_TAG_loop_range
    5701                      .dwattr DW$228, DW_AT_low_pc(DW$L$_Registers$491$B)
    5702                      .dwattr DW$228, DW_AT_high_pc(DW$L$_Registers$491$E)
    5703              DW$229  .dwtag  DW_TAG_loop_range
    5704                      .dwattr DW$229, DW_AT_low_pc(DW$L$_Registers$487$B)
    5705                      .dwattr DW$229, DW_AT_high_pc(DW$L$_Registers$487$E)
    5706              DW$230  .dwtag  DW_TAG_loop_range
    5707                      .dwattr DW$230, DW_AT_low_pc(DW$L$_Registers$488$B)
    5708                      .dwattr DW$230, DW_AT_high_pc(DW$L$_Registers$488$E)
    5709              DW$231  .dwtag  DW_TAG_loop_range
    5710                      .dwattr DW$231, DW_AT_low_pc(DW$L$_Registers$484$B)
    5711                      .dwattr DW$231, DW_AT_high_pc(DW$L$_Registers$484$E)
    5712              DW$232  .dwtag  DW_TAG_loop_range
    5713                      .dwattr DW$232, DW_AT_low_pc(DW$L$_Registers$485$B)
    5714                      .dwattr DW$232, DW_AT_high_pc(DW$L$_Registers$485$E)
    5715              DW$233  .dwtag  DW_TAG_loop_range
    5716                      .dwattr DW$233, DW_AT_low_pc(DW$L$_Registers$476$B)
    5717                      .dwattr DW$233, DW_AT_high_pc(DW$L$_Registers$476$E)
    5718              DW$234  .dwtag  DW_TAG_loop_range
    5719                      .dwattr DW$234, DW_AT_low_pc(DW$L$_Registers$471$B)
    5720                      .dwattr DW$234, DW_AT_high_pc(DW$L$_Registers$471$E)
    5721              DW$235  .dwtag  DW_TAG_loop_range
    5722                      .dwattr DW$235, DW_AT_low_pc(DW$L$_Registers$467$B)
    5723                      .dwattr DW$235, DW_AT_high_pc(DW$L$_Registers$467$E)
    5724              DW$236  .dwtag  DW_TAG_loop_range
    5725                      .dwattr DW$236, DW_AT_low_pc(DW$L$_Registers$468$B)
    5726                      .dwattr DW$236, DW_AT_high_pc(DW$L$_Registers$468$E)
    5727              DW$237  .dwtag  DW_TAG_loop_range
    5728                      .dwattr DW$237, DW_AT_low_pc(DW$L$_Registers$464$B)
    5729                      .dwattr DW$237, DW_AT_high_pc(DW$L$_Registers$464$E)
    5730              DW$238  .dwtag  DW_TAG_loop_range
    5731                      .dwattr DW$238, DW_AT_low_pc(DW$L$_Registers$351$B)
    5732                      .dwattr DW$238, DW_AT_high_pc(DW$L$_Registers$351$E)
    5733              DW$239  .dwtag  DW_TAG_loop_range
    5734                      .dwattr DW$239, DW_AT_low_pc(DW$L$_Registers$352$B)
    5735                      .dwattr DW$239, DW_AT_high_pc(DW$L$_Registers$352$E)
    5736              DW$240  .dwtag  DW_TAG_loop_range
    5737                      .dwattr DW$240, DW_AT_low_pc(DW$L$_Registers$353$B)
    5738                      .dwattr DW$240, DW_AT_high_pc(DW$L$_Registers$353$E)
    5739              DW$241  .dwtag  DW_TAG_loop_range
    5740                      .dwattr DW$241, DW_AT_low_pc(DW$L$_Registers$465$B)
    5741                      .dwattr DW$241, DW_AT_high_pc(DW$L$_Registers$465$E)
    5742              DW$242  .dwtag  DW_TAG_loop_range
    5743                      .dwattr DW$242, DW_AT_low_pc(DW$L$_Registers$460$B)
    5744                      .dwattr DW$242, DW_AT_high_pc(DW$L$_Registers$460$E)
    5745              DW$243  .dwtag  DW_TAG_loop_range
    5746                      .dwattr DW$243, DW_AT_low_pc(DW$L$_Registers$449$B)
    5747                      .dwattr DW$243, DW_AT_high_pc(DW$L$_Registers$449$E)
    5748              DW$244  .dwtag  DW_TAG_loop_range
    5749                      .dwattr DW$244, DW_AT_low_pc(DW$L$_Registers$436$B)
TMS320C2000 COFF Assembler PC v4.1.3 Thu Aug 18 12:16:25 2016

Tools Copyright (c) 1996-2006 Texas Instruments Incorporated
PCModBus.asm                                                         PAGE  127

    5750                      .dwattr DW$244, DW_AT_high_pc(DW$L$_Registers$436$E)
    5751              DW$245  .dwtag  DW_TAG_loop_range
    5752                      .dwattr DW$245, DW_AT_low_pc(DW$L$_Registers$407$B)
    5753                      .dwattr DW$245, DW_AT_high_pc(DW$L$_Registers$407$E)
    5754              DW$246  .dwtag  DW_TAG_loop_range
    5755                      .dwattr DW$246, DW_AT_low_pc(DW$L$_Registers$381$B)
    5756                      .dwattr DW$246, DW_AT_high_pc(DW$L$_Registers$381$E)
    5757              DW$247  .dwtag  DW_TAG_loop_range
    5758                      .dwattr DW$247, DW_AT_low_pc(DW$L$_Registers$455$B)
    5759                      .dwattr DW$247, DW_AT_high_pc(DW$L$_Registers$455$E)
    5760              DW$248  .dwtag  DW_TAG_loop_range
    5761                      .dwattr DW$248, DW_AT_low_pc(DW$L$_Registers$456$B)
    5762                      .dwattr DW$248, DW_AT_high_pc(DW$L$_Registers$456$E)
    5763              DW$249  .dwtag  DW_TAG_loop_range
    5764                      .dwattr DW$249, DW_AT_low_pc(DW$L$_Registers$457$B)
    5765                      .dwattr DW$249, DW_AT_high_pc(DW$L$_Registers$457$E)
    5766              DW$250  .dwtag  DW_TAG_loop_range
    5767                      .dwattr DW$250, DW_AT_low_pc(DW$L$_Registers$370$B)
    5768                      .dwattr DW$250, DW_AT_high_pc(DW$L$_Registers$370$E)
    5769              DW$251  .dwtag  DW_TAG_loop_range
    5770                      .dwattr DW$251, DW_AT_low_pc(DW$L$_Registers$458$B)
    5771                      .dwattr DW$251, DW_AT_high_pc(DW$L$_Registers$458$E)
    5772              DW$252  .dwtag  DW_TAG_loop_range
    5773                      .dwattr DW$252, DW_AT_low_pc(DW$L$_Registers$459$B)
    5774                      .dwattr DW$252, DW_AT_high_pc(DW$L$_Registers$459$E)
    5775              DW$253  .dwtag  DW_TAG_loop_range
    5776                      .dwattr DW$253, DW_AT_low_pc(DW$L$_Registers$333$B)
    5777                      .dwattr DW$253, DW_AT_high_pc(DW$L$_Registers$333$E)
    5778              DW$254  .dwtag  DW_TAG_loop_range
    5779                      .dwattr DW$254, DW_AT_low_pc(DW$L$_Registers$334$B)
    5780                      .dwattr DW$254, DW_AT_high_pc(DW$L$_Registers$334$E)
    5781              DW$255  .dwtag  DW_TAG_loop_range
    5782                      .dwattr DW$255, DW_AT_low_pc(DW$L$_Registers$335$B)
    5783                      .dwattr DW$255, DW_AT_high_pc(DW$L$_Registers$335$E)
    5784              DW$256  .dwtag  DW_TAG_loop_range
    5785                      .dwattr DW$256, DW_AT_low_pc(DW$L$_Registers$325$B)
    5786                      .dwattr DW$256, DW_AT_high_pc(DW$L$_Registers$325$E)
    5787              DW$257  .dwtag  DW_TAG_loop_range
    5788                      .dwattr DW$257, DW_AT_low_pc(DW$L$_Registers$326$B)
    5789                      .dwattr DW$257, DW_AT_high_pc(DW$L$_Registers$326$E)
    5790              DW$258  .dwtag  DW_TAG_loop_range
    5791                      .dwattr DW$258, DW_AT_low_pc(DW$L$_Registers$327$B)
    5792                      .dwattr DW$258, DW_AT_high_pc(DW$L$_Registers$327$E)
    5793              DW$259  .dwtag  DW_TAG_loop_range
    5794                      .dwattr DW$259, DW_AT_low_pc(DW$L$_Registers$328$B)
    5795                      .dwattr DW$259, DW_AT_high_pc(DW$L$_Registers$328$E)
    5796              DW$260  .dwtag  DW_TAG_loop_range
    5797                      .dwattr DW$260, DW_AT_low_pc(DW$L$_Registers$329$B)
    5798                      .dwattr DW$260, DW_AT_high_pc(DW$L$_Registers$329$E)
    5799              DW$261  .dwtag  DW_TAG_loop_range
    5800                      .dwattr DW$261, DW_AT_low_pc(DW$L$_Registers$330$B)
    5801                      .dwattr DW$261, DW_AT_high_pc(DW$L$_Registers$330$E)
    5802              DW$262  .dwtag  DW_TAG_loop_range
    5803                      .dwattr DW$262, DW_AT_low_pc(DW$L$_Registers$588$B)
    5804                      .dwattr DW$262, DW_AT_high_pc(DW$L$_Registers$588$E)
TMS320C2000 COFF Assembler PC v4.1.3 Thu Aug 18 12:16:25 2016

Tools Copyright (c) 1996-2006 Texas Instruments Incorporated
PCModBus.asm                                                         PAGE  128

    5805              DW$263  .dwtag  DW_TAG_loop_range
    5806                      .dwattr DW$263, DW_AT_low_pc(DW$L$_Registers$589$B)
    5807                      .dwattr DW$263, DW_AT_high_pc(DW$L$_Registers$589$E)
    5808              DW$264  .dwtag  DW_TAG_loop_range
    5809                      .dwattr DW$264, DW_AT_low_pc(DW$L$_Registers$567$B)
    5810                      .dwattr DW$264, DW_AT_high_pc(DW$L$_Registers$567$E)
    5811              DW$265  .dwtag  DW_TAG_loop_range
    5812                      .dwattr DW$265, DW_AT_low_pc(DW$L$_Registers$568$B)
    5813                      .dwattr DW$265, DW_AT_high_pc(DW$L$_Registers$568$E)
    5814              DW$266  .dwtag  DW_TAG_loop_range
    5815                      .dwattr DW$266, DW_AT_low_pc(DW$L$_Registers$316$B)
    5816                      .dwattr DW$266, DW_AT_high_pc(DW$L$_Registers$316$E)
    5817              DW$267  .dwtag  DW_TAG_loop_range
    5818                      .dwattr DW$267, DW_AT_low_pc(DW$L$_Registers$297$B)
    5819                      .dwattr DW$267, DW_AT_high_pc(DW$L$_Registers$297$E)
    5820              DW$268  .dwtag  DW_TAG_loop_range
    5821                      .dwattr DW$268, DW_AT_low_pc(DW$L$_Registers$298$B)
    5822                      .dwattr DW$268, DW_AT_high_pc(DW$L$_Registers$298$E)
    5823              DW$269  .dwtag  DW_TAG_loop_range
    5824                      .dwattr DW$269, DW_AT_low_pc(DW$L$_Registers$299$B)
    5825                      .dwattr DW$269, DW_AT_high_pc(DW$L$_Registers$299$E)
    5826              DW$270  .dwtag  DW_TAG_loop_range
    5827                      .dwattr DW$270, DW_AT_low_pc(DW$L$_Registers$317$B)
    5828                      .dwattr DW$270, DW_AT_high_pc(DW$L$_Registers$317$E)
    5829              DW$271  .dwtag  DW_TAG_loop_range
    5830                      .dwattr DW$271, DW_AT_low_pc(DW$L$_Registers$318$B)
    5831                      .dwattr DW$271, DW_AT_high_pc(DW$L$_Registers$318$E)
    5832              DW$272  .dwtag  DW_TAG_loop_range
    5833                      .dwattr DW$272, DW_AT_low_pc(DW$L$_Registers$319$B)
    5834                      .dwattr DW$272, DW_AT_high_pc(DW$L$_Registers$319$E)
    5835              DW$273  .dwtag  DW_TAG_loop_range
    5836                      .dwattr DW$273, DW_AT_low_pc(DW$L$_Registers$569$B)
    5837                      .dwattr DW$273, DW_AT_high_pc(DW$L$_Registers$569$E)
    5838              DW$274  .dwtag  DW_TAG_loop_range
    5839                      .dwattr DW$274, DW_AT_low_pc(DW$L$_Registers$320$B)
    5840                      .dwattr DW$274, DW_AT_high_pc(DW$L$_Registers$320$E)
    5841              DW$275  .dwtag  DW_TAG_loop_range
    5842                      .dwattr DW$275, DW_AT_low_pc(DW$L$_Registers$590$B)
    5843                      .dwattr DW$275, DW_AT_high_pc(DW$L$_Registers$590$E)
    5844              DW$276  .dwtag  DW_TAG_loop_range
    5845                      .dwattr DW$276, DW_AT_low_pc(DW$L$_Registers$306$B)
    5846                      .dwattr DW$276, DW_AT_high_pc(DW$L$_Registers$306$E)
    5847              DW$277  .dwtag  DW_TAG_loop_range
    5848                      .dwattr DW$277, DW_AT_low_pc(DW$L$_Registers$307$B)
    5849                      .dwattr DW$277, DW_AT_high_pc(DW$L$_Registers$307$E)
    5850              DW$278  .dwtag  DW_TAG_loop_range
    5851                      .dwattr DW$278, DW_AT_low_pc(DW$L$_Registers$308$B)
    5852                      .dwattr DW$278, DW_AT_high_pc(DW$L$_Registers$308$E)
    5853              DW$279  .dwtag  DW_TAG_loop_range
    5854                      .dwattr DW$279, DW_AT_low_pc(DW$L$_Registers$305$B)
    5855                      .dwattr DW$279, DW_AT_high_pc(DW$L$_Registers$305$E)
    5856              DW$280  .dwtag  DW_TAG_loop_range
    5857                      .dwattr DW$280, DW_AT_low_pc(DW$L$_Registers$309$B)
    5858                      .dwattr DW$280, DW_AT_high_pc(DW$L$_Registers$309$E)
    5859              DW$281  .dwtag  DW_TAG_loop_range
TMS320C2000 COFF Assembler PC v4.1.3 Thu Aug 18 12:16:25 2016

Tools Copyright (c) 1996-2006 Texas Instruments Incorporated
PCModBus.asm                                                         PAGE  129

    5860                      .dwattr DW$281, DW_AT_low_pc(DW$L$_Registers$300$B)
    5861                      .dwattr DW$281, DW_AT_high_pc(DW$L$_Registers$300$E)
    5862              DW$282  .dwtag  DW_TAG_loop_range
    5863                      .dwattr DW$282, DW_AT_low_pc(DW$L$_Registers$301$B)
    5864                      .dwattr DW$282, DW_AT_high_pc(DW$L$_Registers$301$E)
    5865              DW$283  .dwtag  DW_TAG_loop_range
    5866                      .dwattr DW$283, DW_AT_low_pc(DW$L$_Registers$302$B)
    5867                      .dwattr DW$283, DW_AT_high_pc(DW$L$_Registers$302$E)
    5868              DW$284  .dwtag  DW_TAG_loop_range
    5869                      .dwattr DW$284, DW_AT_low_pc(DW$L$_Registers$303$B)
    5870                      .dwattr DW$284, DW_AT_high_pc(DW$L$_Registers$303$E)
    5871              DW$285  .dwtag  DW_TAG_loop_range
    5872                      .dwattr DW$285, DW_AT_low_pc(DW$L$_Registers$304$B)
    5873                      .dwattr DW$285, DW_AT_high_pc(DW$L$_Registers$304$E)
    5874              DW$286  .dwtag  DW_TAG_loop_range
    5875                      .dwattr DW$286, DW_AT_low_pc(DW$L$_Registers$310$B)
    5876                      .dwattr DW$286, DW_AT_high_pc(DW$L$_Registers$310$E)
    5877              DW$287  .dwtag  DW_TAG_loop_range
    5878                      .dwattr DW$287, DW_AT_low_pc(DW$L$_Registers$311$B)
    5879                      .dwattr DW$287, DW_AT_high_pc(DW$L$_Registers$311$E)
    5880              DW$288  .dwtag  DW_TAG_loop_range
    5881                      .dwattr DW$288, DW_AT_low_pc(DW$L$_Registers$312$B)
    5882                      .dwattr DW$288, DW_AT_high_pc(DW$L$_Registers$312$E)
    5883              DW$289  .dwtag  DW_TAG_loop_range
    5884                      .dwattr DW$289, DW_AT_low_pc(DW$L$_Registers$313$B)
    5885                      .dwattr DW$289, DW_AT_high_pc(DW$L$_Registers$313$E)
    5886              DW$290  .dwtag  DW_TAG_loop_range
    5887                      .dwattr DW$290, DW_AT_low_pc(DW$L$_Registers$314$B)
    5888                      .dwattr DW$290, DW_AT_high_pc(DW$L$_Registers$314$E)
    5889              DW$291  .dwtag  DW_TAG_loop_range
    5890                      .dwattr DW$291, DW_AT_low_pc(DW$L$_Registers$346$B)
    5891                      .dwattr DW$291, DW_AT_high_pc(DW$L$_Registers$346$E)
    5892              DW$292  .dwtag  DW_TAG_loop_range
    5893                      .dwattr DW$292, DW_AT_low_pc(DW$L$_Registers$347$B)
    5894                      .dwattr DW$292, DW_AT_high_pc(DW$L$_Registers$347$E)
    5895              DW$293  .dwtag  DW_TAG_loop_range
    5896                      .dwattr DW$293, DW_AT_low_pc(DW$L$_Registers$591$B)
    5897                      .dwattr DW$293, DW_AT_high_pc(DW$L$_Registers$591$E)
    5898              DW$294  .dwtag  DW_TAG_loop_range
    5899                      .dwattr DW$294, DW_AT_low_pc(DW$L$_Registers$584$B)
    5900                      .dwattr DW$294, DW_AT_high_pc(DW$L$_Registers$584$E)
    5901              DW$295  .dwtag  DW_TAG_loop_range
    5902                      .dwattr DW$295, DW_AT_low_pc(DW$L$_Registers$581$B)
    5903                      .dwattr DW$295, DW_AT_high_pc(DW$L$_Registers$581$E)
    5904              DW$296  .dwtag  DW_TAG_loop_range
    5905                      .dwattr DW$296, DW_AT_low_pc(DW$L$_Registers$578$B)
    5906                      .dwattr DW$296, DW_AT_high_pc(DW$L$_Registers$578$E)
    5907              DW$297  .dwtag  DW_TAG_loop_range
    5908                      .dwattr DW$297, DW_AT_low_pc(DW$L$_Registers$572$B)
    5909                      .dwattr DW$297, DW_AT_high_pc(DW$L$_Registers$572$E)
    5910              DW$298  .dwtag  DW_TAG_loop_range
    5911                      .dwattr DW$298, DW_AT_low_pc(DW$L$_Registers$573$B)
    5912                      .dwattr DW$298, DW_AT_high_pc(DW$L$_Registers$573$E)
    5913              DW$299  .dwtag  DW_TAG_loop_range
    5914                      .dwattr DW$299, DW_AT_low_pc(DW$L$_Registers$579$B)
TMS320C2000 COFF Assembler PC v4.1.3 Thu Aug 18 12:16:25 2016

Tools Copyright (c) 1996-2006 Texas Instruments Incorporated
PCModBus.asm                                                         PAGE  130

    5915                      .dwattr DW$299, DW_AT_high_pc(DW$L$_Registers$579$E)
    5916              DW$300  .dwtag  DW_TAG_loop_range
    5917                      .dwattr DW$300, DW_AT_low_pc(DW$L$_Registers$582$B)
    5918                      .dwattr DW$300, DW_AT_high_pc(DW$L$_Registers$582$E)
    5919              DW$301  .dwtag  DW_TAG_loop_range
    5920                      .dwattr DW$301, DW_AT_low_pc(DW$L$_Registers$368$B)
    5921                      .dwattr DW$301, DW_AT_high_pc(DW$L$_Registers$368$E)
    5922              DW$302  .dwtag  DW_TAG_loop_range
    5923                      .dwattr DW$302, DW_AT_low_pc(DW$L$_Registers$294$B)
    5924                      .dwattr DW$302, DW_AT_high_pc(DW$L$_Registers$294$E)
    5925              DW$303  .dwtag  DW_TAG_loop_range
    5926                      .dwattr DW$303, DW_AT_low_pc(DW$L$_Registers$295$B)
    5927                      .dwattr DW$303, DW_AT_high_pc(DW$L$_Registers$295$E)
    5928              DW$304  .dwtag  DW_TAG_loop_range
    5929                      .dwattr DW$304, DW_AT_low_pc(DW$L$_Registers$337$B)
    5930                      .dwattr DW$304, DW_AT_high_pc(DW$L$_Registers$337$E)
    5931              DW$305  .dwtag  DW_TAG_loop_range
    5932                      .dwattr DW$305, DW_AT_low_pc(DW$L$_Registers$369$B)
    5933                      .dwattr DW$305, DW_AT_high_pc(DW$L$_Registers$369$E)
    5934              DW$306  .dwtag  DW_TAG_loop_range
    5935                      .dwattr DW$306, DW_AT_low_pc(DW$L$_Registers$388$B)
    5936                      .dwattr DW$306, DW_AT_high_pc(DW$L$_Registers$388$E)
    5937              DW$307  .dwtag  DW_TAG_loop_range
    5938                      .dwattr DW$307, DW_AT_low_pc(DW$L$_Registers$514$B)
    5939                      .dwattr DW$307, DW_AT_high_pc(DW$L$_Registers$514$E)
    5940              DW$308  .dwtag  DW_TAG_loop_range
    5941                      .dwattr DW$308, DW_AT_low_pc(DW$L$_Registers$530$B)
    5942                      .dwattr DW$308, DW_AT_high_pc(DW$L$_Registers$530$E)
    5943              DW$309  .dwtag  DW_TAG_loop_range
    5944                      .dwattr DW$309, DW_AT_low_pc(DW$L$_Registers$532$B)
    5945                      .dwattr DW$309, DW_AT_high_pc(DW$L$_Registers$532$E)
    5946              DW$310  .dwtag  DW_TAG_loop_range
    5947                      .dwattr DW$310, DW_AT_low_pc(DW$L$_Registers$534$B)
    5948                      .dwattr DW$310, DW_AT_high_pc(DW$L$_Registers$534$E)
    5949              DW$311  .dwtag  DW_TAG_loop_range
    5950                      .dwattr DW$311, DW_AT_low_pc(DW$L$_Registers$559$B)
    5951                      .dwattr DW$311, DW_AT_high_pc(DW$L$_Registers$559$E)
    5952              DW$312  .dwtag  DW_TAG_loop_range
    5953                      .dwattr DW$312, DW_AT_low_pc(DW$L$_Registers$574$B)
    5954                      .dwattr DW$312, DW_AT_high_pc(DW$L$_Registers$574$E)
    5955              DW$313  .dwtag  DW_TAG_loop_range
    5956                      .dwattr DW$313, DW_AT_low_pc(DW$L$_Registers$535$B)
    5957                      .dwattr DW$313, DW_AT_high_pc(DW$L$_Registers$535$E)
    5958              DW$314  .dwtag  DW_TAG_loop_range
    5959                      .dwattr DW$314, DW_AT_low_pc(DW$L$_Registers$523$B)
    5960                      .dwattr DW$314, DW_AT_high_pc(DW$L$_Registers$523$E)
    5961              DW$315  .dwtag  DW_TAG_loop_range
    5962                      .dwattr DW$315, DW_AT_low_pc(DW$L$_Registers$508$B)
    5963                      .dwattr DW$315, DW_AT_high_pc(DW$L$_Registers$508$E)
    5964              DW$316  .dwtag  DW_TAG_loop_range
    5965                      .dwattr DW$316, DW_AT_low_pc(DW$L$_Registers$501$B)
    5966                      .dwattr DW$316, DW_AT_high_pc(DW$L$_Registers$501$E)
    5967              DW$317  .dwtag  DW_TAG_loop_range
    5968                      .dwattr DW$317, DW_AT_low_pc(DW$L$_Registers$498$B)
    5969                      .dwattr DW$317, DW_AT_high_pc(DW$L$_Registers$498$E)
TMS320C2000 COFF Assembler PC v4.1.3 Thu Aug 18 12:16:25 2016

Tools Copyright (c) 1996-2006 Texas Instruments Incorporated
PCModBus.asm                                                         PAGE  131

    5970              DW$318  .dwtag  DW_TAG_loop_range
    5971                      .dwattr DW$318, DW_AT_low_pc(DW$L$_Registers$495$B)
    5972                      .dwattr DW$318, DW_AT_high_pc(DW$L$_Registers$495$E)
    5973              DW$319  .dwtag  DW_TAG_loop_range
    5974                      .dwattr DW$319, DW_AT_low_pc(DW$L$_Registers$480$B)
    5975                      .dwattr DW$319, DW_AT_high_pc(DW$L$_Registers$480$E)
    5976              DW$320  .dwtag  DW_TAG_loop_range
    5977                      .dwattr DW$320, DW_AT_low_pc(DW$L$_Registers$475$B)
    5978                      .dwattr DW$320, DW_AT_high_pc(DW$L$_Registers$475$E)
    5979              DW$321  .dwtag  DW_TAG_loop_range
    5980                      .dwattr DW$321, DW_AT_low_pc(DW$L$_Registers$470$B)
    5981                      .dwattr DW$321, DW_AT_high_pc(DW$L$_Registers$470$E)
    5982              DW$322  .dwtag  DW_TAG_loop_range
    5983                      .dwattr DW$322, DW_AT_low_pc(DW$L$_Registers$448$B)
    5984                      .dwattr DW$322, DW_AT_high_pc(DW$L$_Registers$448$E)
    5985              DW$323  .dwtag  DW_TAG_loop_range
    5986                      .dwattr DW$323, DW_AT_low_pc(DW$L$_Registers$445$B)
    5987                      .dwattr DW$323, DW_AT_high_pc(DW$L$_Registers$445$E)
    5988              DW$324  .dwtag  DW_TAG_loop_range
    5989                      .dwattr DW$324, DW_AT_low_pc(DW$L$_Registers$441$B)
    5990                      .dwattr DW$324, DW_AT_high_pc(DW$L$_Registers$441$E)
    5991              DW$325  .dwtag  DW_TAG_loop_range
    5992                      .dwattr DW$325, DW_AT_low_pc(DW$L$_Registers$435$B)
    5993                      .dwattr DW$325, DW_AT_high_pc(DW$L$_Registers$435$E)
    5994              DW$326  .dwtag  DW_TAG_loop_range
    5995                      .dwattr DW$326, DW_AT_low_pc(DW$L$_Registers$432$B)
    5996                      .dwattr DW$326, DW_AT_high_pc(DW$L$_Registers$432$E)
    5997              DW$327  .dwtag  DW_TAG_loop_range
    5998                      .dwattr DW$327, DW_AT_low_pc(DW$L$_Registers$418$B)
    5999                      .dwattr DW$327, DW_AT_high_pc(DW$L$_Registers$418$E)
    6000              DW$328  .dwtag  DW_TAG_loop_range
    6001                      .dwattr DW$328, DW_AT_low_pc(DW$L$_Registers$415$B)
    6002                      .dwattr DW$328, DW_AT_high_pc(DW$L$_Registers$415$E)
    6003              DW$329  .dwtag  DW_TAG_loop_range
    6004                      .dwattr DW$329, DW_AT_low_pc(DW$L$_Registers$396$B)
    6005                      .dwattr DW$329, DW_AT_high_pc(DW$L$_Registers$396$E)
    6006              DW$330  .dwtag  DW_TAG_loop_range
    6007                      .dwattr DW$330, DW_AT_low_pc(DW$L$_Registers$397$B)
    6008                      .dwattr DW$330, DW_AT_high_pc(DW$L$_Registers$397$E)
    6009              DW$331  .dwtag  DW_TAG_loop_range
    6010                      .dwattr DW$331, DW_AT_low_pc(DW$L$_Registers$402$B)
    6011                      .dwattr DW$331, DW_AT_high_pc(DW$L$_Registers$402$E)
    6012              DW$332  .dwtag  DW_TAG_loop_range
    6013                      .dwattr DW$332, DW_AT_low_pc(DW$L$_Registers$408$B)
    6014                      .dwattr DW$332, DW_AT_high_pc(DW$L$_Registers$408$E)
    6015              DW$333  .dwtag  DW_TAG_loop_range
    6016                      .dwattr DW$333, DW_AT_low_pc(DW$L$_Registers$384$B)
    6017                      .dwattr DW$333, DW_AT_high_pc(DW$L$_Registers$384$E)
    6018              DW$334  .dwtag  DW_TAG_loop_range
    6019                      .dwattr DW$334, DW_AT_low_pc(DW$L$_Registers$365$B)
    6020                      .dwattr DW$334, DW_AT_high_pc(DW$L$_Registers$365$E)
    6021              DW$335  .dwtag  DW_TAG_loop_range
    6022                      .dwattr DW$335, DW_AT_low_pc(DW$L$_Registers$362$B)
    6023                      .dwattr DW$335, DW_AT_high_pc(DW$L$_Registers$362$E)
    6024              DW$336  .dwtag  DW_TAG_loop_range
TMS320C2000 COFF Assembler PC v4.1.3 Thu Aug 18 12:16:25 2016

Tools Copyright (c) 1996-2006 Texas Instruments Incorporated
PCModBus.asm                                                         PAGE  132

    6025                      .dwattr DW$336, DW_AT_low_pc(DW$L$_Registers$355$B)
    6026                      .dwattr DW$336, DW_AT_high_pc(DW$L$_Registers$355$E)
    6027              DW$337  .dwtag  DW_TAG_loop_range
    6028                      .dwattr DW$337, DW_AT_low_pc(DW$L$_Registers$343$B)
    6029                      .dwattr DW$337, DW_AT_high_pc(DW$L$_Registers$343$E)
    6030              DW$338  .dwtag  DW_TAG_loop_range
    6031                      .dwattr DW$338, DW_AT_low_pc(DW$L$_Registers$322$B)
    6032                      .dwattr DW$338, DW_AT_high_pc(DW$L$_Registers$322$E)
    6033              DW$339  .dwtag  DW_TAG_loop_range
    6034                      .dwattr DW$339, DW_AT_low_pc(DW$L$_Registers$285$B)
    6035                      .dwattr DW$339, DW_AT_high_pc(DW$L$_Registers$285$E)
    6036              DW$340  .dwtag  DW_TAG_loop_range
    6037                      .dwattr DW$340, DW_AT_low_pc(DW$L$_Registers$286$B)
    6038                      .dwattr DW$340, DW_AT_high_pc(DW$L$_Registers$286$E)
    6039              DW$341  .dwtag  DW_TAG_loop_range
    6040                      .dwattr DW$341, DW_AT_low_pc(DW$L$_Registers$293$B)
    6041                      .dwattr DW$341, DW_AT_high_pc(DW$L$_Registers$293$E)
    6042              DW$342  .dwtag  DW_TAG_loop_range
    6043                      .dwattr DW$342, DW_AT_low_pc(DW$L$_Registers$287$B)
    6044                      .dwattr DW$342, DW_AT_high_pc(DW$L$_Registers$287$E)
    6045              DW$343  .dwtag  DW_TAG_loop_range
    6046                      .dwattr DW$343, DW_AT_low_pc(DW$L$_Registers$561$B)
    6047                      .dwattr DW$343, DW_AT_high_pc(DW$L$_Registers$561$E)
    6048              DW$344  .dwtag  DW_TAG_loop_range
    6049                      .dwattr DW$344, DW_AT_low_pc(DW$L$_Registers$282$B)
    6050                      .dwattr DW$344, DW_AT_high_pc(DW$L$_Registers$282$E)
    6051              DW$345  .dwtag  DW_TAG_loop_range
    6052                      .dwattr DW$345, DW_AT_low_pc(DW$L$_Registers$283$B)
    6053                      .dwattr DW$345, DW_AT_high_pc(DW$L$_Registers$283$E)
    6054              DW$346  .dwtag  DW_TAG_loop_range
    6055                      .dwattr DW$346, DW_AT_low_pc(DW$L$_Registers$284$B)
    6056                      .dwattr DW$346, DW_AT_high_pc(DW$L$_Registers$284$E)
    6057              DW$347  .dwtag  DW_TAG_loop_range
    6058                      .dwattr DW$347, DW_AT_low_pc(DW$L$_Registers$288$B)
    6059                      .dwattr DW$347, DW_AT_high_pc(DW$L$_Registers$288$E)
    6060              DW$348  .dwtag  DW_TAG_loop_range
    6061                      .dwattr DW$348, DW_AT_low_pc(DW$L$_Registers$289$B)
    6062                      .dwattr DW$348, DW_AT_high_pc(DW$L$_Registers$289$E)
    6063              DW$349  .dwtag  DW_TAG_loop_range
    6064                      .dwattr DW$349, DW_AT_low_pc(DW$L$_Registers$539$B)
    6065                      .dwattr DW$349, DW_AT_high_pc(DW$L$_Registers$539$E)
    6066              DW$350  .dwtag  DW_TAG_loop_range
    6067                      .dwattr DW$350, DW_AT_low_pc(DW$L$_Registers$224$B)
    6068                      .dwattr DW$350, DW_AT_high_pc(DW$L$_Registers$224$E)
    6069              DW$351  .dwtag  DW_TAG_loop_range
    6070                      .dwattr DW$351, DW_AT_low_pc(DW$L$_Registers$225$B)
    6071                      .dwattr DW$351, DW_AT_high_pc(DW$L$_Registers$225$E)
    6072              DW$352  .dwtag  DW_TAG_loop_range
    6073                      .dwattr DW$352, DW_AT_low_pc(DW$L$_Registers$226$B)
    6074                      .dwattr DW$352, DW_AT_high_pc(DW$L$_Registers$226$E)
    6075              DW$353  .dwtag  DW_TAG_loop_range
    6076                      .dwattr DW$353, DW_AT_low_pc(DW$L$_Registers$237$B)
    6077                      .dwattr DW$353, DW_AT_high_pc(DW$L$_Registers$237$E)
    6078              DW$354  .dwtag  DW_TAG_loop_range
    6079                      .dwattr DW$354, DW_AT_low_pc(DW$L$_Registers$239$B)
TMS320C2000 COFF Assembler PC v4.1.3 Thu Aug 18 12:16:25 2016

Tools Copyright (c) 1996-2006 Texas Instruments Incorporated
PCModBus.asm                                                         PAGE  133

    6080                      .dwattr DW$354, DW_AT_high_pc(DW$L$_Registers$239$E)
    6081              DW$355  .dwtag  DW_TAG_loop_range
    6082                      .dwattr DW$355, DW_AT_low_pc(DW$L$_Registers$262$B)
    6083                      .dwattr DW$355, DW_AT_high_pc(DW$L$_Registers$262$E)
    6084              DW$356  .dwtag  DW_TAG_loop_range
    6085                      .dwattr DW$356, DW_AT_low_pc(DW$L$_Registers$263$B)
    6086                      .dwattr DW$356, DW_AT_high_pc(DW$L$_Registers$263$E)
    6087              DW$357  .dwtag  DW_TAG_loop_range
    6088                      .dwattr DW$357, DW_AT_low_pc(DW$L$_Registers$264$B)
    6089                      .dwattr DW$357, DW_AT_high_pc(DW$L$_Registers$264$E)
    6090              DW$358  .dwtag  DW_TAG_loop_range
    6091                      .dwattr DW$358, DW_AT_low_pc(DW$L$_Registers$265$B)
    6092                      .dwattr DW$358, DW_AT_high_pc(DW$L$_Registers$265$E)
    6093              DW$359  .dwtag  DW_TAG_loop_range
    6094                      .dwattr DW$359, DW_AT_low_pc(DW$L$_Registers$266$B)
    6095                      .dwattr DW$359, DW_AT_high_pc(DW$L$_Registers$266$E)
    6096              DW$360  .dwtag  DW_TAG_loop_range
    6097                      .dwattr DW$360, DW_AT_low_pc(DW$L$_Registers$267$B)
    6098                      .dwattr DW$360, DW_AT_high_pc(DW$L$_Registers$267$E)
    6099              DW$361  .dwtag  DW_TAG_loop_range
    6100                      .dwattr DW$361, DW_AT_low_pc(DW$L$_Registers$268$B)
    6101                      .dwattr DW$361, DW_AT_high_pc(DW$L$_Registers$268$E)
    6102              DW$362  .dwtag  DW_TAG_loop_range
    6103                      .dwattr DW$362, DW_AT_low_pc(DW$L$_Registers$269$B)
    6104                      .dwattr DW$362, DW_AT_high_pc(DW$L$_Registers$269$E)
    6105              DW$363  .dwtag  DW_TAG_loop_range
    6106                      .dwattr DW$363, DW_AT_low_pc(DW$L$_Registers$270$B)
    6107                      .dwattr DW$363, DW_AT_high_pc(DW$L$_Registers$270$E)
    6108              DW$364  .dwtag  DW_TAG_loop_range
    6109                      .dwattr DW$364, DW_AT_low_pc(DW$L$_Registers$271$B)
    6110                      .dwattr DW$364, DW_AT_high_pc(DW$L$_Registers$271$E)
    6111              DW$365  .dwtag  DW_TAG_loop_range
    6112                      .dwattr DW$365, DW_AT_low_pc(DW$L$_Registers$272$B)
    6113                      .dwattr DW$365, DW_AT_high_pc(DW$L$_Registers$272$E)
    6114              DW$366  .dwtag  DW_TAG_loop_range
    6115                      .dwattr DW$366, DW_AT_low_pc(DW$L$_Registers$273$B)
    6116                      .dwattr DW$366, DW_AT_high_pc(DW$L$_Registers$273$E)
    6117              DW$367  .dwtag  DW_TAG_loop_range
    6118                      .dwattr DW$367, DW_AT_low_pc(DW$L$_Registers$274$B)
    6119                      .dwattr DW$367, DW_AT_high_pc(DW$L$_Registers$274$E)
    6120              DW$368  .dwtag  DW_TAG_loop_range
    6121                      .dwattr DW$368, DW_AT_low_pc(DW$L$_Registers$275$B)
    6122                      .dwattr DW$368, DW_AT_high_pc(DW$L$_Registers$275$E)
    6123              DW$369  .dwtag  DW_TAG_loop_range
    6124                      .dwattr DW$369, DW_AT_low_pc(DW$L$_Registers$276$B)
    6125                      .dwattr DW$369, DW_AT_high_pc(DW$L$_Registers$276$E)
    6126              DW$370  .dwtag  DW_TAG_loop_range
    6127                      .dwattr DW$370, DW_AT_low_pc(DW$L$_Registers$277$B)
    6128                      .dwattr DW$370, DW_AT_high_pc(DW$L$_Registers$277$E)
    6129              DW$371  .dwtag  DW_TAG_loop_range
    6130                      .dwattr DW$371, DW_AT_low_pc(DW$L$_Registers$278$B)
    6131                      .dwattr DW$371, DW_AT_high_pc(DW$L$_Registers$278$E)
    6132              DW$372  .dwtag  DW_TAG_loop_range
    6133                      .dwattr DW$372, DW_AT_low_pc(DW$L$_Registers$279$B)
    6134                      .dwattr DW$372, DW_AT_high_pc(DW$L$_Registers$279$E)
TMS320C2000 COFF Assembler PC v4.1.3 Thu Aug 18 12:16:25 2016

Tools Copyright (c) 1996-2006 Texas Instruments Incorporated
PCModBus.asm                                                         PAGE  134

    6135              DW$373  .dwtag  DW_TAG_loop_range
    6136                      .dwattr DW$373, DW_AT_low_pc(DW$L$_Registers$280$B)
    6137                      .dwattr DW$373, DW_AT_high_pc(DW$L$_Registers$280$E)
    6138              DW$374  .dwtag  DW_TAG_loop_range
    6139                      .dwattr DW$374, DW_AT_low_pc(DW$L$_Registers$281$B)
    6140                      .dwattr DW$374, DW_AT_high_pc(DW$L$_Registers$281$E)
    6141              DW$375  .dwtag  DW_TAG_loop_range
    6142                      .dwattr DW$375, DW_AT_low_pc(DW$L$_Registers$290$B)
    6143                      .dwattr DW$375, DW_AT_high_pc(DW$L$_Registers$290$E)
    6144              DW$376  .dwtag  DW_TAG_loop_range
    6145                      .dwattr DW$376, DW_AT_low_pc(DW$L$_Registers$323$B)
    6146                      .dwattr DW$376, DW_AT_high_pc(DW$L$_Registers$323$E)
    6147              DW$377  .dwtag  DW_TAG_loop_range
    6148                      .dwattr DW$377, DW_AT_low_pc(DW$L$_Registers$338$B)
    6149                      .dwattr DW$377, DW_AT_high_pc(DW$L$_Registers$338$E)
    6150              DW$378  .dwtag  DW_TAG_loop_range
    6151                      .dwattr DW$378, DW_AT_low_pc(DW$L$_Registers$339$B)
    6152                      .dwattr DW$378, DW_AT_high_pc(DW$L$_Registers$339$E)
    6153              DW$379  .dwtag  DW_TAG_loop_range
    6154                      .dwattr DW$379, DW_AT_low_pc(DW$L$_Registers$340$B)
    6155                      .dwattr DW$379, DW_AT_high_pc(DW$L$_Registers$340$E)
    6156              DW$380  .dwtag  DW_TAG_loop_range
    6157                      .dwattr DW$380, DW_AT_low_pc(DW$L$_Registers$341$B)
    6158                      .dwattr DW$380, DW_AT_high_pc(DW$L$_Registers$341$E)
    6159              DW$381  .dwtag  DW_TAG_loop_range
    6160                      .dwattr DW$381, DW_AT_low_pc(DW$L$_Registers$342$B)
    6161                      .dwattr DW$381, DW_AT_high_pc(DW$L$_Registers$342$E)
    6162              DW$382  .dwtag  DW_TAG_loop_range
    6163                      .dwattr DW$382, DW_AT_low_pc(DW$L$_Registers$344$B)
    6164                      .dwattr DW$382, DW_AT_high_pc(DW$L$_Registers$344$E)
    6165              DW$383  .dwtag  DW_TAG_loop_range
    6166                      .dwattr DW$383, DW_AT_low_pc(DW$L$_Registers$356$B)
    6167                      .dwattr DW$383, DW_AT_high_pc(DW$L$_Registers$356$E)
    6168              DW$384  .dwtag  DW_TAG_loop_range
    6169                      .dwattr DW$384, DW_AT_low_pc(DW$L$_Registers$358$B)
    6170                      .dwattr DW$384, DW_AT_high_pc(DW$L$_Registers$358$E)
    6171              DW$385  .dwtag  DW_TAG_loop_range
    6172                      .dwattr DW$385, DW_AT_low_pc(DW$L$_Registers$363$B)
    6173                      .dwattr DW$385, DW_AT_high_pc(DW$L$_Registers$363$E)
    6174              DW$386  .dwtag  DW_TAG_loop_range
    6175                      .dwattr DW$386, DW_AT_low_pc(DW$L$_Registers$366$B)
    6176                      .dwattr DW$386, DW_AT_high_pc(DW$L$_Registers$366$E)
    6177              DW$387  .dwtag  DW_TAG_loop_range
    6178                      .dwattr DW$387, DW_AT_low_pc(DW$L$_Registers$385$B)
    6179                      .dwattr DW$387, DW_AT_high_pc(DW$L$_Registers$385$E)
    6180              DW$388  .dwtag  DW_TAG_loop_range
    6181                      .dwattr DW$388, DW_AT_low_pc(DW$L$_Registers$390$B)
    6182                      .dwattr DW$388, DW_AT_high_pc(DW$L$_Registers$390$E)
    6183              DW$389  .dwtag  DW_TAG_loop_range
    6184                      .dwattr DW$389, DW_AT_low_pc(DW$L$_Registers$392$B)
    6185                      .dwattr DW$389, DW_AT_high_pc(DW$L$_Registers$392$E)
    6186              DW$390  .dwtag  DW_TAG_loop_range
    6187                      .dwattr DW$390, DW_AT_low_pc(DW$L$_Registers$414$B)
    6188                      .dwattr DW$390, DW_AT_high_pc(DW$L$_Registers$414$E)
    6189              DW$391  .dwtag  DW_TAG_loop_range
TMS320C2000 COFF Assembler PC v4.1.3 Thu Aug 18 12:16:25 2016

Tools Copyright (c) 1996-2006 Texas Instruments Incorporated
PCModBus.asm                                                         PAGE  135

    6190                      .dwattr DW$391, DW_AT_low_pc(DW$L$_Registers$416$B)
    6191                      .dwattr DW$391, DW_AT_high_pc(DW$L$_Registers$416$E)
    6192              DW$392  .dwtag  DW_TAG_loop_range
    6193                      .dwattr DW$392, DW_AT_low_pc(DW$L$_Registers$419$B)
    6194                      .dwattr DW$392, DW_AT_high_pc(DW$L$_Registers$419$E)
    6195              DW$393  .dwtag  DW_TAG_loop_range
    6196                      .dwattr DW$393, DW_AT_low_pc(DW$L$_Registers$425$B)
    6197                      .dwattr DW$393, DW_AT_high_pc(DW$L$_Registers$425$E)
    6198              DW$394  .dwtag  DW_TAG_loop_range
    6199                      .dwattr DW$394, DW_AT_low_pc(DW$L$_Registers$433$B)
    6200                      .dwattr DW$394, DW_AT_high_pc(DW$L$_Registers$433$E)
    6201              DW$395  .dwtag  DW_TAG_loop_range
    6202                      .dwattr DW$395, DW_AT_low_pc(DW$L$_Registers$440$B)
    6203                      .dwattr DW$395, DW_AT_high_pc(DW$L$_Registers$440$E)
    6204              DW$396  .dwtag  DW_TAG_loop_range
    6205                      .dwattr DW$396, DW_AT_low_pc(DW$L$_Registers$442$B)
    6206                      .dwattr DW$396, DW_AT_high_pc(DW$L$_Registers$442$E)
    6207              DW$397  .dwtag  DW_TAG_loop_range
    6208                      .dwattr DW$397, DW_AT_low_pc(DW$L$_Registers$446$B)
    6209                      .dwattr DW$397, DW_AT_high_pc(DW$L$_Registers$446$E)
    6210              DW$398  .dwtag  DW_TAG_loop_range
    6211                      .dwattr DW$398, DW_AT_low_pc(DW$L$_Registers$452$B)
    6212                      .dwattr DW$398, DW_AT_high_pc(DW$L$_Registers$452$E)
    6213              DW$399  .dwtag  DW_TAG_loop_range
    6214                      .dwattr DW$399, DW_AT_low_pc(DW$L$_Registers$453$B)
    6215                      .dwattr DW$399, DW_AT_high_pc(DW$L$_Registers$453$E)
    6216              DW$400  .dwtag  DW_TAG_loop_range
    6217                      .dwattr DW$400, DW_AT_low_pc(DW$L$_Registers$454$B)
    6218                      .dwattr DW$400, DW_AT_high_pc(DW$L$_Registers$454$E)
    6219              DW$401  .dwtag  DW_TAG_loop_range
    6220                      .dwattr DW$401, DW_AT_low_pc(DW$L$_Registers$474$B)
    6221                      .dwattr DW$401, DW_AT_high_pc(DW$L$_Registers$474$E)
    6222              DW$402  .dwtag  DW_TAG_loop_range
    6223                      .dwattr DW$402, DW_AT_low_pc(DW$L$_Registers$479$B)
    6224                      .dwattr DW$402, DW_AT_high_pc(DW$L$_Registers$479$E)
    6225              DW$403  .dwtag  DW_TAG_loop_range
    6226                      .dwattr DW$403, DW_AT_low_pc(DW$L$_Registers$483$B)
    6227                      .dwattr DW$403, DW_AT_high_pc(DW$L$_Registers$483$E)
    6228              DW$404  .dwtag  DW_TAG_loop_range
    6229                      .dwattr DW$404, DW_AT_low_pc(DW$L$_Registers$490$B)
    6230                      .dwattr DW$404, DW_AT_high_pc(DW$L$_Registers$490$E)
    6231              DW$405  .dwtag  DW_TAG_loop_range
    6232                      .dwattr DW$405, DW_AT_low_pc(DW$L$_Registers$493$B)
    6233                      .dwattr DW$405, DW_AT_high_pc(DW$L$_Registers$493$E)
    6234              DW$406  .dwtag  DW_TAG_loop_range
    6235                      .dwattr DW$406, DW_AT_low_pc(DW$L$_Registers$496$B)
    6236                      .dwattr DW$406, DW_AT_high_pc(DW$L$_Registers$496$E)
    6237              DW$407  .dwtag  DW_TAG_loop_range
    6238                      .dwattr DW$407, DW_AT_low_pc(DW$L$_Registers$499$B)
    6239                      .dwattr DW$407, DW_AT_high_pc(DW$L$_Registers$499$E)
    6240              DW$408  .dwtag  DW_TAG_loop_range
    6241                      .dwattr DW$408, DW_AT_low_pc(DW$L$_Registers$504$B)
    6242                      .dwattr DW$408, DW_AT_high_pc(DW$L$_Registers$504$E)
    6243              DW$409  .dwtag  DW_TAG_loop_range
    6244                      .dwattr DW$409, DW_AT_low_pc(DW$L$_Registers$507$B)
TMS320C2000 COFF Assembler PC v4.1.3 Thu Aug 18 12:16:25 2016

Tools Copyright (c) 1996-2006 Texas Instruments Incorporated
PCModBus.asm                                                         PAGE  136

    6245                      .dwattr DW$409, DW_AT_high_pc(DW$L$_Registers$507$E)
    6246              DW$410  .dwtag  DW_TAG_loop_range
    6247                      .dwattr DW$410, DW_AT_low_pc(DW$L$_Registers$509$B)
    6248                      .dwattr DW$410, DW_AT_high_pc(DW$L$_Registers$509$E)
    6249              DW$411  .dwtag  DW_TAG_loop_range
    6250                      .dwattr DW$411, DW_AT_low_pc(DW$L$_Registers$512$B)
    6251                      .dwattr DW$411, DW_AT_high_pc(DW$L$_Registers$512$E)
    6252              DW$412  .dwtag  DW_TAG_loop_range
    6253                      .dwattr DW$412, DW_AT_low_pc(DW$L$_Registers$525$B)
    6254                      .dwattr DW$412, DW_AT_high_pc(DW$L$_Registers$525$E)
    6255              DW$413  .dwtag  DW_TAG_loop_range
    6256                      .dwattr DW$413, DW_AT_low_pc(DW$L$_Registers$536$B)
    6257                      .dwattr DW$413, DW_AT_high_pc(DW$L$_Registers$536$E)
    6258              DW$414  .dwtag  DW_TAG_loop_range
    6259                      .dwattr DW$414, DW_AT_low_pc(DW$L$_Registers$541$B)
    6260                      .dwattr DW$414, DW_AT_high_pc(DW$L$_Registers$541$E)
    6261              DW$415  .dwtag  DW_TAG_loop_range
    6262                      .dwattr DW$415, DW_AT_low_pc(DW$L$_Registers$543$B)
    6263                      .dwattr DW$415, DW_AT_high_pc(DW$L$_Registers$543$E)
    6264              DW$416  .dwtag  DW_TAG_loop_range
    6265                      .dwattr DW$416, DW_AT_low_pc(DW$L$_Registers$545$B)
    6266                      .dwattr DW$416, DW_AT_high_pc(DW$L$_Registers$545$E)
    6267              DW$417  .dwtag  DW_TAG_loop_range
    6268                      .dwattr DW$417, DW_AT_low_pc(DW$L$_Registers$547$B)
    6269                      .dwattr DW$417, DW_AT_high_pc(DW$L$_Registers$547$E)
    6270              DW$418  .dwtag  DW_TAG_loop_range
    6271                      .dwattr DW$418, DW_AT_low_pc(DW$L$_Registers$549$B)
    6272                      .dwattr DW$418, DW_AT_high_pc(DW$L$_Registers$549$E)
    6273              DW$419  .dwtag  DW_TAG_loop_range
    6274                      .dwattr DW$419, DW_AT_low_pc(DW$L$_Registers$551$B)
    6275                      .dwattr DW$419, DW_AT_high_pc(DW$L$_Registers$551$E)
    6276              DW$420  .dwtag  DW_TAG_loop_range
    6277                      .dwattr DW$420, DW_AT_low_pc(DW$L$_Registers$553$B)
    6278                      .dwattr DW$420, DW_AT_high_pc(DW$L$_Registers$553$E)
    6279              DW$421  .dwtag  DW_TAG_loop_range
    6280                      .dwattr DW$421, DW_AT_low_pc(DW$L$_Registers$555$B)
    6281                      .dwattr DW$421, DW_AT_high_pc(DW$L$_Registers$555$E)
    6282              DW$422  .dwtag  DW_TAG_loop_range
    6283                      .dwattr DW$422, DW_AT_low_pc(DW$L$_Registers$557$B)
    6284                      .dwattr DW$422, DW_AT_high_pc(DW$L$_Registers$557$E)
    6285              DW$423  .dwtag  DW_TAG_loop_range
    6286                      .dwattr DW$423, DW_AT_low_pc(DW$L$_Registers$563$B)
    6287                      .dwattr DW$423, DW_AT_high_pc(DW$L$_Registers$563$E)
    6288              DW$424  .dwtag  DW_TAG_loop_range
    6289                      .dwattr DW$424, DW_AT_low_pc(DW$L$_Registers$564$B)
    6290                      .dwattr DW$424, DW_AT_high_pc(DW$L$_Registers$564$E)
    6291              DW$425  .dwtag  DW_TAG_loop_range
    6292                      .dwattr DW$425, DW_AT_low_pc(DW$L$_Registers$565$B)
    6293                      .dwattr DW$425, DW_AT_high_pc(DW$L$_Registers$565$E)
    6294              DW$426  .dwtag  DW_TAG_loop_range
    6295                      .dwattr DW$426, DW_AT_low_pc(DW$L$_Registers$566$B)
    6296                      .dwattr DW$426, DW_AT_high_pc(DW$L$_Registers$566$E)
    6297              DW$427  .dwtag  DW_TAG_loop_range
    6298                      .dwattr DW$427, DW_AT_low_pc(DW$L$_Registers$570$B)
    6299                      .dwattr DW$427, DW_AT_high_pc(DW$L$_Registers$570$E)
TMS320C2000 COFF Assembler PC v4.1.3 Thu Aug 18 12:16:25 2016

Tools Copyright (c) 1996-2006 Texas Instruments Incorporated
PCModBus.asm                                                         PAGE  137

    6300              DW$428  .dwtag  DW_TAG_loop_range
    6301                      .dwattr DW$428, DW_AT_low_pc(DW$L$_Registers$571$B)
    6302                      .dwattr DW$428, DW_AT_high_pc(DW$L$_Registers$571$E)
    6303              DW$429  .dwtag  DW_TAG_loop_range
    6304                      .dwattr DW$429, DW_AT_low_pc(DW$L$_Registers$575$B)
    6305                      .dwattr DW$429, DW_AT_high_pc(DW$L$_Registers$575$E)
    6306              DW$430  .dwtag  DW_TAG_loop_range
    6307                      .dwattr DW$430, DW_AT_low_pc(DW$L$_Registers$585$B)
    6308                      .dwattr DW$430, DW_AT_high_pc(DW$L$_Registers$585$E)
    6309              DW$431  .dwtag  DW_TAG_loop_range
    6310                      .dwattr DW$431, DW_AT_low_pc(DW$L$_Registers$587$B)
    6311                      .dwattr DW$431, DW_AT_high_pc(DW$L$_Registers$587$E)
    6312              DW$432  .dwtag  DW_TAG_loop_range
    6313                      .dwattr DW$432, DW_AT_low_pc(DW$L$_Registers$597$B)
    6314                      .dwattr DW$432, DW_AT_high_pc(DW$L$_Registers$597$E)
    6315              DW$433  .dwtag  DW_TAG_loop_range
    6316                      .dwattr DW$433, DW_AT_low_pc(DW$L$_Registers$599$B)
    6317                      .dwattr DW$433, DW_AT_high_pc(DW$L$_Registers$599$E)
    6318              DW$434  .dwtag  DW_TAG_loop_range
    6319                      .dwattr DW$434, DW_AT_low_pc(DW$L$_Registers$601$B)
    6320                      .dwattr DW$434, DW_AT_high_pc(DW$L$_Registers$601$E)
    6321              DW$435  .dwtag  DW_TAG_loop_range
    6322                      .dwattr DW$435, DW_AT_low_pc(DW$L$_Registers$603$B)
    6323                      .dwattr DW$435, DW_AT_high_pc(DW$L$_Registers$603$E)
    6324              DW$436  .dwtag  DW_TAG_loop_range
    6325                      .dwattr DW$436, DW_AT_low_pc(DW$L$_Registers$605$B)
    6326                      .dwattr DW$436, DW_AT_high_pc(DW$L$_Registers$605$E)
    6327              DW$437  .dwtag  DW_TAG_loop_range
    6328                      .dwattr DW$437, DW_AT_low_pc(DW$L$_Registers$291$B)
    6329                      .dwattr DW$437, DW_AT_high_pc(DW$L$_Registers$291$E)
    6330              DW$438  .dwtag  DW_TAG_loop_range
    6331                      .dwattr DW$438, DW_AT_low_pc(DW$L$_Registers$348$B)
    6332                      .dwattr DW$438, DW_AT_high_pc(DW$L$_Registers$348$E)
    6333              DW$439  .dwtag  DW_TAG_loop_range
    6334                      .dwattr DW$439, DW_AT_low_pc(DW$L$_Registers$349$B)
    6335                      .dwattr DW$439, DW_AT_high_pc(DW$L$_Registers$349$E)
    6336              DW$440  .dwtag  DW_TAG_loop_range
    6337                      .dwattr DW$440, DW_AT_low_pc(DW$L$_Registers$258$B)
    6338                      .dwattr DW$440, DW_AT_high_pc(DW$L$_Registers$258$E)
    6339              DW$441  .dwtag  DW_TAG_loop_range
    6340                      .dwattr DW$441, DW_AT_low_pc(DW$L$_Registers$259$B)
    6341                      .dwattr DW$441, DW_AT_high_pc(DW$L$_Registers$259$E)
    6342              DW$442  .dwtag  DW_TAG_loop_range
    6343                      .dwattr DW$442, DW_AT_low_pc(DW$L$_Registers$260$B)
    6344                      .dwattr DW$442, DW_AT_high_pc(DW$L$_Registers$260$E)
    6345              DW$443  .dwtag  DW_TAG_loop_range
    6346                      .dwattr DW$443, DW_AT_low_pc(DW$L$_Registers$249$B)
    6347                      .dwattr DW$443, DW_AT_high_pc(DW$L$_Registers$249$E)
    6348              DW$444  .dwtag  DW_TAG_loop_range
    6349                      .dwattr DW$444, DW_AT_low_pc(DW$L$_Registers$250$B)
    6350                      .dwattr DW$444, DW_AT_high_pc(DW$L$_Registers$250$E)
    6351              DW$445  .dwtag  DW_TAG_loop_range
    6352                      .dwattr DW$445, DW_AT_low_pc(DW$L$_Registers$251$B)
    6353                      .dwattr DW$445, DW_AT_high_pc(DW$L$_Registers$251$E)
    6354              DW$446  .dwtag  DW_TAG_loop_range
TMS320C2000 COFF Assembler PC v4.1.3 Thu Aug 18 12:16:25 2016

Tools Copyright (c) 1996-2006 Texas Instruments Incorporated
PCModBus.asm                                                         PAGE  138

    6355                      .dwattr DW$446, DW_AT_low_pc(DW$L$_Registers$252$B)
    6356                      .dwattr DW$446, DW_AT_high_pc(DW$L$_Registers$252$E)
    6357              DW$447  .dwtag  DW_TAG_loop_range
    6358                      .dwattr DW$447, DW_AT_low_pc(DW$L$_Registers$243$B)
    6359                      .dwattr DW$447, DW_AT_high_pc(DW$L$_Registers$243$E)
    6360              DW$448  .dwtag  DW_TAG_loop_range
    6361                      .dwattr DW$448, DW_AT_low_pc(DW$L$_Registers$244$B)
    6362                      .dwattr DW$448, DW_AT_high_pc(DW$L$_Registers$244$E)
    6363              DW$449  .dwtag  DW_TAG_loop_range
    6364                      .dwattr DW$449, DW_AT_low_pc(DW$L$_Registers$245$B)
    6365                      .dwattr DW$449, DW_AT_high_pc(DW$L$_Registers$245$E)
    6366              DW$450  .dwtag  DW_TAG_loop_range
    6367                      .dwattr DW$450, DW_AT_low_pc(DW$L$_Registers$246$B)
    6368                      .dwattr DW$450, DW_AT_high_pc(DW$L$_Registers$246$E)
    6369              DW$451  .dwtag  DW_TAG_loop_range
    6370                      .dwattr DW$451, DW_AT_low_pc(DW$L$_Registers$247$B)
    6371                      .dwattr DW$451, DW_AT_high_pc(DW$L$_Registers$247$E)
    6372              DW$452  .dwtag  DW_TAG_loop_range
    6373                      .dwattr DW$452, DW_AT_low_pc(DW$L$_Registers$248$B)
    6374                      .dwattr DW$452, DW_AT_high_pc(DW$L$_Registers$248$E)
    6375              DW$453  .dwtag  DW_TAG_loop_range
    6376                      .dwattr DW$453, DW_AT_low_pc(DW$L$_Registers$253$B)
    6377                      .dwattr DW$453, DW_AT_high_pc(DW$L$_Registers$253$E)
    6378              DW$454  .dwtag  DW_TAG_loop_range
    6379                      .dwattr DW$454, DW_AT_low_pc(DW$L$_Registers$254$B)
    6380                      .dwattr DW$454, DW_AT_high_pc(DW$L$_Registers$254$E)
    6381              DW$455  .dwtag  DW_TAG_loop_range
    6382                      .dwattr DW$455, DW_AT_low_pc(DW$L$_Registers$229$B)
    6383                      .dwattr DW$455, DW_AT_high_pc(DW$L$_Registers$229$E)
    6384              DW$456  .dwtag  DW_TAG_loop_range
    6385                      .dwattr DW$456, DW_AT_low_pc(DW$L$_Registers$230$B)
    6386                      .dwattr DW$456, DW_AT_high_pc(DW$L$_Registers$230$E)
    6387              DW$457  .dwtag  DW_TAG_loop_range
    6388                      .dwattr DW$457, DW_AT_low_pc(DW$L$_Registers$231$B)
    6389                      .dwattr DW$457, DW_AT_high_pc(DW$L$_Registers$231$E)
    6390              DW$458  .dwtag  DW_TAG_loop_range
    6391                      .dwattr DW$458, DW_AT_low_pc(DW$L$_Registers$232$B)
    6392                      .dwattr DW$458, DW_AT_high_pc(DW$L$_Registers$232$E)
    6393              DW$459  .dwtag  DW_TAG_loop_range
    6394                      .dwattr DW$459, DW_AT_low_pc(DW$L$_Registers$218$B)
    6395                      .dwattr DW$459, DW_AT_high_pc(DW$L$_Registers$218$E)
    6396              DW$460  .dwtag  DW_TAG_loop_range
    6397                      .dwattr DW$460, DW_AT_low_pc(DW$L$_Registers$175$B)
    6398                      .dwattr DW$460, DW_AT_high_pc(DW$L$_Registers$175$E)
    6399              DW$461  .dwtag  DW_TAG_loop_range
    6400                      .dwattr DW$461, DW_AT_low_pc(DW$L$_Registers$176$B)
    6401                      .dwattr DW$461, DW_AT_high_pc(DW$L$_Registers$176$E)
    6402              DW$462  .dwtag  DW_TAG_loop_range
    6403                      .dwattr DW$462, DW_AT_low_pc(DW$L$_Registers$177$B)
    6404                      .dwattr DW$462, DW_AT_high_pc(DW$L$_Registers$177$E)
    6405              DW$463  .dwtag  DW_TAG_loop_range
    6406                      .dwattr DW$463, DW_AT_low_pc(DW$L$_Registers$178$B)
    6407                      .dwattr DW$463, DW_AT_high_pc(DW$L$_Registers$178$E)
    6408              DW$464  .dwtag  DW_TAG_loop_range
    6409                      .dwattr DW$464, DW_AT_low_pc(DW$L$_Registers$179$B)
TMS320C2000 COFF Assembler PC v4.1.3 Thu Aug 18 12:16:25 2016

Tools Copyright (c) 1996-2006 Texas Instruments Incorporated
PCModBus.asm                                                         PAGE  139

    6410                      .dwattr DW$464, DW_AT_high_pc(DW$L$_Registers$179$E)
    6411              DW$465  .dwtag  DW_TAG_loop_range
    6412                      .dwattr DW$465, DW_AT_low_pc(DW$L$_Registers$180$B)
    6413                      .dwattr DW$465, DW_AT_high_pc(DW$L$_Registers$180$E)
    6414              DW$466  .dwtag  DW_TAG_loop_range
    6415                      .dwattr DW$466, DW_AT_low_pc(DW$L$_Registers$181$B)
    6416                      .dwattr DW$466, DW_AT_high_pc(DW$L$_Registers$181$E)
    6417              DW$467  .dwtag  DW_TAG_loop_range
    6418                      .dwattr DW$467, DW_AT_low_pc(DW$L$_Registers$182$B)
    6419                      .dwattr DW$467, DW_AT_high_pc(DW$L$_Registers$182$E)
    6420              DW$468  .dwtag  DW_TAG_loop_range
    6421                      .dwattr DW$468, DW_AT_low_pc(DW$L$_Registers$183$B)
    6422                      .dwattr DW$468, DW_AT_high_pc(DW$L$_Registers$183$E)
    6423              DW$469  .dwtag  DW_TAG_loop_range
    6424                      .dwattr DW$469, DW_AT_low_pc(DW$L$_Registers$184$B)
    6425                      .dwattr DW$469, DW_AT_high_pc(DW$L$_Registers$184$E)
    6426              DW$470  .dwtag  DW_TAG_loop_range
    6427                      .dwattr DW$470, DW_AT_low_pc(DW$L$_Registers$185$B)
    6428                      .dwattr DW$470, DW_AT_high_pc(DW$L$_Registers$185$E)
    6429              DW$471  .dwtag  DW_TAG_loop_range
    6430                      .dwattr DW$471, DW_AT_low_pc(DW$L$_Registers$186$B)
    6431                      .dwattr DW$471, DW_AT_high_pc(DW$L$_Registers$186$E)
    6432              DW$472  .dwtag  DW_TAG_loop_range
    6433                      .dwattr DW$472, DW_AT_low_pc(DW$L$_Registers$187$B)
    6434                      .dwattr DW$472, DW_AT_high_pc(DW$L$_Registers$187$E)
    6435              DW$473  .dwtag  DW_TAG_loop_range
    6436                      .dwattr DW$473, DW_AT_low_pc(DW$L$_Registers$188$B)
    6437                      .dwattr DW$473, DW_AT_high_pc(DW$L$_Registers$188$E)
    6438              DW$474  .dwtag  DW_TAG_loop_range
    6439                      .dwattr DW$474, DW_AT_low_pc(DW$L$_Registers$189$B)
    6440                      .dwattr DW$474, DW_AT_high_pc(DW$L$_Registers$189$E)
    6441              DW$475  .dwtag  DW_TAG_loop_range
    6442                      .dwattr DW$475, DW_AT_low_pc(DW$L$_Registers$190$B)
    6443                      .dwattr DW$475, DW_AT_high_pc(DW$L$_Registers$190$E)
    6444              DW$476  .dwtag  DW_TAG_loop_range
    6445                      .dwattr DW$476, DW_AT_low_pc(DW$L$_Registers$191$B)
    6446                      .dwattr DW$476, DW_AT_high_pc(DW$L$_Registers$191$E)
    6447              DW$477  .dwtag  DW_TAG_loop_range
    6448                      .dwattr DW$477, DW_AT_low_pc(DW$L$_Registers$192$B)
    6449                      .dwattr DW$477, DW_AT_high_pc(DW$L$_Registers$192$E)
    6450              DW$478  .dwtag  DW_TAG_loop_range
    6451                      .dwattr DW$478, DW_AT_low_pc(DW$L$_Registers$193$B)
    6452                      .dwattr DW$478, DW_AT_high_pc(DW$L$_Registers$193$E)
    6453              DW$479  .dwtag  DW_TAG_loop_range
    6454                      .dwattr DW$479, DW_AT_low_pc(DW$L$_Registers$194$B)
    6455                      .dwattr DW$479, DW_AT_high_pc(DW$L$_Registers$194$E)
    6456              DW$480  .dwtag  DW_TAG_loop_range
    6457                      .dwattr DW$480, DW_AT_low_pc(DW$L$_Registers$195$B)
    6458                      .dwattr DW$480, DW_AT_high_pc(DW$L$_Registers$195$E)
    6459              DW$481  .dwtag  DW_TAG_loop_range
    6460                      .dwattr DW$481, DW_AT_low_pc(DW$L$_Registers$196$B)
    6461                      .dwattr DW$481, DW_AT_high_pc(DW$L$_Registers$196$E)
    6462              DW$482  .dwtag  DW_TAG_loop_range
    6463                      .dwattr DW$482, DW_AT_low_pc(DW$L$_Registers$197$B)
    6464                      .dwattr DW$482, DW_AT_high_pc(DW$L$_Registers$197$E)
TMS320C2000 COFF Assembler PC v4.1.3 Thu Aug 18 12:16:25 2016

Tools Copyright (c) 1996-2006 Texas Instruments Incorporated
PCModBus.asm                                                         PAGE  140

    6465              DW$483  .dwtag  DW_TAG_loop_range
    6466                      .dwattr DW$483, DW_AT_low_pc(DW$L$_Registers$198$B)
    6467                      .dwattr DW$483, DW_AT_high_pc(DW$L$_Registers$198$E)
    6468              DW$484  .dwtag  DW_TAG_loop_range
    6469                      .dwattr DW$484, DW_AT_low_pc(DW$L$_Registers$199$B)
    6470                      .dwattr DW$484, DW_AT_high_pc(DW$L$_Registers$199$E)
    6471              DW$485  .dwtag  DW_TAG_loop_range
    6472                      .dwattr DW$485, DW_AT_low_pc(DW$L$_Registers$200$B)
    6473                      .dwattr DW$485, DW_AT_high_pc(DW$L$_Registers$200$E)
    6474              DW$486  .dwtag  DW_TAG_loop_range
    6475                      .dwattr DW$486, DW_AT_low_pc(DW$L$_Registers$201$B)
    6476                      .dwattr DW$486, DW_AT_high_pc(DW$L$_Registers$201$E)
    6477              DW$487  .dwtag  DW_TAG_loop_range
    6478                      .dwattr DW$487, DW_AT_low_pc(DW$L$_Registers$202$B)
    6479                      .dwattr DW$487, DW_AT_high_pc(DW$L$_Registers$202$E)
    6480              DW$488  .dwtag  DW_TAG_loop_range
    6481                      .dwattr DW$488, DW_AT_low_pc(DW$L$_Registers$203$B)
    6482                      .dwattr DW$488, DW_AT_high_pc(DW$L$_Registers$203$E)
    6483              DW$489  .dwtag  DW_TAG_loop_range
    6484                      .dwattr DW$489, DW_AT_low_pc(DW$L$_Registers$204$B)
    6485                      .dwattr DW$489, DW_AT_high_pc(DW$L$_Registers$204$E)
    6486              DW$490  .dwtag  DW_TAG_loop_range
    6487                      .dwattr DW$490, DW_AT_low_pc(DW$L$_Registers$205$B)
    6488                      .dwattr DW$490, DW_AT_high_pc(DW$L$_Registers$205$E)
    6489              DW$491  .dwtag  DW_TAG_loop_range
    6490                      .dwattr DW$491, DW_AT_low_pc(DW$L$_Registers$206$B)
    6491                      .dwattr DW$491, DW_AT_high_pc(DW$L$_Registers$206$E)
    6492              DW$492  .dwtag  DW_TAG_loop_range
    6493                      .dwattr DW$492, DW_AT_low_pc(DW$L$_Registers$207$B)
    6494                      .dwattr DW$492, DW_AT_high_pc(DW$L$_Registers$207$E)
    6495              DW$493  .dwtag  DW_TAG_loop_range
    6496                      .dwattr DW$493, DW_AT_low_pc(DW$L$_Registers$208$B)
    6497                      .dwattr DW$493, DW_AT_high_pc(DW$L$_Registers$208$E)
    6498              DW$494  .dwtag  DW_TAG_loop_range
    6499                      .dwattr DW$494, DW_AT_low_pc(DW$L$_Registers$209$B)
    6500                      .dwattr DW$494, DW_AT_high_pc(DW$L$_Registers$209$E)
    6501              DW$495  .dwtag  DW_TAG_loop_range
    6502                      .dwattr DW$495, DW_AT_low_pc(DW$L$_Registers$210$B)
    6503                      .dwattr DW$495, DW_AT_high_pc(DW$L$_Registers$210$E)
    6504              DW$496  .dwtag  DW_TAG_loop_range
    6505                      .dwattr DW$496, DW_AT_low_pc(DW$L$_Registers$211$B)
    6506                      .dwattr DW$496, DW_AT_high_pc(DW$L$_Registers$211$E)
    6507              DW$497  .dwtag  DW_TAG_loop_range
    6508                      .dwattr DW$497, DW_AT_low_pc(DW$L$_Registers$212$B)
    6509                      .dwattr DW$497, DW_AT_high_pc(DW$L$_Registers$212$E)
    6510              DW$498  .dwtag  DW_TAG_loop_range
    6511                      .dwattr DW$498, DW_AT_low_pc(DW$L$_Registers$213$B)
    6512                      .dwattr DW$498, DW_AT_high_pc(DW$L$_Registers$213$E)
    6513              DW$499  .dwtag  DW_TAG_loop_range
    6514                      .dwattr DW$499, DW_AT_low_pc(DW$L$_Registers$214$B)
    6515                      .dwattr DW$499, DW_AT_high_pc(DW$L$_Registers$214$E)
    6516              DW$500  .dwtag  DW_TAG_loop_range
    6517                      .dwattr DW$500, DW_AT_low_pc(DW$L$_Registers$215$B)
    6518                      .dwattr DW$500, DW_AT_high_pc(DW$L$_Registers$215$E)
    6519              DW$501  .dwtag  DW_TAG_loop_range
TMS320C2000 COFF Assembler PC v4.1.3 Thu Aug 18 12:16:25 2016

Tools Copyright (c) 1996-2006 Texas Instruments Incorporated
PCModBus.asm                                                         PAGE  141

    6520                      .dwattr DW$501, DW_AT_low_pc(DW$L$_Registers$216$B)
    6521                      .dwattr DW$501, DW_AT_high_pc(DW$L$_Registers$216$E)
    6522              DW$502  .dwtag  DW_TAG_loop_range
    6523                      .dwattr DW$502, DW_AT_low_pc(DW$L$_Registers$172$B)
    6524                      .dwattr DW$502, DW_AT_high_pc(DW$L$_Registers$172$E)
    6525              DW$503  .dwtag  DW_TAG_loop_range
    6526                      .dwattr DW$503, DW_AT_low_pc(DW$L$_Registers$173$B)
    6527                      .dwattr DW$503, DW_AT_high_pc(DW$L$_Registers$173$E)
    6528              DW$504  .dwtag  DW_TAG_loop_range
    6529                      .dwattr DW$504, DW_AT_low_pc(DW$L$_Registers$169$B)
    6530                      .dwattr DW$504, DW_AT_high_pc(DW$L$_Registers$169$E)
    6531              DW$505  .dwtag  DW_TAG_loop_range
    6532                      .dwattr DW$505, DW_AT_low_pc(DW$L$_Registers$170$B)
    6533                      .dwattr DW$505, DW_AT_high_pc(DW$L$_Registers$170$E)
    6534              DW$506  .dwtag  DW_TAG_loop_range
    6535                      .dwattr DW$506, DW_AT_low_pc(DW$L$_Registers$166$B)
    6536                      .dwattr DW$506, DW_AT_high_pc(DW$L$_Registers$166$E)
    6537              DW$507  .dwtag  DW_TAG_loop_range
    6538                      .dwattr DW$507, DW_AT_low_pc(DW$L$_Registers$167$B)
    6539                      .dwattr DW$507, DW_AT_high_pc(DW$L$_Registers$167$E)
    6540              DW$508  .dwtag  DW_TAG_loop_range
    6541                      .dwattr DW$508, DW_AT_low_pc(DW$L$_Registers$163$B)
    6542                      .dwattr DW$508, DW_AT_high_pc(DW$L$_Registers$163$E)
    6543              DW$509  .dwtag  DW_TAG_loop_range
    6544                      .dwattr DW$509, DW_AT_low_pc(DW$L$_Registers$164$B)
    6545                      .dwattr DW$509, DW_AT_high_pc(DW$L$_Registers$164$E)
    6546              DW$510  .dwtag  DW_TAG_loop_range
    6547                      .dwattr DW$510, DW_AT_low_pc(DW$L$_Registers$161$B)
    6548                      .dwattr DW$510, DW_AT_high_pc(DW$L$_Registers$161$E)
    6549              DW$511  .dwtag  DW_TAG_loop_range
    6550                      .dwattr DW$511, DW_AT_low_pc(DW$L$_Registers$162$B)
    6551                      .dwattr DW$511, DW_AT_high_pc(DW$L$_Registers$162$E)
    6552              DW$512  .dwtag  DW_TAG_loop_range
    6553                      .dwattr DW$512, DW_AT_low_pc(DW$L$_Registers$165$B)
    6554                      .dwattr DW$512, DW_AT_high_pc(DW$L$_Registers$165$E)
    6555              DW$513  .dwtag  DW_TAG_loop_range
    6556                      .dwattr DW$513, DW_AT_low_pc(DW$L$_Registers$168$B)
    6557                      .dwattr DW$513, DW_AT_high_pc(DW$L$_Registers$168$E)
    6558              DW$514  .dwtag  DW_TAG_loop_range
    6559                      .dwattr DW$514, DW_AT_low_pc(DW$L$_Registers$171$B)
    6560                      .dwattr DW$514, DW_AT_high_pc(DW$L$_Registers$171$E)
    6561              DW$515  .dwtag  DW_TAG_loop_range
    6562                      .dwattr DW$515, DW_AT_low_pc(DW$L$_Registers$174$B)
    6563                      .dwattr DW$515, DW_AT_high_pc(DW$L$_Registers$174$E)
    6564              DW$516  .dwtag  DW_TAG_loop_range
    6565                      .dwattr DW$516, DW_AT_low_pc(DW$L$_Registers$217$B)
    6566                      .dwattr DW$516, DW_AT_high_pc(DW$L$_Registers$217$E)
    6567              DW$517  .dwtag  DW_TAG_loop_range
    6568                      .dwattr DW$517, DW_AT_low_pc(DW$L$_Registers$219$B)
    6569                      .dwattr DW$517, DW_AT_high_pc(DW$L$_Registers$219$E)
    6570              DW$518  .dwtag  DW_TAG_loop_range
    6571                      .dwattr DW$518, DW_AT_low_pc(DW$L$_Registers$220$B)
    6572                      .dwattr DW$518, DW_AT_high_pc(DW$L$_Registers$220$E)
    6573              DW$519  .dwtag  DW_TAG_loop_range
    6574                      .dwattr DW$519, DW_AT_low_pc(DW$L$_Registers$221$B)
TMS320C2000 COFF Assembler PC v4.1.3 Thu Aug 18 12:16:25 2016

Tools Copyright (c) 1996-2006 Texas Instruments Incorporated
PCModBus.asm                                                         PAGE  142

    6575                      .dwattr DW$519, DW_AT_high_pc(DW$L$_Registers$221$E)
    6576              DW$520  .dwtag  DW_TAG_loop_range
    6577                      .dwattr DW$520, DW_AT_low_pc(DW$L$_Registers$222$B)
    6578                      .dwattr DW$520, DW_AT_high_pc(DW$L$_Registers$222$E)
    6579              DW$521  .dwtag  DW_TAG_loop_range
    6580                      .dwattr DW$521, DW_AT_low_pc(DW$L$_Registers$223$B)
    6581                      .dwattr DW$521, DW_AT_high_pc(DW$L$_Registers$223$E)
    6582              DW$522  .dwtag  DW_TAG_loop_range
    6583                      .dwattr DW$522, DW_AT_low_pc(DW$L$_Registers$227$B)
    6584                      .dwattr DW$522, DW_AT_high_pc(DW$L$_Registers$227$E)
    6585              DW$523  .dwtag  DW_TAG_loop_range
    6586                      .dwattr DW$523, DW_AT_low_pc(DW$L$_Registers$159$B)
    6587                      .dwattr DW$523, DW_AT_high_pc(DW$L$_Registers$159$E)
    6588              DW$524  .dwtag  DW_TAG_loop_range
    6589                      .dwattr DW$524, DW_AT_low_pc(DW$L$_Registers$157$B)
    6590                      .dwattr DW$524, DW_AT_high_pc(DW$L$_Registers$157$E)
    6591              DW$525  .dwtag  DW_TAG_loop_range
    6592                      .dwattr DW$525, DW_AT_low_pc(DW$L$_Registers$147$B)
    6593                      .dwattr DW$525, DW_AT_high_pc(DW$L$_Registers$147$E)
    6594              DW$526  .dwtag  DW_TAG_loop_range
    6595                      .dwattr DW$526, DW_AT_low_pc(DW$L$_Registers$148$B)
    6596                      .dwattr DW$526, DW_AT_high_pc(DW$L$_Registers$148$E)
    6597              DW$527  .dwtag  DW_TAG_loop_range
    6598                      .dwattr DW$527, DW_AT_low_pc(DW$L$_Registers$149$B)
    6599                      .dwattr DW$527, DW_AT_high_pc(DW$L$_Registers$149$E)
    6600              DW$528  .dwtag  DW_TAG_loop_range
    6601                      .dwattr DW$528, DW_AT_low_pc(DW$L$_Registers$150$B)
    6602                      .dwattr DW$528, DW_AT_high_pc(DW$L$_Registers$150$E)
    6603              DW$529  .dwtag  DW_TAG_loop_range
    6604                      .dwattr DW$529, DW_AT_low_pc(DW$L$_Registers$151$B)
    6605                      .dwattr DW$529, DW_AT_high_pc(DW$L$_Registers$151$E)
    6606              DW$530  .dwtag  DW_TAG_loop_range
    6607                      .dwattr DW$530, DW_AT_low_pc(DW$L$_Registers$152$B)
    6608                      .dwattr DW$530, DW_AT_high_pc(DW$L$_Registers$152$E)
    6609              DW$531  .dwtag  DW_TAG_loop_range
    6610                      .dwattr DW$531, DW_AT_low_pc(DW$L$_Registers$153$B)
    6611                      .dwattr DW$531, DW_AT_high_pc(DW$L$_Registers$153$E)
    6612              DW$532  .dwtag  DW_TAG_loop_range
    6613                      .dwattr DW$532, DW_AT_low_pc(DW$L$_Registers$154$B)
    6614                      .dwattr DW$532, DW_AT_high_pc(DW$L$_Registers$154$E)
    6615              DW$533  .dwtag  DW_TAG_loop_range
    6616                      .dwattr DW$533, DW_AT_low_pc(DW$L$_Registers$155$B)
    6617                      .dwattr DW$533, DW_AT_high_pc(DW$L$_Registers$155$E)
    6618              DW$534  .dwtag  DW_TAG_loop_range
    6619                      .dwattr DW$534, DW_AT_low_pc(DW$L$_Registers$135$B)
    6620                      .dwattr DW$534, DW_AT_high_pc(DW$L$_Registers$135$E)
    6621              DW$535  .dwtag  DW_TAG_loop_range
    6622                      .dwattr DW$535, DW_AT_low_pc(DW$L$_Registers$136$B)
    6623                      .dwattr DW$535, DW_AT_high_pc(DW$L$_Registers$136$E)
    6624              DW$536  .dwtag  DW_TAG_loop_range
    6625                      .dwattr DW$536, DW_AT_low_pc(DW$L$_Registers$137$B)
    6626                      .dwattr DW$536, DW_AT_high_pc(DW$L$_Registers$137$E)
    6627              DW$537  .dwtag  DW_TAG_loop_range
    6628                      .dwattr DW$537, DW_AT_low_pc(DW$L$_Registers$138$B)
    6629                      .dwattr DW$537, DW_AT_high_pc(DW$L$_Registers$138$E)
TMS320C2000 COFF Assembler PC v4.1.3 Thu Aug 18 12:16:25 2016

Tools Copyright (c) 1996-2006 Texas Instruments Incorporated
PCModBus.asm                                                         PAGE  143

    6630              DW$538  .dwtag  DW_TAG_loop_range
    6631                      .dwattr DW$538, DW_AT_low_pc(DW$L$_Registers$139$B)
    6632                      .dwattr DW$538, DW_AT_high_pc(DW$L$_Registers$139$E)
    6633              DW$539  .dwtag  DW_TAG_loop_range
    6634                      .dwattr DW$539, DW_AT_low_pc(DW$L$_Registers$140$B)
    6635                      .dwattr DW$539, DW_AT_high_pc(DW$L$_Registers$140$E)
    6636              DW$540  .dwtag  DW_TAG_loop_range
    6637                      .dwattr DW$540, DW_AT_low_pc(DW$L$_Registers$141$B)
    6638                      .dwattr DW$540, DW_AT_high_pc(DW$L$_Registers$141$E)
    6639              DW$541  .dwtag  DW_TAG_loop_range
    6640                      .dwattr DW$541, DW_AT_low_pc(DW$L$_Registers$142$B)
    6641                      .dwattr DW$541, DW_AT_high_pc(DW$L$_Registers$142$E)
    6642              DW$542  .dwtag  DW_TAG_loop_range
    6643                      .dwattr DW$542, DW_AT_low_pc(DW$L$_Registers$143$B)
    6644                      .dwattr DW$542, DW_AT_high_pc(DW$L$_Registers$143$E)
    6645              DW$543  .dwtag  DW_TAG_loop_range
    6646                      .dwattr DW$543, DW_AT_low_pc(DW$L$_Registers$144$B)
    6647                      .dwattr DW$543, DW_AT_high_pc(DW$L$_Registers$144$E)
    6648              DW$544  .dwtag  DW_TAG_loop_range
    6649                      .dwattr DW$544, DW_AT_low_pc(DW$L$_Registers$145$B)
    6650                      .dwattr DW$544, DW_AT_high_pc(DW$L$_Registers$145$E)
    6651              DW$545  .dwtag  DW_TAG_loop_range
    6652                      .dwattr DW$545, DW_AT_low_pc(DW$L$_Registers$130$B)
    6653                      .dwattr DW$545, DW_AT_high_pc(DW$L$_Registers$130$E)
    6654              DW$546  .dwtag  DW_TAG_loop_range
    6655                      .dwattr DW$546, DW_AT_low_pc(DW$L$_Registers$131$B)
    6656                      .dwattr DW$546, DW_AT_high_pc(DW$L$_Registers$131$E)
    6657              DW$547  .dwtag  DW_TAG_loop_range
    6658                      .dwattr DW$547, DW_AT_low_pc(DW$L$_Registers$132$B)
    6659                      .dwattr DW$547, DW_AT_high_pc(DW$L$_Registers$132$E)
    6660              DW$548  .dwtag  DW_TAG_loop_range
    6661                      .dwattr DW$548, DW_AT_low_pc(DW$L$_Registers$133$B)
    6662                      .dwattr DW$548, DW_AT_high_pc(DW$L$_Registers$133$E)
    6663              DW$549  .dwtag  DW_TAG_loop_range
    6664                      .dwattr DW$549, DW_AT_low_pc(DW$L$_Registers$126$B)
    6665                      .dwattr DW$549, DW_AT_high_pc(DW$L$_Registers$126$E)
    6666              DW$550  .dwtag  DW_TAG_loop_range
    6667                      .dwattr DW$550, DW_AT_low_pc(DW$L$_Registers$127$B)
    6668                      .dwattr DW$550, DW_AT_high_pc(DW$L$_Registers$127$E)
    6669              DW$551  .dwtag  DW_TAG_loop_range
    6670                      .dwattr DW$551, DW_AT_low_pc(DW$L$_Registers$128$B)
    6671                      .dwattr DW$551, DW_AT_high_pc(DW$L$_Registers$128$E)
    6672              DW$552  .dwtag  DW_TAG_loop_range
    6673                      .dwattr DW$552, DW_AT_low_pc(DW$L$_Registers$129$B)
    6674                      .dwattr DW$552, DW_AT_high_pc(DW$L$_Registers$129$E)
    6675              DW$553  .dwtag  DW_TAG_loop_range
    6676                      .dwattr DW$553, DW_AT_low_pc(DW$L$_Registers$134$B)
    6677                      .dwattr DW$553, DW_AT_high_pc(DW$L$_Registers$134$E)
    6678              DW$554  .dwtag  DW_TAG_loop_range
    6679                      .dwattr DW$554, DW_AT_low_pc(DW$L$_Registers$146$B)
    6680                      .dwattr DW$554, DW_AT_high_pc(DW$L$_Registers$146$E)
    6681              DW$555  .dwtag  DW_TAG_loop_range
    6682                      .dwattr DW$555, DW_AT_low_pc(DW$L$_Registers$156$B)
    6683                      .dwattr DW$555, DW_AT_high_pc(DW$L$_Registers$156$E)
    6684              DW$556  .dwtag  DW_TAG_loop_range
TMS320C2000 COFF Assembler PC v4.1.3 Thu Aug 18 12:16:25 2016

Tools Copyright (c) 1996-2006 Texas Instruments Incorporated
PCModBus.asm                                                         PAGE  144

    6685                      .dwattr DW$556, DW_AT_low_pc(DW$L$_Registers$158$B)
    6686                      .dwattr DW$556, DW_AT_high_pc(DW$L$_Registers$158$E)
    6687              DW$557  .dwtag  DW_TAG_loop_range
    6688                      .dwattr DW$557, DW_AT_low_pc(DW$L$_Registers$160$B)
    6689                      .dwattr DW$557, DW_AT_high_pc(DW$L$_Registers$160$E)
    6690              DW$558  .dwtag  DW_TAG_loop_range
    6691                      .dwattr DW$558, DW_AT_low_pc(DW$L$_Registers$228$B)
    6692                      .dwattr DW$558, DW_AT_high_pc(DW$L$_Registers$228$E)
    6693              DW$559  .dwtag  DW_TAG_loop_range
    6694                      .dwattr DW$559, DW_AT_low_pc(DW$L$_Registers$233$B)
    6695                      .dwattr DW$559, DW_AT_high_pc(DW$L$_Registers$233$E)
    6696              DW$560  .dwtag  DW_TAG_loop_range
    6697                      .dwattr DW$560, DW_AT_low_pc(DW$L$_Registers$234$B)
    6698                      .dwattr DW$560, DW_AT_high_pc(DW$L$_Registers$234$E)
    6699              DW$561  .dwtag  DW_TAG_loop_range
    6700                      .dwattr DW$561, DW_AT_low_pc(DW$L$_Registers$9$B)
    6701                      .dwattr DW$561, DW_AT_high_pc(DW$L$_Registers$9$E)
    6702              DW$562  .dwtag  DW_TAG_loop_range
    6703                      .dwattr DW$562, DW_AT_low_pc(DW$L$_Registers$10$B)
    6704                      .dwattr DW$562, DW_AT_high_pc(DW$L$_Registers$10$E)
    6705              DW$563  .dwtag  DW_TAG_loop_range
    6706                      .dwattr DW$563, DW_AT_low_pc(DW$L$_Registers$11$B)
    6707                      .dwattr DW$563, DW_AT_high_pc(DW$L$_Registers$11$E)
    6708              DW$564  .dwtag  DW_TAG_loop_range
    6709                      .dwattr DW$564, DW_AT_low_pc(DW$L$_Registers$12$B)
    6710                      .dwattr DW$564, DW_AT_high_pc(DW$L$_Registers$12$E)
    6711              DW$565  .dwtag  DW_TAG_loop_range
    6712                      .dwattr DW$565, DW_AT_low_pc(DW$L$_Registers$13$B)
    6713                      .dwattr DW$565, DW_AT_high_pc(DW$L$_Registers$13$E)
    6714              DW$566  .dwtag  DW_TAG_loop_range
    6715                      .dwattr DW$566, DW_AT_low_pc(DW$L$_Registers$14$B)
    6716                      .dwattr DW$566, DW_AT_high_pc(DW$L$_Registers$14$E)
    6717              DW$567  .dwtag  DW_TAG_loop_range
    6718                      .dwattr DW$567, DW_AT_low_pc(DW$L$_Registers$15$B)
    6719                      .dwattr DW$567, DW_AT_high_pc(DW$L$_Registers$15$E)
    6720              DW$568  .dwtag  DW_TAG_loop_range
    6721                      .dwattr DW$568, DW_AT_low_pc(DW$L$_Registers$16$B)
    6722                      .dwattr DW$568, DW_AT_high_pc(DW$L$_Registers$16$E)
    6723              DW$569  .dwtag  DW_TAG_loop_range
    6724                      .dwattr DW$569, DW_AT_low_pc(DW$L$_Registers$17$B)
    6725                      .dwattr DW$569, DW_AT_high_pc(DW$L$_Registers$17$E)
    6726              DW$570  .dwtag  DW_TAG_loop_range
    6727                      .dwattr DW$570, DW_AT_low_pc(DW$L$_Registers$18$B)
    6728                      .dwattr DW$570, DW_AT_high_pc(DW$L$_Registers$18$E)
    6729              DW$571  .dwtag  DW_TAG_loop_range
    6730                      .dwattr DW$571, DW_AT_low_pc(DW$L$_Registers$19$B)
    6731                      .dwattr DW$571, DW_AT_high_pc(DW$L$_Registers$19$E)
    6732              DW$572  .dwtag  DW_TAG_loop_range
    6733                      .dwattr DW$572, DW_AT_low_pc(DW$L$_Registers$20$B)
    6734                      .dwattr DW$572, DW_AT_high_pc(DW$L$_Registers$20$E)
    6735              DW$573  .dwtag  DW_TAG_loop_range
    6736                      .dwattr DW$573, DW_AT_low_pc(DW$L$_Registers$21$B)
    6737                      .dwattr DW$573, DW_AT_high_pc(DW$L$_Registers$21$E)
    6738              DW$574  .dwtag  DW_TAG_loop_range
    6739                      .dwattr DW$574, DW_AT_low_pc(DW$L$_Registers$22$B)
TMS320C2000 COFF Assembler PC v4.1.3 Thu Aug 18 12:16:25 2016

Tools Copyright (c) 1996-2006 Texas Instruments Incorporated
PCModBus.asm                                                         PAGE  145

    6740                      .dwattr DW$574, DW_AT_high_pc(DW$L$_Registers$22$E)
    6741              DW$575  .dwtag  DW_TAG_loop_range
    6742                      .dwattr DW$575, DW_AT_low_pc(DW$L$_Registers$23$B)
    6743                      .dwattr DW$575, DW_AT_high_pc(DW$L$_Registers$23$E)
    6744              DW$576  .dwtag  DW_TAG_loop_range
    6745                      .dwattr DW$576, DW_AT_low_pc(DW$L$_Registers$24$B)
    6746                      .dwattr DW$576, DW_AT_high_pc(DW$L$_Registers$24$E)
    6747              DW$577  .dwtag  DW_TAG_loop_range
    6748                      .dwattr DW$577, DW_AT_low_pc(DW$L$_Registers$25$B)
    6749                      .dwattr DW$577, DW_AT_high_pc(DW$L$_Registers$25$E)
    6750              DW$578  .dwtag  DW_TAG_loop_range
    6751                      .dwattr DW$578, DW_AT_low_pc(DW$L$_Registers$26$B)
    6752                      .dwattr DW$578, DW_AT_high_pc(DW$L$_Registers$26$E)
    6753              DW$579  .dwtag  DW_TAG_loop_range
    6754                      .dwattr DW$579, DW_AT_low_pc(DW$L$_Registers$27$B)
    6755                      .dwattr DW$579, DW_AT_high_pc(DW$L$_Registers$27$E)
    6756              DW$580  .dwtag  DW_TAG_loop_range
    6757                      .dwattr DW$580, DW_AT_low_pc(DW$L$_Registers$28$B)
    6758                      .dwattr DW$580, DW_AT_high_pc(DW$L$_Registers$28$E)
    6759              DW$581  .dwtag  DW_TAG_loop_range
    6760                      .dwattr DW$581, DW_AT_low_pc(DW$L$_Registers$29$B)
    6761                      .dwattr DW$581, DW_AT_high_pc(DW$L$_Registers$29$E)
    6762              DW$582  .dwtag  DW_TAG_loop_range
    6763                      .dwattr DW$582, DW_AT_low_pc(DW$L$_Registers$30$B)
    6764                      .dwattr DW$582, DW_AT_high_pc(DW$L$_Registers$30$E)
    6765              DW$583  .dwtag  DW_TAG_loop_range
    6766                      .dwattr DW$583, DW_AT_low_pc(DW$L$_Registers$31$B)
    6767                      .dwattr DW$583, DW_AT_high_pc(DW$L$_Registers$31$E)
    6768              DW$584  .dwtag  DW_TAG_loop_range
    6769                      .dwattr DW$584, DW_AT_low_pc(DW$L$_Registers$32$B)
    6770                      .dwattr DW$584, DW_AT_high_pc(DW$L$_Registers$32$E)
    6771              DW$585  .dwtag  DW_TAG_loop_range
    6772                      .dwattr DW$585, DW_AT_low_pc(DW$L$_Registers$33$B)
    6773                      .dwattr DW$585, DW_AT_high_pc(DW$L$_Registers$33$E)
    6774              DW$586  .dwtag  DW_TAG_loop_range
    6775                      .dwattr DW$586, DW_AT_low_pc(DW$L$_Registers$34$B)
    6776                      .dwattr DW$586, DW_AT_high_pc(DW$L$_Registers$34$E)
    6777              DW$587  .dwtag  DW_TAG_loop_range
    6778                      .dwattr DW$587, DW_AT_low_pc(DW$L$_Registers$35$B)
    6779                      .dwattr DW$587, DW_AT_high_pc(DW$L$_Registers$35$E)
    6780              DW$588  .dwtag  DW_TAG_loop_range
    6781                      .dwattr DW$588, DW_AT_low_pc(DW$L$_Registers$36$B)
    6782                      .dwattr DW$588, DW_AT_high_pc(DW$L$_Registers$36$E)
    6783              DW$589  .dwtag  DW_TAG_loop_range
    6784                      .dwattr DW$589, DW_AT_low_pc(DW$L$_Registers$37$B)
    6785                      .dwattr DW$589, DW_AT_high_pc(DW$L$_Registers$37$E)
    6786              DW$590  .dwtag  DW_TAG_loop_range
    6787                      .dwattr DW$590, DW_AT_low_pc(DW$L$_Registers$38$B)
    6788                      .dwattr DW$590, DW_AT_high_pc(DW$L$_Registers$38$E)
    6789              DW$591  .dwtag  DW_TAG_loop_range
    6790                      .dwattr DW$591, DW_AT_low_pc(DW$L$_Registers$39$B)
    6791                      .dwattr DW$591, DW_AT_high_pc(DW$L$_Registers$39$E)
    6792              DW$592  .dwtag  DW_TAG_loop_range
    6793                      .dwattr DW$592, DW_AT_low_pc(DW$L$_Registers$40$B)
    6794                      .dwattr DW$592, DW_AT_high_pc(DW$L$_Registers$40$E)
TMS320C2000 COFF Assembler PC v4.1.3 Thu Aug 18 12:16:25 2016

Tools Copyright (c) 1996-2006 Texas Instruments Incorporated
PCModBus.asm                                                         PAGE  146

    6795              DW$593  .dwtag  DW_TAG_loop_range
    6796                      .dwattr DW$593, DW_AT_low_pc(DW$L$_Registers$41$B)
    6797                      .dwattr DW$593, DW_AT_high_pc(DW$L$_Registers$41$E)
    6798              DW$594  .dwtag  DW_TAG_loop_range
    6799                      .dwattr DW$594, DW_AT_low_pc(DW$L$_Registers$42$B)
    6800                      .dwattr DW$594, DW_AT_high_pc(DW$L$_Registers$42$E)
    6801              DW$595  .dwtag  DW_TAG_loop_range
    6802                      .dwattr DW$595, DW_AT_low_pc(DW$L$_Registers$43$B)
    6803                      .dwattr DW$595, DW_AT_high_pc(DW$L$_Registers$43$E)
    6804              DW$596  .dwtag  DW_TAG_loop_range
    6805                      .dwattr DW$596, DW_AT_low_pc(DW$L$_Registers$44$B)
    6806                      .dwattr DW$596, DW_AT_high_pc(DW$L$_Registers$44$E)
    6807              DW$597  .dwtag  DW_TAG_loop_range
    6808                      .dwattr DW$597, DW_AT_low_pc(DW$L$_Registers$45$B)
    6809                      .dwattr DW$597, DW_AT_high_pc(DW$L$_Registers$45$E)
    6810              DW$598  .dwtag  DW_TAG_loop_range
    6811                      .dwattr DW$598, DW_AT_low_pc(DW$L$_Registers$46$B)
    6812                      .dwattr DW$598, DW_AT_high_pc(DW$L$_Registers$46$E)
    6813              DW$599  .dwtag  DW_TAG_loop_range
    6814                      .dwattr DW$599, DW_AT_low_pc(DW$L$_Registers$47$B)
    6815                      .dwattr DW$599, DW_AT_high_pc(DW$L$_Registers$47$E)
    6816              DW$600  .dwtag  DW_TAG_loop_range
    6817                      .dwattr DW$600, DW_AT_low_pc(DW$L$_Registers$48$B)
    6818                      .dwattr DW$600, DW_AT_high_pc(DW$L$_Registers$48$E)
    6819              DW$601  .dwtag  DW_TAG_loop_range
    6820                      .dwattr DW$601, DW_AT_low_pc(DW$L$_Registers$49$B)
    6821                      .dwattr DW$601, DW_AT_high_pc(DW$L$_Registers$49$E)
    6822              DW$602  .dwtag  DW_TAG_loop_range
    6823                      .dwattr DW$602, DW_AT_low_pc(DW$L$_Registers$50$B)
    6824                      .dwattr DW$602, DW_AT_high_pc(DW$L$_Registers$50$E)
    6825              DW$603  .dwtag  DW_TAG_loop_range
    6826                      .dwattr DW$603, DW_AT_low_pc(DW$L$_Registers$51$B)
    6827                      .dwattr DW$603, DW_AT_high_pc(DW$L$_Registers$51$E)
    6828              DW$604  .dwtag  DW_TAG_loop_range
    6829                      .dwattr DW$604, DW_AT_low_pc(DW$L$_Registers$52$B)
    6830                      .dwattr DW$604, DW_AT_high_pc(DW$L$_Registers$52$E)
    6831              DW$605  .dwtag  DW_TAG_loop_range
    6832                      .dwattr DW$605, DW_AT_low_pc(DW$L$_Registers$53$B)
    6833                      .dwattr DW$605, DW_AT_high_pc(DW$L$_Registers$53$E)
    6834              DW$606  .dwtag  DW_TAG_loop_range
    6835                      .dwattr DW$606, DW_AT_low_pc(DW$L$_Registers$54$B)
    6836                      .dwattr DW$606, DW_AT_high_pc(DW$L$_Registers$54$E)
    6837              DW$607  .dwtag  DW_TAG_loop_range
    6838                      .dwattr DW$607, DW_AT_low_pc(DW$L$_Registers$55$B)
    6839                      .dwattr DW$607, DW_AT_high_pc(DW$L$_Registers$55$E)
    6840              DW$608  .dwtag  DW_TAG_loop_range
    6841                      .dwattr DW$608, DW_AT_low_pc(DW$L$_Registers$56$B)
    6842                      .dwattr DW$608, DW_AT_high_pc(DW$L$_Registers$56$E)
    6843              DW$609  .dwtag  DW_TAG_loop_range
    6844                      .dwattr DW$609, DW_AT_low_pc(DW$L$_Registers$57$B)
    6845                      .dwattr DW$609, DW_AT_high_pc(DW$L$_Registers$57$E)
    6846              DW$610  .dwtag  DW_TAG_loop_range
    6847                      .dwattr DW$610, DW_AT_low_pc(DW$L$_Registers$58$B)
    6848                      .dwattr DW$610, DW_AT_high_pc(DW$L$_Registers$58$E)
    6849              DW$611  .dwtag  DW_TAG_loop_range
TMS320C2000 COFF Assembler PC v4.1.3 Thu Aug 18 12:16:25 2016

Tools Copyright (c) 1996-2006 Texas Instruments Incorporated
PCModBus.asm                                                         PAGE  147

    6850                      .dwattr DW$611, DW_AT_low_pc(DW$L$_Registers$59$B)
    6851                      .dwattr DW$611, DW_AT_high_pc(DW$L$_Registers$59$E)
    6852              DW$612  .dwtag  DW_TAG_loop_range
    6853                      .dwattr DW$612, DW_AT_low_pc(DW$L$_Registers$60$B)
    6854                      .dwattr DW$612, DW_AT_high_pc(DW$L$_Registers$60$E)
    6855              DW$613  .dwtag  DW_TAG_loop_range
    6856                      .dwattr DW$613, DW_AT_low_pc(DW$L$_Registers$61$B)
    6857                      .dwattr DW$613, DW_AT_high_pc(DW$L$_Registers$61$E)
    6858              DW$614  .dwtag  DW_TAG_loop_range
    6859                      .dwattr DW$614, DW_AT_low_pc(DW$L$_Registers$62$B)
    6860                      .dwattr DW$614, DW_AT_high_pc(DW$L$_Registers$62$E)
    6861              DW$615  .dwtag  DW_TAG_loop_range
    6862                      .dwattr DW$615, DW_AT_low_pc(DW$L$_Registers$63$B)
    6863                      .dwattr DW$615, DW_AT_high_pc(DW$L$_Registers$63$E)
    6864              DW$616  .dwtag  DW_TAG_loop_range
    6865                      .dwattr DW$616, DW_AT_low_pc(DW$L$_Registers$64$B)
    6866                      .dwattr DW$616, DW_AT_high_pc(DW$L$_Registers$64$E)
    6867              DW$617  .dwtag  DW_TAG_loop_range
    6868                      .dwattr DW$617, DW_AT_low_pc(DW$L$_Registers$65$B)
    6869                      .dwattr DW$617, DW_AT_high_pc(DW$L$_Registers$65$E)
    6870              DW$618  .dwtag  DW_TAG_loop_range
    6871                      .dwattr DW$618, DW_AT_low_pc(DW$L$_Registers$66$B)
    6872                      .dwattr DW$618, DW_AT_high_pc(DW$L$_Registers$66$E)
    6873              DW$619  .dwtag  DW_TAG_loop_range
    6874                      .dwattr DW$619, DW_AT_low_pc(DW$L$_Registers$67$B)
    6875                      .dwattr DW$619, DW_AT_high_pc(DW$L$_Registers$67$E)
    6876              DW$620  .dwtag  DW_TAG_loop_range
    6877                      .dwattr DW$620, DW_AT_low_pc(DW$L$_Registers$68$B)
    6878                      .dwattr DW$620, DW_AT_high_pc(DW$L$_Registers$68$E)
    6879              DW$621  .dwtag  DW_TAG_loop_range
    6880                      .dwattr DW$621, DW_AT_low_pc(DW$L$_Registers$69$B)
    6881                      .dwattr DW$621, DW_AT_high_pc(DW$L$_Registers$69$E)
    6882              DW$622  .dwtag  DW_TAG_loop_range
    6883                      .dwattr DW$622, DW_AT_low_pc(DW$L$_Registers$70$B)
    6884                      .dwattr DW$622, DW_AT_high_pc(DW$L$_Registers$70$E)
    6885              DW$623  .dwtag  DW_TAG_loop_range
    6886                      .dwattr DW$623, DW_AT_low_pc(DW$L$_Registers$71$B)
    6887                      .dwattr DW$623, DW_AT_high_pc(DW$L$_Registers$71$E)
    6888              DW$624  .dwtag  DW_TAG_loop_range
    6889                      .dwattr DW$624, DW_AT_low_pc(DW$L$_Registers$72$B)
    6890                      .dwattr DW$624, DW_AT_high_pc(DW$L$_Registers$72$E)
    6891              DW$625  .dwtag  DW_TAG_loop_range
    6892                      .dwattr DW$625, DW_AT_low_pc(DW$L$_Registers$73$B)
    6893                      .dwattr DW$625, DW_AT_high_pc(DW$L$_Registers$73$E)
    6894              DW$626  .dwtag  DW_TAG_loop_range
    6895                      .dwattr DW$626, DW_AT_low_pc(DW$L$_Registers$74$B)
    6896                      .dwattr DW$626, DW_AT_high_pc(DW$L$_Registers$74$E)
    6897              DW$627  .dwtag  DW_TAG_loop_range
    6898                      .dwattr DW$627, DW_AT_low_pc(DW$L$_Registers$75$B)
    6899                      .dwattr DW$627, DW_AT_high_pc(DW$L$_Registers$75$E)
    6900              DW$628  .dwtag  DW_TAG_loop_range
    6901                      .dwattr DW$628, DW_AT_low_pc(DW$L$_Registers$76$B)
    6902                      .dwattr DW$628, DW_AT_high_pc(DW$L$_Registers$76$E)
    6903              DW$629  .dwtag  DW_TAG_loop_range
    6904                      .dwattr DW$629, DW_AT_low_pc(DW$L$_Registers$77$B)
TMS320C2000 COFF Assembler PC v4.1.3 Thu Aug 18 12:16:25 2016

Tools Copyright (c) 1996-2006 Texas Instruments Incorporated
PCModBus.asm                                                         PAGE  148

    6905                      .dwattr DW$629, DW_AT_high_pc(DW$L$_Registers$77$E)
    6906              DW$630  .dwtag  DW_TAG_loop_range
    6907                      .dwattr DW$630, DW_AT_low_pc(DW$L$_Registers$78$B)
    6908                      .dwattr DW$630, DW_AT_high_pc(DW$L$_Registers$78$E)
    6909              DW$631  .dwtag  DW_TAG_loop_range
    6910                      .dwattr DW$631, DW_AT_low_pc(DW$L$_Registers$79$B)
    6911                      .dwattr DW$631, DW_AT_high_pc(DW$L$_Registers$79$E)
    6912              DW$632  .dwtag  DW_TAG_loop_range
    6913                      .dwattr DW$632, DW_AT_low_pc(DW$L$_Registers$80$B)
    6914                      .dwattr DW$632, DW_AT_high_pc(DW$L$_Registers$80$E)
    6915              DW$633  .dwtag  DW_TAG_loop_range
    6916                      .dwattr DW$633, DW_AT_low_pc(DW$L$_Registers$81$B)
    6917                      .dwattr DW$633, DW_AT_high_pc(DW$L$_Registers$81$E)
    6918              DW$634  .dwtag  DW_TAG_loop_range
    6919                      .dwattr DW$634, DW_AT_low_pc(DW$L$_Registers$82$B)
    6920                      .dwattr DW$634, DW_AT_high_pc(DW$L$_Registers$82$E)
    6921              DW$635  .dwtag  DW_TAG_loop_range
    6922                      .dwattr DW$635, DW_AT_low_pc(DW$L$_Registers$83$B)
    6923                      .dwattr DW$635, DW_AT_high_pc(DW$L$_Registers$83$E)
    6924              DW$636  .dwtag  DW_TAG_loop_range
    6925                      .dwattr DW$636, DW_AT_low_pc(DW$L$_Registers$84$B)
    6926                      .dwattr DW$636, DW_AT_high_pc(DW$L$_Registers$84$E)
    6927              DW$637  .dwtag  DW_TAG_loop_range
    6928                      .dwattr DW$637, DW_AT_low_pc(DW$L$_Registers$85$B)
    6929                      .dwattr DW$637, DW_AT_high_pc(DW$L$_Registers$85$E)
    6930              DW$638  .dwtag  DW_TAG_loop_range
    6931                      .dwattr DW$638, DW_AT_low_pc(DW$L$_Registers$86$B)
    6932                      .dwattr DW$638, DW_AT_high_pc(DW$L$_Registers$86$E)
    6933              DW$639  .dwtag  DW_TAG_loop_range
    6934                      .dwattr DW$639, DW_AT_low_pc(DW$L$_Registers$87$B)
    6935                      .dwattr DW$639, DW_AT_high_pc(DW$L$_Registers$87$E)
    6936              DW$640  .dwtag  DW_TAG_loop_range
    6937                      .dwattr DW$640, DW_AT_low_pc(DW$L$_Registers$88$B)
    6938                      .dwattr DW$640, DW_AT_high_pc(DW$L$_Registers$88$E)
    6939              DW$641  .dwtag  DW_TAG_loop_range
    6940                      .dwattr DW$641, DW_AT_low_pc(DW$L$_Registers$89$B)
    6941                      .dwattr DW$641, DW_AT_high_pc(DW$L$_Registers$89$E)
    6942              DW$642  .dwtag  DW_TAG_loop_range
    6943                      .dwattr DW$642, DW_AT_low_pc(DW$L$_Registers$90$B)
    6944                      .dwattr DW$642, DW_AT_high_pc(DW$L$_Registers$90$E)
    6945              DW$643  .dwtag  DW_TAG_loop_range
    6946                      .dwattr DW$643, DW_AT_low_pc(DW$L$_Registers$91$B)
    6947                      .dwattr DW$643, DW_AT_high_pc(DW$L$_Registers$91$E)
    6948              DW$644  .dwtag  DW_TAG_loop_range
    6949                      .dwattr DW$644, DW_AT_low_pc(DW$L$_Registers$92$B)
    6950                      .dwattr DW$644, DW_AT_high_pc(DW$L$_Registers$92$E)
    6951              DW$645  .dwtag  DW_TAG_loop_range
    6952                      .dwattr DW$645, DW_AT_low_pc(DW$L$_Registers$93$B)
    6953                      .dwattr DW$645, DW_AT_high_pc(DW$L$_Registers$93$E)
    6954              DW$646  .dwtag  DW_TAG_loop_range
    6955                      .dwattr DW$646, DW_AT_low_pc(DW$L$_Registers$94$B)
    6956                      .dwattr DW$646, DW_AT_high_pc(DW$L$_Registers$94$E)
    6957              DW$647  .dwtag  DW_TAG_loop_range
    6958                      .dwattr DW$647, DW_AT_low_pc(DW$L$_Registers$95$B)
    6959                      .dwattr DW$647, DW_AT_high_pc(DW$L$_Registers$95$E)
TMS320C2000 COFF Assembler PC v4.1.3 Thu Aug 18 12:16:25 2016

Tools Copyright (c) 1996-2006 Texas Instruments Incorporated
PCModBus.asm                                                         PAGE  149

    6960              DW$648  .dwtag  DW_TAG_loop_range
    6961                      .dwattr DW$648, DW_AT_low_pc(DW$L$_Registers$96$B)
    6962                      .dwattr DW$648, DW_AT_high_pc(DW$L$_Registers$96$E)
    6963              DW$649  .dwtag  DW_TAG_loop_range
    6964                      .dwattr DW$649, DW_AT_low_pc(DW$L$_Registers$97$B)
    6965                      .dwattr DW$649, DW_AT_high_pc(DW$L$_Registers$97$E)
    6966              DW$650  .dwtag  DW_TAG_loop_range
    6967                      .dwattr DW$650, DW_AT_low_pc(DW$L$_Registers$98$B)
    6968                      .dwattr DW$650, DW_AT_high_pc(DW$L$_Registers$98$E)
    6969              DW$651  .dwtag  DW_TAG_loop_range
    6970                      .dwattr DW$651, DW_AT_low_pc(DW$L$_Registers$99$B)
    6971                      .dwattr DW$651, DW_AT_high_pc(DW$L$_Registers$99$E)
    6972              DW$652  .dwtag  DW_TAG_loop_range
    6973                      .dwattr DW$652, DW_AT_low_pc(DW$L$_Registers$100$B)
    6974                      .dwattr DW$652, DW_AT_high_pc(DW$L$_Registers$100$E)
    6975              DW$653  .dwtag  DW_TAG_loop_range
    6976                      .dwattr DW$653, DW_AT_low_pc(DW$L$_Registers$101$B)
    6977                      .dwattr DW$653, DW_AT_high_pc(DW$L$_Registers$101$E)
    6978              DW$654  .dwtag  DW_TAG_loop_range
    6979                      .dwattr DW$654, DW_AT_low_pc(DW$L$_Registers$102$B)
    6980                      .dwattr DW$654, DW_AT_high_pc(DW$L$_Registers$102$E)
    6981              DW$655  .dwtag  DW_TAG_loop_range
    6982                      .dwattr DW$655, DW_AT_low_pc(DW$L$_Registers$103$B)
    6983                      .dwattr DW$655, DW_AT_high_pc(DW$L$_Registers$103$E)
    6984              DW$656  .dwtag  DW_TAG_loop_range
    6985                      .dwattr DW$656, DW_AT_low_pc(DW$L$_Registers$104$B)
    6986                      .dwattr DW$656, DW_AT_high_pc(DW$L$_Registers$104$E)
    6987              DW$657  .dwtag  DW_TAG_loop_range
    6988                      .dwattr DW$657, DW_AT_low_pc(DW$L$_Registers$105$B)
    6989                      .dwattr DW$657, DW_AT_high_pc(DW$L$_Registers$105$E)
    6990              DW$658  .dwtag  DW_TAG_loop_range
    6991                      .dwattr DW$658, DW_AT_low_pc(DW$L$_Registers$106$B)
    6992                      .dwattr DW$658, DW_AT_high_pc(DW$L$_Registers$106$E)
    6993              DW$659  .dwtag  DW_TAG_loop_range
    6994                      .dwattr DW$659, DW_AT_low_pc(DW$L$_Registers$107$B)
    6995                      .dwattr DW$659, DW_AT_high_pc(DW$L$_Registers$107$E)
    6996              DW$660  .dwtag  DW_TAG_loop_range
    6997                      .dwattr DW$660, DW_AT_low_pc(DW$L$_Registers$108$B)
    6998                      .dwattr DW$660, DW_AT_high_pc(DW$L$_Registers$108$E)
    6999              DW$661  .dwtag  DW_TAG_loop_range
    7000                      .dwattr DW$661, DW_AT_low_pc(DW$L$_Registers$109$B)
    7001                      .dwattr DW$661, DW_AT_high_pc(DW$L$_Registers$109$E)
    7002              DW$662  .dwtag  DW_TAG_loop_range
    7003                      .dwattr DW$662, DW_AT_low_pc(DW$L$_Registers$110$B)
    7004                      .dwattr DW$662, DW_AT_high_pc(DW$L$_Registers$110$E)
    7005              DW$663  .dwtag  DW_TAG_loop_range
    7006                      .dwattr DW$663, DW_AT_low_pc(DW$L$_Registers$111$B)
    7007                      .dwattr DW$663, DW_AT_high_pc(DW$L$_Registers$111$E)
    7008              DW$664  .dwtag  DW_TAG_loop_range
    7009                      .dwattr DW$664, DW_AT_low_pc(DW$L$_Registers$112$B)
    7010                      .dwattr DW$664, DW_AT_high_pc(DW$L$_Registers$112$E)
    7011              DW$665  .dwtag  DW_TAG_loop_range
    7012                      .dwattr DW$665, DW_AT_low_pc(DW$L$_Registers$113$B)
    7013                      .dwattr DW$665, DW_AT_high_pc(DW$L$_Registers$113$E)
    7014              DW$666  .dwtag  DW_TAG_loop_range
TMS320C2000 COFF Assembler PC v4.1.3 Thu Aug 18 12:16:25 2016

Tools Copyright (c) 1996-2006 Texas Instruments Incorporated
PCModBus.asm                                                         PAGE  150

    7015                      .dwattr DW$666, DW_AT_low_pc(DW$L$_Registers$114$B)
    7016                      .dwattr DW$666, DW_AT_high_pc(DW$L$_Registers$114$E)
    7017              DW$667  .dwtag  DW_TAG_loop_range
    7018                      .dwattr DW$667, DW_AT_low_pc(DW$L$_Registers$115$B)
    7019                      .dwattr DW$667, DW_AT_high_pc(DW$L$_Registers$115$E)
    7020              DW$668  .dwtag  DW_TAG_loop_range
    7021                      .dwattr DW$668, DW_AT_low_pc(DW$L$_Registers$116$B)
    7022                      .dwattr DW$668, DW_AT_high_pc(DW$L$_Registers$116$E)
    7023              DW$669  .dwtag  DW_TAG_loop_range
    7024                      .dwattr DW$669, DW_AT_low_pc(DW$L$_Registers$117$B)
    7025                      .dwattr DW$669, DW_AT_high_pc(DW$L$_Registers$117$E)
    7026              DW$670  .dwtag  DW_TAG_loop_range
    7027                      .dwattr DW$670, DW_AT_low_pc(DW$L$_Registers$118$B)
    7028                      .dwattr DW$670, DW_AT_high_pc(DW$L$_Registers$118$E)
    7029              DW$671  .dwtag  DW_TAG_loop_range
    7030                      .dwattr DW$671, DW_AT_low_pc(DW$L$_Registers$119$B)
    7031                      .dwattr DW$671, DW_AT_high_pc(DW$L$_Registers$119$E)
    7032              DW$672  .dwtag  DW_TAG_loop_range
    7033                      .dwattr DW$672, DW_AT_low_pc(DW$L$_Registers$120$B)
    7034                      .dwattr DW$672, DW_AT_high_pc(DW$L$_Registers$120$E)
    7035              DW$673  .dwtag  DW_TAG_loop_range
    7036                      .dwattr DW$673, DW_AT_low_pc(DW$L$_Registers$121$B)
    7037                      .dwattr DW$673, DW_AT_high_pc(DW$L$_Registers$121$E)
    7038              DW$674  .dwtag  DW_TAG_loop_range
    7039                      .dwattr DW$674, DW_AT_low_pc(DW$L$_Registers$122$B)
    7040                      .dwattr DW$674, DW_AT_high_pc(DW$L$_Registers$122$E)
    7041              DW$675  .dwtag  DW_TAG_loop_range
    7042                      .dwattr DW$675, DW_AT_low_pc(DW$L$_Registers$123$B)
    7043                      .dwattr DW$675, DW_AT_high_pc(DW$L$_Registers$123$E)
    7044              DW$676  .dwtag  DW_TAG_loop_range
    7045                      .dwattr DW$676, DW_AT_low_pc(DW$L$_Registers$124$B)
    7046                      .dwattr DW$676, DW_AT_high_pc(DW$L$_Registers$124$E)
    7047              DW$677  .dwtag  DW_TAG_loop_range
    7048                      .dwattr DW$677, DW_AT_low_pc(DW$L$_Registers$7$B)
    7049                      .dwattr DW$677, DW_AT_high_pc(DW$L$_Registers$7$E)
    7050              DW$678  .dwtag  DW_TAG_loop_range
    7051                      .dwattr DW$678, DW_AT_low_pc(DW$L$_Registers$8$B)
    7052                      .dwattr DW$678, DW_AT_high_pc(DW$L$_Registers$8$E)
    7053              DW$679  .dwtag  DW_TAG_loop_range
    7054                      .dwattr DW$679, DW_AT_low_pc(DW$L$_Registers$125$B)
    7055                      .dwattr DW$679, DW_AT_high_pc(DW$L$_Registers$125$E)
    7056              DW$680  .dwtag  DW_TAG_loop_range
    7057                      .dwattr DW$680, DW_AT_low_pc(DW$L$_Registers$235$B)
    7058                      .dwattr DW$680, DW_AT_high_pc(DW$L$_Registers$235$E)
    7059              DW$681  .dwtag  DW_TAG_loop_range
    7060                      .dwattr DW$681, DW_AT_low_pc(DW$L$_Registers$236$B)
    7061                      .dwattr DW$681, DW_AT_high_pc(DW$L$_Registers$236$E)
    7062              DW$682  .dwtag  DW_TAG_loop_range
    7063                      .dwattr DW$682, DW_AT_low_pc(DW$L$_Registers$238$B)
    7064                      .dwattr DW$682, DW_AT_high_pc(DW$L$_Registers$238$E)
    7065              DW$683  .dwtag  DW_TAG_loop_range
    7066                      .dwattr DW$683, DW_AT_low_pc(DW$L$_Registers$240$B)
    7067                      .dwattr DW$683, DW_AT_high_pc(DW$L$_Registers$240$E)
    7068              DW$684  .dwtag  DW_TAG_loop_range
    7069                      .dwattr DW$684, DW_AT_low_pc(DW$L$_Registers$241$B)
TMS320C2000 COFF Assembler PC v4.1.3 Thu Aug 18 12:16:25 2016

Tools Copyright (c) 1996-2006 Texas Instruments Incorporated
PCModBus.asm                                                         PAGE  151

    7070                      .dwattr DW$684, DW_AT_high_pc(DW$L$_Registers$241$E)
    7071              DW$685  .dwtag  DW_TAG_loop_range
    7072                      .dwattr DW$685, DW_AT_low_pc(DW$L$_Registers$242$B)
    7073                      .dwattr DW$685, DW_AT_high_pc(DW$L$_Registers$242$E)
    7074              DW$686  .dwtag  DW_TAG_loop_range
    7075                      .dwattr DW$686, DW_AT_low_pc(DW$L$_Registers$255$B)
    7076                      .dwattr DW$686, DW_AT_high_pc(DW$L$_Registers$255$E)
    7077              DW$687  .dwtag  DW_TAG_loop_range
    7078                      .dwattr DW$687, DW_AT_low_pc(DW$L$_Registers$256$B)
    7079                      .dwattr DW$687, DW_AT_high_pc(DW$L$_Registers$256$E)
    7080              DW$688  .dwtag  DW_TAG_loop_range
    7081                      .dwattr DW$688, DW_AT_low_pc(DW$L$_Registers$257$B)
    7082                      .dwattr DW$688, DW_AT_high_pc(DW$L$_Registers$257$E)
    7083              DW$689  .dwtag  DW_TAG_loop_range
    7084                      .dwattr DW$689, DW_AT_low_pc(DW$L$_Registers$261$B)
    7085                      .dwattr DW$689, DW_AT_high_pc(DW$L$_Registers$261$E)
    7086              DW$690  .dwtag  DW_TAG_loop_range
    7087                      .dwattr DW$690, DW_AT_low_pc(DW$L$_Registers$292$B)
    7088                      .dwattr DW$690, DW_AT_high_pc(DW$L$_Registers$292$E)
    7089              DW$691  .dwtag  DW_TAG_loop_range
    7090                      .dwattr DW$691, DW_AT_low_pc(DW$L$_Registers$296$B)
    7091                      .dwattr DW$691, DW_AT_high_pc(DW$L$_Registers$296$E)
    7092              DW$692  .dwtag  DW_TAG_loop_range
    7093                      .dwattr DW$692, DW_AT_low_pc(DW$L$_Registers$315$B)
    7094                      .dwattr DW$692, DW_AT_high_pc(DW$L$_Registers$315$E)
    7095              DW$693  .dwtag  DW_TAG_loop_range
    7096                      .dwattr DW$693, DW_AT_low_pc(DW$L$_Registers$321$B)
    7097                      .dwattr DW$693, DW_AT_high_pc(DW$L$_Registers$321$E)
    7098              DW$694  .dwtag  DW_TAG_loop_range
    7099                      .dwattr DW$694, DW_AT_low_pc(DW$L$_Registers$324$B)
    7100                      .dwattr DW$694, DW_AT_high_pc(DW$L$_Registers$324$E)
    7101              DW$695  .dwtag  DW_TAG_loop_range
    7102                      .dwattr DW$695, DW_AT_low_pc(DW$L$_Registers$331$B)
    7103                      .dwattr DW$695, DW_AT_high_pc(DW$L$_Registers$331$E)
    7104              DW$696  .dwtag  DW_TAG_loop_range
    7105                      .dwattr DW$696, DW_AT_low_pc(DW$L$_Registers$332$B)
    7106                      .dwattr DW$696, DW_AT_high_pc(DW$L$_Registers$332$E)
    7107              DW$697  .dwtag  DW_TAG_loop_range
    7108                      .dwattr DW$697, DW_AT_low_pc(DW$L$_Registers$336$B)
    7109                      .dwattr DW$697, DW_AT_high_pc(DW$L$_Registers$336$E)
    7110              DW$698  .dwtag  DW_TAG_loop_range
    7111                      .dwattr DW$698, DW_AT_low_pc(DW$L$_Registers$345$B)
    7112                      .dwattr DW$698, DW_AT_high_pc(DW$L$_Registers$345$E)
    7113              DW$699  .dwtag  DW_TAG_loop_range
    7114                      .dwattr DW$699, DW_AT_low_pc(DW$L$_Registers$350$B)
    7115                      .dwattr DW$699, DW_AT_high_pc(DW$L$_Registers$350$E)
    7116              DW$700  .dwtag  DW_TAG_loop_range
    7117                      .dwattr DW$700, DW_AT_low_pc(DW$L$_Registers$357$B)
    7118                      .dwattr DW$700, DW_AT_high_pc(DW$L$_Registers$357$E)
    7119              DW$701  .dwtag  DW_TAG_loop_range
    7120                      .dwattr DW$701, DW_AT_low_pc(DW$L$_Registers$359$B)
    7121                      .dwattr DW$701, DW_AT_high_pc(DW$L$_Registers$359$E)
    7122              DW$702  .dwtag  DW_TAG_loop_range
    7123                      .dwattr DW$702, DW_AT_low_pc(DW$L$_Registers$360$B)
    7124                      .dwattr DW$702, DW_AT_high_pc(DW$L$_Registers$360$E)
TMS320C2000 COFF Assembler PC v4.1.3 Thu Aug 18 12:16:25 2016

Tools Copyright (c) 1996-2006 Texas Instruments Incorporated
PCModBus.asm                                                         PAGE  152

    7125              DW$703  .dwtag  DW_TAG_loop_range
    7126                      .dwattr DW$703, DW_AT_low_pc(DW$L$_Registers$361$B)
    7127                      .dwattr DW$703, DW_AT_high_pc(DW$L$_Registers$361$E)
    7128              DW$704  .dwtag  DW_TAG_loop_range
    7129                      .dwattr DW$704, DW_AT_low_pc(DW$L$_Registers$364$B)
    7130                      .dwattr DW$704, DW_AT_high_pc(DW$L$_Registers$364$E)
    7131              DW$705  .dwtag  DW_TAG_loop_range
    7132                      .dwattr DW$705, DW_AT_low_pc(DW$L$_Registers$367$B)
    7133                      .dwattr DW$705, DW_AT_high_pc(DW$L$_Registers$367$E)
    7134              DW$706  .dwtag  DW_TAG_loop_range
    7135                      .dwattr DW$706, DW_AT_low_pc(DW$L$_Registers$371$B)
    7136                      .dwattr DW$706, DW_AT_high_pc(DW$L$_Registers$371$E)
    7137              DW$707  .dwtag  DW_TAG_loop_range
    7138                      .dwattr DW$707, DW_AT_low_pc(DW$L$_Registers$372$B)
    7139                      .dwattr DW$707, DW_AT_high_pc(DW$L$_Registers$372$E)
    7140              DW$708  .dwtag  DW_TAG_loop_range
    7141                      .dwattr DW$708, DW_AT_low_pc(DW$L$_Registers$373$B)
    7142                      .dwattr DW$708, DW_AT_high_pc(DW$L$_Registers$373$E)
    7143              DW$709  .dwtag  DW_TAG_loop_range
    7144                      .dwattr DW$709, DW_AT_low_pc(DW$L$_Registers$374$B)
    7145                      .dwattr DW$709, DW_AT_high_pc(DW$L$_Registers$374$E)
    7146              DW$710  .dwtag  DW_TAG_loop_range
    7147                      .dwattr DW$710, DW_AT_low_pc(DW$L$_Registers$375$B)
    7148                      .dwattr DW$710, DW_AT_high_pc(DW$L$_Registers$375$E)
    7149              DW$711  .dwtag  DW_TAG_loop_range
    7150                      .dwattr DW$711, DW_AT_low_pc(DW$L$_Registers$376$B)
    7151                      .dwattr DW$711, DW_AT_high_pc(DW$L$_Registers$376$E)
    7152              DW$712  .dwtag  DW_TAG_loop_range
    7153                      .dwattr DW$712, DW_AT_low_pc(DW$L$_Registers$377$B)
    7154                      .dwattr DW$712, DW_AT_high_pc(DW$L$_Registers$377$E)
    7155              DW$713  .dwtag  DW_TAG_loop_range
    7156                      .dwattr DW$713, DW_AT_low_pc(DW$L$_Registers$378$B)
    7157                      .dwattr DW$713, DW_AT_high_pc(DW$L$_Registers$378$E)
    7158              DW$714  .dwtag  DW_TAG_loop_range
    7159                      .dwattr DW$714, DW_AT_low_pc(DW$L$_Registers$379$B)
    7160                      .dwattr DW$714, DW_AT_high_pc(DW$L$_Registers$379$E)
    7161              DW$715  .dwtag  DW_TAG_loop_range
    7162                      .dwattr DW$715, DW_AT_low_pc(DW$L$_Registers$380$B)
    7163                      .dwattr DW$715, DW_AT_high_pc(DW$L$_Registers$380$E)
    7164              DW$716  .dwtag  DW_TAG_loop_range
    7165                      .dwattr DW$716, DW_AT_low_pc(DW$L$_Registers$382$B)
    7166                      .dwattr DW$716, DW_AT_high_pc(DW$L$_Registers$382$E)
    7167              DW$717  .dwtag  DW_TAG_loop_range
    7168                      .dwattr DW$717, DW_AT_low_pc(DW$L$_Registers$383$B)
    7169                      .dwattr DW$717, DW_AT_high_pc(DW$L$_Registers$383$E)
    7170              DW$718  .dwtag  DW_TAG_loop_range
    7171                      .dwattr DW$718, DW_AT_low_pc(DW$L$_Registers$386$B)
    7172                      .dwattr DW$718, DW_AT_high_pc(DW$L$_Registers$386$E)
    7173              DW$719  .dwtag  DW_TAG_loop_range
    7174                      .dwattr DW$719, DW_AT_low_pc(DW$L$_Registers$387$B)
    7175                      .dwattr DW$719, DW_AT_high_pc(DW$L$_Registers$387$E)
    7176              DW$720  .dwtag  DW_TAG_loop_range
    7177                      .dwattr DW$720, DW_AT_low_pc(DW$L$_Registers$389$B)
    7178                      .dwattr DW$720, DW_AT_high_pc(DW$L$_Registers$389$E)
    7179              DW$721  .dwtag  DW_TAG_loop_range
TMS320C2000 COFF Assembler PC v4.1.3 Thu Aug 18 12:16:25 2016

Tools Copyright (c) 1996-2006 Texas Instruments Incorporated
PCModBus.asm                                                         PAGE  153

    7180                      .dwattr DW$721, DW_AT_low_pc(DW$L$_Registers$391$B)
    7181                      .dwattr DW$721, DW_AT_high_pc(DW$L$_Registers$391$E)
    7182              DW$722  .dwtag  DW_TAG_loop_range
    7183                      .dwattr DW$722, DW_AT_low_pc(DW$L$_Registers$393$B)
    7184                      .dwattr DW$722, DW_AT_high_pc(DW$L$_Registers$393$E)
    7185              DW$723  .dwtag  DW_TAG_loop_range
    7186                      .dwattr DW$723, DW_AT_low_pc(DW$L$_Registers$394$B)
    7187                      .dwattr DW$723, DW_AT_high_pc(DW$L$_Registers$394$E)
    7188              DW$724  .dwtag  DW_TAG_loop_range
    7189                      .dwattr DW$724, DW_AT_low_pc(DW$L$_Registers$395$B)
    7190                      .dwattr DW$724, DW_AT_high_pc(DW$L$_Registers$395$E)
    7191              DW$725  .dwtag  DW_TAG_loop_range
    7192                      .dwattr DW$725, DW_AT_low_pc(DW$L$_Registers$398$B)
    7193                      .dwattr DW$725, DW_AT_high_pc(DW$L$_Registers$398$E)
    7194              DW$726  .dwtag  DW_TAG_loop_range
    7195                      .dwattr DW$726, DW_AT_low_pc(DW$L$_Registers$399$B)
    7196                      .dwattr DW$726, DW_AT_high_pc(DW$L$_Registers$399$E)
    7197              DW$727  .dwtag  DW_TAG_loop_range
    7198                      .dwattr DW$727, DW_AT_low_pc(DW$L$_Registers$400$B)
    7199                      .dwattr DW$727, DW_AT_high_pc(DW$L$_Registers$400$E)
    7200              DW$728  .dwtag  DW_TAG_loop_range
    7201                      .dwattr DW$728, DW_AT_low_pc(DW$L$_Registers$401$B)
    7202                      .dwattr DW$728, DW_AT_high_pc(DW$L$_Registers$401$E)
    7203              DW$729  .dwtag  DW_TAG_loop_range
    7204                      .dwattr DW$729, DW_AT_low_pc(DW$L$_Registers$403$B)
    7205                      .dwattr DW$729, DW_AT_high_pc(DW$L$_Registers$403$E)
    7206              DW$730  .dwtag  DW_TAG_loop_range
    7207                      .dwattr DW$730, DW_AT_low_pc(DW$L$_Registers$404$B)
    7208                      .dwattr DW$730, DW_AT_high_pc(DW$L$_Registers$404$E)
    7209              DW$731  .dwtag  DW_TAG_loop_range
    7210                      .dwattr DW$731, DW_AT_low_pc(DW$L$_Registers$405$B)
    7211                      .dwattr DW$731, DW_AT_high_pc(DW$L$_Registers$405$E)
    7212              DW$732  .dwtag  DW_TAG_loop_range
    7213                      .dwattr DW$732, DW_AT_low_pc(DW$L$_Registers$406$B)
    7214                      .dwattr DW$732, DW_AT_high_pc(DW$L$_Registers$406$E)
    7215              DW$733  .dwtag  DW_TAG_loop_range
    7216                      .dwattr DW$733, DW_AT_low_pc(DW$L$_Registers$409$B)
    7217                      .dwattr DW$733, DW_AT_high_pc(DW$L$_Registers$409$E)
    7218              DW$734  .dwtag  DW_TAG_loop_range
    7219                      .dwattr DW$734, DW_AT_low_pc(DW$L$_Registers$410$B)
    7220                      .dwattr DW$734, DW_AT_high_pc(DW$L$_Registers$410$E)
    7221              DW$735  .dwtag  DW_TAG_loop_range
    7222                      .dwattr DW$735, DW_AT_low_pc(DW$L$_Registers$411$B)
    7223                      .dwattr DW$735, DW_AT_high_pc(DW$L$_Registers$411$E)
    7224              DW$736  .dwtag  DW_TAG_loop_range
    7225                      .dwattr DW$736, DW_AT_low_pc(DW$L$_Registers$412$B)
    7226                      .dwattr DW$736, DW_AT_high_pc(DW$L$_Registers$412$E)
    7227              DW$737  .dwtag  DW_TAG_loop_range
    7228                      .dwattr DW$737, DW_AT_low_pc(DW$L$_Registers$413$B)
    7229                      .dwattr DW$737, DW_AT_high_pc(DW$L$_Registers$413$E)
    7230              DW$738  .dwtag  DW_TAG_loop_range
    7231                      .dwattr DW$738, DW_AT_low_pc(DW$L$_Registers$417$B)
    7232                      .dwattr DW$738, DW_AT_high_pc(DW$L$_Registers$417$E)
    7233              DW$739  .dwtag  DW_TAG_loop_range
    7234                      .dwattr DW$739, DW_AT_low_pc(DW$L$_Registers$420$B)
TMS320C2000 COFF Assembler PC v4.1.3 Thu Aug 18 12:16:25 2016

Tools Copyright (c) 1996-2006 Texas Instruments Incorporated
PCModBus.asm                                                         PAGE  154

    7235                      .dwattr DW$739, DW_AT_high_pc(DW$L$_Registers$420$E)
    7236              DW$740  .dwtag  DW_TAG_loop_range
    7237                      .dwattr DW$740, DW_AT_low_pc(DW$L$_Registers$421$B)
    7238                      .dwattr DW$740, DW_AT_high_pc(DW$L$_Registers$421$E)
    7239              DW$741  .dwtag  DW_TAG_loop_range
    7240                      .dwattr DW$741, DW_AT_low_pc(DW$L$_Registers$422$B)
    7241                      .dwattr DW$741, DW_AT_high_pc(DW$L$_Registers$422$E)
    7242              DW$742  .dwtag  DW_TAG_loop_range
    7243                      .dwattr DW$742, DW_AT_low_pc(DW$L$_Registers$423$B)
    7244                      .dwattr DW$742, DW_AT_high_pc(DW$L$_Registers$423$E)
    7245              DW$743  .dwtag  DW_TAG_loop_range
    7246                      .dwattr DW$743, DW_AT_low_pc(DW$L$_Registers$424$B)
    7247                      .dwattr DW$743, DW_AT_high_pc(DW$L$_Registers$424$E)
    7248              DW$744  .dwtag  DW_TAG_loop_range
    7249                      .dwattr DW$744, DW_AT_low_pc(DW$L$_Registers$426$B)
    7250                      .dwattr DW$744, DW_AT_high_pc(DW$L$_Registers$426$E)
    7251              DW$745  .dwtag  DW_TAG_loop_range
    7252                      .dwattr DW$745, DW_AT_low_pc(DW$L$_Registers$427$B)
    7253                      .dwattr DW$745, DW_AT_high_pc(DW$L$_Registers$427$E)
    7254              DW$746  .dwtag  DW_TAG_loop_range
    7255                      .dwattr DW$746, DW_AT_low_pc(DW$L$_Registers$428$B)
    7256                      .dwattr DW$746, DW_AT_high_pc(DW$L$_Registers$428$E)
    7257              DW$747  .dwtag  DW_TAG_loop_range
    7258                      .dwattr DW$747, DW_AT_low_pc(DW$L$_Registers$429$B)
    7259                      .dwattr DW$747, DW_AT_high_pc(DW$L$_Registers$429$E)
    7260              DW$748  .dwtag  DW_TAG_loop_range
    7261                      .dwattr DW$748, DW_AT_low_pc(DW$L$_Registers$430$B)
    7262                      .dwattr DW$748, DW_AT_high_pc(DW$L$_Registers$430$E)
    7263              DW$749  .dwtag  DW_TAG_loop_range
    7264                      .dwattr DW$749, DW_AT_low_pc(DW$L$_Registers$431$B)
    7265                      .dwattr DW$749, DW_AT_high_pc(DW$L$_Registers$431$E)
    7266              DW$750  .dwtag  DW_TAG_loop_range
    7267                      .dwattr DW$750, DW_AT_low_pc(DW$L$_Registers$434$B)
    7268                      .dwattr DW$750, DW_AT_high_pc(DW$L$_Registers$434$E)
    7269              DW$751  .dwtag  DW_TAG_loop_range
    7270                      .dwattr DW$751, DW_AT_low_pc(DW$L$_Registers$437$B)
    7271                      .dwattr DW$751, DW_AT_high_pc(DW$L$_Registers$437$E)
    7272              DW$752  .dwtag  DW_TAG_loop_range
    7273                      .dwattr DW$752, DW_AT_low_pc(DW$L$_Registers$438$B)
    7274                      .dwattr DW$752, DW_AT_high_pc(DW$L$_Registers$438$E)
    7275              DW$753  .dwtag  DW_TAG_loop_range
    7276                      .dwattr DW$753, DW_AT_low_pc(DW$L$_Registers$439$B)
    7277                      .dwattr DW$753, DW_AT_high_pc(DW$L$_Registers$439$E)
    7278              DW$754  .dwtag  DW_TAG_loop_range
    7279                      .dwattr DW$754, DW_AT_low_pc(DW$L$_Registers$443$B)
    7280                      .dwattr DW$754, DW_AT_high_pc(DW$L$_Registers$443$E)
    7281              DW$755  .dwtag  DW_TAG_loop_range
    7282                      .dwattr DW$755, DW_AT_low_pc(DW$L$_Registers$444$B)
    7283                      .dwattr DW$755, DW_AT_high_pc(DW$L$_Registers$444$E)
    7284              DW$756  .dwtag  DW_TAG_loop_range
    7285                      .dwattr DW$756, DW_AT_low_pc(DW$L$_Registers$447$B)
    7286                      .dwattr DW$756, DW_AT_high_pc(DW$L$_Registers$447$E)
    7287              DW$757  .dwtag  DW_TAG_loop_range
    7288                      .dwattr DW$757, DW_AT_low_pc(DW$L$_Registers$450$B)
    7289                      .dwattr DW$757, DW_AT_high_pc(DW$L$_Registers$450$E)
TMS320C2000 COFF Assembler PC v4.1.3 Thu Aug 18 12:16:25 2016

Tools Copyright (c) 1996-2006 Texas Instruments Incorporated
PCModBus.asm                                                         PAGE  155

    7290              DW$758  .dwtag  DW_TAG_loop_range
    7291                      .dwattr DW$758, DW_AT_low_pc(DW$L$_Registers$451$B)
    7292                      .dwattr DW$758, DW_AT_high_pc(DW$L$_Registers$451$E)
    7293              DW$759  .dwtag  DW_TAG_loop_range
    7294                      .dwattr DW$759, DW_AT_low_pc(DW$L$_Registers$461$B)
    7295                      .dwattr DW$759, DW_AT_high_pc(DW$L$_Registers$461$E)
    7296              DW$760  .dwtag  DW_TAG_loop_range
    7297                      .dwattr DW$760, DW_AT_low_pc(DW$L$_Registers$462$B)
    7298                      .dwattr DW$760, DW_AT_high_pc(DW$L$_Registers$462$E)
    7299              DW$761  .dwtag  DW_TAG_loop_range
    7300                      .dwattr DW$761, DW_AT_low_pc(DW$L$_Registers$463$B)
    7301                      .dwattr DW$761, DW_AT_high_pc(DW$L$_Registers$463$E)
    7302              DW$762  .dwtag  DW_TAG_loop_range
    7303                      .dwattr DW$762, DW_AT_low_pc(DW$L$_Registers$466$B)
    7304                      .dwattr DW$762, DW_AT_high_pc(DW$L$_Registers$466$E)
    7305              DW$763  .dwtag  DW_TAG_loop_range
    7306                      .dwattr DW$763, DW_AT_low_pc(DW$L$_Registers$469$B)
    7307                      .dwattr DW$763, DW_AT_high_pc(DW$L$_Registers$469$E)
    7308              DW$764  .dwtag  DW_TAG_loop_range
    7309                      .dwattr DW$764, DW_AT_low_pc(DW$L$_Registers$472$B)
    7310                      .dwattr DW$764, DW_AT_high_pc(DW$L$_Registers$472$E)
    7311              DW$765  .dwtag  DW_TAG_loop_range
    7312                      .dwattr DW$765, DW_AT_low_pc(DW$L$_Registers$473$B)
    7313                      .dwattr DW$765, DW_AT_high_pc(DW$L$_Registers$473$E)
    7314              DW$766  .dwtag  DW_TAG_loop_range
    7315                      .dwattr DW$766, DW_AT_low_pc(DW$L$_Registers$477$B)
    7316                      .dwattr DW$766, DW_AT_high_pc(DW$L$_Registers$477$E)
    7317              DW$767  .dwtag  DW_TAG_loop_range
    7318                      .dwattr DW$767, DW_AT_low_pc(DW$L$_Registers$478$B)
    7319                      .dwattr DW$767, DW_AT_high_pc(DW$L$_Registers$478$E)
    7320              DW$768  .dwtag  DW_TAG_loop_range
    7321                      .dwattr DW$768, DW_AT_low_pc(DW$L$_Registers$481$B)
    7322                      .dwattr DW$768, DW_AT_high_pc(DW$L$_Registers$481$E)
    7323              DW$769  .dwtag  DW_TAG_loop_range
    7324                      .dwattr DW$769, DW_AT_low_pc(DW$L$_Registers$482$B)
    7325                      .dwattr DW$769, DW_AT_high_pc(DW$L$_Registers$482$E)
    7326              DW$770  .dwtag  DW_TAG_loop_range
    7327                      .dwattr DW$770, DW_AT_low_pc(DW$L$_Registers$486$B)
    7328                      .dwattr DW$770, DW_AT_high_pc(DW$L$_Registers$486$E)
    7329              DW$771  .dwtag  DW_TAG_loop_range
    7330                      .dwattr DW$771, DW_AT_low_pc(DW$L$_Registers$489$B)
    7331                      .dwattr DW$771, DW_AT_high_pc(DW$L$_Registers$489$E)
    7332              DW$772  .dwtag  DW_TAG_loop_range
    7333                      .dwattr DW$772, DW_AT_low_pc(DW$L$_Registers$492$B)
    7334                      .dwattr DW$772, DW_AT_high_pc(DW$L$_Registers$492$E)
    7335              DW$773  .dwtag  DW_TAG_loop_range
    7336                      .dwattr DW$773, DW_AT_low_pc(DW$L$_Registers$494$B)
    7337                      .dwattr DW$773, DW_AT_high_pc(DW$L$_Registers$494$E)
    7338              DW$774  .dwtag  DW_TAG_loop_range
    7339                      .dwattr DW$774, DW_AT_low_pc(DW$L$_Registers$497$B)
    7340                      .dwattr DW$774, DW_AT_high_pc(DW$L$_Registers$497$E)
    7341              DW$775  .dwtag  DW_TAG_loop_range
    7342                      .dwattr DW$775, DW_AT_low_pc(DW$L$_Registers$500$B)
    7343                      .dwattr DW$775, DW_AT_high_pc(DW$L$_Registers$500$E)
    7344              DW$776  .dwtag  DW_TAG_loop_range
TMS320C2000 COFF Assembler PC v4.1.3 Thu Aug 18 12:16:25 2016

Tools Copyright (c) 1996-2006 Texas Instruments Incorporated
PCModBus.asm                                                         PAGE  156

    7345                      .dwattr DW$776, DW_AT_low_pc(DW$L$_Registers$502$B)
    7346                      .dwattr DW$776, DW_AT_high_pc(DW$L$_Registers$502$E)
    7347              DW$777  .dwtag  DW_TAG_loop_range
    7348                      .dwattr DW$777, DW_AT_low_pc(DW$L$_Registers$503$B)
    7349                      .dwattr DW$777, DW_AT_high_pc(DW$L$_Registers$503$E)
    7350              DW$778  .dwtag  DW_TAG_loop_range
    7351                      .dwattr DW$778, DW_AT_low_pc(DW$L$_Registers$505$B)
    7352                      .dwattr DW$778, DW_AT_high_pc(DW$L$_Registers$505$E)
    7353              DW$779  .dwtag  DW_TAG_loop_range
    7354                      .dwattr DW$779, DW_AT_low_pc(DW$L$_Registers$506$B)
    7355                      .dwattr DW$779, DW_AT_high_pc(DW$L$_Registers$506$E)
    7356              DW$780  .dwtag  DW_TAG_loop_range
    7357                      .dwattr DW$780, DW_AT_low_pc(DW$L$_Registers$510$B)
    7358                      .dwattr DW$780, DW_AT_high_pc(DW$L$_Registers$510$E)
    7359              DW$781  .dwtag  DW_TAG_loop_range
    7360                      .dwattr DW$781, DW_AT_low_pc(DW$L$_Registers$511$B)
    7361                      .dwattr DW$781, DW_AT_high_pc(DW$L$_Registers$511$E)
    7362              DW$782  .dwtag  DW_TAG_loop_range
    7363                      .dwattr DW$782, DW_AT_low_pc(DW$L$_Registers$513$B)
    7364                      .dwattr DW$782, DW_AT_high_pc(DW$L$_Registers$513$E)
    7365              DW$783  .dwtag  DW_TAG_loop_range
    7366                      .dwattr DW$783, DW_AT_low_pc(DW$L$_Registers$515$B)
    7367                      .dwattr DW$783, DW_AT_high_pc(DW$L$_Registers$515$E)
    7368              DW$784  .dwtag  DW_TAG_loop_range
    7369                      .dwattr DW$784, DW_AT_low_pc(DW$L$_Registers$516$B)
    7370                      .dwattr DW$784, DW_AT_high_pc(DW$L$_Registers$516$E)
    7371              DW$785  .dwtag  DW_TAG_loop_range
    7372                      .dwattr DW$785, DW_AT_low_pc(DW$L$_Registers$517$B)
    7373                      .dwattr DW$785, DW_AT_high_pc(DW$L$_Registers$517$E)
    7374              DW$786  .dwtag  DW_TAG_loop_range
    7375                      .dwattr DW$786, DW_AT_low_pc(DW$L$_Registers$518$B)
    7376                      .dwattr DW$786, DW_AT_high_pc(DW$L$_Registers$518$E)
    7377              DW$787  .dwtag  DW_TAG_loop_range
    7378                      .dwattr DW$787, DW_AT_low_pc(DW$L$_Registers$520$B)
    7379                      .dwattr DW$787, DW_AT_high_pc(DW$L$_Registers$520$E)
    7380              DW$788  .dwtag  DW_TAG_loop_range
    7381                      .dwattr DW$788, DW_AT_low_pc(DW$L$_Registers$522$B)
    7382                      .dwattr DW$788, DW_AT_high_pc(DW$L$_Registers$522$E)
    7383              DW$789  .dwtag  DW_TAG_loop_range
    7384                      .dwattr DW$789, DW_AT_low_pc(DW$L$_Registers$524$B)
    7385                      .dwattr DW$789, DW_AT_high_pc(DW$L$_Registers$524$E)
    7386              DW$790  .dwtag  DW_TAG_loop_range
    7387                      .dwattr DW$790, DW_AT_low_pc(DW$L$_Registers$526$B)
    7388                      .dwattr DW$790, DW_AT_high_pc(DW$L$_Registers$526$E)
    7389              DW$791  .dwtag  DW_TAG_loop_range
    7390                      .dwattr DW$791, DW_AT_low_pc(DW$L$_Registers$527$B)
    7391                      .dwattr DW$791, DW_AT_high_pc(DW$L$_Registers$527$E)
    7392              DW$792  .dwtag  DW_TAG_loop_range
    7393                      .dwattr DW$792, DW_AT_low_pc(DW$L$_Registers$528$B)
    7394                      .dwattr DW$792, DW_AT_high_pc(DW$L$_Registers$528$E)
    7395              DW$793  .dwtag  DW_TAG_loop_range
    7396                      .dwattr DW$793, DW_AT_low_pc(DW$L$_Registers$529$B)
    7397                      .dwattr DW$793, DW_AT_high_pc(DW$L$_Registers$529$E)
    7398              DW$794  .dwtag  DW_TAG_loop_range
    7399                      .dwattr DW$794, DW_AT_low_pc(DW$L$_Registers$531$B)
TMS320C2000 COFF Assembler PC v4.1.3 Thu Aug 18 12:16:25 2016

Tools Copyright (c) 1996-2006 Texas Instruments Incorporated
PCModBus.asm                                                         PAGE  157

    7400                      .dwattr DW$794, DW_AT_high_pc(DW$L$_Registers$531$E)
    7401              DW$795  .dwtag  DW_TAG_loop_range
    7402                      .dwattr DW$795, DW_AT_low_pc(DW$L$_Registers$533$B)
    7403                      .dwattr DW$795, DW_AT_high_pc(DW$L$_Registers$533$E)
    7404              DW$796  .dwtag  DW_TAG_loop_range
    7405                      .dwattr DW$796, DW_AT_low_pc(DW$L$_Registers$537$B)
    7406                      .dwattr DW$796, DW_AT_high_pc(DW$L$_Registers$537$E)
    7407              DW$797  .dwtag  DW_TAG_loop_range
    7408                      .dwattr DW$797, DW_AT_low_pc(DW$L$_Registers$538$B)
    7409                      .dwattr DW$797, DW_AT_high_pc(DW$L$_Registers$538$E)
    7410              DW$798  .dwtag  DW_TAG_loop_range
    7411                      .dwattr DW$798, DW_AT_low_pc(DW$L$_Registers$540$B)
    7412                      .dwattr DW$798, DW_AT_high_pc(DW$L$_Registers$540$E)
    7413              DW$799  .dwtag  DW_TAG_loop_range
    7414                      .dwattr DW$799, DW_AT_low_pc(DW$L$_Registers$542$B)
    7415                      .dwattr DW$799, DW_AT_high_pc(DW$L$_Registers$542$E)
    7416              DW$800  .dwtag  DW_TAG_loop_range
    7417                      .dwattr DW$800, DW_AT_low_pc(DW$L$_Registers$544$B)
    7418                      .dwattr DW$800, DW_AT_high_pc(DW$L$_Registers$544$E)
    7419              DW$801  .dwtag  DW_TAG_loop_range
    7420                      .dwattr DW$801, DW_AT_low_pc(DW$L$_Registers$546$B)
    7421                      .dwattr DW$801, DW_AT_high_pc(DW$L$_Registers$546$E)
    7422              DW$802  .dwtag  DW_TAG_loop_range
    7423                      .dwattr DW$802, DW_AT_low_pc(DW$L$_Registers$548$B)
    7424                      .dwattr DW$802, DW_AT_high_pc(DW$L$_Registers$548$E)
    7425              DW$803  .dwtag  DW_TAG_loop_range
    7426                      .dwattr DW$803, DW_AT_low_pc(DW$L$_Registers$550$B)
    7427                      .dwattr DW$803, DW_AT_high_pc(DW$L$_Registers$550$E)
    7428              DW$804  .dwtag  DW_TAG_loop_range
    7429                      .dwattr DW$804, DW_AT_low_pc(DW$L$_Registers$552$B)
    7430                      .dwattr DW$804, DW_AT_high_pc(DW$L$_Registers$552$E)
    7431              DW$805  .dwtag  DW_TAG_loop_range
    7432                      .dwattr DW$805, DW_AT_low_pc(DW$L$_Registers$554$B)
    7433                      .dwattr DW$805, DW_AT_high_pc(DW$L$_Registers$554$E)
    7434              DW$806  .dwtag  DW_TAG_loop_range
    7435                      .dwattr DW$806, DW_AT_low_pc(DW$L$_Registers$556$B)
    7436                      .dwattr DW$806, DW_AT_high_pc(DW$L$_Registers$556$E)
    7437              DW$807  .dwtag  DW_TAG_loop_range
    7438                      .dwattr DW$807, DW_AT_low_pc(DW$L$_Registers$558$B)
    7439                      .dwattr DW$807, DW_AT_high_pc(DW$L$_Registers$558$E)
    7440              DW$808  .dwtag  DW_TAG_loop_range
    7441                      .dwattr DW$808, DW_AT_low_pc(DW$L$_Registers$560$B)
    7442                      .dwattr DW$808, DW_AT_high_pc(DW$L$_Registers$560$E)
    7443              DW$809  .dwtag  DW_TAG_loop_range
    7444                      .dwattr DW$809, DW_AT_low_pc(DW$L$_Registers$562$B)
    7445                      .dwattr DW$809, DW_AT_high_pc(DW$L$_Registers$562$E)
    7446              DW$810  .dwtag  DW_TAG_loop_range
    7447                      .dwattr DW$810, DW_AT_low_pc(DW$L$_Registers$577$B)
    7448                      .dwattr DW$810, DW_AT_high_pc(DW$L$_Registers$577$E)
    7449              DW$811  .dwtag  DW_TAG_loop_range
    7450                      .dwattr DW$811, DW_AT_low_pc(DW$L$_Registers$586$B)
    7451                      .dwattr DW$811, DW_AT_high_pc(DW$L$_Registers$586$E)
    7452              DW$812  .dwtag  DW_TAG_loop_range
    7453                      .dwattr DW$812, DW_AT_low_pc(DW$L$_Registers$592$B)
    7454                      .dwattr DW$812, DW_AT_high_pc(DW$L$_Registers$592$E)
TMS320C2000 COFF Assembler PC v4.1.3 Thu Aug 18 12:16:25 2016

Tools Copyright (c) 1996-2006 Texas Instruments Incorporated
PCModBus.asm                                                         PAGE  158

    7455              DW$813  .dwtag  DW_TAG_loop_range
    7456                      .dwattr DW$813, DW_AT_low_pc(DW$L$_Registers$596$B)
    7457                      .dwattr DW$813, DW_AT_high_pc(DW$L$_Registers$596$E)
    7458              DW$814  .dwtag  DW_TAG_loop_range
    7459                      .dwattr DW$814, DW_AT_low_pc(DW$L$_Registers$598$B)
    7460                      .dwattr DW$814, DW_AT_high_pc(DW$L$_Registers$598$E)
    7461              DW$815  .dwtag  DW_TAG_loop_range
    7462                      .dwattr DW$815, DW_AT_low_pc(DW$L$_Registers$600$B)
    7463                      .dwattr DW$815, DW_AT_high_pc(DW$L$_Registers$600$E)
    7464              DW$816  .dwtag  DW_TAG_loop_range
    7465                      .dwattr DW$816, DW_AT_low_pc(DW$L$_Registers$602$B)
    7466                      .dwattr DW$816, DW_AT_high_pc(DW$L$_Registers$602$E)
    7467              DW$817  .dwtag  DW_TAG_loop_range
    7468                      .dwattr DW$817, DW_AT_low_pc(DW$L$_Registers$604$B)
    7469                      .dwattr DW$817, DW_AT_high_pc(DW$L$_Registers$604$E)
    7470              DW$818  .dwtag  DW_TAG_loop_range
    7471                      .dwattr DW$818, DW_AT_low_pc(DW$L$_Registers$606$B)
    7472                      .dwattr DW$818, DW_AT_high_pc(DW$L$_Registers$606$E)
    7473              DW$819  .dwtag  DW_TAG_loop_range
    7474                      .dwattr DW$819, DW_AT_low_pc(DW$L$_Registers$607$B)
    7475                      .dwattr DW$819, DW_AT_high_pc(DW$L$_Registers$607$E)
    7476              DW$820  .dwtag  DW_TAG_loop_range
    7477                      .dwattr DW$820, DW_AT_low_pc(DW$L$_Registers$608$B)
    7478                      .dwattr DW$820, DW_AT_high_pc(DW$L$_Registers$608$E)
    7479              DW$821  .dwtag  DW_TAG_loop_range
    7480                      .dwattr DW$821, DW_AT_low_pc(DW$L$_Registers$609$B)
    7481                      .dwattr DW$821, DW_AT_high_pc(DW$L$_Registers$609$E)
    7482              DW$822  .dwtag  DW_TAG_loop_range
    7483                      .dwattr DW$822, DW_AT_low_pc(DW$L$_Registers$610$B)
    7484                      .dwattr DW$822, DW_AT_high_pc(DW$L$_Registers$610$E)
    7485                      .dwendtag DW$217
    7486              
    7487                      .dwattr DW$216, DW_AT_end_file("PCModBus.c")
    7488                      .dwattr DW$216, DW_AT_end_line(0x617)
    7489                      .dwattr DW$216, DW_AT_end_column(0x01)
    7490                      .dwendtag DW$216
    7491              
    7492 00000d5a               .sect   ".text"
    7493                      .global _ProcessRegister
    7494              
    7495              DW$823  .dwtag  DW_TAG_subprogram, DW_AT_name("ProcessRegister"), DW_AT_symbol_name("_ProcessRegister")
    7496                      .dwattr DW$823, DW_AT_low_pc(_ProcessRegister)
    7497                      .dwattr DW$823, DW_AT_high_pc(0x00)
    7498                      .dwattr DW$823, DW_AT_begin_file("PCModBus.c")
    7499                      .dwattr DW$823, DW_AT_begin_line(0x61b)
    7500                      .dwattr DW$823, DW_AT_begin_column(0x06)
    7501                      .dwattr DW$823, DW_AT_frame_base[DW_OP_breg20 -2]
    7502                      .dwattr DW$823, DW_AT_skeletal(0x01)
    7503                      .dwpsn  "PCModBus.c",1564,1
    7504              
    7505              ;***************************************************************
    7506              ;* FNAME: _ProcessRegister              FR SIZE:   0           *
    7507              ;*                                                             *
    7508              ;* FUNCTION ENVIRONMENT                                        *
    7509              ;*                                                             *
TMS320C2000 COFF Assembler PC v4.1.3 Thu Aug 18 12:16:25 2016

Tools Copyright (c) 1996-2006 Texas Instruments Incorporated
PCModBus.asm                                                         PAGE  159

    7510              ;* FUNCTION PROPERTIES                                         *
    7511              ;*                            0 Parameter,  0 Auto,  0 SOE     *
    7512              ;***************************************************************
    7513              
    7514              _ProcessRegister:
    7515              ;* AL    assigned to _PtrTypeFlag
    7516              DW$824  .dwtag  DW_TAG_formal_parameter, DW_AT_name("PtrTypeFlag"), DW_AT_symbol_name("_PtrTypeFlag")
    7517                      .dwattr DW$824, DW_AT_type(*DW$T$136)
    7518                      .dwattr DW$824, DW_AT_location[DW_OP_reg0]
    7519              ;* AR4   assigned to _Ptr
    7520              DW$825  .dwtag  DW_TAG_formal_parameter, DW_AT_name("Ptr"), DW_AT_symbol_name("_Ptr")
    7521                      .dwattr DW$825, DW_AT_type(*DW$T$3)
    7522                      .dwattr DW$825, DW_AT_location[DW_OP_reg12]
    7523              ;* AH    assigned to _NumReg
    7524              DW$826  .dwtag  DW_TAG_formal_parameter, DW_AT_name("NumReg"), DW_AT_symbol_name("_NumReg")
    7525                      .dwattr DW$826, DW_AT_type(*DW$T$11)
    7526                      .dwattr DW$826, DW_AT_location[DW_OP_reg1]
    7527 00000d5a 761F-         MOVW      DP,#_pcmodbus+1
         00000d5b 0000 
    7528 00000d5c 58A8          MOVZ      AR0,AH                ; |1564| 
    7529 00000d5d 88A9          MOVZ      AR6,AL                ; |1564| 
    7530 00000d5e C5A4          MOVL      XAR7,XAR4             ; |1564| 
    7531 00000d5f 9301-         MOV       AH,@_pcmodbus+1       ; |1568| 
    7532 00000d60 5306          CMPB      AH,#6                 ; |1568| 
    7533 00000d61 EC14          BF        L303,EQ               ; |1568| 
    7534                      ; branchcc occurs ; |1568| 
    7535 00000d62 5310          CMPB      AH,#16                ; |1568| 
    7536 00000d63 EC12          BF        L303,EQ               ; |1568| 
    7537                      ; branchcc occurs ; |1568| 
    7538 00000d64 06A7          MOVL      ACC,XAR7
    7539 00000d65 EC0B          BF        L302,EQ               ; |1575| 
    7540                      ; branchcc occurs ; |1575| 
    7541 00000d66 8F40-         MOVL      XAR5,#_pcmodbus+5     ; |1579| 
         00000d67 0005 
    7542 00000d68 A0A9          MOVL      ACC,XAR5              ; |1579| 
    7543 00000d69 8AA7          MOVL      XAR4,XAR7
    7544 00000d6a 0DA0          ADDU      ACC,AR0               ; |1579| 
    7545 00000d6b 83A9          MOVL      XAR5,ACC              ; |1579| 
    7546 00000d6c 06A7          MOVL      ACC,XAR7
    7547 00000d6d ED0E          BF        L304,NEQ              ; |1579| 
    7548                      ; branchcc occurs ; |1579| 
    7549 00000d6e 56CF          BF        L307,UNC              ; |1579| 
         00000d6f 0035 
    7550                      ; branch occurs ; |1579| 
    7551 00000d70       L302:    
    7552 00000d70 8F00-         MOVL      XAR4,#_pcmodbus+5     ; |1575| 
         00000d71 0005 
    7553 00000d72 2B94          MOV       *+XAR4[AR0],#0        ; |1575| 
    7554 00000d73 56CF          BF        L307,UNC              ; |1575| 
         00000d74 0030 
    7555                      ; branch occurs ; |1575| 
    7556 00000d75       L303:    
    7557 00000d75 8F40-         MOVL      XAR5,#_pcmodbus+5     ; |1570| 
         00000d76 0005 
    7558 00000d77 A0A9          MOVL      ACC,XAR5              ; |1570| 
TMS320C2000 COFF Assembler PC v4.1.3 Thu Aug 18 12:16:25 2016

Tools Copyright (c) 1996-2006 Texas Instruments Incorporated
PCModBus.asm                                                         PAGE  160

    7559 00000d78 0DA0          ADDU      ACC,AR0               ; |1570| 
    7560 00000d79 8AA9          MOVL      XAR4,ACC              ; |1570| 
    7561 00000d7a 83A7          MOVL      XAR5,XAR7             ; |1570| 
    7562 00000d7b       L304:    
    7563 00000d7b A0A9          MOVL      ACC,XAR5
    7564 00000d7c EC27          BF        L307,EQ               ; |1584| 
    7565                      ; branchcc occurs ; |1584| 
    7566 00000d7d 92A6          MOV       AL,AR6
    7567 00000d7e 5202          CMPB      AL,#2                 ; |1584| 
    7568 00000d7f ED21          BF        L306,NEQ              ; |1584| 
    7569                      ; branchcc occurs ; |1584| 
    7570 00000d80 761F-         MOVW      DP,#_pcmodbus+1
         00000d81 0000 
    7571 00000d82 9201-         MOV       AL,@_pcmodbus+1       ; |1587| 
    7572 00000d83 5206          CMPB      AL,#6                 ; |1587| 
    7573 00000d84 EC13          BF        L305,EQ               ; |1587| 
    7574                      ; branchcc occurs ; |1587| 
    7575 00000d85 5210          CMPB      AL,#16                ; |1587| 
    7576 00000d86 EC11          BF        L305,EQ               ; |1587| 
    7577                      ; branchcc occurs ; |1587| 
    7578 00000d87 8F40-         MOVL      XAR5,#_pcmodbus+5     ; |1594| 
         00000d88 0005 
    7579 00000d89 8AA7          MOVL      XAR4,XAR7             ; |1594| 
    7580 00000d8a A0A9          MOVL      ACC,XAR5              ; |1594| 
    7581 00000d8b 0DA0          ADDU      ACC,AR0               ; |1594| 
    7582 00000d8c 83A9          MOVL      XAR5,ACC              ; |1594| 
    7583 00000d8d 5603          MOV       ACC,*+XAR4[0] << #8   ; |1594| 
         00000d8e 08C4 
    7584 00000d8f 8AA7          MOVL      XAR4,XAR7             ; |1594| 
    7585 00000d90 96C5          MOV       *+XAR5[0],AL          ; |1594| 
    7586 00000d91 93C4          MOV       AH,*+XAR4[0]          ; |1595| 
    7587 00000d92 91FF          ANDB      AH,#0xff              ; |1595| 
    7588 00000d93 95A9          ADD       AH,AL                 ; |1595| 
    7589 00000d94 97C5          MOV       *+XAR5[0],AH          ; |1595| 
    7590 00000d95 56CF          BF        L307,UNC              ; |1595| 
         00000d96 000E 
    7591                      ; branch occurs ; |1595| 
    7592 00000d97       L305:    
    7593 00000d97 92C4          MOV       AL,*+XAR4[0]          ; |1589| 
    7594 00000d98 FFC7          LSR       AL,8                  ; |1589| 
    7595 00000d99 96C5          MOV       *+XAR5[0],AL          ; |1589| 
    7596 00000d9a 92C4          MOV       AL,*+XAR4[0]          ; |1590| 
    7597 00000d9b 90FF          ANDB      AL,#0xff              ; |1590| 
    7598 00000d9c 8AA5          MOVL      XAR4,XAR5             ; |1590| 
    7599 00000d9d 96CC          MOV       *+XAR4[1],AL          ; |1590| 
    7600 00000d9e 56CF          BF        L307,UNC              ; |1591| 
         00000d9f 0005 
    7601                      ; branch occurs ; |1591| 
    7602 00000da0       L306:    
    7603 00000da0 92C4          MOV       AL,*+XAR4[0]          ; |1604| 
    7604 00000da1 8AA5          MOVL      XAR4,XAR5             ; |1604| 
    7605 00000da2 96C4          MOV       *+XAR4[0],AL          ; |1604| 
    7606              L307:    
    7607                      .dwpsn  "PCModBus.c",1608,1
    7608 00000da3 0006          LRETR
TMS320C2000 COFF Assembler PC v4.1.3 Thu Aug 18 12:16:25 2016

Tools Copyright (c) 1996-2006 Texas Instruments Incorporated
PCModBus.asm                                                         PAGE  161

    7609                      ; return occurs
    7610                      .dwattr DW$823, DW_AT_end_file("PCModBus.c")
    7611                      .dwattr DW$823, DW_AT_end_line(0x648)
    7612                      .dwattr DW$823, DW_AT_end_column(0x01)
    7613                      .dwendtag DW$823
    7614              
    7615 00000da4               .sect   ".text"
    7616                      .global _ProcessEngineRunT
    7617              
    7618              DW$827  .dwtag  DW_TAG_subprogram, DW_AT_name("ProcessEngineRunT"), DW_AT_symbol_name("_ProcessEngineRunT")
    7619                      .dwattr DW$827, DW_AT_low_pc(_ProcessEngineRunT)
    7620                      .dwattr DW$827, DW_AT_high_pc(0x00)
    7621                      .dwattr DW$827, DW_AT_begin_file("PCModBus.c")
    7622                      .dwattr DW$827, DW_AT_begin_line(0x64c)
    7623                      .dwattr DW$827, DW_AT_begin_column(0x06)
    7624                      .dwattr DW$827, DW_AT_frame_base[DW_OP_breg20 -2]
    7625                      .dwattr DW$827, DW_AT_skeletal(0x01)
    7626                      .dwpsn  "PCModBus.c",1613,1
    7627              
    7628              ;***************************************************************
    7629              ;* FNAME: _ProcessEngineRunT            FR SIZE:   0           *
    7630              ;*                                                             *
    7631              ;* FUNCTION ENVIRONMENT                                        *
    7632              ;*                                                             *
    7633              ;* FUNCTION PROPERTIES                                         *
    7634              ;*                            0 Parameter,  0 Auto,  0 SOE     *
    7635              ;***************************************************************
    7636              
    7637              _ProcessEngineRunT:
    7638              ;* AL    assigned to _regadd
    7639              DW$828  .dwtag  DW_TAG_formal_parameter, DW_AT_name("regadd"), DW_AT_symbol_name("_regadd")
    7640                      .dwattr DW$828, DW_AT_type(*DW$T$11)
    7641                      .dwattr DW$828, DW_AT_location[DW_OP_reg0]
    7642              ;* AH    assigned to _NumReg
    7643              DW$829  .dwtag  DW_TAG_formal_parameter, DW_AT_name("NumReg"), DW_AT_symbol_name("_NumReg")
    7644                      .dwattr DW$829, DW_AT_type(*DW$T$11)
    7645                      .dwattr DW$829, DW_AT_location[DW_OP_reg1]
    7646 00000da4 1BA9          CMP       AL,#2071              ; |1619| 
         00000da5 0817 
    7647 00000da6 58A8          MOVZ      AR0,AH                ; |1613| 
    7648 00000da7 EC1E          BF        L309,EQ               ; |1619| 
    7649                      ; branchcc occurs ; |1619| 
    7650 00000da8 1BA9          CMP       AL,#2072              ; |1635| 
         00000da9 0818 
    7651 00000daa ED31          BF        L311,NEQ              ; |1635| 
    7652                      ; branchcc occurs ; |1635| 
    7653 00000dab 761F-         MOVW      DP,#_pcmodbus+1
         00000dac 0000 
    7654 00000dad 9201-         MOV       AL,@_pcmodbus+1       ; |1637| 
    7655 00000dae 5206          CMPB      AL,#6                 ; |1637| 
    7656 00000daf EC0B          BF        L308,EQ               ; |1637| 
    7657                      ; branchcc occurs ; |1637| 
    7658 00000db0 5210          CMPB      AL,#16                ; |1637| 
    7659 00000db1 EC09          BF        L308,EQ               ; |1637| 
    7660                      ; branchcc occurs ; |1637| 
TMS320C2000 COFF Assembler PC v4.1.3 Thu Aug 18 12:16:25 2016

Tools Copyright (c) 1996-2006 Texas Instruments Incorporated
PCModBus.asm                                                         PAGE  162

    7661 00000db2 761F!         MOVW      DP,#_engine
         00000db3 0000 
    7662 00000db4 9200!         MOV       AL,@_engine           ; |1649| 
    7663 00000db5 8F00-         MOVL      XAR4,#_pcmodbus+5     ; |1649| 
         00000db6 0005 
    7664 00000db7 9694          MOV       *+XAR4[AR0],AL        ; |1649| 
    7665 00000db8 56CF          BF        L311,UNC              ; |1649| 
         00000db9 0023 
    7666                      ; branch occurs ; |1649| 
    7667 00000dba       L308:    
    7668 00000dba 8F00-         MOVL      XAR4,#_pcmodbus+5     ; |1640| 
         00000dbb 0005 
    7669 00000dbc 0E94          MOVU      ACC,*+XAR4[AR0]
    7670 00000dbd 761F!         MOVW      DP,#_engine
         00000dbe 0000 
    7671 00000dbf 5601!         ADDL      @_engine,ACC          ; |1640| 
         00000dc0 0000 
    7672 00000dc1 7640!         LCR       #_WriteEngineStructtoNVMEM ; |1641| 
         00000dc2 0000 
    7673                      ; call occurs [#_WriteEngineStructtoNVMEM] ; |1641| 
    7674 00000dc3 56CF          BF        L311,UNC              ; |1648| 
         00000dc4 0018 
    7675                      ; branch occurs ; |1648| 
    7676 00000dc5       L309:    
    7677 00000dc5 761F-         MOVW      DP,#_pcmodbus+1
         00000dc6 0000 
    7678 00000dc7 9201-         MOV       AL,@_pcmodbus+1       ; |1621| 
    7679 00000dc8 5206          CMPB      AL,#6                 ; |1621| 
    7680 00000dc9 EC0B          BF        L310,EQ               ; |1621| 
    7681                      ; branchcc occurs ; |1621| 
    7682 00000dca 5210          CMPB      AL,#16                ; |1621| 
    7683 00000dcb EC09          BF        L310,EQ               ; |1621| 
    7684                      ; branchcc occurs ; |1621| 
    7685 00000dcc 761F!         MOVW      DP,#_engine
         00000dcd 0000 
    7686 00000dce 0600!         MOVL      ACC,@_engine          ; |1630| 
    7687 00000dcf 8F00-         MOVL      XAR4,#_pcmodbus+5     ; |1632| 
         00000dd0 0005 
    7688 00000dd1 9794          MOVH      *+XAR4[AR0],ACC << 0  ; |1632| 
    7689 00000dd2 56CF          BF        L311,UNC              ; |1632| 
         00000dd3 0009 
    7690                      ; branch occurs ; |1632| 
    7691 00000dd4       L310:    
    7692 00000dd4 8F00-         MOVL      XAR4,#_pcmodbus+5     ; |1624| 
         00000dd5 0005 
    7693 00000dd6 0E94          MOVU      ACC,*+XAR4[AR0]
    7694 00000dd7 FF3F          LSL       ACC,16                ; |1626| 
    7695 00000dd8 761F!         MOVW      DP,#_engine
         00000dd9 0000 
    7696 00000dda 1E00!         MOVL      @_engine,ACC          ; |1626| 
    7697              L311:    
    7698                      .dwpsn  "PCModBus.c",1651,1
    7699 00000ddb 0006          LRETR
    7700                      ; return occurs
    7701                      .dwattr DW$827, DW_AT_end_file("PCModBus.c")
TMS320C2000 COFF Assembler PC v4.1.3 Thu Aug 18 12:16:25 2016

Tools Copyright (c) 1996-2006 Texas Instruments Incorporated
PCModBus.asm                                                         PAGE  163

    7702                      .dwattr DW$827, DW_AT_end_line(0x673)
    7703                      .dwattr DW$827, DW_AT_end_column(0x01)
    7704                      .dwendtag DW$827
    7705              
    7706 00000ddc               .sect   ".text"
    7707                      .global _ProcessFileTransferral
    7708              
    7709              DW$830  .dwtag  DW_TAG_subprogram, DW_AT_name("ProcessFileTransferral"), DW_AT_symbol_name("_ProcessFileTrans
    7710                      .dwattr DW$830, DW_AT_low_pc(_ProcessFileTransferral)
    7711                      .dwattr DW$830, DW_AT_high_pc(0x00)
    7712                      .dwattr DW$830, DW_AT_begin_file("PCModBus.c")
    7713                      .dwattr DW$830, DW_AT_begin_line(0x676)
    7714                      .dwattr DW$830, DW_AT_begin_column(0x06)
    7715                      .dwattr DW$830, DW_AT_frame_base[DW_OP_breg20 -4]
    7716                      .dwattr DW$830, DW_AT_skeletal(0x01)
    7717                      .dwpsn  "PCModBus.c",1655,1
    7718              
    7719              ;***************************************************************
    7720              ;* FNAME: _ProcessFileTransferral       FR SIZE:   2           *
    7721              ;*                                                             *
    7722              ;* FUNCTION ENVIRONMENT                                        *
    7723              ;*                                                             *
    7724              ;* FUNCTION PROPERTIES                                         *
    7725              ;*                            0 Parameter,  0 Auto,  2 SOE     *
    7726              ;***************************************************************
    7727              
    7728              _ProcessFileTransferral:
    7729              ;* AL    assigned to _regadd
    7730              DW$831  .dwtag  DW_TAG_formal_parameter, DW_AT_name("regadd"), DW_AT_symbol_name("_regadd")
    7731                      .dwattr DW$831, DW_AT_type(*DW$T$11)
    7732                      .dwattr DW$831, DW_AT_location[DW_OP_reg0]
    7733              ;* AH    assigned to _NumReg
    7734              DW$832  .dwtag  DW_TAG_formal_parameter, DW_AT_name("NumReg"), DW_AT_symbol_name("_NumReg")
    7735                      .dwattr DW$832, DW_AT_type(*DW$T$11)
    7736                      .dwattr DW$832, DW_AT_location[DW_OP_reg1]
    7737 00000ddc 58A9          MOVZ      AR0,AL                ; |1655| 
    7738 00000ddd B2BD          MOVL      *SP++,XAR1
    7739 00000dde 59A8          MOVZ      AR1,AH                ; |1655| 
    7740 00000ddf 1BA0          CMP       AR0,#8192             ; |1658| 
         00000de0 2000 
    7741 00000de1 56C8          BF        L334,LO               ; |1658| 
         00000de2 00F9 
    7742                      ; branchcc occurs ; |1658| 
    7743 00000de3 1BA0          CMP       AR0,#8196             ; |1658| 
         00000de4 2004 
    7744 00000de5 56C8          BF        L329,LO               ; |1658| 
         00000de6 00DC 
    7745                      ; branchcc occurs ; |1658| 
    7746 00000de7 1BA0          CMP       AR0,#8196             ; |1663| 
         00000de8 2004 
    7747 00000de9 56C1          BF        L328,EQ               ; |1663| 
         00000dea 00CF 
    7748                      ; branchcc occurs ; |1663| 
    7749 00000deb 1BA0          CMP       AR0,#8197             ; |1667| 
         00000dec 2005 
TMS320C2000 COFF Assembler PC v4.1.3 Thu Aug 18 12:16:25 2016

Tools Copyright (c) 1996-2006 Texas Instruments Incorporated
PCModBus.asm                                                         PAGE  164

    7750 00000ded 56C1          BF        L327,EQ               ; |1667| 
         00000dee 00C2 
    7751                      ; branchcc occurs ; |1667| 
    7752 00000def 1BA0          CMP       AR0,#8198             ; |1671| 
         00000df0 2006 
    7753 00000df1 56C8          BF        L334,LO               ; |1671| 
         00000df2 00E9 
    7754                      ; branchcc occurs ; |1671| 
    7755 00000df3 1BA0          CMP       AR0,#8204             ; |1671| 
         00000df4 200C 
    7756 00000df5 56C8          BF        L325,LO               ; |1671| 
         00000df6 00A4 
    7757                      ; branchcc occurs ; |1671| 
    7758 00000df7 1BA0          CMP       AR0,#8204             ; |1679| 
         00000df8 200C 
    7759 00000df9 56C1          BF        L323,EQ               ; |1679| 
         00000dfa 0094 
    7760                      ; branchcc occurs ; |1679| 
    7761 00000dfb 1BA0          CMP       AR0,#8205             ; |1688| 
         00000dfc 200D 
    7762 00000dfd 56C1          BF        L322,EQ               ; |1688| 
         00000dfe 0086 
    7763                      ; branchcc occurs ; |1688| 
    7764 00000dff 1BA0          CMP       AR0,#8206             ; |1692| 
         00000e00 200E 
    7765 00000e01 EC6E          BF        L320,EQ               ; |1692| 
    7766                      ; branchcc occurs ; |1692| 
    7767 00000e02 1BA0          CMP       AR0,#8207             ; |1697| 
         00000e03 200F 
    7768 00000e04 EC56          BF        L318,EQ               ; |1697| 
    7769                      ; branchcc occurs ; |1697| 
    7770 00000e05 1BA0          CMP       AR0,#8208             ; |1712| 
         00000e06 2010 
    7771 00000e07 EC3E          BF        L316,EQ               ; |1712| 
    7772                      ; branchcc occurs ; |1712| 
    7773 00000e08 1BA0          CMP       AR0,#8209             ; |1721| 
         00000e09 2011 
    7774 00000e0a EC27          BF        L314,EQ               ; |1721| 
    7775                      ; branchcc occurs ; |1721| 
    7776 00000e0b 1BA0          CMP       AR0,#8211             ; |1726| 
         00000e0c 2013 
    7777 00000e0d EC1F          BF        L313,EQ               ; |1726| 
    7778                      ; branchcc occurs ; |1726| 
    7779 00000e0e 1BA0          CMP       AR0,#8212             ; |1727| 
         00000e0f 2014 
    7780 00000e10 56C8          BF        L334,LO               ; |1727| 
         00000e11 00CA 
    7781                      ; branchcc occurs ; |1727| 
    7782 00000e12 1BA0          CMP       AR0,#8339             ; |1727| 
         00000e13 2093 
    7783 00000e14 56C7          BF        L334,HIS              ; |1727| 
         00000e15 00C6 
    7784                      ; branchcc occurs ; |1727| 
    7785 00000e16 761F-         MOVW      DP,#_pcmodbus+1
         00000e17 0000 
TMS320C2000 COFF Assembler PC v4.1.3 Thu Aug 18 12:16:25 2016

Tools Copyright (c) 1996-2006 Texas Instruments Incorporated
PCModBus.asm                                                         PAGE  165

    7786 00000e18 9301-         MOV       AH,@_pcmodbus+1       ; |1729| 
    7787 00000e19 5306          CMPB      AH,#6                 ; |1729| 
    7788 00000e1a EC09          BF        L312,EQ               ; |1729| 
    7789                      ; branchcc occurs ; |1729| 
    7790 00000e1b 5310          CMPB      AH,#16                ; |1729| 
    7791 00000e1c EC07          BF        L312,EQ               ; |1729| 
    7792                      ; branchcc occurs ; |1729| 
    7793 00000e1d 08A0          SUB       AR0,#8212             ; |1730| 
         00000e1e DFEC 
    7794 00000e1f 8F00!         MOVL      XAR4,#_transferbuffer ; |1730| 
         00000e20 0000 
    7795 00000e21 56CF          BF        L330,UNC              ; |1730| 
         00000e22 00AB 
    7796                      ; branch occurs ; |1730| 
    7797 00000e23       L312:    
    7798 00000e23 8F00-         MOVL      XAR4,#_pcmodbus+5     ; |1729| 
         00000e24 0005 
    7799 00000e25 929C          MOV       AL,*+XAR4[AR1]        ; |1729| 
    7800 00000e26 08A0          SUB       AR0,#8212             ; |1729| 
         00000e27 DFEC 
    7801 00000e28 8F00!         MOVL      XAR4,#_transferbuffer ; |1729| 
         00000e29 0000 
    7802 00000e2a 56CF          BF        L333,UNC              ; |1729| 
         00000e2b 00AF 
    7803                      ; branch occurs ; |1729| 
    7804 00000e2c       L313:    
    7805 00000e2c 761F!         MOVW      DP,#_fileregs+333
         00000e2d 0005 
    7806 00000e2e 920D!         MOV       AL,@_fileregs+333     ; |1726| 
    7807 00000e2f 56CF          BF        L331,UNC              ; |1726| 
         00000e30 009E 
    7808                      ; branch occurs ; |1726| 
    7809 00000e31       L314:    
    7810 00000e31 761F-         MOVW      DP,#_pcmodbus+1
         00000e32 0000 
    7811 00000e33 9201-         MOV       AL,@_pcmodbus+1       ; |1723| 
    7812 00000e34 5206          CMPB      AL,#6                 ; |1723| 
    7813 00000e35 EC08          BF        L315,EQ               ; |1723| 
    7814                      ; branchcc occurs ; |1723| 
    7815 00000e36 5210          CMPB      AL,#16                ; |1723| 
    7816 00000e37 EC06          BF        L315,EQ               ; |1723| 
    7817                      ; branchcc occurs ; |1723| 
    7818 00000e38 761F!         MOVW      DP,#_fileregs+332
         00000e39 0005 
    7819 00000e3a 920C!         MOV       AL,@_fileregs+332     ; |1724| 
    7820 00000e3b 56CF          BF        L331,UNC              ; |1724| 
         00000e3c 0092 
    7821                      ; branch occurs ; |1724| 
    7822 00000e3d       L315:    
    7823 00000e3d 8F00-         MOVL      XAR4,#_pcmodbus+5     ; |1723| 
         00000e3e 0005 
    7824 00000e3f 929C          MOV       AL,*+XAR4[AR1]        ; |1723| 
    7825 00000e40 761F!         MOVW      DP,#_fileregs+332
         00000e41 0005 
    7826 00000e42 960C!         MOV       @_fileregs+332,AL     ; |1723| 
TMS320C2000 COFF Assembler PC v4.1.3 Thu Aug 18 12:16:25 2016

Tools Copyright (c) 1996-2006 Texas Instruments Incorporated
PCModBus.asm                                                         PAGE  166

    7827 00000e43 56CF          BF        L334,UNC              ; |1723| 
         00000e44 0097 
    7828                      ; branch occurs ; |1723| 
    7829 00000e45       L316:    
    7830 00000e45 761F-         MOVW      DP,#_pcmodbus+1
         00000e46 0000 
    7831 00000e47 9201-         MOV       AL,@_pcmodbus+1       ; |1714| 
    7832 00000e48 5206          CMPB      AL,#6                 ; |1714| 
    7833 00000e49 EC08          BF        L317,EQ               ; |1714| 
    7834                      ; branchcc occurs ; |1714| 
    7835 00000e4a 5210          CMPB      AL,#16                ; |1714| 
    7836 00000e4b EC06          BF        L317,EQ               ; |1714| 
    7837                      ; branchcc occurs ; |1714| 
    7838 00000e4c 761F!         MOVW      DP,#_fileregs+330
         00000e4d 0005 
    7839 00000e4e 920A!         MOV       AL,@_fileregs+330     ; |1719| 
    7840 00000e4f 56CF          BF        L331,UNC              ; |1719| 
         00000e50 007E 
    7841                      ; branch occurs ; |1719| 
    7842 00000e51       L317:    
    7843 00000e51 8F00-         MOVL      XAR4,#_pcmodbus+5     ; |1717| 
         00000e52 0005 
    7844 00000e53 0E9C          MOVU      ACC,*+XAR4[AR1]
    7845 00000e54 761F!         MOVW      DP,#_fileregs+330
         00000e55 0005 
    7846 00000e56 5601!         ADDL      @_fileregs+330,ACC    ; |1717| 
         00000e57 000A 
    7847 00000e58 56CF          BF        L334,UNC              ; |1718| 
         00000e59 0082 
    7848                      ; branch occurs ; |1718| 
    7849 00000e5a       L318:    
    7850 00000e5a 761F-         MOVW      DP,#_pcmodbus+1
         00000e5b 0000 
    7851 00000e5c 9201-         MOV       AL,@_pcmodbus+1       ; |1699| 
    7852 00000e5d 5206          CMPB      AL,#6                 ; |1699| 
    7853 00000e5e EC08          BF        L319,EQ               ; |1699| 
    7854                      ; branchcc occurs ; |1699| 
    7855 00000e5f 5210          CMPB      AL,#16                ; |1699| 
    7856 00000e60 EC06          BF        L319,EQ               ; |1699| 
    7857                      ; branchcc occurs ; |1699| 
    7858 00000e61 761F!         MOVW      DP,#_fileregs+330
         00000e62 0005 
    7859 00000e63 060A!         MOVL      ACC,@_fileregs+330    ; |1707| 
    7860 00000e64 56CF          BF        L324,UNC              ; |1709| 
         00000e65 0030 
    7861                      ; branch occurs ; |1709| 
    7862 00000e66       L319:    
    7863 00000e66 8F00-         MOVL      XAR4,#_pcmodbus+5     ; |1701| 
         00000e67 0005 
    7864 00000e68 0E9C          MOVU      ACC,*+XAR4[AR1]
    7865 00000e69 FF3F          LSL       ACC,16                ; |1703| 
    7866 00000e6a 761F!         MOVW      DP,#_fileregs+330
         00000e6b 0005 
    7867 00000e6c 1E0A!         MOVL      @_fileregs+330,ACC    ; |1703| 
    7868 00000e6d 56CF          BF        L334,UNC              ; |1704| 
TMS320C2000 COFF Assembler PC v4.1.3 Thu Aug 18 12:16:25 2016

Tools Copyright (c) 1996-2006 Texas Instruments Incorporated
PCModBus.asm                                                         PAGE  167

         00000e6e 006D 
    7869                      ; branch occurs ; |1704| 
    7870 00000e6f       L320:    
    7871 00000e6f 761F-         MOVW      DP,#_pcmodbus+1
         00000e70 0000 
    7872 00000e71 9201-         MOV       AL,@_pcmodbus+1       ; |1694| 
    7873 00000e72 5206          CMPB      AL,#6                 ; |1694| 
    7874 00000e73 EC08          BF        L321,EQ               ; |1694| 
    7875                      ; branchcc occurs ; |1694| 
    7876 00000e74 5210          CMPB      AL,#16                ; |1694| 
    7877 00000e75 EC06          BF        L321,EQ               ; |1694| 
    7878                      ; branchcc occurs ; |1694| 
    7879 00000e76 761F!         MOVW      DP,#_fileregs+328
         00000e77 0005 
    7880 00000e78 9208!         MOV       AL,@_fileregs+328     ; |1695| 
    7881 00000e79 56CF          BF        L331,UNC              ; |1695| 
         00000e7a 0054 
    7882                      ; branch occurs ; |1695| 
    7883 00000e7b       L321:    
    7884 00000e7b 8F00-         MOVL      XAR4,#_pcmodbus+5     ; |1694| 
         00000e7c 0005 
    7885 00000e7d 929C          MOV       AL,*+XAR4[AR1]        ; |1694| 
    7886 00000e7e 761F!         MOVW      DP,#_fileregs+328
         00000e7f 0005 
    7887 00000e80 9608!         MOV       @_fileregs+328,AL     ; |1694| 
    7888 00000e81 56CF          BF        L334,UNC              ; |1694| 
         00000e82 0059 
    7889                      ; branch occurs ; |1694| 
    7890 00000e83       L322:    
    7891 00000e83 761F-         MOVW      DP,#_pcmodbus+1
         00000e84 0000 
    7892 00000e85 9201-         MOV       AL,@_pcmodbus+1       ; |1690| 
    7893 00000e86 5203          CMPB      AL,#3                 ; |1690| 
    7894 00000e87 ED53          BF        L334,NEQ              ; |1690| 
    7895                      ; branchcc occurs ; |1690| 
    7896 00000e88 761F!         MOVW      DP,#_fileregs+326
         00000e89 0005 
    7897 00000e8a 9206!         MOV       AL,@_fileregs+326     ; |1690| 
    7898 00000e8b 56CF          BF        L331,UNC              ; |1690| 
         00000e8c 0042 
    7899                      ; branch occurs ; |1690| 
    7900 00000e8d       L323:    
    7901 00000e8d 761F-         MOVW      DP,#_pcmodbus+1
         00000e8e 0000 
    7902 00000e8f 9201-         MOV       AL,@_pcmodbus+1       ; |1681| 
    7903 00000e90 5203          CMPB      AL,#3                 ; |1681| 
    7904 00000e91 ED49          BF        L334,NEQ              ; |1681| 
    7905                      ; branchcc occurs ; |1681| 
    7906 00000e92 7640!         LCR       #_GetFileNumWords     ; |1683| 
         00000e93 0000 
    7907                      ; call occurs [#_GetFileNumWords] ; |1683| 
    7908 00000e94       L324:    
    7909 00000e94 8F00-         MOVL      XAR4,#_pcmodbus+5     ; |1685| 
         00000e95 0005 
    7910 00000e96 979C          MOVH      *+XAR4[AR1],ACC << 0  ; |1685| 
TMS320C2000 COFF Assembler PC v4.1.3 Thu Aug 18 12:16:25 2016

Tools Copyright (c) 1996-2006 Texas Instruments Incorporated
PCModBus.asm                                                         PAGE  168

    7911 00000e97 56CF          BF        L334,UNC              ; |1685| 
         00000e98 0043 
    7912                      ; branch occurs ; |1685| 
    7913 00000e99       L325:    
    7914 00000e99 761F-         MOVW      DP,#_pcmodbus+1
         00000e9a 0000 
    7915 00000e9b 9301-         MOV       AH,@_pcmodbus+1       ; |1673| 
    7916 00000e9c 5306          CMPB      AH,#6                 ; |1673| 
    7917 00000e9d EC09          BF        L326,EQ               ; |1673| 
    7918                      ; branchcc occurs ; |1673| 
    7919 00000e9e 5310          CMPB      AH,#16                ; |1673| 
    7920 00000e9f EC07          BF        L326,EQ               ; |1673| 
    7921                      ; branchcc occurs ; |1673| 
    7922 00000ea0 08A0          SUB       AR0,#8198             ; |1676| 
         00000ea1 DFFA 
    7923 00000ea2 8F00!         MOVL      XAR4,#_fileregs+319   ; |1676| 
         00000ea3 013F 
    7924 00000ea4 56CF          BF        L330,UNC              ; |1676| 
         00000ea5 0028 
    7925                      ; branch occurs ; |1676| 
    7926 00000ea6       L326:    
    7927 00000ea6 8F00-         MOVL      XAR4,#_pcmodbus+5     ; |1673| 
         00000ea7 0005 
    7928 00000ea8 929C          MOV       AL,*+XAR4[AR1]        ; |1673| 
    7929 00000ea9 08A0          SUB       AR0,#8198             ; |1673| 
         00000eaa DFFA 
    7930 00000eab 8F00!         MOVL      XAR4,#_fileregs+319   ; |1673| 
         00000eac 013F 
    7931 00000ead 56CF          BF        L333,UNC              ; |1673| 
         00000eae 002C 
    7932                      ; branch occurs ; |1673| 
    7933 00000eaf       L327:    
    7934 00000eaf 761F-         MOVW      DP,#_pcmodbus+1
         00000eb0 0000 
    7935 00000eb1 9201-         MOV       AL,@_pcmodbus+1       ; |1669| 
    7936 00000eb2 5203          CMPB      AL,#3                 ; |1669| 
    7937 00000eb3 ED27          BF        L334,NEQ              ; |1669| 
    7938                      ; branchcc occurs ; |1669| 
    7939 00000eb4 7640!         LCR       #_GetNextFileNameString ; |1669| 
         00000eb5 0000 
    7940                      ; call occurs [#_GetNextFileNameString] ; |1669| 
    7941 00000eb6 56CF          BF        L334,UNC              ; |1669| 
         00000eb7 0024 
    7942                      ; branch occurs ; |1669| 
    7943 00000eb8       L328:    
    7944 00000eb8 761F-         MOVW      DP,#_pcmodbus+1
         00000eb9 0000 
    7945 00000eba 9201-         MOV       AL,@_pcmodbus+1       ; |1665| 
    7946 00000ebb 5203          CMPB      AL,#3                 ; |1665| 
    7947 00000ebc ED1E          BF        L334,NEQ              ; |1665| 
    7948                      ; branchcc occurs ; |1665| 
    7949 00000ebd 7640!         LCR       #_GetFirstFileNameString ; |1665| 
         00000ebe 0000 
    7950                      ; call occurs [#_GetFirstFileNameString] ; |1665| 
    7951 00000ebf 56CF          BF        L334,UNC              ; |1665| 
TMS320C2000 COFF Assembler PC v4.1.3 Thu Aug 18 12:16:25 2016

Tools Copyright (c) 1996-2006 Texas Instruments Incorporated
PCModBus.asm                                                         PAGE  169

         00000ec0 001B 
    7952                      ; branch occurs ; |1665| 
    7953 00000ec1       L329:    
    7954 00000ec1 761F-         MOVW      DP,#_pcmodbus+1
         00000ec2 0000 
    7955 00000ec3 9301-         MOV       AH,@_pcmodbus+1       ; |1660| 
    7956 00000ec4 5306          CMPB      AH,#6                 ; |1660| 
    7957 00000ec5 EC0D          BF        L332,EQ               ; |1660| 
    7958                      ; branchcc occurs ; |1660| 
    7959 00000ec6 5310          CMPB      AH,#16                ; |1660| 
    7960 00000ec7 EC0B          BF        L332,EQ               ; |1660| 
    7961                      ; branchcc occurs ; |1660| 
    7962 00000ec8 08A0          SUB       AR0,#8192             ; |1661| 
         00000ec9 E000 
    7963 00000eca 8F00!         MOVL      XAR4,#_fileregs+315   ; |1661| 
         00000ecb 013B 
    7964 00000ecc       L330:    
    7965 00000ecc 9294          MOV       AL,*+XAR4[AR0]        ; |1661| 
    7966 00000ecd       L331:    
    7967 00000ecd 8F00-         MOVL      XAR4,#_pcmodbus+5     ; |1661| 
         00000ece 0005 
    7968 00000ecf 969C          MOV       *+XAR4[AR1],AL        ; |1661| 
    7969 00000ed0 56CF          BF        L334,UNC              ; |1661| 
         00000ed1 000A 
    7970                      ; branch occurs ; |1661| 
    7971 00000ed2       L332:    
    7972 00000ed2 8F00-         MOVL      XAR4,#_pcmodbus+5     ; |1660| 
         00000ed3 0005 
    7973 00000ed4 929C          MOV       AL,*+XAR4[AR1]        ; |1660| 
    7974 00000ed5 08A0          SUB       AR0,#8192             ; |1660| 
         00000ed6 E000 
    7975 00000ed7 8F00!         MOVL      XAR4,#_fileregs+315   ; |1660| 
         00000ed8 013B 
    7976 00000ed9       L333:    
    7977 00000ed9 9694          MOV       *+XAR4[AR0],AL        ; |1660| 
    7978 00000eda       L334:    
    7979 00000eda 8BBE          MOVL      XAR1,*--SP
    7980                      .dwpsn  "PCModBus.c",1733,1
    7981 00000edb 0006          LRETR
    7982                      ; return occurs
    7983                      .dwattr DW$830, DW_AT_end_file("PCModBus.c")
    7984                      .dwattr DW$830, DW_AT_end_line(0x6c5)
    7985                      .dwattr DW$830, DW_AT_end_column(0x01)
    7986                      .dwendtag DW$830
    7987              
    7988              ;***************************************************************
    7989              ;* FAR STRINGS                                                 *
    7990              ;***************************************************************
    7991 00000000               .sect   ".econst"
    7992                      .align  2
    7993 00000000 004E  FSL1:   .string "No response sent to PC",13,10,0
         00000001 006F 
         00000002 0020 
         00000003 0072 
         00000004 0065 
TMS320C2000 COFF Assembler PC v4.1.3 Thu Aug 18 12:16:25 2016

Tools Copyright (c) 1996-2006 Texas Instruments Incorporated
PCModBus.asm                                                         PAGE  170

         00000005 0073 
         00000006 0070 
         00000007 006F 
         00000008 006E 
         00000009 0073 
         0000000a 0065 
         0000000b 0020 
         0000000c 0073 
         0000000d 0065 
         0000000e 006E 
         0000000f 0074 
         00000010 0020 
         00000011 0074 
         00000012 006F 
         00000013 0020 
         00000014 0050 
         00000015 0043 
         00000016 000D 
         00000017 000A 
         00000018 0000 
    7994              ;***************************************************************
    7995              ;* UNDEFINED EXTERNAL REFERENCES                               *
    7996              ;***************************************************************
    7997                      .global _sprintf
    7998                      .global _memset
    7999                      .global _DebugStringOut
    8000                      .global _LoadSendBufferB
    8001                      .global _ReadCharfromUartB
    8002                      .global _SetupEventReadBack
    8003                      .global _ReadEvent
    8004                      .global _MSGQueueNumfromPC
    8005                      .global _ClearAlarmListandEventLog
    8006                      .global _ReadEventLogID
    8007                      .global _ReadMSGQueueNum
    8008                      .global _ReadLastEventID
    8009                      .global _GetSlaveVersion
    8010                      .global _ClearMANTable
    8011                      .global _PreWarningInit
    8012                      .global _PreWarnLevelReset
    8013                      .global _EnableNoiseFilter
    8014                      .global _GetCheckedRPM
    8015                      .global _GetRPM
    8016                      .global _GetModalRPM
    8017                      .global _GetScaledValue
    8018                      .global _GetPreCompValue
    8019                      .global _GetPostCompValue
    8020                      .global _GetEndResultValue
    8021                      .global _GetSensorDeviationValue
    8022                      .global _GetCylinderAverageValue
    8023                      .global _GetCylinderDeviationValue
    8024                      .global _Status1Flags
    8025                      .global _GetStatus2Flags
    8026                      .global _ReadStatus1Int
    8027                      .global _MANCompTable
    8028                      .global _WriteSensorStatustoNVMEM
TMS320C2000 COFF Assembler PC v4.1.3 Thu Aug 18 12:16:25 2016

Tools Copyright (c) 1996-2006 Texas Instruments Incorporated
PCModBus.asm                                                         PAGE  171

    8029                      .global _CalAbort
    8030                      .global _ReadAccAverageVal
    8031                      .global _ReadAverageSpeedAcc
    8032                      .global _ReadNumPoints
    8033                      .global _GetLearningTimeLeft
    8034                      .global _GetIntervalTimeLeft
    8035                      .global _GetPercentageLeft
    8036                      .global _ClearCalibrationAlarms
    8037                      .global _SDEventMessageUpdate
    8038                      .global _SDReadEventMessage
    8039                      .global _ClearManCompSequence
    8040                      .global _SetAllEventMsgs
    8041                      .global _GetFirstFileNameString
    8042                      .global _GetNextFileNameString
    8043                      .global _GetFileNumWords
    8044                      .global _WIOTemperatureWord
    8045                      .global _WIOActivityWord
    8046                      .global _WIOPPMWord
    8047                      .global _Status3Flags
    8048                      .global _GetAlarmFlags
    8049                      .global _ClearEventCodeListArea
    8050                      .global _ReadFirstEventCode
    8051                      .global _AlarmEventIDInc
    8052                      .global _BitEventCompiled
    8053                      .global _ProcessReprogrammingTransferral
    8054                      .global _TxNowtoSlave
    8055                      .global _DCModeInit
    8056                      .global _DCModeClear
    8057                      .global _GetuASCaledValue
    8058                      .global _InitMotionCal
    8059                      .global _ClearEngineDirCal
    8060                      .global _YearMonthUpdate
    8061                      .global _DateHoursUpdate
    8062                      .global _MinsSecsUpdate
    8063                      .global _InputNumtoString
    8064                      .global _WriteDateHrsData
    8065                      .global _FRAMInit
    8066                      .global _GetRealtimePreCompValue
    8067                      .global _GetRealtimeuAScaledValue
    8068                      .global _WriteMANCaltoNVMEM
    8069                      .global _CalibrationtdUpdate
    8070                      .global _ReadAccCalNVMEM
    8071                      .global _WriteClockData
    8072                      .global _SPUUnitReset
    8073                      .global _PCModifyParameter
    8074                      .global _WriteEngineStructtoNVMEM
    8075                      .global _CRCHiTbl
    8076                      .global _CRCLoTbl
    8077                      .global _gpf
    8078                      .global _settings
    8079                      .global _motion
    8080                      .global _livetime
    8081                      .global _calibrationtd
    8082                      .global _safe2
    8083                      .global _clocktime
TMS320C2000 COFF Assembler PC v4.1.3 Thu Aug 18 12:16:25 2016

Tools Copyright (c) 1996-2006 Texas Instruments Incorporated
PCModBus.asm                                                         PAGE  172

    8084                      .global _timers
    8085                      .global _allsensors
    8086                      .global _engine
    8087                      .global _cylinders
    8088                      .global _config
    8089                      .global _transferbuffer
    8090                      .global _stringbuffer
    8091                      .global _eventlogentry
    8092                      .global _versionreg
    8093                      .global _digout
    8094                      .global _prewarn
    8095                      .global _offsetA
    8096                      .global _offsetB
    8097                      .global _sensor
    8098                      .global _iSensorInRepalceMode
    8099                      .global _iSensorInRepalceTimer
    8100                      .global _iSensorInRepalce
    8101                      .global _function
    8102                      .global _manref
    8103                      .global _manrefsum
    8104                      .global _dynalarmlevels
    8105                      .global _damalarms
    8106                      .global _checkmanalarms
    8107                      .global _mancal
    8108                      .global _calibration
    8109                      .global _speedcompcoeffs
    8110                      .global _fileregs
    8111                      .global _sdsettings
    8112                      .global _waterinoil
    8113                      .global _wioerrorcode
    8114                      .global _noisefilterLOAD
    8115                      .global _damagemonignore
    8116                      .global _bitalarmlist
    8117                      .global _bearingstatus
    8118                      .global _slem
    8119                      .global _rtcbat
    8120                      .global _loadlevel
    8121                      .global _DCModePeakReset
    8122                      .global _DCModeCylinderComparison
    8123                      .global _DCModeInRangeOK
    8124                      .global _DCModeInRangeIdeal
    8125                      .global FS$$MPY
    8126                      .global FS$$TOU
    8127              
    8128              ;***************************************************************
    8129              ;* TYPE INFORMATION                                            *
    8130              ;***************************************************************
    8131              DW$T$3  .dwtag  DW_TAG_pointer_type
    8132                      .dwattr DW$T$3, DW_AT_address_class(0x16)
    8133              
    8134              DW$T$116        .dwtag  DW_TAG_subroutine_type, DW_AT_type(*DW$T$3)
    8135                      .dwattr DW$T$116, DW_AT_language(DW_LANG_C)
    8136              DW$833  .dwtag  DW_TAG_formal_parameter, DW_AT_type(*DW$T$3)
    8137              DW$834  .dwtag  DW_TAG_formal_parameter, DW_AT_type(*DW$T$10)
    8138              DW$835  .dwtag  DW_TAG_formal_parameter, DW_AT_type(*DW$T$115)
TMS320C2000 COFF Assembler PC v4.1.3 Thu Aug 18 12:16:25 2016

Tools Copyright (c) 1996-2006 Texas Instruments Incorporated
PCModBus.asm                                                         PAGE  173

    8139                      .dwendtag DW$T$116
    8140              
    8141              
    8142              DW$T$120        .dwtag  DW_TAG_subroutine_type
    8143                      .dwattr DW$T$120, DW_AT_language(DW_LANG_C)
    8144              DW$836  .dwtag  DW_TAG_formal_parameter, DW_AT_type(*DW$T$119)
    8145                      .dwendtag DW$T$120
    8146              
    8147              
    8148              DW$T$123        .dwtag  DW_TAG_subroutine_type
    8149                      .dwattr DW$T$123, DW_AT_language(DW_LANG_C)
    8150              DW$837  .dwtag  DW_TAG_formal_parameter, DW_AT_type(*DW$T$122)
    8151              DW$838  .dwtag  DW_TAG_formal_parameter, DW_AT_type(*DW$T$11)
    8152                      .dwendtag DW$T$123
    8153              
    8154              
    8155              DW$T$125        .dwtag  DW_TAG_subroutine_type
    8156                      .dwattr DW$T$125, DW_AT_language(DW_LANG_C)
    8157              DW$839  .dwtag  DW_TAG_formal_parameter, DW_AT_type(*DW$T$11)
    8158                      .dwendtag DW$T$125
    8159              
    8160              
    8161              DW$T$127        .dwtag  DW_TAG_subroutine_type
    8162                      .dwattr DW$T$127, DW_AT_language(DW_LANG_C)
    8163              
    8164              DW$T$129        .dwtag  DW_TAG_subroutine_type
    8165                      .dwattr DW$T$129, DW_AT_language(DW_LANG_C)
    8166              DW$840  .dwtag  DW_TAG_formal_parameter, DW_AT_type(*DW$T$10)
    8167                      .dwendtag DW$T$129
    8168              
    8169              
    8170              DW$T$131        .dwtag  DW_TAG_subroutine_type
    8171                      .dwattr DW$T$131, DW_AT_language(DW_LANG_C)
    8172              DW$841  .dwtag  DW_TAG_formal_parameter, DW_AT_type(*DW$T$11)
    8173              DW$842  .dwtag  DW_TAG_formal_parameter, DW_AT_type(*DW$T$11)
    8174              DW$843  .dwtag  DW_TAG_formal_parameter, DW_AT_type(*DW$T$11)
    8175              DW$844  .dwtag  DW_TAG_formal_parameter, DW_AT_type(*DW$T$122)
    8176                      .dwendtag DW$T$131
    8177              
    8178              
    8179              DW$T$133        .dwtag  DW_TAG_subroutine_type
    8180                      .dwattr DW$T$133, DW_AT_language(DW_LANG_C)
    8181              DW$845  .dwtag  DW_TAG_formal_parameter, DW_AT_type(*DW$T$122)
    8182              DW$846  .dwtag  DW_TAG_formal_parameter, DW_AT_type(*DW$T$11)
    8183              DW$847  .dwtag  DW_TAG_formal_parameter, DW_AT_type(*DW$T$122)
    8184                      .dwendtag DW$T$133
    8185              
    8186              
    8187              DW$T$137        .dwtag  DW_TAG_subroutine_type
    8188                      .dwattr DW$T$137, DW_AT_language(DW_LANG_C)
    8189              DW$848  .dwtag  DW_TAG_formal_parameter, DW_AT_type(*DW$T$136)
    8190              DW$849  .dwtag  DW_TAG_formal_parameter, DW_AT_type(*DW$T$3)
    8191              DW$850  .dwtag  DW_TAG_formal_parameter, DW_AT_type(*DW$T$11)
    8192                      .dwendtag DW$T$137
    8193              
TMS320C2000 COFF Assembler PC v4.1.3 Thu Aug 18 12:16:25 2016

Tools Copyright (c) 1996-2006 Texas Instruments Incorporated
PCModBus.asm                                                         PAGE  174

    8194              
    8195              DW$T$139        .dwtag  DW_TAG_subroutine_type
    8196                      .dwattr DW$T$139, DW_AT_language(DW_LANG_C)
    8197              DW$851  .dwtag  DW_TAG_formal_parameter, DW_AT_type(*DW$T$11)
    8198              DW$852  .dwtag  DW_TAG_formal_parameter, DW_AT_type(*DW$T$11)
    8199                      .dwendtag DW$T$139
    8200              
    8201              DW$T$6  .dwtag  DW_TAG_base_type, DW_AT_name("unsigned char")
    8202                      .dwattr DW$T$6, DW_AT_encoding(DW_ATE_unsigned_char)
    8203                      .dwattr DW$T$6, DW_AT_byte_size(0x01)
    8204              
    8205              DW$T$141        .dwtag  DW_TAG_subroutine_type, DW_AT_type(*DW$T$6)
    8206                      .dwattr DW$T$141, DW_AT_language(DW_LANG_C)
    8207              DW$853  .dwtag  DW_TAG_formal_parameter, DW_AT_type(*DW$T$122)
    8208              DW$854  .dwtag  DW_TAG_formal_parameter, DW_AT_type(*DW$T$13)
    8209                      .dwendtag DW$T$141
    8210              
    8211              DW$T$10 .dwtag  DW_TAG_base_type, DW_AT_name("int")
    8212                      .dwattr DW$T$10, DW_AT_encoding(DW_ATE_signed)
    8213                      .dwattr DW$T$10, DW_AT_byte_size(0x01)
    8214              
    8215              DW$T$70 .dwtag  DW_TAG_array_type, DW_AT_type(*DW$T$10)
    8216                      .dwattr DW$T$70, DW_AT_language(DW_LANG_C)
    8217                      .dwattr DW$T$70, DW_AT_byte_size(0x1c)
    8218              DW$855  .dwtag  DW_TAG_subrange_type
    8219                      .dwattr DW$855, DW_AT_upper_bound(0x1b)
    8220                      .dwendtag DW$T$70
    8221              
    8222              DW$T$142        .dwtag  DW_TAG_pointer_type, DW_AT_type(*DW$T$10)
    8223                      .dwattr DW$T$142, DW_AT_address_class(0x16)
    8224              
    8225              DW$T$143        .dwtag  DW_TAG_subroutine_type, DW_AT_type(*DW$T$142)
    8226                      .dwattr DW$T$143, DW_AT_language(DW_LANG_C)
    8227              DW$856  .dwtag  DW_TAG_formal_parameter, DW_AT_type(*DW$T$11)
    8228              DW$857  .dwtag  DW_TAG_formal_parameter, DW_AT_type(*DW$T$11)
    8229                      .dwendtag DW$T$143
    8230              
    8231              
    8232              DW$T$147        .dwtag  DW_TAG_subroutine_type, DW_AT_type(*DW$T$10)
    8233                      .dwattr DW$T$147, DW_AT_language(DW_LANG_C)
    8234              DW$858  .dwtag  DW_TAG_formal_parameter, DW_AT_type(*DW$T$119)
    8235              DW$859  .dwtag  DW_TAG_formal_parameter, DW_AT_type(*DW$T$146)
    8236              DW$860  .dwtag  DW_TAG_unspecified_parameters
    8237                      .dwendtag DW$T$147
    8238              
    8239              
    8240              DW$T$149        .dwtag  DW_TAG_subroutine_type, DW_AT_type(*DW$T$10)
    8241                      .dwattr DW$T$149, DW_AT_language(DW_LANG_C)
    8242              DW$861  .dwtag  DW_TAG_formal_parameter, DW_AT_type(*DW$T$11)
    8243                      .dwendtag DW$T$149
    8244              
    8245              
    8246              DW$T$151        .dwtag  DW_TAG_subroutine_type, DW_AT_type(*DW$T$10)
    8247                      .dwattr DW$T$151, DW_AT_language(DW_LANG_C)
    8248              DW$862  .dwtag  DW_TAG_formal_parameter, DW_AT_type(*DW$T$11)
TMS320C2000 COFF Assembler PC v4.1.3 Thu Aug 18 12:16:25 2016

Tools Copyright (c) 1996-2006 Texas Instruments Incorporated
PCModBus.asm                                                         PAGE  175

    8249              DW$863  .dwtag  DW_TAG_formal_parameter, DW_AT_type(*DW$T$122)
    8250                      .dwendtag DW$T$151
    8251              
    8252              
    8253              DW$T$153        .dwtag  DW_TAG_subroutine_type, DW_AT_type(*DW$T$10)
    8254                      .dwattr DW$T$153, DW_AT_language(DW_LANG_C)
    8255              
    8256              DW$T$155        .dwtag  DW_TAG_subroutine_type, DW_AT_type(*DW$T$10)
    8257                      .dwattr DW$T$155, DW_AT_language(DW_LANG_C)
    8258              DW$T$11 .dwtag  DW_TAG_base_type, DW_AT_name("unsigned int")
    8259                      .dwattr DW$T$11, DW_AT_encoding(DW_ATE_unsigned)
    8260                      .dwattr DW$T$11, DW_AT_byte_size(0x01)
    8261              
    8262              DW$T$48 .dwtag  DW_TAG_array_type, DW_AT_type(*DW$T$11)
    8263                      .dwattr DW$T$48, DW_AT_language(DW_LANG_C)
    8264                      .dwattr DW$T$48, DW_AT_byte_size(0x0e)
    8265              DW$864  .dwtag  DW_TAG_subrange_type
    8266                      .dwattr DW$864, DW_AT_upper_bound(0x0d)
    8267                      .dwendtag DW$T$48
    8268              
    8269              
    8270              DW$T$82 .dwtag  DW_TAG_array_type, DW_AT_type(*DW$T$11)
    8271                      .dwattr DW$T$82, DW_AT_language(DW_LANG_C)
    8272                      .dwattr DW$T$82, DW_AT_byte_size(0x02)
    8273              DW$865  .dwtag  DW_TAG_subrange_type
    8274                      .dwattr DW$865, DW_AT_upper_bound(0x01)
    8275                      .dwendtag DW$T$82
    8276              
    8277              
    8278              DW$T$112        .dwtag  DW_TAG_array_type, DW_AT_type(*DW$T$11)
    8279                      .dwattr DW$T$112, DW_AT_language(DW_LANG_C)
    8280                      .dwattr DW$T$112, DW_AT_byte_size(0x10a)
    8281              DW$866  .dwtag  DW_TAG_subrange_type
    8282                      .dwattr DW$866, DW_AT_upper_bound(0x109)
    8283                      .dwendtag DW$T$112
    8284              
    8285              DW$T$122        .dwtag  DW_TAG_pointer_type, DW_AT_type(*DW$T$11)
    8286                      .dwattr DW$T$122, DW_AT_address_class(0x16)
    8287              
    8288              DW$T$166        .dwtag  DW_TAG_subroutine_type, DW_AT_type(*DW$T$122)
    8289                      .dwattr DW$T$166, DW_AT_language(DW_LANG_C)
    8290              
    8291              DW$T$169        .dwtag  DW_TAG_subroutine_type, DW_AT_type(*DW$T$11)
    8292                      .dwattr DW$T$169, DW_AT_language(DW_LANG_C)
    8293              DW$867  .dwtag  DW_TAG_formal_parameter, DW_AT_type(*DW$T$11)
    8294                      .dwendtag DW$T$169
    8295              
    8296              
    8297              DW$T$171        .dwtag  DW_TAG_subroutine_type, DW_AT_type(*DW$T$11)
    8298                      .dwattr DW$T$171, DW_AT_language(DW_LANG_C)
    8299              
    8300              DW$T$173        .dwtag  DW_TAG_subroutine_type, DW_AT_type(*DW$T$11)
    8301                      .dwattr DW$T$173, DW_AT_language(DW_LANG_C)
    8302              DW$868  .dwtag  DW_TAG_formal_parameter, DW_AT_type(*DW$T$10)
    8303                      .dwendtag DW$T$173
TMS320C2000 COFF Assembler PC v4.1.3 Thu Aug 18 12:16:25 2016

Tools Copyright (c) 1996-2006 Texas Instruments Incorporated
PCModBus.asm                                                         PAGE  176

    8304              
    8305              DW$869  .dwtag  DW_TAG_far_type
    8306                      .dwattr DW$869, DW_AT_type(*DW$T$11)
    8307              DW$T$175        .dwtag  DW_TAG_const_type
    8308                      .dwattr DW$T$175, DW_AT_type(*DW$869)
    8309              
    8310              DW$T$176        .dwtag  DW_TAG_array_type, DW_AT_type(*DW$T$175)
    8311                      .dwattr DW$T$176, DW_AT_language(DW_LANG_C)
    8312              DW$870  .dwtag  DW_TAG_subrange_type
    8313                      .dwendtag DW$T$176
    8314              
    8315              
    8316              DW$T$178        .dwtag  DW_TAG_array_type, DW_AT_type(*DW$T$11)
    8317                      .dwattr DW$T$178, DW_AT_language(DW_LANG_C)
    8318                      .dwattr DW$T$178, DW_AT_byte_size(0x80)
    8319              DW$871  .dwtag  DW_TAG_subrange_type
    8320                      .dwattr DW$871, DW_AT_upper_bound(0x7f)
    8321                      .dwendtag DW$T$178
    8322              
    8323              
    8324              DW$T$179        .dwtag  DW_TAG_array_type, DW_AT_type(*DW$T$11)
    8325                      .dwattr DW$T$179, DW_AT_language(DW_LANG_C)
    8326                      .dwattr DW$T$179, DW_AT_byte_size(0x1c)
    8327              DW$872  .dwtag  DW_TAG_subrange_type
    8328                      .dwattr DW$872, DW_AT_upper_bound(0x1b)
    8329                      .dwendtag DW$T$179
    8330              
    8331              
    8332              DW$T$180        .dwtag  DW_TAG_array_type, DW_AT_type(*DW$T$11)
    8333                      .dwattr DW$T$180, DW_AT_language(DW_LANG_C)
    8334                      .dwattr DW$T$180, DW_AT_byte_size(0x21)
    8335              DW$873  .dwtag  DW_TAG_subrange_type
    8336                      .dwattr DW$873, DW_AT_upper_bound(0x20)
    8337                      .dwendtag DW$T$180
    8338              
    8339              DW$T$12 .dwtag  DW_TAG_base_type, DW_AT_name("long")
    8340                      .dwattr DW$T$12, DW_AT_encoding(DW_ATE_signed)
    8341                      .dwattr DW$T$12, DW_AT_byte_size(0x02)
    8342              DW$T$185        .dwtag  DW_TAG_pointer_type, DW_AT_type(*DW$T$12)
    8343                      .dwattr DW$T$185, DW_AT_address_class(0x16)
    8344              
    8345              DW$T$186        .dwtag  DW_TAG_subroutine_type, DW_AT_type(*DW$T$185)
    8346                      .dwattr DW$T$186, DW_AT_language(DW_LANG_C)
    8347              DW$874  .dwtag  DW_TAG_formal_parameter, DW_AT_type(*DW$T$11)
    8348              DW$875  .dwtag  DW_TAG_formal_parameter, DW_AT_type(*DW$T$11)
    8349                      .dwendtag DW$T$186
    8350              
    8351              
    8352              DW$T$188        .dwtag  DW_TAG_subroutine_type, DW_AT_type(*DW$T$12)
    8353                      .dwattr DW$T$188, DW_AT_language(DW_LANG_C)
    8354              DW$T$13 .dwtag  DW_TAG_base_type, DW_AT_name("unsigned long")
    8355                      .dwattr DW$T$13, DW_AT_encoding(DW_ATE_unsigned)
    8356                      .dwattr DW$T$13, DW_AT_byte_size(0x02)
    8357              DW$T$115        .dwtag  DW_TAG_typedef, DW_AT_name("size_t"), DW_AT_type(*DW$T$13)
    8358                      .dwattr DW$T$115, DW_AT_language(DW_LANG_C)
TMS320C2000 COFF Assembler PC v4.1.3 Thu Aug 18 12:16:25 2016

Tools Copyright (c) 1996-2006 Texas Instruments Incorporated
PCModBus.asm                                                         PAGE  177

    8359              DW$T$190        .dwtag  DW_TAG_pointer_type, DW_AT_type(*DW$T$13)
    8360                      .dwattr DW$T$190, DW_AT_address_class(0x16)
    8361              
    8362              DW$T$191        .dwtag  DW_TAG_subroutine_type, DW_AT_type(*DW$T$190)
    8363                      .dwattr DW$T$191, DW_AT_language(DW_LANG_C)
    8364              DW$876  .dwtag  DW_TAG_formal_parameter, DW_AT_type(*DW$T$11)
    8365                      .dwendtag DW$T$191
    8366              
    8367              DW$T$194        .dwtag  DW_TAG_pointer_type, DW_AT_type(*DW$T$74)
    8368                      .dwattr DW$T$194, DW_AT_address_class(0x16)
    8369              
    8370              DW$T$195        .dwtag  DW_TAG_subroutine_type, DW_AT_type(*DW$T$194)
    8371                      .dwattr DW$T$195, DW_AT_language(DW_LANG_C)
    8372              DW$877  .dwtag  DW_TAG_formal_parameter, DW_AT_type(*DW$T$11)
    8373                      .dwendtag DW$T$195
    8374              
    8375              DW$T$199        .dwtag  DW_TAG_pointer_type, DW_AT_type(*DW$T$75)
    8376                      .dwattr DW$T$199, DW_AT_address_class(0x16)
    8377              
    8378              DW$T$200        .dwtag  DW_TAG_subroutine_type, DW_AT_type(*DW$T$199)
    8379                      .dwattr DW$T$200, DW_AT_language(DW_LANG_C)
    8380              DW$878  .dwtag  DW_TAG_formal_parameter, DW_AT_type(*DW$T$11)
    8381                      .dwendtag DW$T$200
    8382              
    8383              DW$T$205        .dwtag  DW_TAG_pointer_type, DW_AT_type(*DW$T$204)
    8384                      .dwattr DW$T$205, DW_AT_address_class(0x16)
    8385              
    8386              DW$T$206        .dwtag  DW_TAG_subroutine_type, DW_AT_type(*DW$T$205)
    8387                      .dwattr DW$T$206, DW_AT_language(DW_LANG_C)
    8388              DW$879  .dwtag  DW_TAG_formal_parameter, DW_AT_type(*DW$T$11)
    8389                      .dwendtag DW$T$206
    8390              
    8391              DW$T$211        .dwtag  DW_TAG_pointer_type, DW_AT_type(*DW$T$210)
    8392                      .dwattr DW$T$211, DW_AT_address_class(0x16)
    8393              
    8394              DW$T$212        .dwtag  DW_TAG_subroutine_type, DW_AT_type(*DW$T$211)
    8395                      .dwattr DW$T$212, DW_AT_language(DW_LANG_C)
    8396              DW$880  .dwtag  DW_TAG_far_type
    8397                      .dwattr DW$880, DW_AT_type(*DW$T$216)
    8398              DW$T$217        .dwtag  DW_TAG_volatile_type
    8399                      .dwattr DW$T$217, DW_AT_type(*DW$880)
    8400              DW$T$220        .dwtag  DW_TAG_typedef, DW_AT_name("settingsstruct"), DW_AT_type(*DW$T$27)
    8401                      .dwattr DW$T$220, DW_AT_language(DW_LANG_C)
    8402              DW$T$221        .dwtag  DW_TAG_typedef, DW_AT_name("motionstruct"), DW_AT_type(*DW$T$29)
    8403                      .dwattr DW$T$221, DW_AT_language(DW_LANG_C)
    8404              DW$T$222        .dwtag  DW_TAG_typedef, DW_AT_name("livestruct"), DW_AT_type(*DW$T$30)
    8405                      .dwattr DW$T$222, DW_AT_language(DW_LANG_C)
    8406              DW$T$224        .dwtag  DW_TAG_typedef, DW_AT_name("calibrationdatetimestruct"), DW_AT_type(*DW$T$33)
    8407                      .dwattr DW$T$224, DW_AT_language(DW_LANG_C)
    8408              DW$T$226        .dwtag  DW_TAG_typedef, DW_AT_name("safestruct2struct"), DW_AT_type(*DW$T$46)
    8409                      .dwattr DW$T$226, DW_AT_language(DW_LANG_C)
    8410              DW$T$227        .dwtag  DW_TAG_typedef, DW_AT_name("clockstruct"), DW_AT_type(*DW$T$47)
    8411                      .dwattr DW$T$227, DW_AT_language(DW_LANG_C)
    8412              DW$881  .dwtag  DW_TAG_far_type
    8413                      .dwattr DW$881, DW_AT_type(*DW$T$228)
TMS320C2000 COFF Assembler PC v4.1.3 Thu Aug 18 12:16:25 2016

Tools Copyright (c) 1996-2006 Texas Instruments Incorporated
PCModBus.asm                                                         PAGE  178

    8414              DW$T$229        .dwtag  DW_TAG_volatile_type
    8415                      .dwattr DW$T$229, DW_AT_type(*DW$881)
    8416              DW$T$231        .dwtag  DW_TAG_typedef, DW_AT_name("allsensorstruct"), DW_AT_type(*DW$T$52)
    8417                      .dwattr DW$T$231, DW_AT_language(DW_LANG_C)
    8418              DW$T$233        .dwtag  DW_TAG_typedef, DW_AT_name("enginestruct"), DW_AT_type(*DW$T$53)
    8419                      .dwattr DW$T$233, DW_AT_language(DW_LANG_C)
    8420              
    8421              DW$T$235        .dwtag  DW_TAG_array_type, DW_AT_type(*DW$T$234)
    8422                      .dwattr DW$T$235, DW_AT_language(DW_LANG_C)
    8423                      .dwattr DW$T$235, DW_AT_byte_size(0x38)
    8424              DW$882  .dwtag  DW_TAG_subrange_type
    8425                      .dwattr DW$882, DW_AT_upper_bound(0x0d)
    8426                      .dwendtag DW$T$235
    8427              
    8428              DW$T$238        .dwtag  DW_TAG_typedef, DW_AT_name("configstruct"), DW_AT_type(*DW$T$63)
    8429                      .dwattr DW$T$238, DW_AT_language(DW_LANG_C)
    8430              DW$T$239        .dwtag  DW_TAG_typedef, DW_AT_name("eventlogstruct"), DW_AT_type(*DW$T$68)
    8431                      .dwattr DW$T$239, DW_AT_language(DW_LANG_C)
    8432              DW$T$240        .dwtag  DW_TAG_typedef, DW_AT_name("digoutstruct"), DW_AT_type(*DW$T$69)
    8433                      .dwattr DW$T$240, DW_AT_language(DW_LANG_C)
    8434              DW$T$241        .dwtag  DW_TAG_typedef, DW_AT_name("prewarnstruct"), DW_AT_type(*DW$T$72)
    8435                      .dwattr DW$T$241, DW_AT_language(DW_LANG_C)
    8436              DW$T$243        .dwtag  DW_TAG_typedef, DW_AT_name("offsetstruct"), DW_AT_type(*DW$T$73)
    8437                      .dwattr DW$T$243, DW_AT_language(DW_LANG_C)
    8438              
    8439              DW$T$246        .dwtag  DW_TAG_array_type, DW_AT_type(*DW$T$245)
    8440                      .dwattr DW$T$246, DW_AT_language(DW_LANG_C)
    8441                      .dwattr DW$T$246, DW_AT_byte_size(0x1f8)
    8442              DW$883  .dwtag  DW_TAG_subrange_type
    8443                      .dwattr DW$883, DW_AT_upper_bound(0x1b)
    8444                      .dwendtag DW$T$246
    8445              
    8446              DW$T$249        .dwtag  DW_TAG_typedef, DW_AT_name("functionstruct"), DW_AT_type(*DW$T$78)
    8447                      .dwattr DW$T$249, DW_AT_language(DW_LANG_C)
    8448              
    8449              DW$T$252        .dwtag  DW_TAG_array_type, DW_AT_type(*DW$T$251)
    8450                      .dwattr DW$T$252, DW_AT_language(DW_LANG_C)
    8451                      .dwattr DW$T$252, DW_AT_byte_size(0x118)
    8452              DW$884  .dwtag  DW_TAG_subrange_type
    8453                      .dwattr DW$884, DW_AT_upper_bound(0x1b)
    8454                      .dwendtag DW$T$252
    8455              
    8456              
    8457              DW$T$256        .dwtag  DW_TAG_array_type, DW_AT_type(*DW$T$255)
    8458                      .dwattr DW$T$256, DW_AT_language(DW_LANG_C)
    8459                      .dwattr DW$T$256, DW_AT_byte_size(0x1c)
    8460              DW$885  .dwtag  DW_TAG_subrange_type
    8461                      .dwattr DW$885, DW_AT_upper_bound(0x0d)
    8462                      .dwendtag DW$T$256
    8463              
    8464              DW$T$259        .dwtag  DW_TAG_typedef, DW_AT_name("dynamicalarmsstruct"), DW_AT_type(*DW$T$81)
    8465                      .dwattr DW$T$259, DW_AT_language(DW_LANG_C)
    8466              DW$T$260        .dwtag  DW_TAG_typedef, DW_AT_name("damalarmsstruct"), DW_AT_type(*DW$T$83)
    8467                      .dwattr DW$T$260, DW_AT_language(DW_LANG_C)
    8468              DW$T$262        .dwtag  DW_TAG_typedef, DW_AT_name("mancalstruct"), DW_AT_type(*DW$T$84)
TMS320C2000 COFF Assembler PC v4.1.3 Thu Aug 18 12:16:25 2016

Tools Copyright (c) 1996-2006 Texas Instruments Incorporated
PCModBus.asm                                                         PAGE  179

    8469                      .dwattr DW$T$262, DW_AT_language(DW_LANG_C)
    8470              DW$T$263        .dwtag  DW_TAG_typedef, DW_AT_name("calibrationstruct"), DW_AT_type(*DW$T$91)
    8471                      .dwattr DW$T$263, DW_AT_language(DW_LANG_C)
    8472              DW$T$265        .dwtag  DW_TAG_typedef, DW_AT_name("speedcompstruct"), DW_AT_type(*DW$T$92)
    8473                      .dwattr DW$T$265, DW_AT_language(DW_LANG_C)
    8474              DW$T$96 .dwtag  DW_TAG_base_type, DW_AT_name("signed char")
    8475                      .dwattr DW$T$96, DW_AT_encoding(DW_ATE_signed_char)
    8476                      .dwattr DW$T$96, DW_AT_byte_size(0x01)
    8477              DW$T$119        .dwtag  DW_TAG_pointer_type, DW_AT_type(*DW$T$96)
    8478                      .dwattr DW$T$119, DW_AT_address_class(0x16)
    8479              DW$T$146        .dwtag  DW_TAG_pointer_type, DW_AT_type(*DW$T$145)
    8480                      .dwattr DW$T$146, DW_AT_address_class(0x16)
    8481              
    8482              DW$T$266        .dwtag  DW_TAG_subroutine_type, DW_AT_type(*DW$T$96)
    8483                      .dwattr DW$T$266, DW_AT_language(DW_LANG_C)
    8484              
    8485              DW$T$267        .dwtag  DW_TAG_array_type, DW_AT_type(*DW$T$96)
    8486                      .dwattr DW$T$267, DW_AT_language(DW_LANG_C)
    8487                      .dwattr DW$T$267, DW_AT_byte_size(0x64)
    8488              DW$886  .dwtag  DW_TAG_subrange_type
    8489                      .dwattr DW$886, DW_AT_upper_bound(0x63)
    8490                      .dwendtag DW$T$267
    8491              
    8492              DW$T$270        .dwtag  DW_TAG_typedef, DW_AT_name("sdfilestruct"), DW_AT_type(*DW$T$99)
    8493                      .dwattr DW$T$270, DW_AT_language(DW_LANG_C)
    8494              DW$T$272        .dwtag  DW_TAG_typedef, DW_AT_name("sdsettingsstruct"), DW_AT_type(*DW$T$101)
    8495                      .dwattr DW$T$272, DW_AT_language(DW_LANG_C)
    8496              DW$T$273        .dwtag  DW_TAG_typedef, DW_AT_name("waterinoilstruct"), DW_AT_type(*DW$T$104)
    8497                      .dwattr DW$T$273, DW_AT_language(DW_LANG_C)
    8498              DW$T$275        .dwtag  DW_TAG_typedef, DW_AT_name("bearingstatusstruct"), DW_AT_type(*DW$T$106)
    8499                      .dwattr DW$T$275, DW_AT_language(DW_LANG_C)
    8500              DW$T$277        .dwtag  DW_TAG_typedef, DW_AT_name("slemstruct"), DW_AT_type(*DW$T$108)
    8501                      .dwattr DW$T$277, DW_AT_language(DW_LANG_C)
    8502              DW$T$279        .dwtag  DW_TAG_typedef, DW_AT_name("rtcbatstruct"), DW_AT_type(*DW$T$110)
    8503                      .dwattr DW$T$279, DW_AT_language(DW_LANG_C)
    8504              DW$T$281        .dwtag  DW_TAG_typedef, DW_AT_name("cppstruct"), DW_AT_type(*DW$T$111)
    8505                      .dwattr DW$T$281, DW_AT_language(DW_LANG_C)
    8506              DW$T$282        .dwtag  DW_TAG_typedef, DW_AT_name("PCCmdStruct"), DW_AT_type(*DW$T$113)
    8507                      .dwattr DW$T$282, DW_AT_language(DW_LANG_C)
    8508              DW$T$284        .dwtag  DW_TAG_typedef, DW_AT_name("modbusupdatestruct"), DW_AT_type(*DW$T$114)
    8509                      .dwattr DW$T$284, DW_AT_language(DW_LANG_C)
    8510              DW$T$136        .dwtag  DW_TAG_typedef, DW_AT_name("PtrTypeEnum"), DW_AT_type(*DW$T$135)
    8511                      .dwattr DW$T$136, DW_AT_language(DW_LANG_C)
    8512              DW$T$74 .dwtag  DW_TAG_typedef, DW_AT_name("status1struct"), DW_AT_type(*DW$T$19)
    8513                      .dwattr DW$T$74, DW_AT_language(DW_LANG_C)
    8514              DW$T$75 .dwtag  DW_TAG_typedef, DW_AT_name("sensoralarmstruct"), DW_AT_type(*DW$T$20)
    8515                      .dwattr DW$T$75, DW_AT_language(DW_LANG_C)
    8516              DW$T$204        .dwtag  DW_TAG_typedef, DW_AT_name("status3struct"), DW_AT_type(*DW$T$21)
    8517                      .dwattr DW$T$204, DW_AT_language(DW_LANG_C)
    8518              DW$T$210        .dwtag  DW_TAG_typedef, DW_AT_name("alarmsstruct"), DW_AT_type(*DW$T$22)
    8519                      .dwattr DW$T$210, DW_AT_language(DW_LANG_C)
    8520              DW$T$216        .dwtag  DW_TAG_typedef, DW_AT_name("gpfport"), DW_AT_type(*DW$T$25)
    8521                      .dwattr DW$T$216, DW_AT_language(DW_LANG_C)
    8522              
    8523              DW$T$27 .dwtag  DW_TAG_structure_type
TMS320C2000 COFF Assembler PC v4.1.3 Thu Aug 18 12:16:25 2016

Tools Copyright (c) 1996-2006 Texas Instruments Incorporated
PCModBus.asm                                                         PAGE  180

    8524                      .dwattr DW$T$27, DW_AT_name("tag_settingsstruct")
    8525                      .dwattr DW$T$27, DW_AT_byte_size(0x24)
    8526              DW$887  .dwtag  DW_TAG_member, DW_AT_type(*DW$T$11)
    8527                      .dwattr DW$887, DW_AT_name("watchdog"), DW_AT_symbol_name("_watchdog")
    8528                      .dwattr DW$887, DW_AT_data_member_location[DW_OP_plus_uconst 0x0]
    8529                      .dwattr DW$887, DW_AT_accessibility(DW_ACCESS_public)
    8530              DW$888  .dwtag  DW_TAG_member, DW_AT_type(*DW$T$11)
    8531                      .dwattr DW$888, DW_AT_name("ledflashflag"), DW_AT_symbol_name("_ledflashflag")
    8532                      .dwattr DW$888, DW_AT_data_member_location[DW_OP_plus_uconst 0x1]
    8533                      .dwattr DW$888, DW_AT_accessibility(DW_ACCESS_public)
    8534              DW$889  .dwtag  DW_TAG_member, DW_AT_type(*DW$T$11)
    8535                      .dwattr DW$889, DW_AT_name("updatesafe"), DW_AT_symbol_name("_updatesafe")
    8536                      .dwattr DW$889, DW_AT_data_member_location[DW_OP_plus_uconst 0x2]
    8537                      .dwattr DW$889, DW_AT_accessibility(DW_ACCESS_public)
    8538              DW$890  .dwtag  DW_TAG_member, DW_AT_type(*DW$T$11)
    8539                      .dwattr DW$890, DW_AT_name("tableconfigtype"), DW_AT_symbol_name("_tableconfigtype")
    8540                      .dwattr DW$890, DW_AT_data_member_location[DW_OP_plus_uconst 0x3]
    8541                      .dwattr DW$890, DW_AT_accessibility(DW_ACCESS_public)
    8542              DW$891  .dwtag  DW_TAG_member, DW_AT_type(*DW$T$11)
    8543                      .dwattr DW$891, DW_AT_name("caltableconfigtype"), DW_AT_symbol_name("_caltableconfigtype")
    8544                      .dwattr DW$891, DW_AT_data_member_location[DW_OP_plus_uconst 0x4]
    8545                      .dwattr DW$891, DW_AT_accessibility(DW_ACCESS_public)
    8546              DW$892  .dwtag  DW_TAG_member, DW_AT_type(*DW$T$11)
    8547                      .dwattr DW$892, DW_AT_name("eventmsgid"), DW_AT_symbol_name("_eventmsgid")
    8548                      .dwattr DW$892, DW_AT_data_member_location[DW_OP_plus_uconst 0x5]
    8549                      .dwattr DW$892, DW_AT_accessibility(DW_ACCESS_public)
    8550              DW$893  .dwtag  DW_TAG_member, DW_AT_type(*DW$T$11)
    8551                      .dwattr DW$893, DW_AT_name("configoperationcomplete"), DW_AT_symbol_name("_configoperationcomplete")
    8552                      .dwattr DW$893, DW_AT_data_member_location[DW_OP_plus_uconst 0x6]
    8553                      .dwattr DW$893, DW_AT_accessibility(DW_ACCESS_public)
    8554              DW$894  .dwtag  DW_TAG_member, DW_AT_type(*DW$T$11)
    8555                      .dwattr DW$894, DW_AT_name("sdcarderr"), DW_AT_symbol_name("_sdcarderr")
    8556                      .dwattr DW$894, DW_AT_data_member_location[DW_OP_plus_uconst 0x7]
    8557                      .dwattr DW$894, DW_AT_accessibility(DW_ACCESS_public)
    8558              DW$895  .dwtag  DW_TAG_member, DW_AT_type(*DW$T$11)
    8559                      .dwattr DW$895, DW_AT_name("sderase"), DW_AT_symbol_name("_sderase")
    8560                      .dwattr DW$895, DW_AT_data_member_location[DW_OP_plus_uconst 0x8]
    8561                      .dwattr DW$895, DW_AT_accessibility(DW_ACCESS_public)
    8562              DW$896  .dwtag  DW_TAG_member, DW_AT_type(*DW$T$11)
    8563                      .dwattr DW$896, DW_AT_name("sdreinit"), DW_AT_symbol_name("_sdreinit")
    8564                      .dwattr DW$896, DW_AT_data_member_location[DW_OP_plus_uconst 0x9]
    8565                      .dwattr DW$896, DW_AT_accessibility(DW_ACCESS_public)
    8566              DW$897  .dwtag  DW_TAG_member, DW_AT_type(*DW$T$11)
    8567                      .dwattr DW$897, DW_AT_name("sdcardupdate"), DW_AT_symbol_name("_sdcardupdate")
    8568                      .dwattr DW$897, DW_AT_data_member_location[DW_OP_plus_uconst 0xa]
    8569                      .dwattr DW$897, DW_AT_accessibility(DW_ACCESS_public)
    8570              DW$898  .dwtag  DW_TAG_member, DW_AT_type(*DW$T$11)
    8571                      .dwattr DW$898, DW_AT_name("cardreadflag"), DW_AT_symbol_name("_cardreadflag")
    8572                      .dwattr DW$898, DW_AT_data_member_location[DW_OP_plus_uconst 0xb]
    8573                      .dwattr DW$898, DW_AT_accessibility(DW_ACCESS_public)
    8574              DW$899  .dwtag  DW_TAG_member, DW_AT_type(*DW$T$11)
    8575                      .dwattr DW$899, DW_AT_name("ignore"), DW_AT_symbol_name("_ignore")
    8576                      .dwattr DW$899, DW_AT_data_member_location[DW_OP_plus_uconst 0xc]
    8577                      .dwattr DW$899, DW_AT_accessibility(DW_ACCESS_public)
    8578              DW$900  .dwtag  DW_TAG_member, DW_AT_type(*DW$T$11)
TMS320C2000 COFF Assembler PC v4.1.3 Thu Aug 18 12:16:25 2016

Tools Copyright (c) 1996-2006 Texas Instruments Incorporated
PCModBus.asm                                                         PAGE  181

    8579                      .dwattr DW$900, DW_AT_name("dcmode"), DW_AT_symbol_name("_dcmode")
    8580                      .dwattr DW$900, DW_AT_data_member_location[DW_OP_plus_uconst 0xd]
    8581                      .dwattr DW$900, DW_AT_accessibility(DW_ACCESS_public)
    8582              DW$901  .dwtag  DW_TAG_member, DW_AT_type(*DW$T$11)
    8583                      .dwattr DW$901, DW_AT_name("spiinuse"), DW_AT_symbol_name("_spiinuse")
    8584                      .dwattr DW$901, DW_AT_data_member_location[DW_OP_plus_uconst 0xe]
    8585                      .dwattr DW$901, DW_AT_accessibility(DW_ACCESS_public)
    8586              DW$902  .dwtag  DW_TAG_member, DW_AT_type(*DW$T$11)
    8587                      .dwattr DW$902, DW_AT_name("dcpeakhold"), DW_AT_symbol_name("_dcpeakhold")
    8588                      .dwattr DW$902, DW_AT_data_member_location[DW_OP_plus_uconst 0xf]
    8589                      .dwattr DW$902, DW_AT_accessibility(DW_ACCESS_public)
    8590              DW$903  .dwtag  DW_TAG_member, DW_AT_type(*DW$T$11)
    8591                      .dwattr DW$903, DW_AT_name("dcpause"), DW_AT_symbol_name("_dcpause")
    8592                      .dwattr DW$903, DW_AT_data_member_location[DW_OP_plus_uconst 0x10]
    8593                      .dwattr DW$903, DW_AT_accessibility(DW_ACCESS_public)
    8594              DW$904  .dwtag  DW_TAG_member, DW_AT_type(*DW$T$11)
    8595                      .dwattr DW$904, DW_AT_name("mastermode"), DW_AT_symbol_name("_mastermode")
    8596                      .dwattr DW$904, DW_AT_data_member_location[DW_OP_plus_uconst 0x11]
    8597                      .dwattr DW$904, DW_AT_accessibility(DW_ACCESS_public)
    8598              DW$905  .dwtag  DW_TAG_member, DW_AT_type(*DW$T$11)
    8599                      .dwattr DW$905, DW_AT_name("updatescaling"), DW_AT_symbol_name("_updatescaling")
    8600                      .dwattr DW$905, DW_AT_data_member_location[DW_OP_plus_uconst 0x12]
    8601                      .dwattr DW$905, DW_AT_accessibility(DW_ACCESS_public)
    8602              DW$906  .dwtag  DW_TAG_member, DW_AT_type(*DW$T$11)
    8603                      .dwattr DW$906, DW_AT_name("forwardasternflag"), DW_AT_symbol_name("_forwardasternflag")
    8604                      .dwattr DW$906, DW_AT_data_member_location[DW_OP_plus_uconst 0x13]
    8605                      .dwattr DW$906, DW_AT_accessibility(DW_ACCESS_public)
    8606              DW$907  .dwtag  DW_TAG_member, DW_AT_type(*DW$T$11)
    8607                      .dwattr DW$907, DW_AT_name("initprogress"), DW_AT_symbol_name("_initprogress")
    8608                      .dwattr DW$907, DW_AT_data_member_location[DW_OP_plus_uconst 0x14]
    8609                      .dwattr DW$907, DW_AT_accessibility(DW_ACCESS_public)
    8610              DW$908  .dwtag  DW_TAG_member, DW_AT_type(*DW$T$11)
    8611                      .dwattr DW$908, DW_AT_name("dircountdown"), DW_AT_symbol_name("_dircountdown")
    8612                      .dwattr DW$908, DW_AT_data_member_location[DW_OP_plus_uconst 0x15]
    8613                      .dwattr DW$908, DW_AT_accessibility(DW_ACCESS_public)
    8614              DW$909  .dwtag  DW_TAG_member, DW_AT_type(*DW$T$11)
    8615                      .dwattr DW$909, DW_AT_name("slowdowncounter"), DW_AT_symbol_name("_slowdowncounter")
    8616                      .dwattr DW$909, DW_AT_data_member_location[DW_OP_plus_uconst 0x16]
    8617                      .dwattr DW$909, DW_AT_accessibility(DW_ACCESS_public)
    8618              DW$910  .dwtag  DW_TAG_member, DW_AT_type(*DW$T$11)
    8619                      .dwattr DW$910, DW_AT_name("slowdowncondition"), DW_AT_symbol_name("_slowdowncondition")
    8620                      .dwattr DW$910, DW_AT_data_member_location[DW_OP_plus_uconst 0x17]
    8621                      .dwattr DW$910, DW_AT_accessibility(DW_ACCESS_public)
    8622              DW$911  .dwtag  DW_TAG_member, DW_AT_type(*DW$T$11)
    8623                      .dwattr DW$911, DW_AT_name("slowdownlevel"), DW_AT_symbol_name("_slowdownlevel")
    8624                      .dwattr DW$911, DW_AT_data_member_location[DW_OP_plus_uconst 0x18]
    8625                      .dwattr DW$911, DW_AT_accessibility(DW_ACCESS_public)
    8626              DW$912  .dwtag  DW_TAG_member, DW_AT_type(*DW$T$11)
    8627                      .dwattr DW$912, DW_AT_name("alarmlevel"), DW_AT_symbol_name("_alarmlevel")
    8628                      .dwattr DW$912, DW_AT_data_member_location[DW_OP_plus_uconst 0x19]
    8629                      .dwattr DW$912, DW_AT_accessibility(DW_ACCESS_public)
    8630              DW$913  .dwtag  DW_TAG_member, DW_AT_type(*DW$T$11)
    8631                      .dwattr DW$913, DW_AT_name("slowdowndevlevel"), DW_AT_symbol_name("_slowdowndevlevel")
    8632                      .dwattr DW$913, DW_AT_data_member_location[DW_OP_plus_uconst 0x1a]
    8633                      .dwattr DW$913, DW_AT_accessibility(DW_ACCESS_public)
TMS320C2000 COFF Assembler PC v4.1.3 Thu Aug 18 12:16:25 2016

Tools Copyright (c) 1996-2006 Texas Instruments Incorporated
PCModBus.asm                                                         PAGE  182

    8634              DW$914  .dwtag  DW_TAG_member, DW_AT_type(*DW$T$11)
    8635                      .dwattr DW$914, DW_AT_name("alarmdevlevel"), DW_AT_symbol_name("_alarmdevlevel")
    8636                      .dwattr DW$914, DW_AT_data_member_location[DW_OP_plus_uconst 0x1b]
    8637                      .dwattr DW$914, DW_AT_accessibility(DW_ACCESS_public)
    8638              DW$915  .dwtag  DW_TAG_member, DW_AT_type(*DW$T$11)
    8639                      .dwattr DW$915, DW_AT_name("cylinderalarmlevel"), DW_AT_symbol_name("_cylinderalarmlevel")
    8640                      .dwattr DW$915, DW_AT_data_member_location[DW_OP_plus_uconst 0x1c]
    8641                      .dwattr DW$915, DW_AT_accessibility(DW_ACCESS_public)
    8642              DW$916  .dwtag  DW_TAG_member, DW_AT_type(*DW$T$11)
    8643                      .dwattr DW$916, DW_AT_name("temperaturealarm"), DW_AT_symbol_name("_temperaturealarm")
    8644                      .dwattr DW$916, DW_AT_data_member_location[DW_OP_plus_uconst 0x1d]
    8645                      .dwattr DW$916, DW_AT_accessibility(DW_ACCESS_public)
    8646              DW$917  .dwtag  DW_TAG_member, DW_AT_type(*DW$T$11)
    8647                      .dwattr DW$917, DW_AT_name("temperatureslowdown"), DW_AT_symbol_name("_temperatureslowdown")
    8648                      .dwattr DW$917, DW_AT_data_member_location[DW_OP_plus_uconst 0x1e]
    8649                      .dwattr DW$917, DW_AT_accessibility(DW_ACCESS_public)
    8650              DW$918  .dwtag  DW_TAG_member, DW_AT_type(*DW$T$26)
    8651                      .dwattr DW$918, DW_AT_name("anadebug"), DW_AT_symbol_name("_anadebug")
    8652                      .dwattr DW$918, DW_AT_data_member_location[DW_OP_plus_uconst 0x1f]
    8653                      .dwattr DW$918, DW_AT_accessibility(DW_ACCESS_public)
    8654              DW$919  .dwtag  DW_TAG_member, DW_AT_type(*DW$T$11)
    8655                      .dwattr DW$919, DW_AT_name("serialdebug"), DW_AT_symbol_name("_serialdebug")
    8656                      .dwattr DW$919, DW_AT_data_member_location[DW_OP_plus_uconst 0x21]
    8657                      .dwattr DW$919, DW_AT_accessibility(DW_ACCESS_public)
    8658              DW$920  .dwtag  DW_TAG_member, DW_AT_type(*DW$T$11)
    8659                      .dwattr DW$920, DW_AT_name("timerrunning"), DW_AT_symbol_name("_timerrunning")
    8660                      .dwattr DW$920, DW_AT_data_member_location[DW_OP_plus_uconst 0x22]
    8661                      .dwattr DW$920, DW_AT_accessibility(DW_ACCESS_public)
    8662              DW$921  .dwtag  DW_TAG_member, DW_AT_type(*DW$T$11)
    8663                      .dwattr DW$921, DW_AT_name("rpm"), DW_AT_symbol_name("_rpm")
    8664                      .dwattr DW$921, DW_AT_data_member_location[DW_OP_plus_uconst 0x23]
    8665                      .dwattr DW$921, DW_AT_accessibility(DW_ACCESS_public)
    8666                      .dwendtag DW$T$27
    8667              
    8668              
    8669              DW$T$29 .dwtag  DW_TAG_structure_type
    8670                      .dwattr DW$T$29, DW_AT_name("tag_motionstruct")
    8671                      .dwattr DW$T$29, DW_AT_byte_size(0x09)
    8672              DW$922  .dwtag  DW_TAG_member, DW_AT_type(*DW$T$11)
    8673                      .dwattr DW$922, DW_AT_name("counter"), DW_AT_symbol_name("_counter")
    8674                      .dwattr DW$922, DW_AT_data_member_location[DW_OP_plus_uconst 0x0]
    8675                      .dwattr DW$922, DW_AT_accessibility(DW_ACCESS_public)
    8676              DW$923  .dwtag  DW_TAG_member, DW_AT_type(*DW$T$11)
    8677                      .dwattr DW$923, DW_AT_name("ready"), DW_AT_symbol_name("_ready")
    8678                      .dwattr DW$923, DW_AT_data_member_location[DW_OP_plus_uconst 0x1]
    8679                      .dwattr DW$923, DW_AT_accessibility(DW_ACCESS_public)
    8680              DW$924  .dwtag  DW_TAG_member, DW_AT_type(*DW$T$28)
    8681                      .dwattr DW$924, DW_AT_name("order"), DW_AT_symbol_name("_order")
    8682                      .dwattr DW$924, DW_AT_data_member_location[DW_OP_plus_uconst 0x2]
    8683                      .dwattr DW$924, DW_AT_accessibility(DW_ACCESS_public)
    8684              DW$925  .dwtag  DW_TAG_member, DW_AT_type(*DW$T$10)
    8685                      .dwattr DW$925, DW_AT_name("forwardasternflag"), DW_AT_symbol_name("_forwardasternflag")
    8686                      .dwattr DW$925, DW_AT_data_member_location[DW_OP_plus_uconst 0x4]
    8687                      .dwattr DW$925, DW_AT_accessibility(DW_ACCESS_public)
    8688              DW$926  .dwtag  DW_TAG_member, DW_AT_type(*DW$T$10)
TMS320C2000 COFF Assembler PC v4.1.3 Thu Aug 18 12:16:25 2016

Tools Copyright (c) 1996-2006 Texas Instruments Incorporated
PCModBus.asm                                                         PAGE  183

    8689                      .dwattr DW$926, DW_AT_name("forwardasternflagprev"), DW_AT_symbol_name("_forwardasternflagprev")
    8690                      .dwattr DW$926, DW_AT_data_member_location[DW_OP_plus_uconst 0x5]
    8691                      .dwattr DW$926, DW_AT_accessibility(DW_ACCESS_public)
    8692              DW$927  .dwtag  DW_TAG_member, DW_AT_type(*DW$T$10)
    8693                      .dwattr DW$927, DW_AT_name("recalnow"), DW_AT_symbol_name("_recalnow")
    8694                      .dwattr DW$927, DW_AT_data_member_location[DW_OP_plus_uconst 0x6]
    8695                      .dwattr DW$927, DW_AT_accessibility(DW_ACCESS_public)
    8696              DW$928  .dwtag  DW_TAG_member, DW_AT_type(*DW$T$10)
    8697                      .dwattr DW$928, DW_AT_name("calerror"), DW_AT_symbol_name("_calerror")
    8698                      .dwattr DW$928, DW_AT_data_member_location[DW_OP_plus_uconst 0x7]
    8699                      .dwattr DW$928, DW_AT_accessibility(DW_ACCESS_public)
    8700              DW$929  .dwtag  DW_TAG_member, DW_AT_type(*DW$T$10)
    8701                      .dwattr DW$929, DW_AT_name("recheckdir"), DW_AT_symbol_name("_recheckdir")
    8702                      .dwattr DW$929, DW_AT_data_member_location[DW_OP_plus_uconst 0x8]
    8703                      .dwattr DW$929, DW_AT_accessibility(DW_ACCESS_public)
    8704                      .dwendtag DW$T$29
    8705              
    8706              
    8707              DW$T$30 .dwtag  DW_TAG_structure_type
    8708                      .dwattr DW$T$30, DW_AT_name("tag_livestruct")
    8709                      .dwattr DW$T$30, DW_AT_byte_size(0x03)
    8710              DW$930  .dwtag  DW_TAG_member, DW_AT_type(*DW$T$11)
    8711                      .dwattr DW$930, DW_AT_name("yrmnth"), DW_AT_symbol_name("_yrmnth")
    8712                      .dwattr DW$930, DW_AT_data_member_location[DW_OP_plus_uconst 0x0]
    8713                      .dwattr DW$930, DW_AT_accessibility(DW_ACCESS_public)
    8714              DW$931  .dwtag  DW_TAG_member, DW_AT_type(*DW$T$11)
    8715                      .dwattr DW$931, DW_AT_name("datehrs"), DW_AT_symbol_name("_datehrs")
    8716                      .dwattr DW$931, DW_AT_data_member_location[DW_OP_plus_uconst 0x1]
    8717                      .dwattr DW$931, DW_AT_accessibility(DW_ACCESS_public)
    8718              DW$932  .dwtag  DW_TAG_member, DW_AT_type(*DW$T$11)
    8719                      .dwattr DW$932, DW_AT_name("minssecs"), DW_AT_symbol_name("_minssecs")
    8720                      .dwattr DW$932, DW_AT_data_member_location[DW_OP_plus_uconst 0x2]
    8721                      .dwattr DW$932, DW_AT_accessibility(DW_ACCESS_public)
    8722                      .dwendtag DW$T$30
    8723              
    8724              
    8725              DW$T$33 .dwtag  DW_TAG_structure_type
    8726                      .dwattr DW$T$33, DW_AT_name("tag_calibrationdatetimestruct")
    8727                      .dwattr DW$T$33, DW_AT_byte_size(0x07)
    8728              DW$933  .dwtag  DW_TAG_member, DW_AT_type(*DW$T$31)
    8729                      .dwattr DW$933, DW_AT_name("calcomplete"), DW_AT_symbol_name("_calcomplete")
    8730                      .dwattr DW$933, DW_AT_data_member_location[DW_OP_plus_uconst 0x0]
    8731                      .dwattr DW$933, DW_AT_accessibility(DW_ACCESS_public)
    8732              DW$934  .dwtag  DW_TAG_member, DW_AT_type(*DW$T$32)
    8733                      .dwattr DW$934, DW_AT_name("verification"), DW_AT_symbol_name("_verification")
    8734                      .dwattr DW$934, DW_AT_data_member_location[DW_OP_plus_uconst 0x3]
    8735                      .dwattr DW$934, DW_AT_accessibility(DW_ACCESS_public)
    8736              DW$935  .dwtag  DW_TAG_member, DW_AT_type(*DW$T$11)
    8737                      .dwattr DW$935, DW_AT_name("chksum"), DW_AT_symbol_name("_chksum")
    8738                      .dwattr DW$935, DW_AT_data_member_location[DW_OP_plus_uconst 0x6]
    8739                      .dwattr DW$935, DW_AT_accessibility(DW_ACCESS_public)
    8740                      .dwendtag DW$T$33
    8741              
    8742              
    8743              DW$T$46 .dwtag  DW_TAG_structure_type
TMS320C2000 COFF Assembler PC v4.1.3 Thu Aug 18 12:16:25 2016

Tools Copyright (c) 1996-2006 Texas Instruments Incorporated
PCModBus.asm                                                         PAGE  184

    8744                      .dwattr DW$T$46, DW_AT_name("tag_safestruct2struct")
    8745                      .dwattr DW$T$46, DW_AT_byte_size(0x1e)
    8746              DW$936  .dwtag  DW_TAG_member, DW_AT_type(*DW$T$35)
    8747                      .dwattr DW$936, DW_AT_name("inputs"), DW_AT_symbol_name("_inputs")
    8748                      .dwattr DW$936, DW_AT_data_member_location[DW_OP_plus_uconst 0x0]
    8749                      .dwattr DW$936, DW_AT_accessibility(DW_ACCESS_public)
    8750              DW$937  .dwtag  DW_TAG_member, DW_AT_type(*DW$T$36)
    8751                      .dwattr DW$937, DW_AT_name("log"), DW_AT_symbol_name("_log")
    8752                      .dwattr DW$937, DW_AT_data_member_location[DW_OP_plus_uconst 0xb]
    8753                      .dwattr DW$937, DW_AT_accessibility(DW_ACCESS_public)
    8754              DW$938  .dwtag  DW_TAG_member, DW_AT_type(*DW$T$37)
    8755                      .dwattr DW$938, DW_AT_name("modbus"), DW_AT_symbol_name("_modbus")
    8756                      .dwattr DW$938, DW_AT_data_member_location[DW_OP_plus_uconst 0xe]
    8757                      .dwattr DW$938, DW_AT_accessibility(DW_ACCESS_public)
    8758              DW$939  .dwtag  DW_TAG_member, DW_AT_type(*DW$T$38)
    8759                      .dwattr DW$939, DW_AT_name("filter"), DW_AT_symbol_name("_filter")
    8760                      .dwattr DW$939, DW_AT_data_member_location[DW_OP_plus_uconst 0xf]
    8761                      .dwattr DW$939, DW_AT_accessibility(DW_ACCESS_public)
    8762              DW$940  .dwtag  DW_TAG_member, DW_AT_type(*DW$T$39)
    8763                      .dwattr DW$940, DW_AT_name("alarms"), DW_AT_symbol_name("_alarms")
    8764                      .dwattr DW$940, DW_AT_data_member_location[DW_OP_plus_uconst 0x11]
    8765                      .dwattr DW$940, DW_AT_accessibility(DW_ACCESS_public)
    8766              DW$941  .dwtag  DW_TAG_member, DW_AT_type(*DW$T$40)
    8767                      .dwattr DW$941, DW_AT_name("modbusbaud"), DW_AT_symbol_name("_modbusbaud")
    8768                      .dwattr DW$941, DW_AT_data_member_location[DW_OP_plus_uconst 0x14]
    8769                      .dwattr DW$941, DW_AT_accessibility(DW_ACCESS_public)
    8770              DW$942  .dwtag  DW_TAG_member, DW_AT_type(*DW$T$41)
    8771                      .dwattr DW$942, DW_AT_name("modbus2"), DW_AT_symbol_name("_modbus2")
    8772                      .dwattr DW$942, DW_AT_data_member_location[DW_OP_plus_uconst 0x15]
    8773                      .dwattr DW$942, DW_AT_accessibility(DW_ACCESS_public)
    8774              DW$943  .dwtag  DW_TAG_member, DW_AT_type(*DW$T$42)
    8775                      .dwattr DW$943, DW_AT_name("sync"), DW_AT_symbol_name("_sync")
    8776                      .dwattr DW$943, DW_AT_data_member_location[DW_OP_plus_uconst 0x17]
    8777                      .dwattr DW$943, DW_AT_accessibility(DW_ACCESS_public)
    8778              DW$944  .dwtag  DW_TAG_member, DW_AT_type(*DW$T$43)
    8779                      .dwattr DW$944, DW_AT_name("alarmenable"), DW_AT_symbol_name("_alarmenable")
    8780                      .dwattr DW$944, DW_AT_data_member_location[DW_OP_plus_uconst 0x1b]
    8781                      .dwattr DW$944, DW_AT_accessibility(DW_ACCESS_public)
    8782              DW$945  .dwtag  DW_TAG_member, DW_AT_type(*DW$T$44)
    8783                      .dwattr DW$945, DW_AT_name("trendmax"), DW_AT_symbol_name("_trendmax")
    8784                      .dwattr DW$945, DW_AT_data_member_location[DW_OP_plus_uconst 0x1c]
    8785                      .dwattr DW$945, DW_AT_accessibility(DW_ACCESS_public)
    8786              DW$946  .dwtag  DW_TAG_member, DW_AT_type(*DW$T$45)
    8787                      .dwattr DW$946, DW_AT_name("tempcomp"), DW_AT_symbol_name("_tempcomp")
    8788                      .dwattr DW$946, DW_AT_data_member_location[DW_OP_plus_uconst 0x1d]
    8789                      .dwattr DW$946, DW_AT_accessibility(DW_ACCESS_public)
    8790                      .dwendtag DW$T$46
    8791              
    8792              
    8793              DW$T$47 .dwtag  DW_TAG_structure_type
    8794                      .dwattr DW$T$47, DW_AT_name("tag_clockstruct")
    8795                      .dwattr DW$T$47, DW_AT_byte_size(0x0e)
    8796              DW$947  .dwtag  DW_TAG_member, DW_AT_type(*DW$T$11)
    8797                      .dwattr DW$947, DW_AT_name("WPstate"), DW_AT_symbol_name("_WPstate")
    8798                      .dwattr DW$947, DW_AT_data_member_location[DW_OP_plus_uconst 0x0]
TMS320C2000 COFF Assembler PC v4.1.3 Thu Aug 18 12:16:25 2016

Tools Copyright (c) 1996-2006 Texas Instruments Incorporated
PCModBus.asm                                                         PAGE  185

    8799                      .dwattr DW$947, DW_AT_accessibility(DW_ACCESS_public)
    8800              DW$948  .dwtag  DW_TAG_member, DW_AT_type(*DW$T$11)
    8801                      .dwattr DW$948, DW_AT_name("seconds"), DW_AT_symbol_name("_seconds")
    8802                      .dwattr DW$948, DW_AT_data_member_location[DW_OP_plus_uconst 0x1]
    8803                      .dwattr DW$948, DW_AT_accessibility(DW_ACCESS_public)
    8804              DW$949  .dwtag  DW_TAG_member, DW_AT_type(*DW$T$11)
    8805                      .dwattr DW$949, DW_AT_name("minutes"), DW_AT_symbol_name("_minutes")
    8806                      .dwattr DW$949, DW_AT_data_member_location[DW_OP_plus_uconst 0x2]
    8807                      .dwattr DW$949, DW_AT_accessibility(DW_ACCESS_public)
    8808              DW$950  .dwtag  DW_TAG_member, DW_AT_type(*DW$T$11)
    8809                      .dwattr DW$950, DW_AT_name("hours"), DW_AT_symbol_name("_hours")
    8810                      .dwattr DW$950, DW_AT_data_member_location[DW_OP_plus_uconst 0x3]
    8811                      .dwattr DW$950, DW_AT_accessibility(DW_ACCESS_public)
    8812              DW$951  .dwtag  DW_TAG_member, DW_AT_type(*DW$T$11)
    8813                      .dwattr DW$951, DW_AT_name("day"), DW_AT_symbol_name("_day")
    8814                      .dwattr DW$951, DW_AT_data_member_location[DW_OP_plus_uconst 0x4]
    8815                      .dwattr DW$951, DW_AT_accessibility(DW_ACCESS_public)
    8816              DW$952  .dwtag  DW_TAG_member, DW_AT_type(*DW$T$11)
    8817                      .dwattr DW$952, DW_AT_name("date"), DW_AT_symbol_name("_date")
    8818                      .dwattr DW$952, DW_AT_data_member_location[DW_OP_plus_uconst 0x5]
    8819                      .dwattr DW$952, DW_AT_accessibility(DW_ACCESS_public)
    8820              DW$953  .dwtag  DW_TAG_member, DW_AT_type(*DW$T$11)
    8821                      .dwattr DW$953, DW_AT_name("month"), DW_AT_symbol_name("_month")
    8822                      .dwattr DW$953, DW_AT_data_member_location[DW_OP_plus_uconst 0x6]
    8823                      .dwattr DW$953, DW_AT_accessibility(DW_ACCESS_public)
    8824              DW$954  .dwtag  DW_TAG_member, DW_AT_type(*DW$T$11)
    8825                      .dwattr DW$954, DW_AT_name("year"), DW_AT_symbol_name("_year")
    8826                      .dwattr DW$954, DW_AT_data_member_location[DW_OP_plus_uconst 0x7]
    8827                      .dwattr DW$954, DW_AT_accessibility(DW_ACCESS_public)
    8828              DW$955  .dwtag  DW_TAG_member, DW_AT_type(*DW$T$11)
    8829                      .dwattr DW$955, DW_AT_name("control"), DW_AT_symbol_name("_control")
    8830                      .dwattr DW$955, DW_AT_data_member_location[DW_OP_plus_uconst 0x8]
    8831                      .dwattr DW$955, DW_AT_accessibility(DW_ACCESS_public)
    8832              DW$956  .dwtag  DW_TAG_member, DW_AT_type(*DW$T$13)
    8833                      .dwattr DW$956, DW_AT_name("framstamp"), DW_AT_symbol_name("_framstamp")
    8834                      .dwattr DW$956, DW_AT_data_member_location[DW_OP_plus_uconst 0xa]
    8835                      .dwattr DW$956, DW_AT_accessibility(DW_ACCESS_public)
    8836              DW$957  .dwtag  DW_TAG_member, DW_AT_type(*DW$T$11)
    8837                      .dwattr DW$957, DW_AT_name("clockerr"), DW_AT_symbol_name("_clockerr")
    8838                      .dwattr DW$957, DW_AT_data_member_location[DW_OP_plus_uconst 0xc]
    8839                      .dwattr DW$957, DW_AT_accessibility(DW_ACCESS_public)
    8840                      .dwendtag DW$T$47
    8841              
    8842              DW$T$228        .dwtag  DW_TAG_typedef, DW_AT_name("timersstruct"), DW_AT_type(*DW$T$49)
    8843                      .dwattr DW$T$228, DW_AT_language(DW_LANG_C)
    8844              
    8845              DW$T$52 .dwtag  DW_TAG_structure_type
    8846                      .dwattr DW$T$52, DW_AT_name("tag_allsensorstruct")
    8847                      .dwattr DW$T$52, DW_AT_byte_size(0x2d)
    8848              DW$958  .dwtag  DW_TAG_member, DW_AT_type(*DW$T$11)
    8849                      .dwattr DW$958, DW_AT_name("numsensors"), DW_AT_symbol_name("_numsensors")
    8850                      .dwattr DW$958, DW_AT_data_member_location[DW_OP_plus_uconst 0x0]
    8851                      .dwattr DW$958, DW_AT_accessibility(DW_ACCESS_public)
    8852              DW$959  .dwtag  DW_TAG_member, DW_AT_type(*DW$T$11)
    8853                      .dwattr DW$959, DW_AT_name("numsensorsspu1"), DW_AT_symbol_name("_numsensorsspu1")
TMS320C2000 COFF Assembler PC v4.1.3 Thu Aug 18 12:16:25 2016

Tools Copyright (c) 1996-2006 Texas Instruments Incorporated
PCModBus.asm                                                         PAGE  186

    8854                      .dwattr DW$959, DW_AT_data_member_location[DW_OP_plus_uconst 0x1]
    8855                      .dwattr DW$959, DW_AT_accessibility(DW_ACCESS_public)
    8856              DW$960  .dwtag  DW_TAG_member, DW_AT_type(*DW$T$11)
    8857                      .dwattr DW$960, DW_AT_name("numsensorsspu2"), DW_AT_symbol_name("_numsensorsspu2")
    8858                      .dwattr DW$960, DW_AT_data_member_location[DW_OP_plus_uconst 0x2]
    8859                      .dwattr DW$960, DW_AT_accessibility(DW_ACCESS_public)
    8860              DW$961  .dwtag  DW_TAG_member, DW_AT_type(*DW$T$11)
    8861                      .dwattr DW$961, DW_AT_name("nominalspeed"), DW_AT_symbol_name("_nominalspeed")
    8862                      .dwattr DW$961, DW_AT_data_member_location[DW_OP_plus_uconst 0x3]
    8863                      .dwattr DW$961, DW_AT_accessibility(DW_ACCESS_public)
    8864              DW$962  .dwtag  DW_TAG_member, DW_AT_type(*DW$T$11)
    8865                      .dwattr DW$962, DW_AT_name("rpmmin"), DW_AT_symbol_name("_rpmmin")
    8866                      .dwattr DW$962, DW_AT_data_member_location[DW_OP_plus_uconst 0x4]
    8867                      .dwattr DW$962, DW_AT_accessibility(DW_ACCESS_public)
    8868              DW$963  .dwtag  DW_TAG_member, DW_AT_type(*DW$T$11)
    8869                      .dwattr DW$963, DW_AT_name("rpmmax"), DW_AT_symbol_name("_rpmmax")
    8870                      .dwattr DW$963, DW_AT_data_member_location[DW_OP_plus_uconst 0x5]
    8871                      .dwattr DW$963, DW_AT_accessibility(DW_ACCESS_public)
    8872              DW$964  .dwtag  DW_TAG_member, DW_AT_type(*DW$T$11)
    8873                      .dwattr DW$964, DW_AT_name("reflash"), DW_AT_symbol_name("_reflash")
    8874                      .dwattr DW$964, DW_AT_data_member_location[DW_OP_plus_uconst 0x6]
    8875                      .dwattr DW$964, DW_AT_accessibility(DW_ACCESS_public)
    8876              DW$965  .dwtag  DW_TAG_member, DW_AT_type(*DW$T$10)
    8877                      .dwattr DW$965, DW_AT_name("sensorhysteresis"), DW_AT_symbol_name("_sensorhysteresis")
    8878                      .dwattr DW$965, DW_AT_data_member_location[DW_OP_plus_uconst 0x7]
    8879                      .dwattr DW$965, DW_AT_accessibility(DW_ACCESS_public)
    8880              DW$966  .dwtag  DW_TAG_member, DW_AT_type(*DW$T$10)
    8881                      .dwattr DW$966, DW_AT_name("cylinderhysteresis"), DW_AT_symbol_name("_cylinderhysteresis")
    8882                      .dwattr DW$966, DW_AT_data_member_location[DW_OP_plus_uconst 0x8]
    8883                      .dwattr DW$966, DW_AT_accessibility(DW_ACCESS_public)
    8884              DW$967  .dwtag  DW_TAG_member, DW_AT_type(*DW$T$11)
    8885                      .dwattr DW$967, DW_AT_name("slowdownlevel"), DW_AT_symbol_name("_slowdownlevel")
    8886                      .dwattr DW$967, DW_AT_data_member_location[DW_OP_plus_uconst 0x9]
    8887                      .dwattr DW$967, DW_AT_accessibility(DW_ACCESS_public)
    8888              DW$968  .dwtag  DW_TAG_member, DW_AT_type(*DW$T$11)
    8889                      .dwattr DW$968, DW_AT_name("alarmlevel"), DW_AT_symbol_name("_alarmlevel")
    8890                      .dwattr DW$968, DW_AT_data_member_location[DW_OP_plus_uconst 0xa]
    8891                      .dwattr DW$968, DW_AT_accessibility(DW_ACCESS_public)
    8892              DW$969  .dwtag  DW_TAG_member, DW_AT_type(*DW$T$11)
    8893                      .dwattr DW$969, DW_AT_name("slowdowndevcallevel"), DW_AT_symbol_name("_slowdowndevcallevel")
    8894                      .dwattr DW$969, DW_AT_data_member_location[DW_OP_plus_uconst 0xb]
    8895                      .dwattr DW$969, DW_AT_accessibility(DW_ACCESS_public)
    8896              DW$970  .dwtag  DW_TAG_member, DW_AT_type(*DW$T$11)
    8897                      .dwattr DW$970, DW_AT_name("alarmdevcallevel"), DW_AT_symbol_name("_alarmdevcallevel")
    8898                      .dwattr DW$970, DW_AT_data_member_location[DW_OP_plus_uconst 0xc]
    8899                      .dwattr DW$970, DW_AT_accessibility(DW_ACCESS_public)
    8900              DW$971  .dwtag  DW_TAG_member, DW_AT_type(*DW$T$11)
    8901                      .dwattr DW$971, DW_AT_name("slowdowndevlevel"), DW_AT_symbol_name("_slowdowndevlevel")
    8902                      .dwattr DW$971, DW_AT_data_member_location[DW_OP_plus_uconst 0xd]
    8903                      .dwattr DW$971, DW_AT_accessibility(DW_ACCESS_public)
    8904              DW$972  .dwtag  DW_TAG_member, DW_AT_type(*DW$T$11)
    8905                      .dwattr DW$972, DW_AT_name("alarmdevlevel"), DW_AT_symbol_name("_alarmdevlevel")
    8906                      .dwattr DW$972, DW_AT_data_member_location[DW_OP_plus_uconst 0xe]
    8907                      .dwattr DW$972, DW_AT_accessibility(DW_ACCESS_public)
    8908              DW$973  .dwtag  DW_TAG_member, DW_AT_type(*DW$T$11)
TMS320C2000 COFF Assembler PC v4.1.3 Thu Aug 18 12:16:25 2016

Tools Copyright (c) 1996-2006 Texas Instruments Incorporated
PCModBus.asm                                                         PAGE  187

    8909                      .dwattr DW$973, DW_AT_name("cylinderalarmlevel"), DW_AT_symbol_name("_cylinderalarmlevel")
    8910                      .dwattr DW$973, DW_AT_data_member_location[DW_OP_plus_uconst 0xf]
    8911                      .dwattr DW$973, DW_AT_accessibility(DW_ACCESS_public)
    8912              DW$974  .dwtag  DW_TAG_member, DW_AT_type(*DW$T$50)
    8913                      .dwattr DW$974, DW_AT_name("flags"), DW_AT_symbol_name("_flags")
    8914                      .dwattr DW$974, DW_AT_data_member_location[DW_OP_plus_uconst 0x10]
    8915                      .dwattr DW$974, DW_AT_accessibility(DW_ACCESS_public)
    8916              DW$975  .dwtag  DW_TAG_member, DW_AT_type(*DW$T$11)
    8917                      .dwattr DW$975, DW_AT_name("slowdownack"), DW_AT_symbol_name("_slowdownack")
    8918                      .dwattr DW$975, DW_AT_data_member_location[DW_OP_plus_uconst 0x11]
    8919                      .dwattr DW$975, DW_AT_accessibility(DW_ACCESS_public)
    8920              DW$976  .dwtag  DW_TAG_member, DW_AT_type(*DW$T$11)
    8921                      .dwattr DW$976, DW_AT_name("alarmack"), DW_AT_symbol_name("_alarmack")
    8922                      .dwattr DW$976, DW_AT_data_member_location[DW_OP_plus_uconst 0x12]
    8923                      .dwattr DW$976, DW_AT_accessibility(DW_ACCESS_public)
    8924              DW$977  .dwtag  DW_TAG_member, DW_AT_type(*DW$T$11)
    8925                      .dwattr DW$977, DW_AT_name("maxmintimer"), DW_AT_symbol_name("_maxmintimer")
    8926                      .dwattr DW$977, DW_AT_data_member_location[DW_OP_plus_uconst 0x13]
    8927                      .dwattr DW$977, DW_AT_accessibility(DW_ACCESS_public)
    8928              DW$978  .dwtag  DW_TAG_member, DW_AT_type(*DW$T$11)
    8929                      .dwattr DW$978, DW_AT_name("enginedircal"), DW_AT_symbol_name("_enginedircal")
    8930                      .dwattr DW$978, DW_AT_data_member_location[DW_OP_plus_uconst 0x14]
    8931                      .dwattr DW$978, DW_AT_accessibility(DW_ACCESS_public)
    8932              DW$979  .dwtag  DW_TAG_member, DW_AT_type(*DW$T$48)
    8933                      .dwattr DW$979, DW_AT_name("dirorder"), DW_AT_symbol_name("_dirorder")
    8934                      .dwattr DW$979, DW_AT_data_member_location[DW_OP_plus_uconst 0x15]
    8935                      .dwattr DW$979, DW_AT_accessibility(DW_ACCESS_public)
    8936              DW$980  .dwtag  DW_TAG_member, DW_AT_type(*DW$T$11)
    8937                      .dwattr DW$980, DW_AT_name("prewarningtimer"), DW_AT_symbol_name("_prewarningtimer")
    8938                      .dwattr DW$980, DW_AT_data_member_location[DW_OP_plus_uconst 0x23]
    8939                      .dwattr DW$980, DW_AT_accessibility(DW_ACCESS_public)
    8940              DW$981  .dwtag  DW_TAG_member, DW_AT_type(*DW$T$11)
    8941                      .dwattr DW$981, DW_AT_name("prewarninglevel"), DW_AT_symbol_name("_prewarninglevel")
    8942                      .dwattr DW$981, DW_AT_data_member_location[DW_OP_plus_uconst 0x24]
    8943                      .dwattr DW$981, DW_AT_accessibility(DW_ACCESS_public)
    8944              DW$982  .dwtag  DW_TAG_member, DW_AT_type(*DW$T$11)
    8945                      .dwattr DW$982, DW_AT_name("rpmlimit"), DW_AT_symbol_name("_rpmlimit")
    8946                      .dwattr DW$982, DW_AT_data_member_location[DW_OP_plus_uconst 0x25]
    8947                      .dwattr DW$982, DW_AT_accessibility(DW_ACCESS_public)
    8948              DW$983  .dwtag  DW_TAG_member, DW_AT_type(*DW$T$11)
    8949                      .dwattr DW$983, DW_AT_name("dsss"), DW_AT_symbol_name("_dsss")
    8950                      .dwattr DW$983, DW_AT_data_member_location[DW_OP_plus_uconst 0x26]
    8951                      .dwattr DW$983, DW_AT_accessibility(DW_ACCESS_public)
    8952              DW$984  .dwtag  DW_TAG_member, DW_AT_type(*DW$T$11)
    8953                      .dwattr DW$984, DW_AT_name("slowdowncallevel"), DW_AT_symbol_name("_slowdowncallevel")
    8954                      .dwattr DW$984, DW_AT_data_member_location[DW_OP_plus_uconst 0x27]
    8955                      .dwattr DW$984, DW_AT_accessibility(DW_ACCESS_public)
    8956              DW$985  .dwtag  DW_TAG_member, DW_AT_type(*DW$T$11)
    8957                      .dwattr DW$985, DW_AT_name("alarmcallevel"), DW_AT_symbol_name("_alarmcallevel")
    8958                      .dwattr DW$985, DW_AT_data_member_location[DW_OP_plus_uconst 0x28]
    8959                      .dwattr DW$985, DW_AT_accessibility(DW_ACCESS_public)
    8960              DW$986  .dwtag  DW_TAG_member, DW_AT_type(*DW$T$11)
    8961                      .dwattr DW$986, DW_AT_name("cylinderalarmcallevel"), DW_AT_symbol_name("_cylinderalarmcallevel")
    8962                      .dwattr DW$986, DW_AT_data_member_location[DW_OP_plus_uconst 0x29]
    8963                      .dwattr DW$986, DW_AT_accessibility(DW_ACCESS_public)
TMS320C2000 COFF Assembler PC v4.1.3 Thu Aug 18 12:16:25 2016

Tools Copyright (c) 1996-2006 Texas Instruments Incorporated
PCModBus.asm                                                         PAGE  188

    8964              DW$987  .dwtag  DW_TAG_member, DW_AT_type(*DW$T$51)
    8965                      .dwattr DW$987, DW_AT_name("bits"), DW_AT_symbol_name("_bits")
    8966                      .dwattr DW$987, DW_AT_data_member_location[DW_OP_plus_uconst 0x2a]
    8967                      .dwattr DW$987, DW_AT_accessibility(DW_ACCESS_public)
    8968              DW$988  .dwtag  DW_TAG_member, DW_AT_type(*DW$T$11)
    8969                      .dwattr DW$988, DW_AT_name("iBarredVibrationSpeedLow"), DW_AT_symbol_name("_iBarredVibrationSpeedLow"
    8970                      .dwattr DW$988, DW_AT_data_member_location[DW_OP_plus_uconst 0x2b]
    8971                      .dwattr DW$988, DW_AT_accessibility(DW_ACCESS_public)
    8972              DW$989  .dwtag  DW_TAG_member, DW_AT_type(*DW$T$11)
    8973                      .dwattr DW$989, DW_AT_name("iBarredVibrationSpeedHigh"), DW_AT_symbol_name("_iBarredVibrationSpeedHig
    8974                      .dwattr DW$989, DW_AT_data_member_location[DW_OP_plus_uconst 0x2c]
    8975                      .dwattr DW$989, DW_AT_accessibility(DW_ACCESS_public)
    8976                      .dwendtag DW$T$52
    8977              
    8978              
    8979              DW$T$53 .dwtag  DW_TAG_structure_type
    8980                      .dwattr DW$T$53, DW_AT_name("tag_engingestruct")
    8981                      .dwattr DW$T$53, DW_AT_byte_size(0x02)
    8982              DW$990  .dwtag  DW_TAG_member, DW_AT_type(*DW$T$13)
    8983                      .dwattr DW$990, DW_AT_name("runtime"), DW_AT_symbol_name("_runtime")
    8984                      .dwattr DW$990, DW_AT_data_member_location[DW_OP_plus_uconst 0x0]
    8985                      .dwattr DW$990, DW_AT_accessibility(DW_ACCESS_public)
    8986                      .dwendtag DW$T$53
    8987              
    8988              DW$T$234        .dwtag  DW_TAG_typedef, DW_AT_name("cylinderstruct"), DW_AT_type(*DW$T$56)
    8989                      .dwattr DW$T$234, DW_AT_language(DW_LANG_C)
    8990              
    8991              DW$T$63 .dwtag  DW_TAG_structure_type
    8992                      .dwattr DW$T$63, DW_AT_name("tag_configstruct")
    8993                      .dwattr DW$T$63, DW_AT_byte_size(0x18)
    8994              DW$991  .dwtag  DW_TAG_member, DW_AT_type(*DW$T$57)
    8995                      .dwattr DW$991, DW_AT_name("filter"), DW_AT_symbol_name("_filter")
    8996                      .dwattr DW$991, DW_AT_data_member_location[DW_OP_plus_uconst 0x0]
    8997                      .dwattr DW$991, DW_AT_accessibility(DW_ACCESS_public)
    8998              DW$992  .dwtag  DW_TAG_member, DW_AT_type(*DW$T$58)
    8999                      .dwattr DW$992, DW_AT_name("alarmenable"), DW_AT_symbol_name("_alarmenable")
    9000                      .dwattr DW$992, DW_AT_data_member_location[DW_OP_plus_uconst 0x1]
    9001                      .dwattr DW$992, DW_AT_accessibility(DW_ACCESS_public)
    9002              DW$993  .dwtag  DW_TAG_member, DW_AT_type(*DW$T$59)
    9003                      .dwattr DW$993, DW_AT_name("trendmax"), DW_AT_symbol_name("_trendmax")
    9004                      .dwattr DW$993, DW_AT_data_member_location[DW_OP_plus_uconst 0x2]
    9005                      .dwattr DW$993, DW_AT_accessibility(DW_ACCESS_public)
    9006              DW$994  .dwtag  DW_TAG_member, DW_AT_type(*DW$T$60)
    9007                      .dwattr DW$994, DW_AT_name("inputs"), DW_AT_symbol_name("_inputs")
    9008                      .dwattr DW$994, DW_AT_data_member_location[DW_OP_plus_uconst 0x3]
    9009                      .dwattr DW$994, DW_AT_accessibility(DW_ACCESS_public)
    9010              DW$995  .dwtag  DW_TAG_member, DW_AT_type(*DW$T$61)
    9011                      .dwattr DW$995, DW_AT_name("sdsettings"), DW_AT_symbol_name("_sdsettings")
    9012                      .dwattr DW$995, DW_AT_data_member_location[DW_OP_plus_uconst 0x6]
    9013                      .dwattr DW$995, DW_AT_accessibility(DW_ACCESS_public)
    9014              DW$996  .dwtag  DW_TAG_member, DW_AT_type(*DW$T$62)
    9015                      .dwattr DW$996, DW_AT_name("comms"), DW_AT_symbol_name("_comms")
    9016                      .dwattr DW$996, DW_AT_data_member_location[DW_OP_plus_uconst 0x8]
    9017                      .dwattr DW$996, DW_AT_accessibility(DW_ACCESS_public)
    9018                      .dwendtag DW$T$63
TMS320C2000 COFF Assembler PC v4.1.3 Thu Aug 18 12:16:25 2016

Tools Copyright (c) 1996-2006 Texas Instruments Incorporated
PCModBus.asm                                                         PAGE  189

    9019              
    9020              
    9021              DW$T$68 .dwtag  DW_TAG_structure_type
    9022                      .dwattr DW$T$68, DW_AT_name("tag_eventlogstruct")
    9023                      .dwattr DW$T$68, DW_AT_byte_size(0x44)
    9024              DW$997  .dwtag  DW_TAG_member, DW_AT_type(*DW$T$11)
    9025                      .dwattr DW$997, DW_AT_name("eventid"), DW_AT_symbol_name("_eventid")
    9026                      .dwattr DW$997, DW_AT_data_member_location[DW_OP_plus_uconst 0x0]
    9027                      .dwattr DW$997, DW_AT_accessibility(DW_ACCESS_public)
    9028              DW$998  .dwtag  DW_TAG_member, DW_AT_type(*DW$T$64)
    9029                      .dwattr DW$998, DW_AT_name("datetime"), DW_AT_symbol_name("_datetime")
    9030                      .dwattr DW$998, DW_AT_data_member_location[DW_OP_plus_uconst 0x1]
    9031                      .dwattr DW$998, DW_AT_accessibility(DW_ACCESS_public)
    9032              DW$999  .dwtag  DW_TAG_member, DW_AT_type(*DW$T$65)
    9033                      .dwattr DW$999, DW_AT_name("msgstring"), DW_AT_symbol_name("_msgstring")
    9034                      .dwattr DW$999, DW_AT_data_member_location[DW_OP_plus_uconst 0xa]
    9035                      .dwattr DW$999, DW_AT_accessibility(DW_ACCESS_public)
    9036              DW$1000 .dwtag  DW_TAG_member, DW_AT_type(*DW$T$66)
    9037                      .dwattr DW$1000, DW_AT_name("msgstring2"), DW_AT_symbol_name("_msgstring2")
    9038                      .dwattr DW$1000, DW_AT_data_member_location[DW_OP_plus_uconst 0x22]
    9039                      .dwattr DW$1000, DW_AT_accessibility(DW_ACCESS_public)
    9040              DW$1001 .dwtag  DW_TAG_member, DW_AT_type(*DW$T$64)
    9041                      .dwattr DW$1001, DW_AT_name("ackdatetime"), DW_AT_symbol_name("_ackdatetime")
    9042                      .dwattr DW$1001, DW_AT_data_member_location[DW_OP_plus_uconst 0x31]
    9043                      .dwattr DW$1001, DW_AT_accessibility(DW_ACCESS_public)
    9044              DW$1002 .dwtag  DW_TAG_member, DW_AT_type(*DW$T$67)
    9045                      .dwattr DW$1002, DW_AT_name("ackstring"), DW_AT_symbol_name("_ackstring")
    9046                      .dwattr DW$1002, DW_AT_data_member_location[DW_OP_plus_uconst 0x3a]
    9047                      .dwattr DW$1002, DW_AT_accessibility(DW_ACCESS_public)
    9048              DW$1003 .dwtag  DW_TAG_member, DW_AT_type(*DW$T$11)
    9049                      .dwattr DW$1003, DW_AT_name("newalarmeventflag"), DW_AT_symbol_name("_newalarmeventflag")
    9050                      .dwattr DW$1003, DW_AT_data_member_location[DW_OP_plus_uconst 0x3f]
    9051                      .dwattr DW$1003, DW_AT_accessibility(DW_ACCESS_public)
    9052              DW$1004 .dwtag  DW_TAG_member, DW_AT_type(*DW$T$11)
    9053                      .dwattr DW$1004, DW_AT_name("eventcodestatus"), DW_AT_symbol_name("_eventcodestatus")
    9054                      .dwattr DW$1004, DW_AT_data_member_location[DW_OP_plus_uconst 0x40]
    9055                      .dwattr DW$1004, DW_AT_accessibility(DW_ACCESS_public)
    9056              DW$1005 .dwtag  DW_TAG_member, DW_AT_type(*DW$T$11)
    9057                      .dwattr DW$1005, DW_AT_name("eventcode"), DW_AT_symbol_name("_eventcode")
    9058                      .dwattr DW$1005, DW_AT_data_member_location[DW_OP_plus_uconst 0x41]
    9059                      .dwattr DW$1005, DW_AT_accessibility(DW_ACCESS_public)
    9060              DW$1006 .dwtag  DW_TAG_member, DW_AT_type(*DW$T$11)
    9061                      .dwattr DW$1006, DW_AT_name("currentindex"), DW_AT_symbol_name("_currentindex")
    9062                      .dwattr DW$1006, DW_AT_data_member_location[DW_OP_plus_uconst 0x42]
    9063                      .dwattr DW$1006, DW_AT_accessibility(DW_ACCESS_public)
    9064              DW$1007 .dwtag  DW_TAG_member, DW_AT_type(*DW$T$11)
    9065                      .dwattr DW$1007, DW_AT_name("txalarmevents"), DW_AT_symbol_name("_txalarmevents")
    9066                      .dwattr DW$1007, DW_AT_data_member_location[DW_OP_plus_uconst 0x43]
    9067                      .dwattr DW$1007, DW_AT_accessibility(DW_ACCESS_public)
    9068                      .dwendtag DW$T$68
    9069              
    9070              
    9071              DW$T$69 .dwtag  DW_TAG_structure_type
    9072                      .dwattr DW$T$69, DW_AT_byte_size(0x07)
    9073              DW$1008 .dwtag  DW_TAG_member, DW_AT_type(*DW$T$11)
TMS320C2000 COFF Assembler PC v4.1.3 Thu Aug 18 12:16:25 2016

Tools Copyright (c) 1996-2006 Texas Instruments Incorporated
PCModBus.asm                                                         PAGE  190

    9074                      .dwattr DW$1008, DW_AT_name("outputtestmode"), DW_AT_symbol_name("_outputtestmode")
    9075                      .dwattr DW$1008, DW_AT_data_member_location[DW_OP_plus_uconst 0x0]
    9076                      .dwattr DW$1008, DW_AT_accessibility(DW_ACCESS_public)
    9077              DW$1009 .dwtag  DW_TAG_member, DW_AT_type(*DW$T$11)
    9078                      .dwattr DW$1009, DW_AT_name("previousstatus"), DW_AT_symbol_name("_previousstatus")
    9079                      .dwattr DW$1009, DW_AT_data_member_location[DW_OP_plus_uconst 0x1]
    9080                      .dwattr DW$1009, DW_AT_accessibility(DW_ACCESS_public)
    9081              DW$1010 .dwtag  DW_TAG_member, DW_AT_type(*DW$T$11)
    9082                      .dwattr DW$1010, DW_AT_name("previousslowdown"), DW_AT_symbol_name("_previousslowdown")
    9083                      .dwattr DW$1010, DW_AT_data_member_location[DW_OP_plus_uconst 0x2]
    9084                      .dwattr DW$1010, DW_AT_accessibility(DW_ACCESS_public)
    9085              DW$1011 .dwtag  DW_TAG_member, DW_AT_type(*DW$T$11)
    9086                      .dwattr DW$1011, DW_AT_name("previousalarm"), DW_AT_symbol_name("_previousalarm")
    9087                      .dwattr DW$1011, DW_AT_data_member_location[DW_OP_plus_uconst 0x3]
    9088                      .dwattr DW$1011, DW_AT_accessibility(DW_ACCESS_public)
    9089              DW$1012 .dwtag  DW_TAG_member, DW_AT_type(*DW$T$11)
    9090                      .dwattr DW$1012, DW_AT_name("slowdownreflash"), DW_AT_symbol_name("_slowdownreflash")
    9091                      .dwattr DW$1012, DW_AT_data_member_location[DW_OP_plus_uconst 0x4]
    9092                      .dwattr DW$1012, DW_AT_accessibility(DW_ACCESS_public)
    9093              DW$1013 .dwtag  DW_TAG_member, DW_AT_type(*DW$T$11)
    9094                      .dwattr DW$1013, DW_AT_name("alarmreflash"), DW_AT_symbol_name("_alarmreflash")
    9095                      .dwattr DW$1013, DW_AT_data_member_location[DW_OP_plus_uconst 0x5]
    9096                      .dwattr DW$1013, DW_AT_accessibility(DW_ACCESS_public)
    9097              DW$1014 .dwtag  DW_TAG_member, DW_AT_type(*DW$T$11)
    9098                      .dwattr DW$1014, DW_AT_name("statusreflash"), DW_AT_symbol_name("_statusreflash")
    9099                      .dwattr DW$1014, DW_AT_data_member_location[DW_OP_plus_uconst 0x6]
    9100                      .dwattr DW$1014, DW_AT_accessibility(DW_ACCESS_public)
    9101                      .dwendtag DW$T$69
    9102              
    9103              
    9104              DW$T$72 .dwtag  DW_TAG_structure_type
    9105                      .dwattr DW$T$72, DW_AT_name("tag_prewarnstruct")
    9106                      .dwattr DW$T$72, DW_AT_byte_size(0xaa)
    9107              DW$1015 .dwtag  DW_TAG_member, DW_AT_type(*DW$T$70)
    9108                      .dwattr DW$1015, DW_AT_name("prelevel"), DW_AT_symbol_name("_prelevel")
    9109                      .dwattr DW$1015, DW_AT_data_member_location[DW_OP_plus_uconst 0x0]
    9110                      .dwattr DW$1015, DW_AT_accessibility(DW_ACCESS_public)
    9111              DW$1016 .dwtag  DW_TAG_member, DW_AT_type(*DW$T$70)
    9112                      .dwattr DW$1016, DW_AT_name("average"), DW_AT_symbol_name("_average")
    9113                      .dwattr DW$1016, DW_AT_data_member_location[DW_OP_plus_uconst 0x1c]
    9114                      .dwattr DW$1016, DW_AT_accessibility(DW_ACCESS_public)
    9115              DW$1017 .dwtag  DW_TAG_member, DW_AT_type(*DW$T$71)
    9116                      .dwattr DW$1017, DW_AT_name("calcacc"), DW_AT_symbol_name("_calcacc")
    9117                      .dwattr DW$1017, DW_AT_data_member_location[DW_OP_plus_uconst 0x38]
    9118                      .dwattr DW$1017, DW_AT_accessibility(DW_ACCESS_public)
    9119              DW$1018 .dwtag  DW_TAG_member, DW_AT_type(*DW$T$71)
    9120                      .dwattr DW$1018, DW_AT_name("points"), DW_AT_symbol_name("_points")
    9121                      .dwattr DW$1018, DW_AT_data_member_location[DW_OP_plus_uconst 0x70]
    9122                      .dwattr DW$1018, DW_AT_accessibility(DW_ACCESS_public)
    9123              DW$1019 .dwtag  DW_TAG_member, DW_AT_type(*DW$T$10)
    9124                      .dwattr DW$1019, DW_AT_name("prewarncompleteflag"), DW_AT_symbol_name("_prewarncompleteflag")
    9125                      .dwattr DW$1019, DW_AT_data_member_location[DW_OP_plus_uconst 0xa8]
    9126                      .dwattr DW$1019, DW_AT_accessibility(DW_ACCESS_public)
    9127              DW$1020 .dwtag  DW_TAG_member, DW_AT_type(*DW$T$10)
    9128                      .dwattr DW$1020, DW_AT_name("init"), DW_AT_symbol_name("_init")
TMS320C2000 COFF Assembler PC v4.1.3 Thu Aug 18 12:16:25 2016

Tools Copyright (c) 1996-2006 Texas Instruments Incorporated
PCModBus.asm                                                         PAGE  191

    9129                      .dwattr DW$1020, DW_AT_data_member_location[DW_OP_plus_uconst 0xa9]
    9130                      .dwattr DW$1020, DW_AT_accessibility(DW_ACCESS_public)
    9131                      .dwendtag DW$T$72
    9132              
    9133              
    9134              DW$T$73 .dwtag  DW_TAG_structure_type
    9135                      .dwattr DW$T$73, DW_AT_name("tag_offsetstruct")
    9136                      .dwattr DW$T$73, DW_AT_byte_size(0x1c)
    9137              DW$1021 .dwtag  DW_TAG_member, DW_AT_type(*DW$T$70)
    9138                      .dwattr DW$1021, DW_AT_name("val"), DW_AT_symbol_name("_val")
    9139                      .dwattr DW$1021, DW_AT_data_member_location[DW_OP_plus_uconst 0x0]
    9140                      .dwattr DW$1021, DW_AT_accessibility(DW_ACCESS_public)
    9141                      .dwendtag DW$T$73
    9142              
    9143              DW$T$245        .dwtag  DW_TAG_typedef, DW_AT_name("sensorstruct"), DW_AT_type(*DW$T$76)
    9144                      .dwattr DW$T$245, DW_AT_language(DW_LANG_C)
    9145              
    9146              DW$T$78 .dwtag  DW_TAG_structure_type
    9147                      .dwattr DW$T$78, DW_AT_name("tag_functionstruct")
    9148                      .dwattr DW$T$78, DW_AT_byte_size(0x08)
    9149              DW$1022 .dwtag  DW_TAG_member, DW_AT_type(*DW$T$77)
    9150                      .dwattr DW$1022, DW_AT_name("enabled"), DW_AT_symbol_name("_enabled")
    9151                      .dwattr DW$1022, DW_AT_data_member_location[DW_OP_plus_uconst 0x0]
    9152                      .dwattr DW$1022, DW_AT_accessibility(DW_ACCESS_public)
    9153                      .dwendtag DW$T$78
    9154              
    9155              DW$T$251        .dwtag  DW_TAG_typedef, DW_AT_name("manrefstruct"), DW_AT_type(*DW$T$79)
    9156                      .dwattr DW$T$251, DW_AT_language(DW_LANG_C)
    9157              DW$T$255        .dwtag  DW_TAG_typedef, DW_AT_name("manrefsumstruct"), DW_AT_type(*DW$T$80)
    9158                      .dwattr DW$T$255, DW_AT_language(DW_LANG_C)
    9159              
    9160              DW$T$81 .dwtag  DW_TAG_structure_type
    9161                      .dwattr DW$T$81, DW_AT_name("tag_dynamicalarmsstruct")
    9162                      .dwattr DW$T$81, DW_AT_byte_size(0x24)
    9163              DW$1023 .dwtag  DW_TAG_member, DW_AT_type(*DW$T$16)
    9164                      .dwattr DW$1023, DW_AT_name("rpmav"), DW_AT_symbol_name("_rpmav")
    9165                      .dwattr DW$1023, DW_AT_data_member_location[DW_OP_plus_uconst 0x0]
    9166                      .dwattr DW$1023, DW_AT_accessibility(DW_ACCESS_public)
    9167              DW$1024 .dwtag  DW_TAG_member, DW_AT_type(*DW$T$16)
    9168                      .dwattr DW$1024, DW_AT_name("single1"), DW_AT_symbol_name("_single1")
    9169                      .dwattr DW$1024, DW_AT_data_member_location[DW_OP_plus_uconst 0x2]
    9170                      .dwattr DW$1024, DW_AT_accessibility(DW_ACCESS_public)
    9171              DW$1025 .dwtag  DW_TAG_member, DW_AT_type(*DW$T$16)
    9172                      .dwattr DW$1025, DW_AT_name("cyl1"), DW_AT_symbol_name("_cyl1")
    9173                      .dwattr DW$1025, DW_AT_data_member_location[DW_OP_plus_uconst 0x4]
    9174                      .dwattr DW$1025, DW_AT_accessibility(DW_ACCESS_public)
    9175              DW$1026 .dwtag  DW_TAG_member, DW_AT_type(*DW$T$16)
    9176                      .dwattr DW$1026, DW_AT_name("mbsum1"), DW_AT_symbol_name("_mbsum1")
    9177                      .dwattr DW$1026, DW_AT_data_member_location[DW_OP_plus_uconst 0x6]
    9178                      .dwattr DW$1026, DW_AT_accessibility(DW_ACCESS_public)
    9179              DW$1027 .dwtag  DW_TAG_member, DW_AT_type(*DW$T$16)
    9180                      .dwattr DW$1027, DW_AT_name("single2"), DW_AT_symbol_name("_single2")
    9181                      .dwattr DW$1027, DW_AT_data_member_location[DW_OP_plus_uconst 0x8]
    9182                      .dwattr DW$1027, DW_AT_accessibility(DW_ACCESS_public)
    9183              DW$1028 .dwtag  DW_TAG_member, DW_AT_type(*DW$T$16)
TMS320C2000 COFF Assembler PC v4.1.3 Thu Aug 18 12:16:25 2016

Tools Copyright (c) 1996-2006 Texas Instruments Incorporated
PCModBus.asm                                                         PAGE  192

    9184                      .dwattr DW$1028, DW_AT_name("cyl2"), DW_AT_symbol_name("_cyl2")
    9185                      .dwattr DW$1028, DW_AT_data_member_location[DW_OP_plus_uconst 0xa]
    9186                      .dwattr DW$1028, DW_AT_accessibility(DW_ACCESS_public)
    9187              DW$1029 .dwtag  DW_TAG_member, DW_AT_type(*DW$T$16)
    9188                      .dwattr DW$1029, DW_AT_name("mbsum2"), DW_AT_symbol_name("_mbsum2")
    9189                      .dwattr DW$1029, DW_AT_data_member_location[DW_OP_plus_uconst 0xc]
    9190                      .dwattr DW$1029, DW_AT_accessibility(DW_ACCESS_public)
    9191              DW$1030 .dwtag  DW_TAG_member, DW_AT_type(*DW$T$16)
    9192                      .dwattr DW$1030, DW_AT_name("deltarpmprev"), DW_AT_symbol_name("_deltarpmprev")
    9193                      .dwattr DW$1030, DW_AT_data_member_location[DW_OP_plus_uconst 0xe]
    9194                      .dwattr DW$1030, DW_AT_accessibility(DW_ACCESS_public)
    9195              DW$1031 .dwtag  DW_TAG_member, DW_AT_type(*DW$T$16)
    9196                      .dwattr DW$1031, DW_AT_name("deltarpm"), DW_AT_symbol_name("_deltarpm")
    9197                      .dwattr DW$1031, DW_AT_data_member_location[DW_OP_plus_uconst 0x10]
    9198                      .dwattr DW$1031, DW_AT_accessibility(DW_ACCESS_public)
    9199              DW$1032 .dwtag  DW_TAG_member, DW_AT_type(*DW$T$10)
    9200                      .dwattr DW$1032, DW_AT_name("deltarpm_int"), DW_AT_symbol_name("_deltarpm_int")
    9201                      .dwattr DW$1032, DW_AT_data_member_location[DW_OP_plus_uconst 0x12]
    9202                      .dwattr DW$1032, DW_AT_accessibility(DW_ACCESS_public)
    9203              DW$1033 .dwtag  DW_TAG_member, DW_AT_type(*DW$T$10)
    9204                      .dwattr DW$1033, DW_AT_name("rpmav_int"), DW_AT_symbol_name("_rpmav_int")
    9205                      .dwattr DW$1033, DW_AT_data_member_location[DW_OP_plus_uconst 0x13]
    9206                      .dwattr DW$1033, DW_AT_accessibility(DW_ACCESS_public)
    9207              DW$1034 .dwtag  DW_TAG_member, DW_AT_type(*DW$T$10)
    9208                      .dwattr DW$1034, DW_AT_name("deltarpmprev_int"), DW_AT_symbol_name("_deltarpmprev_int")
    9209                      .dwattr DW$1034, DW_AT_data_member_location[DW_OP_plus_uconst 0x14]
    9210                      .dwattr DW$1034, DW_AT_accessibility(DW_ACCESS_public)
    9211              DW$1035 .dwtag  DW_TAG_member, DW_AT_type(*DW$T$10)
    9212                      .dwattr DW$1035, DW_AT_name("single"), DW_AT_symbol_name("_single")
    9213                      .dwattr DW$1035, DW_AT_data_member_location[DW_OP_plus_uconst 0x15]
    9214                      .dwattr DW$1035, DW_AT_accessibility(DW_ACCESS_public)
    9215              DW$1036 .dwtag  DW_TAG_member, DW_AT_type(*DW$T$10)
    9216                      .dwattr DW$1036, DW_AT_name("cyl"), DW_AT_symbol_name("_cyl")
    9217                      .dwattr DW$1036, DW_AT_data_member_location[DW_OP_plus_uconst 0x16]
    9218                      .dwattr DW$1036, DW_AT_accessibility(DW_ACCESS_public)
    9219              DW$1037 .dwtag  DW_TAG_member, DW_AT_type(*DW$T$10)
    9220                      .dwattr DW$1037, DW_AT_name("mbsum"), DW_AT_symbol_name("_mbsum")
    9221                      .dwattr DW$1037, DW_AT_data_member_location[DW_OP_plus_uconst 0x17]
    9222                      .dwattr DW$1037, DW_AT_accessibility(DW_ACCESS_public)
    9223              DW$1038 .dwtag  DW_TAG_member, DW_AT_type(*DW$T$10)
    9224                      .dwattr DW$1038, DW_AT_name("singleprev"), DW_AT_symbol_name("_singleprev")
    9225                      .dwattr DW$1038, DW_AT_data_member_location[DW_OP_plus_uconst 0x18]
    9226                      .dwattr DW$1038, DW_AT_accessibility(DW_ACCESS_public)
    9227              DW$1039 .dwtag  DW_TAG_member, DW_AT_type(*DW$T$10)
    9228                      .dwattr DW$1039, DW_AT_name("cylprev"), DW_AT_symbol_name("_cylprev")
    9229                      .dwattr DW$1039, DW_AT_data_member_location[DW_OP_plus_uconst 0x19]
    9230                      .dwattr DW$1039, DW_AT_accessibility(DW_ACCESS_public)
    9231              DW$1040 .dwtag  DW_TAG_member, DW_AT_type(*DW$T$10)
    9232                      .dwattr DW$1040, DW_AT_name("mbsumprev"), DW_AT_symbol_name("_mbsumprev")
    9233                      .dwattr DW$1040, DW_AT_data_member_location[DW_OP_plus_uconst 0x1a]
    9234                      .dwattr DW$1040, DW_AT_accessibility(DW_ACCESS_public)
    9235              DW$1041 .dwtag  DW_TAG_member, DW_AT_type(*DW$T$10)
    9236                      .dwattr DW$1041, DW_AT_name("single1_int"), DW_AT_symbol_name("_single1_int")
    9237                      .dwattr DW$1041, DW_AT_data_member_location[DW_OP_plus_uconst 0x1b]
    9238                      .dwattr DW$1041, DW_AT_accessibility(DW_ACCESS_public)
TMS320C2000 COFF Assembler PC v4.1.3 Thu Aug 18 12:16:25 2016

Tools Copyright (c) 1996-2006 Texas Instruments Incorporated
PCModBus.asm                                                         PAGE  193

    9239              DW$1042 .dwtag  DW_TAG_member, DW_AT_type(*DW$T$10)
    9240                      .dwattr DW$1042, DW_AT_name("cyl1_int"), DW_AT_symbol_name("_cyl1_int")
    9241                      .dwattr DW$1042, DW_AT_data_member_location[DW_OP_plus_uconst 0x1c]
    9242                      .dwattr DW$1042, DW_AT_accessibility(DW_ACCESS_public)
    9243              DW$1043 .dwtag  DW_TAG_member, DW_AT_type(*DW$T$10)
    9244                      .dwattr DW$1043, DW_AT_name("mbsum1_int"), DW_AT_symbol_name("_mbsum1_int")
    9245                      .dwattr DW$1043, DW_AT_data_member_location[DW_OP_plus_uconst 0x1d]
    9246                      .dwattr DW$1043, DW_AT_accessibility(DW_ACCESS_public)
    9247              DW$1044 .dwtag  DW_TAG_member, DW_AT_type(*DW$T$10)
    9248                      .dwattr DW$1044, DW_AT_name("single2_int"), DW_AT_symbol_name("_single2_int")
    9249                      .dwattr DW$1044, DW_AT_data_member_location[DW_OP_plus_uconst 0x1e]
    9250                      .dwattr DW$1044, DW_AT_accessibility(DW_ACCESS_public)
    9251              DW$1045 .dwtag  DW_TAG_member, DW_AT_type(*DW$T$10)
    9252                      .dwattr DW$1045, DW_AT_name("cyl2_int"), DW_AT_symbol_name("_cyl2_int")
    9253                      .dwattr DW$1045, DW_AT_data_member_location[DW_OP_plus_uconst 0x1f]
    9254                      .dwattr DW$1045, DW_AT_accessibility(DW_ACCESS_public)
    9255              DW$1046 .dwtag  DW_TAG_member, DW_AT_type(*DW$T$10)
    9256                      .dwattr DW$1046, DW_AT_name("mbsum2_int"), DW_AT_symbol_name("_mbsum2_int")
    9257                      .dwattr DW$1046, DW_AT_data_member_location[DW_OP_plus_uconst 0x20]
    9258                      .dwattr DW$1046, DW_AT_accessibility(DW_ACCESS_public)
    9259              DW$1047 .dwtag  DW_TAG_member, DW_AT_type(*DW$T$13)
    9260                      .dwattr DW$1047, DW_AT_name("hits"), DW_AT_symbol_name("_hits")
    9261                      .dwattr DW$1047, DW_AT_data_member_location[DW_OP_plus_uconst 0x22]
    9262                      .dwattr DW$1047, DW_AT_accessibility(DW_ACCESS_public)
    9263                      .dwendtag DW$T$81
    9264              
    9265              
    9266              DW$T$83 .dwtag  DW_TAG_structure_type
    9267                      .dwattr DW$T$83, DW_AT_name("tag_damalarmsstruct")
    9268                      .dwattr DW$T$83, DW_AT_byte_size(0x04)
    9269              DW$1048 .dwtag  DW_TAG_member, DW_AT_type(*DW$T$82)
    9270                      .dwattr DW$1048, DW_AT_name("single"), DW_AT_symbol_name("_single")
    9271                      .dwattr DW$1048, DW_AT_data_member_location[DW_OP_plus_uconst 0x0]
    9272                      .dwattr DW$1048, DW_AT_accessibility(DW_ACCESS_public)
    9273              DW$1049 .dwtag  DW_TAG_member, DW_AT_type(*DW$T$11)
    9274                      .dwattr DW$1049, DW_AT_name("cylinder"), DW_AT_symbol_name("_cylinder")
    9275                      .dwattr DW$1049, DW_AT_data_member_location[DW_OP_plus_uconst 0x2]
    9276                      .dwattr DW$1049, DW_AT_accessibility(DW_ACCESS_public)
    9277              DW$1050 .dwtag  DW_TAG_member, DW_AT_type(*DW$T$11)
    9278                      .dwattr DW$1050, DW_AT_name("mbneighbour"), DW_AT_symbol_name("_mbneighbour")
    9279                      .dwattr DW$1050, DW_AT_data_member_location[DW_OP_plus_uconst 0x3]
    9280                      .dwattr DW$1050, DW_AT_accessibility(DW_ACCESS_public)
    9281                      .dwendtag DW$T$83
    9282              
    9283              
    9284              DW$T$84 .dwtag  DW_TAG_structure_type
    9285                      .dwattr DW$T$84, DW_AT_name("tag_mancalstruct")
    9286                      .dwattr DW$T$84, DW_AT_byte_size(0x04)
    9287              DW$1051 .dwtag  DW_TAG_member, DW_AT_type(*DW$T$11)
    9288                      .dwattr DW$1051, DW_AT_name("learningleft"), DW_AT_symbol_name("_learningleft")
    9289                      .dwattr DW$1051, DW_AT_data_member_location[DW_OP_plus_uconst 0x0]
    9290                      .dwattr DW$1051, DW_AT_accessibility(DW_ACCESS_public)
    9291              DW$1052 .dwtag  DW_TAG_member, DW_AT_type(*DW$T$11)
    9292                      .dwattr DW$1052, DW_AT_name("intervalleft"), DW_AT_symbol_name("_intervalleft")
    9293                      .dwattr DW$1052, DW_AT_data_member_location[DW_OP_plus_uconst 0x1]
TMS320C2000 COFF Assembler PC v4.1.3 Thu Aug 18 12:16:25 2016

Tools Copyright (c) 1996-2006 Texas Instruments Incorporated
PCModBus.asm                                                         PAGE  194

    9294                      .dwattr DW$1052, DW_AT_accessibility(DW_ACCESS_public)
    9295              DW$1053 .dwtag  DW_TAG_member, DW_AT_type(*DW$T$11)
    9296                      .dwattr DW$1053, DW_AT_name("percentleft"), DW_AT_symbol_name("_percentleft")
    9297                      .dwattr DW$1053, DW_AT_data_member_location[DW_OP_plus_uconst 0x2]
    9298                      .dwattr DW$1053, DW_AT_accessibility(DW_ACCESS_public)
    9299              DW$1054 .dwtag  DW_TAG_member, DW_AT_type(*DW$T$11)
    9300                      .dwattr DW$1054, DW_AT_name("manupdateflag"), DW_AT_symbol_name("_manupdateflag")
    9301                      .dwattr DW$1054, DW_AT_data_member_location[DW_OP_plus_uconst 0x3]
    9302                      .dwattr DW$1054, DW_AT_accessibility(DW_ACCESS_public)
    9303                      .dwendtag DW$T$84
    9304              
    9305              
    9306              DW$T$91 .dwtag  DW_TAG_structure_type
    9307                      .dwattr DW$T$91, DW_AT_name("tag_calibrationstruct")
    9308                      .dwattr DW$T$91, DW_AT_byte_size(0x31a)
    9309              DW$1055 .dwtag  DW_TAG_member, DW_AT_type(*DW$T$11)
    9310                      .dwattr DW$1055, DW_AT_name("rpmpoints"), DW_AT_symbol_name("_rpmpoints")
    9311                      .dwattr DW$1055, DW_AT_data_member_location[DW_OP_plus_uconst 0x0]
    9312                      .dwattr DW$1055, DW_AT_accessibility(DW_ACCESS_public)
    9313              DW$1056 .dwtag  DW_TAG_member, DW_AT_type(*DW$T$85)
    9314                      .dwattr DW$1056, DW_AT_name("speedcalpoints"), DW_AT_symbol_name("_speedcalpoints")
    9315                      .dwattr DW$1056, DW_AT_data_member_location[DW_OP_plus_uconst 0x1]
    9316                      .dwattr DW$1056, DW_AT_accessibility(DW_ACCESS_public)
    9317              DW$1057 .dwtag  DW_TAG_member, DW_AT_type(*DW$T$86)
    9318                      .dwattr DW$1057, DW_AT_name("roughnumpoints"), DW_AT_symbol_name("_roughnumpoints")
    9319                      .dwattr DW$1057, DW_AT_data_member_location[DW_OP_plus_uconst 0x8]
    9320                      .dwattr DW$1057, DW_AT_accessibility(DW_ACCESS_public)
    9321              DW$1058 .dwtag  DW_TAG_member, DW_AT_type(*DW$T$87)
    9322                      .dwattr DW$1058, DW_AT_name("numpoints"), DW_AT_symbol_name("_numpoints")
    9323                      .dwattr DW$1058, DW_AT_data_member_location[DW_OP_plus_uconst 0xe]
    9324                      .dwattr DW$1058, DW_AT_accessibility(DW_ACCESS_public)
    9325              DW$1059 .dwtag  DW_TAG_member, DW_AT_type(*DW$T$88)
    9326                      .dwattr DW$1059, DW_AT_name("averagespeedacc"), DW_AT_symbol_name("_averagespeedacc")
    9327                      .dwattr DW$1059, DW_AT_data_member_location[DW_OP_plus_uconst 0x13a]
    9328                      .dwattr DW$1059, DW_AT_accessibility(DW_ACCESS_public)
    9329              DW$1060 .dwtag  DW_TAG_member, DW_AT_type(*DW$T$88)
    9330                      .dwattr DW$1060, DW_AT_name("averagevalacc"), DW_AT_symbol_name("_averagevalacc")
    9331                      .dwattr DW$1060, DW_AT_data_member_location[DW_OP_plus_uconst 0x1e2]
    9332                      .dwattr DW$1060, DW_AT_accessibility(DW_ACCESS_public)
    9333              DW$1061 .dwtag  DW_TAG_member, DW_AT_type(*DW$T$11)
    9334                      .dwattr DW$1061, DW_AT_name("validpoints"), DW_AT_symbol_name("_validpoints")
    9335                      .dwattr DW$1061, DW_AT_data_member_location[DW_OP_plus_uconst 0x28a]
    9336                      .dwattr DW$1061, DW_AT_accessibility(DW_ACCESS_public)
    9337              DW$1062 .dwtag  DW_TAG_member, DW_AT_type(*DW$T$89)
    9338                      .dwattr DW$1062, DW_AT_name("rpmatcal"), DW_AT_symbol_name("_rpmatcal")
    9339                      .dwattr DW$1062, DW_AT_data_member_location[DW_OP_plus_uconst 0x28b]
    9340                      .dwattr DW$1062, DW_AT_accessibility(DW_ACCESS_public)
    9341              DW$1063 .dwtag  DW_TAG_member, DW_AT_type(*DW$T$90)
    9342                      .dwattr DW$1063, DW_AT_name("manroughcalpts"), DW_AT_symbol_name("_manroughcalpts")
    9343                      .dwattr DW$1063, DW_AT_data_member_location[DW_OP_plus_uconst 0x28e]
    9344                      .dwattr DW$1063, DW_AT_accessibility(DW_ACCESS_public)
    9345              DW$1064 .dwtag  DW_TAG_member, DW_AT_type(*DW$T$70)
    9346                      .dwattr DW$1064, DW_AT_name("manroughmin"), DW_AT_symbol_name("_manroughmin")
    9347                      .dwattr DW$1064, DW_AT_data_member_location[DW_OP_plus_uconst 0x2e2]
    9348                      .dwattr DW$1064, DW_AT_accessibility(DW_ACCESS_public)
TMS320C2000 COFF Assembler PC v4.1.3 Thu Aug 18 12:16:25 2016

Tools Copyright (c) 1996-2006 Texas Instruments Incorporated
PCModBus.asm                                                         PAGE  195

    9349              DW$1065 .dwtag  DW_TAG_member, DW_AT_type(*DW$T$70)
    9350                      .dwattr DW$1065, DW_AT_name("manroughmax"), DW_AT_symbol_name("_manroughmax")
    9351                      .dwattr DW$1065, DW_AT_data_member_location[DW_OP_plus_uconst 0x2fe]
    9352                      .dwattr DW$1065, DW_AT_accessibility(DW_ACCESS_public)
    9353                      .dwendtag DW$T$91
    9354              
    9355              
    9356              DW$T$92 .dwtag  DW_TAG_structure_type
    9357                      .dwattr DW$T$92, DW_AT_name("tag_speedcompstruct")
    9358                      .dwattr DW$T$92, DW_AT_byte_size(0x19)
    9359              DW$1066 .dwtag  DW_TAG_member, DW_AT_type(*DW$T$11)
    9360                      .dwattr DW$1066, DW_AT_name("stageflag"), DW_AT_symbol_name("_stageflag")
    9361                      .dwattr DW$1066, DW_AT_data_member_location[DW_OP_plus_uconst 0x0]
    9362                      .dwattr DW$1066, DW_AT_accessibility(DW_ACCESS_public)
    9363              DW$1067 .dwtag  DW_TAG_member, DW_AT_type(*DW$T$11)
    9364                      .dwattr DW$1067, DW_AT_name("status"), DW_AT_symbol_name("_status")
    9365                      .dwattr DW$1067, DW_AT_data_member_location[DW_OP_plus_uconst 0x1]
    9366                      .dwattr DW$1067, DW_AT_accessibility(DW_ACCESS_public)
    9367              DW$1068 .dwtag  DW_TAG_member, DW_AT_type(*DW$T$85)
    9368                      .dwattr DW$1068, DW_AT_name("speedbands"), DW_AT_symbol_name("_speedbands")
    9369                      .dwattr DW$1068, DW_AT_data_member_location[DW_OP_plus_uconst 0x2]
    9370                      .dwattr DW$1068, DW_AT_accessibility(DW_ACCESS_public)
    9371              DW$1069 .dwtag  DW_TAG_member, DW_AT_type(*DW$T$11)
    9372                      .dwattr DW$1069, DW_AT_name("slopecoeff"), DW_AT_symbol_name("_slopecoeff")
    9373                      .dwattr DW$1069, DW_AT_data_member_location[DW_OP_plus_uconst 0x8]
    9374                      .dwattr DW$1069, DW_AT_accessibility(DW_ACCESS_public)
    9375              DW$1070 .dwtag  DW_TAG_member, DW_AT_type(*DW$T$11)
    9376                      .dwattr DW$1070, DW_AT_name("initialtimer"), DW_AT_symbol_name("_initialtimer")
    9377                      .dwattr DW$1070, DW_AT_data_member_location[DW_OP_plus_uconst 0x9]
    9378                      .dwattr DW$1070, DW_AT_accessibility(DW_ACCESS_public)
    9379              DW$1071 .dwtag  DW_TAG_member, DW_AT_type(*DW$T$11)
    9380                      .dwattr DW$1071, DW_AT_name("learningmodetimer"), DW_AT_symbol_name("_learningmodetimer")
    9381                      .dwattr DW$1071, DW_AT_data_member_location[DW_OP_plus_uconst 0xa]
    9382                      .dwattr DW$1071, DW_AT_accessibility(DW_ACCESS_public)
    9383              DW$1072 .dwtag  DW_TAG_member, DW_AT_type(*DW$T$11)
    9384                      .dwattr DW$1072, DW_AT_name("intervaltimer"), DW_AT_symbol_name("_intervaltimer")
    9385                      .dwattr DW$1072, DW_AT_data_member_location[DW_OP_plus_uconst 0xb]
    9386                      .dwattr DW$1072, DW_AT_accessibility(DW_ACCESS_public)
    9387              DW$1073 .dwtag  DW_TAG_member, DW_AT_type(*DW$T$11)
    9388                      .dwattr DW$1073, DW_AT_name("numsamples"), DW_AT_symbol_name("_numsamples")
    9389                      .dwattr DW$1073, DW_AT_data_member_location[DW_OP_plus_uconst 0xc]
    9390                      .dwattr DW$1073, DW_AT_accessibility(DW_ACCESS_public)
    9391              DW$1074 .dwtag  DW_TAG_member, DW_AT_type(*DW$T$11)
    9392                      .dwattr DW$1074, DW_AT_name("learningleft"), DW_AT_symbol_name("_learningleft")
    9393                      .dwattr DW$1074, DW_AT_data_member_location[DW_OP_plus_uconst 0xd]
    9394                      .dwattr DW$1074, DW_AT_accessibility(DW_ACCESS_public)
    9395              DW$1075 .dwtag  DW_TAG_member, DW_AT_type(*DW$T$11)
    9396                      .dwattr DW$1075, DW_AT_name("intervalleft"), DW_AT_symbol_name("_intervalleft")
    9397                      .dwattr DW$1075, DW_AT_data_member_location[DW_OP_plus_uconst 0xe]
    9398                      .dwattr DW$1075, DW_AT_accessibility(DW_ACCESS_public)
    9399              DW$1076 .dwtag  DW_TAG_member, DW_AT_type(*DW$T$11)
    9400                      .dwattr DW$1076, DW_AT_name("manappliedminsamples"), DW_AT_symbol_name("_manappliedminsamples")
    9401                      .dwattr DW$1076, DW_AT_data_member_location[DW_OP_plus_uconst 0xf]
    9402                      .dwattr DW$1076, DW_AT_accessibility(DW_ACCESS_public)
    9403              DW$1077 .dwtag  DW_TAG_member, DW_AT_type(*DW$T$11)
TMS320C2000 COFF Assembler PC v4.1.3 Thu Aug 18 12:16:25 2016

Tools Copyright (c) 1996-2006 Texas Instruments Incorporated
PCModBus.asm                                                         PAGE  196

    9404                      .dwattr DW$1077, DW_AT_name("unused1"), DW_AT_symbol_name("_unused1")
    9405                      .dwattr DW$1077, DW_AT_data_member_location[DW_OP_plus_uconst 0x10]
    9406                      .dwattr DW$1077, DW_AT_accessibility(DW_ACCESS_public)
    9407              DW$1078 .dwtag  DW_TAG_member, DW_AT_type(*DW$T$11)
    9408                      .dwattr DW$1078, DW_AT_name("unused2"), DW_AT_symbol_name("_unused2")
    9409                      .dwattr DW$1078, DW_AT_data_member_location[DW_OP_plus_uconst 0x11]
    9410                      .dwattr DW$1078, DW_AT_accessibility(DW_ACCESS_public)
    9411              DW$1079 .dwtag  DW_TAG_member, DW_AT_type(*DW$T$11)
    9412                      .dwattr DW$1079, DW_AT_name("unused3"), DW_AT_symbol_name("_unused3")
    9413                      .dwattr DW$1079, DW_AT_data_member_location[DW_OP_plus_uconst 0x12]
    9414                      .dwattr DW$1079, DW_AT_accessibility(DW_ACCESS_public)
    9415              DW$1080 .dwtag  DW_TAG_member, DW_AT_type(*DW$T$11)
    9416                      .dwattr DW$1080, DW_AT_name("unused4"), DW_AT_symbol_name("_unused4")
    9417                      .dwattr DW$1080, DW_AT_data_member_location[DW_OP_plus_uconst 0x13]
    9418                      .dwattr DW$1080, DW_AT_accessibility(DW_ACCESS_public)
    9419              DW$1081 .dwtag  DW_TAG_member, DW_AT_type(*DW$T$11)
    9420                      .dwattr DW$1081, DW_AT_name("unused5"), DW_AT_symbol_name("_unused5")
    9421                      .dwattr DW$1081, DW_AT_data_member_location[DW_OP_plus_uconst 0x14]
    9422                      .dwattr DW$1081, DW_AT_accessibility(DW_ACCESS_public)
    9423              DW$1082 .dwtag  DW_TAG_member, DW_AT_type(*DW$T$11)
    9424                      .dwattr DW$1082, DW_AT_name("unused6"), DW_AT_symbol_name("_unused6")
    9425                      .dwattr DW$1082, DW_AT_data_member_location[DW_OP_plus_uconst 0x15]
    9426                      .dwattr DW$1082, DW_AT_accessibility(DW_ACCESS_public)
    9427              DW$1083 .dwtag  DW_TAG_member, DW_AT_type(*DW$T$11)
    9428                      .dwattr DW$1083, DW_AT_name("unused7"), DW_AT_symbol_name("_unused7")
    9429                      .dwattr DW$1083, DW_AT_data_member_location[DW_OP_plus_uconst 0x16]
    9430                      .dwattr DW$1083, DW_AT_accessibility(DW_ACCESS_public)
    9431              DW$1084 .dwtag  DW_TAG_member, DW_AT_type(*DW$T$11)
    9432                      .dwattr DW$1084, DW_AT_name("unused8"), DW_AT_symbol_name("_unused8")
    9433                      .dwattr DW$1084, DW_AT_data_member_location[DW_OP_plus_uconst 0x17]
    9434                      .dwattr DW$1084, DW_AT_accessibility(DW_ACCESS_public)
    9435              DW$1085 .dwtag  DW_TAG_member, DW_AT_type(*DW$T$11)
    9436                      .dwattr DW$1085, DW_AT_name("unused9"), DW_AT_symbol_name("_unused9")
    9437                      .dwattr DW$1085, DW_AT_data_member_location[DW_OP_plus_uconst 0x18]
    9438                      .dwattr DW$1085, DW_AT_accessibility(DW_ACCESS_public)
    9439                      .dwendtag DW$T$92
    9440              
    9441              DW$1086 .dwtag  DW_TAG_far_type
    9442                      .dwattr DW$1086, DW_AT_type(*DW$T$96)
    9443              DW$T$145        .dwtag  DW_TAG_const_type
    9444                      .dwattr DW$T$145, DW_AT_type(*DW$1086)
    9445              
    9446              DW$T$99 .dwtag  DW_TAG_structure_type
    9447                      .dwattr DW$T$99, DW_AT_name("tag_sdfilestruct")
    9448                      .dwattr DW$T$99, DW_AT_byte_size(0x14e)
    9449              DW$1087 .dwtag  DW_TAG_member, DW_AT_type(*DW$T$11)
    9450                      .dwattr DW$1087, DW_AT_name("year1"), DW_AT_symbol_name("_year1")
    9451                      .dwattr DW$1087, DW_AT_data_member_location[DW_OP_plus_uconst 0x0]
    9452                      .dwattr DW$1087, DW_AT_accessibility(DW_ACCESS_public)
    9453              DW$1088 .dwtag  DW_TAG_member, DW_AT_type(*DW$T$11)
    9454                      .dwattr DW$1088, DW_AT_name("month1"), DW_AT_symbol_name("_month1")
    9455                      .dwattr DW$1088, DW_AT_data_member_location[DW_OP_plus_uconst 0x1]
    9456                      .dwattr DW$1088, DW_AT_accessibility(DW_ACCESS_public)
    9457              DW$1089 .dwtag  DW_TAG_member, DW_AT_type(*DW$T$11)
    9458                      .dwattr DW$1089, DW_AT_name("date1"), DW_AT_symbol_name("_date1")
TMS320C2000 COFF Assembler PC v4.1.3 Thu Aug 18 12:16:25 2016

Tools Copyright (c) 1996-2006 Texas Instruments Incorporated
PCModBus.asm                                                         PAGE  197

    9459                      .dwattr DW$1089, DW_AT_data_member_location[DW_OP_plus_uconst 0x2]
    9460                      .dwattr DW$1089, DW_AT_accessibility(DW_ACCESS_public)
    9461              DW$1090 .dwtag  DW_TAG_member, DW_AT_type(*DW$T$11)
    9462                      .dwattr DW$1090, DW_AT_name("yearn"), DW_AT_symbol_name("_yearn")
    9463                      .dwattr DW$1090, DW_AT_data_member_location[DW_OP_plus_uconst 0x3]
    9464                      .dwattr DW$1090, DW_AT_accessibility(DW_ACCESS_public)
    9465              DW$1091 .dwtag  DW_TAG_member, DW_AT_type(*DW$T$11)
    9466                      .dwattr DW$1091, DW_AT_name("monthn"), DW_AT_symbol_name("_monthn")
    9467                      .dwattr DW$1091, DW_AT_data_member_location[DW_OP_plus_uconst 0x4]
    9468                      .dwattr DW$1091, DW_AT_accessibility(DW_ACCESS_public)
    9469              DW$1092 .dwtag  DW_TAG_member, DW_AT_type(*DW$T$11)
    9470                      .dwattr DW$1092, DW_AT_name("daten"), DW_AT_symbol_name("_daten")
    9471                      .dwattr DW$1092, DW_AT_data_member_location[DW_OP_plus_uconst 0x5]
    9472                      .dwattr DW$1092, DW_AT_accessibility(DW_ACCESS_public)
    9473              DW$1093 .dwtag  DW_TAG_member, DW_AT_type(*DW$T$11)
    9474                      .dwattr DW$1093, DW_AT_name("readyear"), DW_AT_symbol_name("_readyear")
    9475                      .dwattr DW$1093, DW_AT_data_member_location[DW_OP_plus_uconst 0x6]
    9476                      .dwattr DW$1093, DW_AT_accessibility(DW_ACCESS_public)
    9477              DW$1094 .dwtag  DW_TAG_member, DW_AT_type(*DW$T$11)
    9478                      .dwattr DW$1094, DW_AT_name("readmonth"), DW_AT_symbol_name("_readmonth")
    9479                      .dwattr DW$1094, DW_AT_data_member_location[DW_OP_plus_uconst 0x7]
    9480                      .dwattr DW$1094, DW_AT_accessibility(DW_ACCESS_public)
    9481              DW$1095 .dwtag  DW_TAG_member, DW_AT_type(*DW$T$11)
    9482                      .dwattr DW$1095, DW_AT_name("readdate"), DW_AT_symbol_name("_readdate")
    9483                      .dwattr DW$1095, DW_AT_data_member_location[DW_OP_plus_uconst 0x8]
    9484                      .dwattr DW$1095, DW_AT_accessibility(DW_ACCESS_public)
    9485              DW$1096 .dwtag  DW_TAG_member, DW_AT_type(*DW$T$95)
    9486                      .dwattr DW$1096, DW_AT_name("file"), DW_AT_symbol_name("_file")
    9487                      .dwattr DW$1096, DW_AT_data_member_location[DW_OP_plus_uconst 0xa]
    9488                      .dwattr DW$1096, DW_AT_accessibility(DW_ACCESS_public)
    9489              DW$1097 .dwtag  DW_TAG_member, DW_AT_type(*DW$T$97)
    9490                      .dwattr DW$1097, DW_AT_name("readbuffer"), DW_AT_symbol_name("_readbuffer")
    9491                      .dwattr DW$1097, DW_AT_data_member_location[DW_OP_plus_uconst 0xc]
    9492                      .dwattr DW$1097, DW_AT_accessibility(DW_ACCESS_public)
    9493              DW$1098 .dwtag  DW_TAG_member, DW_AT_type(*DW$T$13)
    9494                      .dwattr DW$1098, DW_AT_name("entryposition"), DW_AT_symbol_name("_entryposition")
    9495                      .dwattr DW$1098, DW_AT_data_member_location[DW_OP_plus_uconst 0x138]
    9496                      .dwattr DW$1098, DW_AT_accessibility(DW_ACCESS_public)
    9497              DW$1099 .dwtag  DW_TAG_member, DW_AT_type(*DW$T$11)
    9498                      .dwattr DW$1099, DW_AT_name("logtype"), DW_AT_symbol_name("_logtype")
    9499                      .dwattr DW$1099, DW_AT_data_member_location[DW_OP_plus_uconst 0x13a]
    9500                      .dwattr DW$1099, DW_AT_accessibility(DW_ACCESS_public)
    9501              DW$1100 .dwtag  DW_TAG_member, DW_AT_type(*DW$T$34)
    9502                      .dwattr DW$1100, DW_AT_name("directorystr"), DW_AT_symbol_name("_directorystr")
    9503                      .dwattr DW$1100, DW_AT_data_member_location[DW_OP_plus_uconst 0x13b]
    9504                      .dwattr DW$1100, DW_AT_accessibility(DW_ACCESS_public)
    9505              DW$1101 .dwtag  DW_TAG_member, DW_AT_type(*DW$T$98)
    9506                      .dwattr DW$1101, DW_AT_name("filenamestr"), DW_AT_symbol_name("_filenamestr")
    9507                      .dwattr DW$1101, DW_AT_data_member_location[DW_OP_plus_uconst 0x13f]
    9508                      .dwattr DW$1101, DW_AT_accessibility(DW_ACCESS_public)
    9509              DW$1102 .dwtag  DW_TAG_member, DW_AT_type(*DW$T$13)
    9510                      .dwattr DW$1102, DW_AT_name("getnumwords"), DW_AT_symbol_name("_getnumwords")
    9511                      .dwattr DW$1102, DW_AT_data_member_location[DW_OP_plus_uconst 0x146]
    9512                      .dwattr DW$1102, DW_AT_accessibility(DW_ACCESS_public)
    9513              DW$1103 .dwtag  DW_TAG_member, DW_AT_type(*DW$T$11)
TMS320C2000 COFF Assembler PC v4.1.3 Thu Aug 18 12:16:25 2016

Tools Copyright (c) 1996-2006 Texas Instruments Incorporated
PCModBus.asm                                                         PAGE  198

    9514                      .dwattr DW$1103, DW_AT_name("setnumwords"), DW_AT_symbol_name("_setnumwords")
    9515                      .dwattr DW$1103, DW_AT_data_member_location[DW_OP_plus_uconst 0x148]
    9516                      .dwattr DW$1103, DW_AT_accessibility(DW_ACCESS_public)
    9517              DW$1104 .dwtag  DW_TAG_member, DW_AT_type(*DW$T$13)
    9518                      .dwattr DW$1104, DW_AT_name("setoffset"), DW_AT_symbol_name("_setoffset")
    9519                      .dwattr DW$1104, DW_AT_data_member_location[DW_OP_plus_uconst 0x14a]
    9520                      .dwattr DW$1104, DW_AT_accessibility(DW_ACCESS_public)
    9521              DW$1105 .dwtag  DW_TAG_member, DW_AT_type(*DW$T$11)
    9522                      .dwattr DW$1105, DW_AT_name("readwriteflag"), DW_AT_symbol_name("_readwriteflag")
    9523                      .dwattr DW$1105, DW_AT_data_member_location[DW_OP_plus_uconst 0x14c]
    9524                      .dwattr DW$1105, DW_AT_accessibility(DW_ACCESS_public)
    9525              DW$1106 .dwtag  DW_TAG_member, DW_AT_type(*DW$T$11)
    9526                      .dwattr DW$1106, DW_AT_name("readwriteprogress"), DW_AT_symbol_name("_readwriteprogress")
    9527                      .dwattr DW$1106, DW_AT_data_member_location[DW_OP_plus_uconst 0x14d]
    9528                      .dwattr DW$1106, DW_AT_accessibility(DW_ACCESS_public)
    9529                      .dwendtag DW$T$99
    9530              
    9531              
    9532              DW$T$101        .dwtag  DW_TAG_structure_type
    9533                      .dwattr DW$T$101, DW_AT_name("tag_sdsettingsstruct")
    9534                      .dwattr DW$T$101, DW_AT_byte_size(0x04)
    9535              DW$1107 .dwtag  DW_TAG_member, DW_AT_type(*DW$T$11)
    9536                      .dwattr DW$1107, DW_AT_name("present"), DW_AT_symbol_name("_present")
    9537                      .dwattr DW$1107, DW_AT_data_member_location[DW_OP_plus_uconst 0x0]
    9538                      .dwattr DW$1107, DW_AT_accessibility(DW_ACCESS_public)
    9539              DW$1108 .dwtag  DW_TAG_member, DW_AT_type(*DW$T$11)
    9540                      .dwattr DW$1108, DW_AT_name("sequence"), DW_AT_symbol_name("_sequence")
    9541                      .dwattr DW$1108, DW_AT_data_member_location[DW_OP_plus_uconst 0x1]
    9542                      .dwattr DW$1108, DW_AT_accessibility(DW_ACCESS_public)
    9543              DW$1109 .dwtag  DW_TAG_member, DW_AT_type(*DW$T$11)
    9544                      .dwattr DW$1109, DW_AT_name("errornum"), DW_AT_symbol_name("_errornum")
    9545                      .dwattr DW$1109, DW_AT_data_member_location[DW_OP_plus_uconst 0x2]
    9546                      .dwattr DW$1109, DW_AT_accessibility(DW_ACCESS_public)
    9547              DW$1110 .dwtag  DW_TAG_member, DW_AT_type(*DW$T$100)
    9548                      .dwattr DW$1110, DW_AT_name("readstatus"), DW_AT_symbol_name("_readstatus")
    9549                      .dwattr DW$1110, DW_AT_data_member_location[DW_OP_plus_uconst 0x3]
    9550                      .dwattr DW$1110, DW_AT_accessibility(DW_ACCESS_public)
    9551                      .dwendtag DW$T$101
    9552              
    9553              
    9554              DW$T$104        .dwtag  DW_TAG_structure_type
    9555                      .dwattr DW$T$104, DW_AT_name("tag_waterinoilstruct")
    9556                      .dwattr DW$T$104, DW_AT_byte_size(0x0c)
    9557              DW$1111 .dwtag  DW_TAG_member, DW_AT_type(*DW$T$11)
    9558                      .dwattr DW$1111, DW_AT_name("netadd"), DW_AT_symbol_name("_netadd")
    9559                      .dwattr DW$1111, DW_AT_data_member_location[DW_OP_plus_uconst 0x0]
    9560                      .dwattr DW$1111, DW_AT_accessibility(DW_ACCESS_public)
    9561              DW$1112 .dwtag  DW_TAG_member, DW_AT_type(*DW$T$16)
    9562                      .dwattr DW$1112, DW_AT_name("temperature"), DW_AT_symbol_name("_temperature")
    9563                      .dwattr DW$1112, DW_AT_data_member_location[DW_OP_plus_uconst 0x2]
    9564                      .dwattr DW$1112, DW_AT_accessibility(DW_ACCESS_public)
    9565              DW$1113 .dwtag  DW_TAG_member, DW_AT_type(*DW$T$16)
    9566                      .dwattr DW$1113, DW_AT_name("activity"), DW_AT_symbol_name("_activity")
    9567                      .dwattr DW$1113, DW_AT_data_member_location[DW_OP_plus_uconst 0x4]
    9568                      .dwattr DW$1113, DW_AT_accessibility(DW_ACCESS_public)
TMS320C2000 COFF Assembler PC v4.1.3 Thu Aug 18 12:16:25 2016

Tools Copyright (c) 1996-2006 Texas Instruments Incorporated
PCModBus.asm                                                         PAGE  199

    9569              DW$1114 .dwtag  DW_TAG_member, DW_AT_type(*DW$T$16)
    9570                      .dwattr DW$1114, DW_AT_name("content"), DW_AT_symbol_name("_content")
    9571                      .dwattr DW$1114, DW_AT_data_member_location[DW_OP_plus_uconst 0x6]
    9572                      .dwattr DW$1114, DW_AT_accessibility(DW_ACCESS_public)
    9573              DW$1115 .dwtag  DW_TAG_member, DW_AT_type(*DW$T$10)
    9574                      .dwattr DW$1115, DW_AT_name("temperature_int"), DW_AT_symbol_name("_temperature_int")
    9575                      .dwattr DW$1115, DW_AT_data_member_location[DW_OP_plus_uconst 0x8]
    9576                      .dwattr DW$1115, DW_AT_accessibility(DW_ACCESS_public)
    9577              DW$1116 .dwtag  DW_TAG_member, DW_AT_type(*DW$T$10)
    9578                      .dwattr DW$1116, DW_AT_name("activity_int"), DW_AT_symbol_name("_activity_int")
    9579                      .dwattr DW$1116, DW_AT_data_member_location[DW_OP_plus_uconst 0x9]
    9580                      .dwattr DW$1116, DW_AT_accessibility(DW_ACCESS_public)
    9581              DW$1117 .dwtag  DW_TAG_member, DW_AT_type(*DW$T$10)
    9582                      .dwattr DW$1117, DW_AT_name("content_int"), DW_AT_symbol_name("_content_int")
    9583                      .dwattr DW$1117, DW_AT_data_member_location[DW_OP_plus_uconst 0xa]
    9584                      .dwattr DW$1117, DW_AT_accessibility(DW_ACCESS_public)
    9585              DW$1118 .dwtag  DW_TAG_member, DW_AT_type(*DW$T$103)
    9586                      .dwattr DW$1118, DW_AT_name("wioalarms"), DW_AT_symbol_name("_wioalarms")
    9587                      .dwattr DW$1118, DW_AT_data_member_location[DW_OP_plus_uconst 0xb]
    9588                      .dwattr DW$1118, DW_AT_accessibility(DW_ACCESS_public)
    9589                      .dwendtag DW$T$104
    9590              
    9591              
    9592              DW$T$106        .dwtag  DW_TAG_structure_type
    9593                      .dwattr DW$T$106, DW_AT_name("tag_bearingstatusstruct")
    9594                      .dwattr DW$T$106, DW_AT_byte_size(0x2c)
    9595              DW$1119 .dwtag  DW_TAG_member, DW_AT_type(*DW$T$105)
    9596                      .dwattr DW$1119, DW_AT_name("MainBearings"), DW_AT_symbol_name("_MainBearings")
    9597                      .dwattr DW$1119, DW_AT_data_member_location[DW_OP_plus_uconst 0x0]
    9598                      .dwattr DW$1119, DW_AT_accessibility(DW_ACCESS_public)
    9599              DW$1120 .dwtag  DW_TAG_member, DW_AT_type(*DW$T$48)
    9600                      .dwattr DW$1120, DW_AT_name("CrankPinBearings"), DW_AT_symbol_name("_CrankPinBearings")
    9601                      .dwattr DW$1120, DW_AT_data_member_location[DW_OP_plus_uconst 0x10]
    9602                      .dwattr DW$1120, DW_AT_accessibility(DW_ACCESS_public)
    9603              DW$1121 .dwtag  DW_TAG_member, DW_AT_type(*DW$T$48)
    9604                      .dwattr DW$1121, DW_AT_name("CrossHeadBearings"), DW_AT_symbol_name("_CrossHeadBearings")
    9605                      .dwattr DW$1121, DW_AT_data_member_location[DW_OP_plus_uconst 0x1e]
    9606                      .dwattr DW$1121, DW_AT_accessibility(DW_ACCESS_public)
    9607                      .dwendtag DW$T$106
    9608              
    9609              
    9610              DW$T$108        .dwtag  DW_TAG_structure_type
    9611                      .dwattr DW$T$108, DW_AT_name("tag_slemsstruct")
    9612                      .dwattr DW$T$108, DW_AT_byte_size(0x03)
    9613              DW$1122 .dwtag  DW_TAG_member, DW_AT_type(*DW$T$10)
    9614                      .dwattr DW$1122, DW_AT_name("mV"), DW_AT_symbol_name("_mV")
    9615                      .dwattr DW$1122, DW_AT_data_member_location[DW_OP_plus_uconst 0x0]
    9616                      .dwattr DW$1122, DW_AT_accessibility(DW_ACCESS_public)
    9617              DW$1123 .dwtag  DW_TAG_member, DW_AT_type(*DW$T$107)
    9618                      .dwattr DW$1123, DW_AT_name("alarms"), DW_AT_symbol_name("_alarms")
    9619                      .dwattr DW$1123, DW_AT_data_member_location[DW_OP_plus_uconst 0x1]
    9620                      .dwattr DW$1123, DW_AT_accessibility(DW_ACCESS_public)
    9621              DW$1124 .dwtag  DW_TAG_member, DW_AT_type(*DW$T$11)
    9622                      .dwattr DW$1124, DW_AT_name("levelcount"), DW_AT_symbol_name("_levelcount")
    9623                      .dwattr DW$1124, DW_AT_data_member_location[DW_OP_plus_uconst 0x2]
TMS320C2000 COFF Assembler PC v4.1.3 Thu Aug 18 12:16:25 2016

Tools Copyright (c) 1996-2006 Texas Instruments Incorporated
PCModBus.asm                                                         PAGE  200

    9624                      .dwattr DW$1124, DW_AT_accessibility(DW_ACCESS_public)
    9625                      .dwendtag DW$T$108
    9626              
    9627              
    9628              DW$T$110        .dwtag  DW_TAG_structure_type
    9629                      .dwattr DW$T$110, DW_AT_name("tag_rtcbatstruct")
    9630                      .dwattr DW$T$110, DW_AT_byte_size(0x02)
    9631              DW$1125 .dwtag  DW_TAG_member, DW_AT_type(*DW$T$10)
    9632                      .dwattr DW$1125, DW_AT_name("mV"), DW_AT_symbol_name("_mV")
    9633                      .dwattr DW$1125, DW_AT_data_member_location[DW_OP_plus_uconst 0x0]
    9634                      .dwattr DW$1125, DW_AT_accessibility(DW_ACCESS_public)
    9635              DW$1126 .dwtag  DW_TAG_member, DW_AT_type(*DW$T$109)
    9636                      .dwattr DW$1126, DW_AT_name("alarms"), DW_AT_symbol_name("_alarms")
    9637                      .dwattr DW$1126, DW_AT_data_member_location[DW_OP_plus_uconst 0x1]
    9638                      .dwattr DW$1126, DW_AT_accessibility(DW_ACCESS_public)
    9639                      .dwendtag DW$T$110
    9640              
    9641              
    9642              DW$T$111        .dwtag  DW_TAG_structure_type
    9643                      .dwattr DW$T$111, DW_AT_name("tag_cppstruct")
    9644                      .dwattr DW$T$111, DW_AT_byte_size(0x06)
    9645              DW$1127 .dwtag  DW_TAG_member, DW_AT_type(*DW$T$10)
    9646                      .dwattr DW$1127, DW_AT_name("iAtodValue"), DW_AT_symbol_name("_iAtodValue")
    9647                      .dwattr DW$1127, DW_AT_data_member_location[DW_OP_plus_uconst 0x0]
    9648                      .dwattr DW$1127, DW_AT_accessibility(DW_ACCESS_public)
    9649              DW$1128 .dwtag  DW_TAG_member, DW_AT_type(*DW$T$16)
    9650                      .dwattr DW$1128, DW_AT_name("fmAinput"), DW_AT_symbol_name("_fmAinput")
    9651                      .dwattr DW$1128, DW_AT_data_member_location[DW_OP_plus_uconst 0x2]
    9652                      .dwattr DW$1128, DW_AT_accessibility(DW_ACCESS_public)
    9653              DW$1129 .dwtag  DW_TAG_member, DW_AT_type(*DW$T$16)
    9654                      .dwattr DW$1129, DW_AT_name("fLoadPercent"), DW_AT_symbol_name("_fLoadPercent")
    9655                      .dwattr DW$1129, DW_AT_data_member_location[DW_OP_plus_uconst 0x4]
    9656                      .dwattr DW$1129, DW_AT_accessibility(DW_ACCESS_public)
    9657                      .dwendtag DW$T$111
    9658              
    9659              
    9660              DW$T$113        .dwtag  DW_TAG_structure_type
    9661                      .dwattr DW$T$113, DW_AT_name("tag_PCCmdStruct")
    9662                      .dwattr DW$T$113, DW_AT_byte_size(0x110)
    9663              DW$1130 .dwtag  DW_TAG_member, DW_AT_type(*DW$T$6)
    9664                      .dwattr DW$1130, DW_AT_name("SlaveAddr"), DW_AT_symbol_name("_SlaveAddr")
    9665                      .dwattr DW$1130, DW_AT_data_member_location[DW_OP_plus_uconst 0x0]
    9666                      .dwattr DW$1130, DW_AT_accessibility(DW_ACCESS_public)
    9667              DW$1131 .dwtag  DW_TAG_member, DW_AT_type(*DW$T$6)
    9668                      .dwattr DW$1131, DW_AT_name("Func"), DW_AT_symbol_name("_Func")
    9669                      .dwattr DW$1131, DW_AT_data_member_location[DW_OP_plus_uconst 0x1]
    9670                      .dwattr DW$1131, DW_AT_accessibility(DW_ACCESS_public)
    9671              DW$1132 .dwtag  DW_TAG_member, DW_AT_type(*DW$T$11)
    9672                      .dwattr DW$1132, DW_AT_name("StartAdd"), DW_AT_symbol_name("_StartAdd")
    9673                      .dwattr DW$1132, DW_AT_data_member_location[DW_OP_plus_uconst 0x2]
    9674                      .dwattr DW$1132, DW_AT_accessibility(DW_ACCESS_public)
    9675              DW$1133 .dwtag  DW_TAG_member, DW_AT_type(*DW$T$11)
    9676                      .dwattr DW$1133, DW_AT_name("NoReg"), DW_AT_symbol_name("_NoReg")
    9677                      .dwattr DW$1133, DW_AT_data_member_location[DW_OP_plus_uconst 0x3]
    9678                      .dwattr DW$1133, DW_AT_accessibility(DW_ACCESS_public)
TMS320C2000 COFF Assembler PC v4.1.3 Thu Aug 18 12:16:25 2016

Tools Copyright (c) 1996-2006 Texas Instruments Incorporated
PCModBus.asm                                                         PAGE  201

    9679              DW$1134 .dwtag  DW_TAG_member, DW_AT_type(*DW$T$11)
    9680                      .dwattr DW$1134, DW_AT_name("ByteCount"), DW_AT_symbol_name("_ByteCount")
    9681                      .dwattr DW$1134, DW_AT_data_member_location[DW_OP_plus_uconst 0x4]
    9682                      .dwattr DW$1134, DW_AT_accessibility(DW_ACCESS_public)
    9683              DW$1135 .dwtag  DW_TAG_member, DW_AT_type(*DW$T$112)
    9684                      .dwattr DW$1135, DW_AT_name("Data"), DW_AT_symbol_name("_Data")
    9685                      .dwattr DW$1135, DW_AT_data_member_location[DW_OP_plus_uconst 0x5]
    9686                      .dwattr DW$1135, DW_AT_accessibility(DW_ACCESS_public)
    9687              DW$1136 .dwtag  DW_TAG_member, DW_AT_type(*DW$T$11)
    9688                      .dwattr DW$1136, DW_AT_name("errorflag"), DW_AT_symbol_name("_errorflag")
    9689                      .dwattr DW$1136, DW_AT_data_member_location[DW_OP_plus_uconst 0x10f]
    9690                      .dwattr DW$1136, DW_AT_accessibility(DW_ACCESS_public)
    9691                      .dwendtag DW$T$113
    9692              
    9693              
    9694              DW$T$114        .dwtag  DW_TAG_structure_type
    9695                      .dwattr DW$T$114, DW_AT_name("tag_modbusupdatestruct")
    9696                      .dwattr DW$T$114, DW_AT_byte_size(0x02)
    9697              DW$1137 .dwtag  DW_TAG_member, DW_AT_type(*DW$T$6)
    9698                      .dwattr DW$1137, DW_AT_name("live"), DW_AT_symbol_name("_live")
    9699                      .dwattr DW$1137, DW_AT_data_member_location[DW_OP_plus_uconst 0x0]
    9700                      .dwattr DW$1137, DW_AT_accessibility(DW_ACCESS_public)
    9701              DW$1138 .dwtag  DW_TAG_member, DW_AT_type(*DW$T$6)
    9702                      .dwattr DW$1138, DW_AT_name("logging"), DW_AT_symbol_name("_logging")
    9703                      .dwattr DW$1138, DW_AT_data_member_location[DW_OP_plus_uconst 0x1]
    9704                      .dwattr DW$1138, DW_AT_accessibility(DW_ACCESS_public)
    9705                      .dwendtag DW$T$114
    9706              
    9707              
    9708              DW$T$135        .dwtag  DW_TAG_enumeration_type
    9709                      .dwattr DW$T$135, DW_AT_name("tag_PtrTypeEnum")
    9710                      .dwattr DW$T$135, DW_AT_byte_size(0x01)
    9711              DW$1139 .dwtag  DW_TAG_enumerator, DW_AT_name("BYTE"), DW_AT_const_value(0x00)
    9712              DW$1140 .dwtag  DW_TAG_enumerator, DW_AT_name("INT"), DW_AT_const_value(0x01)
    9713              DW$1141 .dwtag  DW_TAG_enumerator, DW_AT_name("STRING"), DW_AT_const_value(0x02)
    9714                      .dwendtag DW$T$135
    9715              
    9716              
    9717              DW$T$28 .dwtag  DW_TAG_array_type, DW_AT_type(*DW$T$10)
    9718                      .dwattr DW$T$28, DW_AT_language(DW_LANG_C)
    9719                      .dwattr DW$T$28, DW_AT_byte_size(0x02)
    9720              DW$1142 .dwtag  DW_TAG_subrange_type
    9721                      .dwattr DW$1142, DW_AT_upper_bound(0x01)
    9722                      .dwendtag DW$T$28
    9723              
    9724              
    9725              DW$T$90 .dwtag  DW_TAG_array_type, DW_AT_type(*DW$T$10)
    9726                      .dwattr DW$T$90, DW_AT_language(DW_LANG_C)
    9727                      .dwattr DW$T$90, DW_AT_byte_size(0x54)
    9728              DW$1143 .dwtag  DW_TAG_subrange_type
    9729                      .dwattr DW$1143, DW_AT_upper_bound(0x02)
    9730              DW$1144 .dwtag  DW_TAG_subrange_type
    9731                      .dwattr DW$1144, DW_AT_upper_bound(0x1b)
    9732                      .dwendtag DW$T$90
    9733              
TMS320C2000 COFF Assembler PC v4.1.3 Thu Aug 18 12:16:25 2016

Tools Copyright (c) 1996-2006 Texas Instruments Incorporated
PCModBus.asm                                                         PAGE  202

    9734              
    9735              DW$T$34 .dwtag  DW_TAG_array_type, DW_AT_type(*DW$T$11)
    9736                      .dwattr DW$T$34, DW_AT_language(DW_LANG_C)
    9737                      .dwattr DW$T$34, DW_AT_byte_size(0x04)
    9738              DW$1145 .dwtag  DW_TAG_subrange_type
    9739                      .dwattr DW$1145, DW_AT_upper_bound(0x03)
    9740                      .dwendtag DW$T$34
    9741              
    9742              
    9743              DW$T$64 .dwtag  DW_TAG_array_type, DW_AT_type(*DW$T$11)
    9744                      .dwattr DW$T$64, DW_AT_language(DW_LANG_C)
    9745                      .dwattr DW$T$64, DW_AT_byte_size(0x09)
    9746              DW$1146 .dwtag  DW_TAG_subrange_type
    9747                      .dwattr DW$1146, DW_AT_upper_bound(0x08)
    9748                      .dwendtag DW$T$64
    9749              
    9750              
    9751              DW$T$65 .dwtag  DW_TAG_array_type, DW_AT_type(*DW$T$11)
    9752                      .dwattr DW$T$65, DW_AT_language(DW_LANG_C)
    9753                      .dwattr DW$T$65, DW_AT_byte_size(0x18)
    9754              DW$1147 .dwtag  DW_TAG_subrange_type
    9755                      .dwattr DW$1147, DW_AT_upper_bound(0x17)
    9756                      .dwendtag DW$T$65
    9757              
    9758              
    9759              DW$T$66 .dwtag  DW_TAG_array_type, DW_AT_type(*DW$T$11)
    9760                      .dwattr DW$T$66, DW_AT_language(DW_LANG_C)
    9761                      .dwattr DW$T$66, DW_AT_byte_size(0x0f)
    9762              DW$1148 .dwtag  DW_TAG_subrange_type
    9763                      .dwattr DW$1148, DW_AT_upper_bound(0x0e)
    9764                      .dwendtag DW$T$66
    9765              
    9766              
    9767              DW$T$67 .dwtag  DW_TAG_array_type, DW_AT_type(*DW$T$11)
    9768                      .dwattr DW$T$67, DW_AT_language(DW_LANG_C)
    9769                      .dwattr DW$T$67, DW_AT_byte_size(0x05)
    9770              DW$1149 .dwtag  DW_TAG_subrange_type
    9771                      .dwattr DW$1149, DW_AT_upper_bound(0x04)
    9772                      .dwendtag DW$T$67
    9773              
    9774              
    9775              DW$T$85 .dwtag  DW_TAG_array_type, DW_AT_type(*DW$T$11)
    9776                      .dwattr DW$T$85, DW_AT_language(DW_LANG_C)
    9777                      .dwattr DW$T$85, DW_AT_byte_size(0x06)
    9778              DW$1150 .dwtag  DW_TAG_subrange_type
    9779                      .dwattr DW$1150, DW_AT_upper_bound(0x02)
    9780              DW$1151 .dwtag  DW_TAG_subrange_type
    9781                      .dwattr DW$1151, DW_AT_upper_bound(0x01)
    9782                      .dwendtag DW$T$85
    9783              
    9784              
    9785              DW$T$89 .dwtag  DW_TAG_array_type, DW_AT_type(*DW$T$11)
    9786                      .dwattr DW$T$89, DW_AT_language(DW_LANG_C)
    9787                      .dwattr DW$T$89, DW_AT_byte_size(0x03)
    9788              DW$1152 .dwtag  DW_TAG_subrange_type
TMS320C2000 COFF Assembler PC v4.1.3 Thu Aug 18 12:16:25 2016

Tools Copyright (c) 1996-2006 Texas Instruments Incorporated
PCModBus.asm                                                         PAGE  203

    9789                      .dwattr DW$1152, DW_AT_upper_bound(0x02)
    9790                      .dwendtag DW$T$89
    9791              
    9792              
    9793              DW$T$98 .dwtag  DW_TAG_array_type, DW_AT_type(*DW$T$11)
    9794                      .dwattr DW$T$98, DW_AT_language(DW_LANG_C)
    9795                      .dwattr DW$T$98, DW_AT_byte_size(0x06)
    9796              DW$1153 .dwtag  DW_TAG_subrange_type
    9797                      .dwattr DW$1153, DW_AT_upper_bound(0x05)
    9798                      .dwendtag DW$T$98
    9799              
    9800              
    9801              DW$T$105        .dwtag  DW_TAG_array_type, DW_AT_type(*DW$T$11)
    9802                      .dwattr DW$T$105, DW_AT_language(DW_LANG_C)
    9803                      .dwattr DW$T$105, DW_AT_byte_size(0x10)
    9804              DW$1154 .dwtag  DW_TAG_subrange_type
    9805                      .dwattr DW$1154, DW_AT_upper_bound(0x0f)
    9806                      .dwendtag DW$T$105
    9807              
    9808              
    9809              DW$T$71 .dwtag  DW_TAG_array_type, DW_AT_type(*DW$T$12)
    9810                      .dwattr DW$T$71, DW_AT_language(DW_LANG_C)
    9811                      .dwattr DW$T$71, DW_AT_byte_size(0x38)
    9812              DW$1155 .dwtag  DW_TAG_subrange_type
    9813                      .dwattr DW$1155, DW_AT_upper_bound(0x1b)
    9814                      .dwendtag DW$T$71
    9815              
    9816              
    9817              DW$T$88 .dwtag  DW_TAG_array_type, DW_AT_type(*DW$T$12)
    9818                      .dwattr DW$T$88, DW_AT_language(DW_LANG_C)
    9819                      .dwattr DW$T$88, DW_AT_byte_size(0xa8)
    9820              DW$1156 .dwtag  DW_TAG_subrange_type
    9821                      .dwattr DW$1156, DW_AT_upper_bound(0x02)
    9822              DW$1157 .dwtag  DW_TAG_subrange_type
    9823                      .dwattr DW$1157, DW_AT_upper_bound(0x1b)
    9824                      .dwendtag DW$T$88
    9825              
    9826              
    9827              DW$T$86 .dwtag  DW_TAG_array_type, DW_AT_type(*DW$T$13)
    9828                      .dwattr DW$T$86, DW_AT_language(DW_LANG_C)
    9829                      .dwattr DW$T$86, DW_AT_byte_size(0x06)
    9830              DW$1158 .dwtag  DW_TAG_subrange_type
    9831                      .dwattr DW$1158, DW_AT_upper_bound(0x02)
    9832                      .dwendtag DW$T$86
    9833              
    9834              
    9835              DW$T$87 .dwtag  DW_TAG_array_type, DW_AT_type(*DW$T$13)
    9836                      .dwattr DW$T$87, DW_AT_language(DW_LANG_C)
    9837                      .dwattr DW$T$87, DW_AT_byte_size(0x12c)
    9838              DW$1159 .dwtag  DW_TAG_subrange_type
    9839                      .dwattr DW$1159, DW_AT_upper_bound(0x95)
    9840                      .dwendtag DW$T$87
    9841              
    9842              DW$T$16 .dwtag  DW_TAG_base_type, DW_AT_name("float")
    9843                      .dwattr DW$T$16, DW_AT_encoding(DW_ATE_float)
TMS320C2000 COFF Assembler PC v4.1.3 Thu Aug 18 12:16:25 2016

Tools Copyright (c) 1996-2006 Texas Instruments Incorporated
PCModBus.asm                                                         PAGE  204

    9844                      .dwattr DW$T$16, DW_AT_byte_size(0x02)
    9845              
    9846              DW$T$19 .dwtag  DW_TAG_structure_type
    9847                      .dwattr DW$T$19, DW_AT_name("tag_status1struct")
    9848                      .dwattr DW$T$19, DW_AT_byte_size(0x01)
    9849              DW$1160 .dwtag  DW_TAG_member, DW_AT_type(*DW$T$11)
    9850                      .dwattr DW$1160, DW_AT_name("enabled"), DW_AT_symbol_name("_enabled")
    9851                      .dwattr DW$1160, DW_AT_bit_offset(0x0f), DW_AT_bit_size(0x01)
    9852                      .dwattr DW$1160, DW_AT_data_member_location[DW_OP_plus_uconst 0x0]
    9853                      .dwattr DW$1160, DW_AT_accessibility(DW_ACCESS_public)
    9854              DW$1161 .dwtag  DW_TAG_member, DW_AT_type(*DW$T$11)
    9855                      .dwattr DW$1161, DW_AT_name("calmode"), DW_AT_symbol_name("_calmode")
    9856                      .dwattr DW$1161, DW_AT_bit_offset(0x0e), DW_AT_bit_size(0x01)
    9857                      .dwattr DW$1161, DW_AT_data_member_location[DW_OP_plus_uconst 0x0]
    9858                      .dwattr DW$1161, DW_AT_accessibility(DW_ACCESS_public)
    9859              DW$1162 .dwtag  DW_TAG_member, DW_AT_type(*DW$T$11)
    9860                      .dwattr DW$1162, DW_AT_name("alarmmask"), DW_AT_symbol_name("_alarmmask")
    9861                      .dwattr DW$1162, DW_AT_bit_offset(0x0d), DW_AT_bit_size(0x01)
    9862                      .dwattr DW$1162, DW_AT_data_member_location[DW_OP_plus_uconst 0x0]
    9863                      .dwattr DW$1162, DW_AT_accessibility(DW_ACCESS_public)
    9864              DW$1163 .dwtag  DW_TAG_member, DW_AT_type(*DW$T$11)
    9865                      .dwattr DW$1163, DW_AT_name("dcmode"), DW_AT_symbol_name("_dcmode")
    9866                      .dwattr DW$1163, DW_AT_bit_offset(0x0c), DW_AT_bit_size(0x01)
    9867                      .dwattr DW$1163, DW_AT_data_member_location[DW_OP_plus_uconst 0x0]
    9868                      .dwattr DW$1163, DW_AT_accessibility(DW_ACCESS_public)
    9869              DW$1164 .dwtag  DW_TAG_member, DW_AT_type(*DW$T$11)
    9870                      .dwattr DW$1164, DW_AT_name("replaced"), DW_AT_symbol_name("_replaced")
    9871                      .dwattr DW$1164, DW_AT_bit_offset(0x0b), DW_AT_bit_size(0x01)
    9872                      .dwattr DW$1164, DW_AT_data_member_location[DW_OP_plus_uconst 0x0]
    9873                      .dwattr DW$1164, DW_AT_accessibility(DW_ACCESS_public)
    9874              DW$1165 .dwtag  DW_TAG_member, DW_AT_type(*DW$T$11)
    9875                      .dwattr DW$1165, DW_AT_name("excludeslowroll"), DW_AT_symbol_name("_excludeslowroll")
    9876                      .dwattr DW$1165, DW_AT_bit_offset(0x0a), DW_AT_bit_size(0x01)
    9877                      .dwattr DW$1165, DW_AT_data_member_location[DW_OP_plus_uconst 0x0]
    9878                      .dwattr DW$1165, DW_AT_accessibility(DW_ACCESS_public)
    9879              DW$1166 .dwtag  DW_TAG_member, DW_AT_type(*DW$T$11)
    9880                      .dwattr DW$1166, DW_AT_name("unused7"), DW_AT_symbol_name("_unused7")
    9881                      .dwattr DW$1166, DW_AT_bit_offset(0x09), DW_AT_bit_size(0x01)
    9882                      .dwattr DW$1166, DW_AT_data_member_location[DW_OP_plus_uconst 0x0]
    9883                      .dwattr DW$1166, DW_AT_accessibility(DW_ACCESS_public)
    9884              DW$1167 .dwtag  DW_TAG_member, DW_AT_type(*DW$T$11)
    9885                      .dwattr DW$1167, DW_AT_name("unused8"), DW_AT_symbol_name("_unused8")
    9886                      .dwattr DW$1167, DW_AT_bit_offset(0x08), DW_AT_bit_size(0x01)
    9887                      .dwattr DW$1167, DW_AT_data_member_location[DW_OP_plus_uconst 0x0]
    9888                      .dwattr DW$1167, DW_AT_accessibility(DW_ACCESS_public)
    9889              DW$1168 .dwtag  DW_TAG_member, DW_AT_type(*DW$T$11)
    9890                      .dwattr DW$1168, DW_AT_name("unused9"), DW_AT_symbol_name("_unused9")
    9891                      .dwattr DW$1168, DW_AT_bit_offset(0x07), DW_AT_bit_size(0x01)
    9892                      .dwattr DW$1168, DW_AT_data_member_location[DW_OP_plus_uconst 0x0]
    9893                      .dwattr DW$1168, DW_AT_accessibility(DW_ACCESS_public)
    9894              DW$1169 .dwtag  DW_TAG_member, DW_AT_type(*DW$T$11)
    9895                      .dwattr DW$1169, DW_AT_name("unused10"), DW_AT_symbol_name("_unused10")
    9896                      .dwattr DW$1169, DW_AT_bit_offset(0x06), DW_AT_bit_size(0x01)
    9897                      .dwattr DW$1169, DW_AT_data_member_location[DW_OP_plus_uconst 0x0]
    9898                      .dwattr DW$1169, DW_AT_accessibility(DW_ACCESS_public)
TMS320C2000 COFF Assembler PC v4.1.3 Thu Aug 18 12:16:25 2016

Tools Copyright (c) 1996-2006 Texas Instruments Incorporated
PCModBus.asm                                                         PAGE  205

    9899              DW$1170 .dwtag  DW_TAG_member, DW_AT_type(*DW$T$11)
    9900                      .dwattr DW$1170, DW_AT_name("unused11"), DW_AT_symbol_name("_unused11")
    9901                      .dwattr DW$1170, DW_AT_bit_offset(0x05), DW_AT_bit_size(0x01)
    9902                      .dwattr DW$1170, DW_AT_data_member_location[DW_OP_plus_uconst 0x0]
    9903                      .dwattr DW$1170, DW_AT_accessibility(DW_ACCESS_public)
    9904              DW$1171 .dwtag  DW_TAG_member, DW_AT_type(*DW$T$11)
    9905                      .dwattr DW$1171, DW_AT_name("unused12"), DW_AT_symbol_name("_unused12")
    9906                      .dwattr DW$1171, DW_AT_bit_offset(0x04), DW_AT_bit_size(0x01)
    9907                      .dwattr DW$1171, DW_AT_data_member_location[DW_OP_plus_uconst 0x0]
    9908                      .dwattr DW$1171, DW_AT_accessibility(DW_ACCESS_public)
    9909              DW$1172 .dwtag  DW_TAG_member, DW_AT_type(*DW$T$11)
    9910                      .dwattr DW$1172, DW_AT_name("unused13"), DW_AT_symbol_name("_unused13")
    9911                      .dwattr DW$1172, DW_AT_bit_offset(0x03), DW_AT_bit_size(0x01)
    9912                      .dwattr DW$1172, DW_AT_data_member_location[DW_OP_plus_uconst 0x0]
    9913                      .dwattr DW$1172, DW_AT_accessibility(DW_ACCESS_public)
    9914              DW$1173 .dwtag  DW_TAG_member, DW_AT_type(*DW$T$11)
    9915                      .dwattr DW$1173, DW_AT_name("unused14"), DW_AT_symbol_name("_unused14")
    9916                      .dwattr DW$1173, DW_AT_bit_offset(0x02), DW_AT_bit_size(0x01)
    9917                      .dwattr DW$1173, DW_AT_data_member_location[DW_OP_plus_uconst 0x0]
    9918                      .dwattr DW$1173, DW_AT_accessibility(DW_ACCESS_public)
    9919              DW$1174 .dwtag  DW_TAG_member, DW_AT_type(*DW$T$11)
    9920                      .dwattr DW$1174, DW_AT_name("unused15"), DW_AT_symbol_name("_unused15")
    9921                      .dwattr DW$1174, DW_AT_bit_offset(0x01), DW_AT_bit_size(0x01)
    9922                      .dwattr DW$1174, DW_AT_data_member_location[DW_OP_plus_uconst 0x0]
    9923                      .dwattr DW$1174, DW_AT_accessibility(DW_ACCESS_public)
    9924              DW$1175 .dwtag  DW_TAG_member, DW_AT_type(*DW$T$11)
    9925                      .dwattr DW$1175, DW_AT_name("unused16"), DW_AT_symbol_name("_unused16")
    9926                      .dwattr DW$1175, DW_AT_bit_offset(0x00), DW_AT_bit_size(0x01)
    9927                      .dwattr DW$1175, DW_AT_data_member_location[DW_OP_plus_uconst 0x0]
    9928                      .dwattr DW$1175, DW_AT_accessibility(DW_ACCESS_public)
    9929                      .dwendtag DW$T$19
    9930              
    9931              
    9932              DW$T$20 .dwtag  DW_TAG_structure_type
    9933                      .dwattr DW$T$20, DW_AT_name("tag_sensoralarmstruct")
    9934                      .dwattr DW$T$20, DW_AT_byte_size(0x01)
    9935              DW$1176 .dwtag  DW_TAG_member, DW_AT_type(*DW$T$11)
    9936                      .dwattr DW$1176, DW_AT_name("failure"), DW_AT_symbol_name("_failure")
    9937                      .dwattr DW$1176, DW_AT_bit_offset(0x0f), DW_AT_bit_size(0x01)
    9938                      .dwattr DW$1176, DW_AT_data_member_location[DW_OP_plus_uconst 0x0]
    9939                      .dwattr DW$1176, DW_AT_accessibility(DW_ACCESS_public)
    9940              DW$1177 .dwtag  DW_TAG_member, DW_AT_type(*DW$T$11)
    9941                      .dwattr DW$1177, DW_AT_name("failurelatched"), DW_AT_symbol_name("_failurelatched")
    9942                      .dwattr DW$1177, DW_AT_bit_offset(0x0e), DW_AT_bit_size(0x01)
    9943                      .dwattr DW$1177, DW_AT_data_member_location[DW_OP_plus_uconst 0x0]
    9944                      .dwattr DW$1177, DW_AT_accessibility(DW_ACCESS_public)
    9945              DW$1178 .dwtag  DW_TAG_member, DW_AT_type(*DW$T$11)
    9946                      .dwattr DW$1178, DW_AT_name("slowdown"), DW_AT_symbol_name("_slowdown")
    9947                      .dwattr DW$1178, DW_AT_bit_offset(0x0d), DW_AT_bit_size(0x01)
    9948                      .dwattr DW$1178, DW_AT_data_member_location[DW_OP_plus_uconst 0x0]
    9949                      .dwattr DW$1178, DW_AT_accessibility(DW_ACCESS_public)
    9950              DW$1179 .dwtag  DW_TAG_member, DW_AT_type(*DW$T$11)
    9951                      .dwattr DW$1179, DW_AT_name("slowdownlatched"), DW_AT_symbol_name("_slowdownlatched")
    9952                      .dwattr DW$1179, DW_AT_bit_offset(0x0c), DW_AT_bit_size(0x01)
    9953                      .dwattr DW$1179, DW_AT_data_member_location[DW_OP_plus_uconst 0x0]
TMS320C2000 COFF Assembler PC v4.1.3 Thu Aug 18 12:16:25 2016

Tools Copyright (c) 1996-2006 Texas Instruments Incorporated
PCModBus.asm                                                         PAGE  206

    9954                      .dwattr DW$1179, DW_AT_accessibility(DW_ACCESS_public)
    9955              DW$1180 .dwtag  DW_TAG_member, DW_AT_type(*DW$T$11)
    9956                      .dwattr DW$1180, DW_AT_name("alarm"), DW_AT_symbol_name("_alarm")
    9957                      .dwattr DW$1180, DW_AT_bit_offset(0x0b), DW_AT_bit_size(0x01)
    9958                      .dwattr DW$1180, DW_AT_data_member_location[DW_OP_plus_uconst 0x0]
    9959                      .dwattr DW$1180, DW_AT_accessibility(DW_ACCESS_public)
    9960              DW$1181 .dwtag  DW_TAG_member, DW_AT_type(*DW$T$11)
    9961                      .dwattr DW$1181, DW_AT_name("alarmlatched"), DW_AT_symbol_name("_alarmlatched")
    9962                      .dwattr DW$1181, DW_AT_bit_offset(0x0a), DW_AT_bit_size(0x01)
    9963                      .dwattr DW$1181, DW_AT_data_member_location[DW_OP_plus_uconst 0x0]
    9964                      .dwattr DW$1181, DW_AT_accessibility(DW_ACCESS_public)
    9965              DW$1182 .dwtag  DW_TAG_member, DW_AT_type(*DW$T$11)
    9966                      .dwattr DW$1182, DW_AT_name("devalarm"), DW_AT_symbol_name("_devalarm")
    9967                      .dwattr DW$1182, DW_AT_bit_offset(0x09), DW_AT_bit_size(0x01)
    9968                      .dwattr DW$1182, DW_AT_data_member_location[DW_OP_plus_uconst 0x0]
    9969                      .dwattr DW$1182, DW_AT_accessibility(DW_ACCESS_public)
    9970              DW$1183 .dwtag  DW_TAG_member, DW_AT_type(*DW$T$11)
    9971                      .dwattr DW$1183, DW_AT_name("devalarmlatched"), DW_AT_symbol_name("_devalarmlatched")
    9972                      .dwattr DW$1183, DW_AT_bit_offset(0x08), DW_AT_bit_size(0x01)
    9973                      .dwattr DW$1183, DW_AT_data_member_location[DW_OP_plus_uconst 0x0]
    9974                      .dwattr DW$1183, DW_AT_accessibility(DW_ACCESS_public)
    9975              DW$1184 .dwtag  DW_TAG_member, DW_AT_type(*DW$T$11)
    9976                      .dwattr DW$1184, DW_AT_name("devslow"), DW_AT_symbol_name("_devslow")
    9977                      .dwattr DW$1184, DW_AT_bit_offset(0x07), DW_AT_bit_size(0x01)
    9978                      .dwattr DW$1184, DW_AT_data_member_location[DW_OP_plus_uconst 0x0]
    9979                      .dwattr DW$1184, DW_AT_accessibility(DW_ACCESS_public)
    9980              DW$1185 .dwtag  DW_TAG_member, DW_AT_type(*DW$T$11)
    9981                      .dwattr DW$1185, DW_AT_name("devslowlatched"), DW_AT_symbol_name("_devslowlatched")
    9982                      .dwattr DW$1185, DW_AT_bit_offset(0x06), DW_AT_bit_size(0x01)
    9983                      .dwattr DW$1185, DW_AT_data_member_location[DW_OP_plus_uconst 0x0]
    9984                      .dwattr DW$1185, DW_AT_accessibility(DW_ACCESS_public)
    9985              DW$1186 .dwtag  DW_TAG_member, DW_AT_type(*DW$T$11)
    9986                      .dwattr DW$1186, DW_AT_name("calibration"), DW_AT_symbol_name("_calibration")
    9987                      .dwattr DW$1186, DW_AT_bit_offset(0x05), DW_AT_bit_size(0x01)
    9988                      .dwattr DW$1186, DW_AT_data_member_location[DW_OP_plus_uconst 0x0]
    9989                      .dwattr DW$1186, DW_AT_accessibility(DW_ACCESS_public)
    9990              DW$1187 .dwtag  DW_TAG_member, DW_AT_type(*DW$T$11)
    9991                      .dwattr DW$1187, DW_AT_name("calibrationlatched"), DW_AT_symbol_name("_calibrationlatched")
    9992                      .dwattr DW$1187, DW_AT_bit_offset(0x04), DW_AT_bit_size(0x01)
    9993                      .dwattr DW$1187, DW_AT_data_member_location[DW_OP_plus_uconst 0x0]
    9994                      .dwattr DW$1187, DW_AT_accessibility(DW_ACCESS_public)
    9995              DW$1188 .dwtag  DW_TAG_member, DW_AT_type(*DW$T$11)
    9996                      .dwattr DW$1188, DW_AT_name("prewarning"), DW_AT_symbol_name("_prewarning")
    9997                      .dwattr DW$1188, DW_AT_bit_offset(0x03), DW_AT_bit_size(0x01)
    9998                      .dwattr DW$1188, DW_AT_data_member_location[DW_OP_plus_uconst 0x0]
    9999                      .dwattr DW$1188, DW_AT_accessibility(DW_ACCESS_public)
   10000              DW$1189 .dwtag  DW_TAG_member, DW_AT_type(*DW$T$11)
   10001                      .dwattr DW$1189, DW_AT_name("prewarninglatched"), DW_AT_symbol_name("_prewarninglatched")
   10002                      .dwattr DW$1189, DW_AT_bit_offset(0x02), DW_AT_bit_size(0x01)
   10003                      .dwattr DW$1189, DW_AT_data_member_location[DW_OP_plus_uconst 0x0]
   10004                      .dwattr DW$1189, DW_AT_accessibility(DW_ACCESS_public)
   10005              DW$1190 .dwtag  DW_TAG_member, DW_AT_type(*DW$T$11)
   10006                      .dwattr DW$1190, DW_AT_name("unused15"), DW_AT_symbol_name("_unused15")
   10007                      .dwattr DW$1190, DW_AT_bit_offset(0x01), DW_AT_bit_size(0x01)
   10008                      .dwattr DW$1190, DW_AT_data_member_location[DW_OP_plus_uconst 0x0]
TMS320C2000 COFF Assembler PC v4.1.3 Thu Aug 18 12:16:25 2016

Tools Copyright (c) 1996-2006 Texas Instruments Incorporated
PCModBus.asm                                                         PAGE  207

   10009                      .dwattr DW$1190, DW_AT_accessibility(DW_ACCESS_public)
   10010              DW$1191 .dwtag  DW_TAG_member, DW_AT_type(*DW$T$11)
   10011                      .dwattr DW$1191, DW_AT_name("unused16"), DW_AT_symbol_name("_unused16")
   10012                      .dwattr DW$1191, DW_AT_bit_offset(0x00), DW_AT_bit_size(0x01)
   10013                      .dwattr DW$1191, DW_AT_data_member_location[DW_OP_plus_uconst 0x0]
   10014                      .dwattr DW$1191, DW_AT_accessibility(DW_ACCESS_public)
   10015                      .dwendtag DW$T$20
   10016              
   10017              
   10018              DW$T$21 .dwtag  DW_TAG_structure_type
   10019                      .dwattr DW$T$21, DW_AT_name("tag_status3struct")
   10020                      .dwattr DW$T$21, DW_AT_byte_size(0x01)
   10021              DW$1192 .dwtag  DW_TAG_member, DW_AT_type(*DW$T$11)
   10022                      .dwattr DW$1192, DW_AT_name("nopulse"), DW_AT_symbol_name("_nopulse")
   10023                      .dwattr DW$1192, DW_AT_bit_offset(0x0f), DW_AT_bit_size(0x01)
   10024                      .dwattr DW$1192, DW_AT_data_member_location[DW_OP_plus_uconst 0x0]
   10025                      .dwattr DW$1192, DW_AT_accessibility(DW_ACCESS_public)
   10026              DW$1193 .dwtag  DW_TAG_member, DW_AT_type(*DW$T$11)
   10027                      .dwattr DW$1193, DW_AT_name("low"), DW_AT_symbol_name("_low")
   10028                      .dwattr DW$1193, DW_AT_bit_offset(0x0e), DW_AT_bit_size(0x01)
   10029                      .dwattr DW$1193, DW_AT_data_member_location[DW_OP_plus_uconst 0x0]
   10030                      .dwattr DW$1193, DW_AT_accessibility(DW_ACCESS_public)
   10031              DW$1194 .dwtag  DW_TAG_member, DW_AT_type(*DW$T$11)
   10032                      .dwattr DW$1194, DW_AT_name("high"), DW_AT_symbol_name("_high")
   10033                      .dwattr DW$1194, DW_AT_bit_offset(0x0d), DW_AT_bit_size(0x01)
   10034                      .dwattr DW$1194, DW_AT_data_member_location[DW_OP_plus_uconst 0x0]
   10035                      .dwattr DW$1194, DW_AT_accessibility(DW_ACCESS_public)
   10036              DW$1195 .dwtag  DW_TAG_member, DW_AT_type(*DW$T$11)
   10037                      .dwattr DW$1195, DW_AT_name("rpmoor"), DW_AT_symbol_name("_rpmoor")
   10038                      .dwattr DW$1195, DW_AT_bit_offset(0x0c), DW_AT_bit_size(0x01)
   10039                      .dwattr DW$1195, DW_AT_data_member_location[DW_OP_plus_uconst 0x0]
   10040                      .dwattr DW$1195, DW_AT_accessibility(DW_ACCESS_public)
   10041              DW$1196 .dwtag  DW_TAG_member, DW_AT_type(*DW$T$11)
   10042                      .dwattr DW$1196, DW_AT_name("unused5"), DW_AT_symbol_name("_unused5")
   10043                      .dwattr DW$1196, DW_AT_bit_offset(0x0b), DW_AT_bit_size(0x01)
   10044                      .dwattr DW$1196, DW_AT_data_member_location[DW_OP_plus_uconst 0x0]
   10045                      .dwattr DW$1196, DW_AT_accessibility(DW_ACCESS_public)
   10046              DW$1197 .dwtag  DW_TAG_member, DW_AT_type(*DW$T$11)
   10047                      .dwattr DW$1197, DW_AT_name("unused6"), DW_AT_symbol_name("_unused6")
   10048                      .dwattr DW$1197, DW_AT_bit_offset(0x0a), DW_AT_bit_size(0x01)
   10049                      .dwattr DW$1197, DW_AT_data_member_location[DW_OP_plus_uconst 0x0]
   10050                      .dwattr DW$1197, DW_AT_accessibility(DW_ACCESS_public)
   10051              DW$1198 .dwtag  DW_TAG_member, DW_AT_type(*DW$T$11)
   10052                      .dwattr DW$1198, DW_AT_name("unused7"), DW_AT_symbol_name("_unused7")
   10053                      .dwattr DW$1198, DW_AT_bit_offset(0x09), DW_AT_bit_size(0x01)
   10054                      .dwattr DW$1198, DW_AT_data_member_location[DW_OP_plus_uconst 0x0]
   10055                      .dwattr DW$1198, DW_AT_accessibility(DW_ACCESS_public)
   10056              DW$1199 .dwtag  DW_TAG_member, DW_AT_type(*DW$T$11)
   10057                      .dwattr DW$1199, DW_AT_name("unused8"), DW_AT_symbol_name("_unused8")
   10058                      .dwattr DW$1199, DW_AT_bit_offset(0x08), DW_AT_bit_size(0x01)
   10059                      .dwattr DW$1199, DW_AT_data_member_location[DW_OP_plus_uconst 0x0]
   10060                      .dwattr DW$1199, DW_AT_accessibility(DW_ACCESS_public)
   10061              DW$1200 .dwtag  DW_TAG_member, DW_AT_type(*DW$T$11)
   10062                      .dwattr DW$1200, DW_AT_name("nopulselatched"), DW_AT_symbol_name("_nopulselatched")
   10063                      .dwattr DW$1200, DW_AT_bit_offset(0x07), DW_AT_bit_size(0x01)
TMS320C2000 COFF Assembler PC v4.1.3 Thu Aug 18 12:16:25 2016

Tools Copyright (c) 1996-2006 Texas Instruments Incorporated
PCModBus.asm                                                         PAGE  208

   10064                      .dwattr DW$1200, DW_AT_data_member_location[DW_OP_plus_uconst 0x0]
   10065                      .dwattr DW$1200, DW_AT_accessibility(DW_ACCESS_public)
   10066              DW$1201 .dwtag  DW_TAG_member, DW_AT_type(*DW$T$11)
   10067                      .dwattr DW$1201, DW_AT_name("lowlatched"), DW_AT_symbol_name("_lowlatched")
   10068                      .dwattr DW$1201, DW_AT_bit_offset(0x06), DW_AT_bit_size(0x01)
   10069                      .dwattr DW$1201, DW_AT_data_member_location[DW_OP_plus_uconst 0x0]
   10070                      .dwattr DW$1201, DW_AT_accessibility(DW_ACCESS_public)
   10071              DW$1202 .dwtag  DW_TAG_member, DW_AT_type(*DW$T$11)
   10072                      .dwattr DW$1202, DW_AT_name("highlatched"), DW_AT_symbol_name("_highlatched")
   10073                      .dwattr DW$1202, DW_AT_bit_offset(0x05), DW_AT_bit_size(0x01)
   10074                      .dwattr DW$1202, DW_AT_data_member_location[DW_OP_plus_uconst 0x0]
   10075                      .dwattr DW$1202, DW_AT_accessibility(DW_ACCESS_public)
   10076              DW$1203 .dwtag  DW_TAG_member, DW_AT_type(*DW$T$11)
   10077                      .dwattr DW$1203, DW_AT_name("rpmoorlatched"), DW_AT_symbol_name("_rpmoorlatched")
   10078                      .dwattr DW$1203, DW_AT_bit_offset(0x04), DW_AT_bit_size(0x01)
   10079                      .dwattr DW$1203, DW_AT_data_member_location[DW_OP_plus_uconst 0x0]
   10080                      .dwattr DW$1203, DW_AT_accessibility(DW_ACCESS_public)
   10081              DW$1204 .dwtag  DW_TAG_member, DW_AT_type(*DW$T$11)
   10082                      .dwattr DW$1204, DW_AT_name("unused13"), DW_AT_symbol_name("_unused13")
   10083                      .dwattr DW$1204, DW_AT_bit_offset(0x03), DW_AT_bit_size(0x01)
   10084                      .dwattr DW$1204, DW_AT_data_member_location[DW_OP_plus_uconst 0x0]
   10085                      .dwattr DW$1204, DW_AT_accessibility(DW_ACCESS_public)
   10086              DW$1205 .dwtag  DW_TAG_member, DW_AT_type(*DW$T$11)
   10087                      .dwattr DW$1205, DW_AT_name("unused14"), DW_AT_symbol_name("_unused14")
   10088                      .dwattr DW$1205, DW_AT_bit_offset(0x02), DW_AT_bit_size(0x01)
   10089                      .dwattr DW$1205, DW_AT_data_member_location[DW_OP_plus_uconst 0x0]
   10090                      .dwattr DW$1205, DW_AT_accessibility(DW_ACCESS_public)
   10091              DW$1206 .dwtag  DW_TAG_member, DW_AT_type(*DW$T$11)
   10092                      .dwattr DW$1206, DW_AT_name("unused15"), DW_AT_symbol_name("_unused15")
   10093                      .dwattr DW$1206, DW_AT_bit_offset(0x01), DW_AT_bit_size(0x01)
   10094                      .dwattr DW$1206, DW_AT_data_member_location[DW_OP_plus_uconst 0x0]
   10095                      .dwattr DW$1206, DW_AT_accessibility(DW_ACCESS_public)
   10096              DW$1207 .dwtag  DW_TAG_member, DW_AT_type(*DW$T$11)
   10097                      .dwattr DW$1207, DW_AT_name("unused16"), DW_AT_symbol_name("_unused16")
   10098                      .dwattr DW$1207, DW_AT_bit_offset(0x00), DW_AT_bit_size(0x01)
   10099                      .dwattr DW$1207, DW_AT_data_member_location[DW_OP_plus_uconst 0x0]
   10100                      .dwattr DW$1207, DW_AT_accessibility(DW_ACCESS_public)
   10101                      .dwendtag DW$T$21
   10102              
   10103              
   10104              DW$T$22 .dwtag  DW_TAG_structure_type
   10105                      .dwattr DW$T$22, DW_AT_name("tag_alarmsstruct")
   10106                      .dwattr DW$T$22, DW_AT_byte_size(0x01)
   10107              DW$1208 .dwtag  DW_TAG_member, DW_AT_type(*DW$T$11)
   10108                      .dwattr DW$1208, DW_AT_name("slavefailure"), DW_AT_symbol_name("_slavefailure")
   10109                      .dwattr DW$1208, DW_AT_bit_offset(0x0f), DW_AT_bit_size(0x01)
   10110                      .dwattr DW$1208, DW_AT_data_member_location[DW_OP_plus_uconst 0x0]
   10111                      .dwattr DW$1208, DW_AT_accessibility(DW_ACCESS_public)
   10112              DW$1209 .dwtag  DW_TAG_member, DW_AT_type(*DW$T$11)
   10113                      .dwattr DW$1209, DW_AT_name("slavefailurelatched"), DW_AT_symbol_name("_slavefailurelatched")
   10114                      .dwattr DW$1209, DW_AT_bit_offset(0x0e), DW_AT_bit_size(0x01)
   10115                      .dwattr DW$1209, DW_AT_data_member_location[DW_OP_plus_uconst 0x0]
   10116                      .dwattr DW$1209, DW_AT_accessibility(DW_ACCESS_public)
   10117              DW$1210 .dwtag  DW_TAG_member, DW_AT_type(*DW$T$11)
   10118                      .dwattr DW$1210, DW_AT_name("framfailure"), DW_AT_symbol_name("_framfailure")
TMS320C2000 COFF Assembler PC v4.1.3 Thu Aug 18 12:16:25 2016

Tools Copyright (c) 1996-2006 Texas Instruments Incorporated
PCModBus.asm                                                         PAGE  209

   10119                      .dwattr DW$1210, DW_AT_bit_offset(0x0d), DW_AT_bit_size(0x01)
   10120                      .dwattr DW$1210, DW_AT_data_member_location[DW_OP_plus_uconst 0x0]
   10121                      .dwattr DW$1210, DW_AT_accessibility(DW_ACCESS_public)
   10122              DW$1211 .dwtag  DW_TAG_member, DW_AT_type(*DW$T$11)
   10123                      .dwattr DW$1211, DW_AT_name("framfailurelatched"), DW_AT_symbol_name("_framfailurelatched")
   10124                      .dwattr DW$1211, DW_AT_bit_offset(0x0c), DW_AT_bit_size(0x01)
   10125                      .dwattr DW$1211, DW_AT_data_member_location[DW_OP_plus_uconst 0x0]
   10126                      .dwattr DW$1211, DW_AT_accessibility(DW_ACCESS_public)
   10127              DW$1212 .dwtag  DW_TAG_member, DW_AT_type(*DW$T$11)
   10128                      .dwattr DW$1212, DW_AT_name("pccommsfailure"), DW_AT_symbol_name("_pccommsfailure")
   10129                      .dwattr DW$1212, DW_AT_bit_offset(0x0b), DW_AT_bit_size(0x01)
   10130                      .dwattr DW$1212, DW_AT_data_member_location[DW_OP_plus_uconst 0x0]
   10131                      .dwattr DW$1212, DW_AT_accessibility(DW_ACCESS_public)
   10132              DW$1213 .dwtag  DW_TAG_member, DW_AT_type(*DW$T$11)
   10133                      .dwattr DW$1213, DW_AT_name("pccommsfailurelatched"), DW_AT_symbol_name("_pccommsfailurelatched")
   10134                      .dwattr DW$1213, DW_AT_bit_offset(0x0a), DW_AT_bit_size(0x01)
   10135                      .dwattr DW$1213, DW_AT_data_member_location[DW_OP_plus_uconst 0x0]
   10136                      .dwattr DW$1213, DW_AT_accessibility(DW_ACCESS_public)
   10137              DW$1214 .dwtag  DW_TAG_member, DW_AT_type(*DW$T$11)
   10138                      .dwattr DW$1214, DW_AT_name("unused7"), DW_AT_symbol_name("_unused7")
   10139                      .dwattr DW$1214, DW_AT_bit_offset(0x09), DW_AT_bit_size(0x01)
   10140                      .dwattr DW$1214, DW_AT_data_member_location[DW_OP_plus_uconst 0x0]
   10141                      .dwattr DW$1214, DW_AT_accessibility(DW_ACCESS_public)
   10142              DW$1215 .dwtag  DW_TAG_member, DW_AT_type(*DW$T$11)
   10143                      .dwattr DW$1215, DW_AT_name("unused8"), DW_AT_symbol_name("_unused8")
   10144                      .dwattr DW$1215, DW_AT_bit_offset(0x08), DW_AT_bit_size(0x01)
   10145                      .dwattr DW$1215, DW_AT_data_member_location[DW_OP_plus_uconst 0x0]
   10146                      .dwattr DW$1215, DW_AT_accessibility(DW_ACCESS_public)
   10147              DW$1216 .dwtag  DW_TAG_member, DW_AT_type(*DW$T$11)
   10148                      .dwattr DW$1216, DW_AT_name("unused9"), DW_AT_symbol_name("_unused9")
   10149                      .dwattr DW$1216, DW_AT_bit_offset(0x07), DW_AT_bit_size(0x01)
   10150                      .dwattr DW$1216, DW_AT_data_member_location[DW_OP_plus_uconst 0x0]
   10151                      .dwattr DW$1216, DW_AT_accessibility(DW_ACCESS_public)
   10152              DW$1217 .dwtag  DW_TAG_member, DW_AT_type(*DW$T$11)
   10153                      .dwattr DW$1217, DW_AT_name("unused10"), DW_AT_symbol_name("_unused10")
   10154                      .dwattr DW$1217, DW_AT_bit_offset(0x06), DW_AT_bit_size(0x01)
   10155                      .dwattr DW$1217, DW_AT_data_member_location[DW_OP_plus_uconst 0x0]
   10156                      .dwattr DW$1217, DW_AT_accessibility(DW_ACCESS_public)
   10157              DW$1218 .dwtag  DW_TAG_member, DW_AT_type(*DW$T$11)
   10158                      .dwattr DW$1218, DW_AT_name("unused11"), DW_AT_symbol_name("_unused11")
   10159                      .dwattr DW$1218, DW_AT_bit_offset(0x05), DW_AT_bit_size(0x01)
   10160                      .dwattr DW$1218, DW_AT_data_member_location[DW_OP_plus_uconst 0x0]
   10161                      .dwattr DW$1218, DW_AT_accessibility(DW_ACCESS_public)
   10162              DW$1219 .dwtag  DW_TAG_member, DW_AT_type(*DW$T$11)
   10163                      .dwattr DW$1219, DW_AT_name("unused12"), DW_AT_symbol_name("_unused12")
   10164                      .dwattr DW$1219, DW_AT_bit_offset(0x04), DW_AT_bit_size(0x01)
   10165                      .dwattr DW$1219, DW_AT_data_member_location[DW_OP_plus_uconst 0x0]
   10166                      .dwattr DW$1219, DW_AT_accessibility(DW_ACCESS_public)
   10167              DW$1220 .dwtag  DW_TAG_member, DW_AT_type(*DW$T$11)
   10168                      .dwattr DW$1220, DW_AT_name("unused13"), DW_AT_symbol_name("_unused13")
   10169                      .dwattr DW$1220, DW_AT_bit_offset(0x03), DW_AT_bit_size(0x01)
   10170                      .dwattr DW$1220, DW_AT_data_member_location[DW_OP_plus_uconst 0x0]
   10171                      .dwattr DW$1220, DW_AT_accessibility(DW_ACCESS_public)
   10172              DW$1221 .dwtag  DW_TAG_member, DW_AT_type(*DW$T$11)
   10173                      .dwattr DW$1221, DW_AT_name("unused14"), DW_AT_symbol_name("_unused14")
TMS320C2000 COFF Assembler PC v4.1.3 Thu Aug 18 12:16:25 2016

Tools Copyright (c) 1996-2006 Texas Instruments Incorporated
PCModBus.asm                                                         PAGE  210

   10174                      .dwattr DW$1221, DW_AT_bit_offset(0x02), DW_AT_bit_size(0x01)
   10175                      .dwattr DW$1221, DW_AT_data_member_location[DW_OP_plus_uconst 0x0]
   10176                      .dwattr DW$1221, DW_AT_accessibility(DW_ACCESS_public)
   10177              DW$1222 .dwtag  DW_TAG_member, DW_AT_type(*DW$T$11)
   10178                      .dwattr DW$1222, DW_AT_name("unused15"), DW_AT_symbol_name("_unused15")
   10179                      .dwattr DW$1222, DW_AT_bit_offset(0x01), DW_AT_bit_size(0x01)
   10180                      .dwattr DW$1222, DW_AT_data_member_location[DW_OP_plus_uconst 0x0]
   10181                      .dwattr DW$1222, DW_AT_accessibility(DW_ACCESS_public)
   10182              DW$1223 .dwtag  DW_TAG_member, DW_AT_type(*DW$T$11)
   10183                      .dwattr DW$1223, DW_AT_name("unused16"), DW_AT_symbol_name("_unused16")
   10184                      .dwattr DW$1223, DW_AT_bit_offset(0x00), DW_AT_bit_size(0x01)
   10185                      .dwattr DW$1223, DW_AT_data_member_location[DW_OP_plus_uconst 0x0]
   10186                      .dwattr DW$1223, DW_AT_accessibility(DW_ACCESS_public)
   10187                      .dwendtag DW$T$22
   10188              
   10189              
   10190              DW$T$25 .dwtag  DW_TAG_structure_type
   10191                      .dwattr DW$T$25, DW_AT_name("taggpfport")
   10192                      .dwattr DW$T$25, DW_AT_byte_size(0x01)
   10193              DW$1224 .dwtag  DW_TAG_member, DW_AT_type(*DW$T$24)
   10194                      .dwattr DW$1224, DW_AT_name("selunion"), DW_AT_symbol_name("_selunion")
   10195                      .dwattr DW$1224, DW_AT_data_member_location[DW_OP_plus_uconst 0x0]
   10196                      .dwattr DW$1224, DW_AT_accessibility(DW_ACCESS_public)
   10197                      .dwendtag DW$T$25
   10198              
   10199              
   10200              DW$T$26 .dwtag  DW_TAG_structure_type
   10201                      .dwattr DW$T$26, DW_AT_byte_size(0x02)
   10202              DW$1225 .dwtag  DW_TAG_member, DW_AT_type(*DW$T$11)
   10203                      .dwattr DW$1225, DW_AT_name("enb"), DW_AT_symbol_name("_enb")
   10204                      .dwattr DW$1225, DW_AT_data_member_location[DW_OP_plus_uconst 0x0]
   10205                      .dwattr DW$1225, DW_AT_accessibility(DW_ACCESS_public)
   10206              DW$1226 .dwtag  DW_TAG_member, DW_AT_type(*DW$T$11)
   10207                      .dwattr DW$1226, DW_AT_name("chan"), DW_AT_symbol_name("_chan")
   10208                      .dwattr DW$1226, DW_AT_data_member_location[DW_OP_plus_uconst 0x1]
   10209                      .dwattr DW$1226, DW_AT_accessibility(DW_ACCESS_public)
   10210                      .dwendtag DW$T$26
   10211              
   10212              
   10213              DW$T$31 .dwtag  DW_TAG_structure_type
   10214                      .dwattr DW$T$31, DW_AT_byte_size(0x03)
   10215              DW$1227 .dwtag  DW_TAG_member, DW_AT_type(*DW$T$11)
   10216                      .dwattr DW$1227, DW_AT_name("yrmnth"), DW_AT_symbol_name("_yrmnth")
   10217                      .dwattr DW$1227, DW_AT_data_member_location[DW_OP_plus_uconst 0x0]
   10218                      .dwattr DW$1227, DW_AT_accessibility(DW_ACCESS_public)
   10219              DW$1228 .dwtag  DW_TAG_member, DW_AT_type(*DW$T$11)
   10220                      .dwattr DW$1228, DW_AT_name("datehrs"), DW_AT_symbol_name("_datehrs")
   10221                      .dwattr DW$1228, DW_AT_data_member_location[DW_OP_plus_uconst 0x1]
   10222                      .dwattr DW$1228, DW_AT_accessibility(DW_ACCESS_public)
   10223              DW$1229 .dwtag  DW_TAG_member, DW_AT_type(*DW$T$11)
   10224                      .dwattr DW$1229, DW_AT_name("minssecs"), DW_AT_symbol_name("_minssecs")
   10225                      .dwattr DW$1229, DW_AT_data_member_location[DW_OP_plus_uconst 0x2]
   10226                      .dwattr DW$1229, DW_AT_accessibility(DW_ACCESS_public)
   10227                      .dwendtag DW$T$31
   10228              
TMS320C2000 COFF Assembler PC v4.1.3 Thu Aug 18 12:16:25 2016

Tools Copyright (c) 1996-2006 Texas Instruments Incorporated
PCModBus.asm                                                         PAGE  211

   10229              
   10230              DW$T$32 .dwtag  DW_TAG_structure_type
   10231                      .dwattr DW$T$32, DW_AT_byte_size(0x03)
   10232              DW$1230 .dwtag  DW_TAG_member, DW_AT_type(*DW$T$11)
   10233                      .dwattr DW$1230, DW_AT_name("yrmnth"), DW_AT_symbol_name("_yrmnth")
   10234                      .dwattr DW$1230, DW_AT_data_member_location[DW_OP_plus_uconst 0x0]
   10235                      .dwattr DW$1230, DW_AT_accessibility(DW_ACCESS_public)
   10236              DW$1231 .dwtag  DW_TAG_member, DW_AT_type(*DW$T$11)
   10237                      .dwattr DW$1231, DW_AT_name("datehrs"), DW_AT_symbol_name("_datehrs")
   10238                      .dwattr DW$1231, DW_AT_data_member_location[DW_OP_plus_uconst 0x1]
   10239                      .dwattr DW$1231, DW_AT_accessibility(DW_ACCESS_public)
   10240              DW$1232 .dwtag  DW_TAG_member, DW_AT_type(*DW$T$11)
   10241                      .dwattr DW$1232, DW_AT_name("minssecs"), DW_AT_symbol_name("_minssecs")
   10242                      .dwattr DW$1232, DW_AT_data_member_location[DW_OP_plus_uconst 0x2]
   10243                      .dwattr DW$1232, DW_AT_accessibility(DW_ACCESS_public)
   10244                      .dwendtag DW$T$32
   10245              
   10246              
   10247              DW$T$35 .dwtag  DW_TAG_structure_type
   10248                      .dwattr DW$T$35, DW_AT_byte_size(0x0b)
   10249              DW$1233 .dwtag  DW_TAG_member, DW_AT_type(*DW$T$34)
   10250                      .dwattr DW$1233, DW_AT_name("calprtzero"), DW_AT_symbol_name("_calprtzero")
   10251                      .dwattr DW$1233, DW_AT_data_member_location[DW_OP_plus_uconst 0x0]
   10252                      .dwattr DW$1233, DW_AT_accessibility(DW_ACCESS_public)
   10253              DW$1234 .dwtag  DW_TAG_member, DW_AT_type(*DW$T$34)
   10254                      .dwattr DW$1234, DW_AT_name("calprtfullscale"), DW_AT_symbol_name("_calprtfullscale")
   10255                      .dwattr DW$1234, DW_AT_data_member_location[DW_OP_plus_uconst 0x4]
   10256                      .dwattr DW$1234, DW_AT_accessibility(DW_ACCESS_public)
   10257              DW$1235 .dwtag  DW_TAG_member, DW_AT_type(*DW$T$11)
   10258                      .dwattr DW$1235, DW_AT_name("sensorscalingfactor"), DW_AT_symbol_name("_sensorscalingfactor")
   10259                      .dwattr DW$1235, DW_AT_data_member_location[DW_OP_plus_uconst 0x8]
   10260                      .dwattr DW$1235, DW_AT_accessibility(DW_ACCESS_public)
   10261              DW$1236 .dwtag  DW_TAG_member, DW_AT_type(*DW$T$11)
   10262                      .dwattr DW$1236, DW_AT_name("unused1"), DW_AT_symbol_name("_unused1")
   10263                      .dwattr DW$1236, DW_AT_data_member_location[DW_OP_plus_uconst 0x9]
   10264                      .dwattr DW$1236, DW_AT_accessibility(DW_ACCESS_public)
   10265              DW$1237 .dwtag  DW_TAG_member, DW_AT_type(*DW$T$11)
   10266                      .dwattr DW$1237, DW_AT_name("unused2"), DW_AT_symbol_name("_unused2")
   10267                      .dwattr DW$1237, DW_AT_data_member_location[DW_OP_plus_uconst 0xa]
   10268                      .dwattr DW$1237, DW_AT_accessibility(DW_ACCESS_public)
   10269                      .dwendtag DW$T$35
   10270              
   10271              
   10272              DW$T$36 .dwtag  DW_TAG_structure_type
   10273                      .dwattr DW$T$36, DW_AT_byte_size(0x03)
   10274              DW$1238 .dwtag  DW_TAG_member, DW_AT_type(*DW$T$11)
   10275                      .dwattr DW$1238, DW_AT_name("mainrate"), DW_AT_symbol_name("_mainrate")
   10276                      .dwattr DW$1238, DW_AT_data_member_location[DW_OP_plus_uconst 0x0]
   10277                      .dwattr DW$1238, DW_AT_accessibility(DW_ACCESS_public)
   10278              DW$1239 .dwtag  DW_TAG_member, DW_AT_type(*DW$T$11)
   10279                      .dwattr DW$1239, DW_AT_name("trendrate"), DW_AT_symbol_name("_trendrate")
   10280                      .dwattr DW$1239, DW_AT_data_member_location[DW_OP_plus_uconst 0x1]
   10281                      .dwattr DW$1239, DW_AT_accessibility(DW_ACCESS_public)
   10282              DW$1240 .dwtag  DW_TAG_member, DW_AT_type(*DW$T$11)
   10283                      .dwattr DW$1240, DW_AT_name("unused1"), DW_AT_symbol_name("_unused1")
TMS320C2000 COFF Assembler PC v4.1.3 Thu Aug 18 12:16:25 2016

Tools Copyright (c) 1996-2006 Texas Instruments Incorporated
PCModBus.asm                                                         PAGE  212

   10284                      .dwattr DW$1240, DW_AT_data_member_location[DW_OP_plus_uconst 0x2]
   10285                      .dwattr DW$1240, DW_AT_accessibility(DW_ACCESS_public)
   10286                      .dwendtag DW$T$36
   10287              
   10288              
   10289              DW$T$37 .dwtag  DW_TAG_structure_type
   10290                      .dwattr DW$T$37, DW_AT_byte_size(0x01)
   10291              DW$1241 .dwtag  DW_TAG_member, DW_AT_type(*DW$T$11)
   10292                      .dwattr DW$1241, DW_AT_name("address"), DW_AT_symbol_name("_address")
   10293                      .dwattr DW$1241, DW_AT_data_member_location[DW_OP_plus_uconst 0x0]
   10294                      .dwattr DW$1241, DW_AT_accessibility(DW_ACCESS_public)
   10295                      .dwendtag DW$T$37
   10296              
   10297              
   10298              DW$T$38 .dwtag  DW_TAG_structure_type
   10299                      .dwattr DW$T$38, DW_AT_byte_size(0x02)
   10300              DW$1242 .dwtag  DW_TAG_member, DW_AT_type(*DW$T$11)
   10301                      .dwattr DW$1242, DW_AT_name("inputtap"), DW_AT_symbol_name("_inputtap")
   10302                      .dwattr DW$1242, DW_AT_data_member_location[DW_OP_plus_uconst 0x0]
   10303                      .dwattr DW$1242, DW_AT_accessibility(DW_ACCESS_public)
   10304              DW$1243 .dwtag  DW_TAG_member, DW_AT_type(*DW$T$11)
   10305                      .dwattr DW$1243, DW_AT_name("unused1"), DW_AT_symbol_name("_unused1")
   10306                      .dwattr DW$1243, DW_AT_data_member_location[DW_OP_plus_uconst 0x1]
   10307                      .dwattr DW$1243, DW_AT_accessibility(DW_ACCESS_public)
   10308                      .dwendtag DW$T$38
   10309              
   10310              
   10311              DW$T$39 .dwtag  DW_TAG_structure_type
   10312                      .dwattr DW$T$39, DW_AT_byte_size(0x03)
   10313              DW$1244 .dwtag  DW_TAG_member, DW_AT_type(*DW$T$11)
   10314                      .dwattr DW$1244, DW_AT_name("notused1"), DW_AT_symbol_name("_notused1")
   10315                      .dwattr DW$1244, DW_AT_data_member_location[DW_OP_plus_uconst 0x0]
   10316                      .dwattr DW$1244, DW_AT_accessibility(DW_ACCESS_public)
   10317              DW$1245 .dwtag  DW_TAG_member, DW_AT_type(*DW$T$11)
   10318                      .dwattr DW$1245, DW_AT_name("notused2"), DW_AT_symbol_name("_notused2")
   10319                      .dwattr DW$1245, DW_AT_data_member_location[DW_OP_plus_uconst 0x1]
   10320                      .dwattr DW$1245, DW_AT_accessibility(DW_ACCESS_public)
   10321              DW$1246 .dwtag  DW_TAG_member, DW_AT_type(*DW$T$11)
   10322                      .dwattr DW$1246, DW_AT_name("notused3"), DW_AT_symbol_name("_notused3")
   10323                      .dwattr DW$1246, DW_AT_data_member_location[DW_OP_plus_uconst 0x2]
   10324                      .dwattr DW$1246, DW_AT_accessibility(DW_ACCESS_public)
   10325                      .dwendtag DW$T$39
   10326              
   10327              
   10328              DW$T$40 .dwtag  DW_TAG_structure_type
   10329                      .dwattr DW$T$40, DW_AT_byte_size(0x01)
   10330              DW$1247 .dwtag  DW_TAG_member, DW_AT_type(*DW$T$11)
   10331                      .dwattr DW$1247, DW_AT_name("rate"), DW_AT_symbol_name("_rate")
   10332                      .dwattr DW$1247, DW_AT_data_member_location[DW_OP_plus_uconst 0x0]
   10333                      .dwattr DW$1247, DW_AT_accessibility(DW_ACCESS_public)
   10334                      .dwendtag DW$T$40
   10335              
   10336              
   10337              DW$T$41 .dwtag  DW_TAG_structure_type
   10338                      .dwattr DW$T$41, DW_AT_byte_size(0x02)
TMS320C2000 COFF Assembler PC v4.1.3 Thu Aug 18 12:16:25 2016

Tools Copyright (c) 1996-2006 Texas Instruments Incorporated
PCModBus.asm                                                         PAGE  213

   10339              DW$1248 .dwtag  DW_TAG_member, DW_AT_type(*DW$T$11)
   10340                      .dwattr DW$1248, DW_AT_name("notused1"), DW_AT_symbol_name("_notused1")
   10341                      .dwattr DW$1248, DW_AT_data_member_location[DW_OP_plus_uconst 0x0]
   10342                      .dwattr DW$1248, DW_AT_accessibility(DW_ACCESS_public)
   10343              DW$1249 .dwtag  DW_TAG_member, DW_AT_type(*DW$T$11)
   10344                      .dwattr DW$1249, DW_AT_name("notused2"), DW_AT_symbol_name("_notused2")
   10345                      .dwattr DW$1249, DW_AT_data_member_location[DW_OP_plus_uconst 0x1]
   10346                      .dwattr DW$1249, DW_AT_accessibility(DW_ACCESS_public)
   10347                      .dwendtag DW$T$41
   10348              
   10349              
   10350              DW$T$42 .dwtag  DW_TAG_structure_type
   10351                      .dwattr DW$T$42, DW_AT_byte_size(0x04)
   10352              DW$1250 .dwtag  DW_TAG_member, DW_AT_type(*DW$T$11)
   10353                      .dwattr DW$1250, DW_AT_name("notused1"), DW_AT_symbol_name("_notused1")
   10354                      .dwattr DW$1250, DW_AT_data_member_location[DW_OP_plus_uconst 0x0]
   10355                      .dwattr DW$1250, DW_AT_accessibility(DW_ACCESS_public)
   10356              DW$1251 .dwtag  DW_TAG_member, DW_AT_type(*DW$T$11)
   10357                      .dwattr DW$1251, DW_AT_name("notused2"), DW_AT_symbol_name("_notused2")
   10358                      .dwattr DW$1251, DW_AT_data_member_location[DW_OP_plus_uconst 0x1]
   10359                      .dwattr DW$1251, DW_AT_accessibility(DW_ACCESS_public)
   10360              DW$1252 .dwtag  DW_TAG_member, DW_AT_type(*DW$T$11)
   10361                      .dwattr DW$1252, DW_AT_name("notused3"), DW_AT_symbol_name("_notused3")
   10362                      .dwattr DW$1252, DW_AT_data_member_location[DW_OP_plus_uconst 0x2]
   10363                      .dwattr DW$1252, DW_AT_accessibility(DW_ACCESS_public)
   10364              DW$1253 .dwtag  DW_TAG_member, DW_AT_type(*DW$T$11)
   10365                      .dwattr DW$1253, DW_AT_name("notused4"), DW_AT_symbol_name("_notused4")
   10366                      .dwattr DW$1253, DW_AT_data_member_location[DW_OP_plus_uconst 0x3]
   10367                      .dwattr DW$1253, DW_AT_accessibility(DW_ACCESS_public)
   10368                      .dwendtag DW$T$42
   10369              
   10370              
   10371              DW$T$43 .dwtag  DW_TAG_structure_type
   10372                      .dwattr DW$T$43, DW_AT_byte_size(0x01)
   10373              DW$1254 .dwtag  DW_TAG_member, DW_AT_type(*DW$T$11)
   10374                      .dwattr DW$1254, DW_AT_name("bitmap"), DW_AT_symbol_name("_bitmap")
   10375                      .dwattr DW$1254, DW_AT_data_member_location[DW_OP_plus_uconst 0x0]
   10376                      .dwattr DW$1254, DW_AT_accessibility(DW_ACCESS_public)
   10377                      .dwendtag DW$T$43
   10378              
   10379              
   10380              DW$T$44 .dwtag  DW_TAG_structure_type
   10381                      .dwattr DW$T$44, DW_AT_byte_size(0x01)
   10382              DW$1255 .dwtag  DW_TAG_member, DW_AT_type(*DW$T$11)
   10383                      .dwattr DW$1255, DW_AT_name("graphvalue"), DW_AT_symbol_name("_graphvalue")
   10384                      .dwattr DW$1255, DW_AT_data_member_location[DW_OP_plus_uconst 0x0]
   10385                      .dwattr DW$1255, DW_AT_accessibility(DW_ACCESS_public)
   10386                      .dwendtag DW$T$44
   10387              
   10388              
   10389              DW$T$45 .dwtag  DW_TAG_structure_type
   10390                      .dwattr DW$T$45, DW_AT_byte_size(0x01)
   10391              DW$1256 .dwtag  DW_TAG_member, DW_AT_type(*DW$T$11)
   10392                      .dwattr DW$1256, DW_AT_name("notused1"), DW_AT_symbol_name("_notused1")
   10393                      .dwattr DW$1256, DW_AT_data_member_location[DW_OP_plus_uconst 0x0]
TMS320C2000 COFF Assembler PC v4.1.3 Thu Aug 18 12:16:25 2016

Tools Copyright (c) 1996-2006 Texas Instruments Incorporated
PCModBus.asm                                                         PAGE  214

   10394                      .dwattr DW$1256, DW_AT_accessibility(DW_ACCESS_public)
   10395                      .dwendtag DW$T$45
   10396              
   10397              
   10398              DW$T$49 .dwtag  DW_TAG_structure_type
   10399                      .dwattr DW$T$49, DW_AT_name("tag_timers")
   10400                      .dwattr DW$T$49, DW_AT_byte_size(0x4c)
   10401              DW$1257 .dwtag  DW_TAG_member, DW_AT_type(*DW$T$11)
   10402                      .dwattr DW$1257, DW_AT_name("update"), DW_AT_symbol_name("_update")
   10403                      .dwattr DW$1257, DW_AT_data_member_location[DW_OP_plus_uconst 0x0]
   10404                      .dwattr DW$1257, DW_AT_accessibility(DW_ACCESS_public)
   10405              DW$1258 .dwtag  DW_TAG_member, DW_AT_type(*DW$T$11)
   10406                      .dwattr DW$1258, DW_AT_name("general"), DW_AT_symbol_name("_general")
   10407                      .dwattr DW$1258, DW_AT_data_member_location[DW_OP_plus_uconst 0x1]
   10408                      .dwattr DW$1258, DW_AT_accessibility(DW_ACCESS_public)
   10409              DW$1259 .dwtag  DW_TAG_member, DW_AT_type(*DW$T$11)
   10410                      .dwattr DW$1259, DW_AT_name("rxcharTimeout"), DW_AT_symbol_name("_rxcharTimeout")
   10411                      .dwattr DW$1259, DW_AT_data_member_location[DW_OP_plus_uconst 0x2]
   10412                      .dwattr DW$1259, DW_AT_accessibility(DW_ACCESS_public)
   10413              DW$1260 .dwtag  DW_TAG_member, DW_AT_type(*DW$T$11)
   10414                      .dwattr DW$1260, DW_AT_name("wiorxtimeout"), DW_AT_symbol_name("_wiorxtimeout")
   10415                      .dwattr DW$1260, DW_AT_data_member_location[DW_OP_plus_uconst 0x3]
   10416                      .dwattr DW$1260, DW_AT_accessibility(DW_ACCESS_public)
   10417              DW$1261 .dwtag  DW_TAG_member, DW_AT_type(*DW$T$11)
   10418                      .dwattr DW$1261, DW_AT_name("wiomasterrxtimeout"), DW_AT_symbol_name("_wiomasterrxtimeout")
   10419                      .dwattr DW$1261, DW_AT_data_member_location[DW_OP_plus_uconst 0x4]
   10420                      .dwattr DW$1261, DW_AT_accessibility(DW_ACCESS_public)
   10421              DW$1262 .dwtag  DW_TAG_member, DW_AT_type(*DW$T$11)
   10422                      .dwattr DW$1262, DW_AT_name("masterrxtimeout"), DW_AT_symbol_name("_masterrxtimeout")
   10423                      .dwattr DW$1262, DW_AT_data_member_location[DW_OP_plus_uconst 0x5]
   10424                      .dwattr DW$1262, DW_AT_accessibility(DW_ACCESS_public)
   10425              DW$1263 .dwtag  DW_TAG_member, DW_AT_type(*DW$T$11)
   10426                      .dwattr DW$1263, DW_AT_name("slaverxtimeout"), DW_AT_symbol_name("_slaverxtimeout")
   10427                      .dwattr DW$1263, DW_AT_data_member_location[DW_OP_plus_uconst 0x6]
   10428                      .dwattr DW$1263, DW_AT_accessibility(DW_ACCESS_public)
   10429              DW$1264 .dwtag  DW_TAG_member, DW_AT_type(*DW$T$11)
   10430                      .dwattr DW$1264, DW_AT_name("sectick"), DW_AT_symbol_name("_sectick")
   10431                      .dwattr DW$1264, DW_AT_data_member_location[DW_OP_plus_uconst 0x7]
   10432                      .dwattr DW$1264, DW_AT_accessibility(DW_ACCESS_public)
   10433              DW$1265 .dwtag  DW_TAG_member, DW_AT_type(*DW$T$11)
   10434                      .dwattr DW$1265, DW_AT_name("ledflash"), DW_AT_symbol_name("_ledflash")
   10435                      .dwattr DW$1265, DW_AT_data_member_location[DW_OP_plus_uconst 0x8]
   10436                      .dwattr DW$1265, DW_AT_accessibility(DW_ACCESS_public)
   10437              DW$1266 .dwtag  DW_TAG_member, DW_AT_type(*DW$T$11)
   10438                      .dwattr DW$1266, DW_AT_name("prtsettle"), DW_AT_symbol_name("_prtsettle")
   10439                      .dwattr DW$1266, DW_AT_data_member_location[DW_OP_plus_uconst 0x9]
   10440                      .dwattr DW$1266, DW_AT_accessibility(DW_ACCESS_public)
   10441              DW$1267 .dwtag  DW_TAG_member, DW_AT_type(*DW$T$48)
   10442                      .dwattr DW$1267, DW_AT_name("chantimeout"), DW_AT_symbol_name("_chantimeout")
   10443                      .dwattr DW$1267, DW_AT_data_member_location[DW_OP_plus_uconst 0xa]
   10444                      .dwattr DW$1267, DW_AT_accessibility(DW_ACCESS_public)
   10445              DW$1268 .dwtag  DW_TAG_member, DW_AT_type(*DW$T$48)
   10446                      .dwattr DW$1268, DW_AT_name("chanwait"), DW_AT_symbol_name("_chanwait")
   10447                      .dwattr DW$1268, DW_AT_data_member_location[DW_OP_plus_uconst 0x18]
   10448                      .dwattr DW$1268, DW_AT_accessibility(DW_ACCESS_public)
TMS320C2000 COFF Assembler PC v4.1.3 Thu Aug 18 12:16:25 2016

Tools Copyright (c) 1996-2006 Texas Instruments Incorporated
PCModBus.asm                                                         PAGE  215

   10449              DW$1269 .dwtag  DW_TAG_member, DW_AT_type(*DW$T$11)
   10450                      .dwattr DW$1269, DW_AT_name("pcrxtimeout"), DW_AT_symbol_name("_pcrxtimeout")
   10451                      .dwattr DW$1269, DW_AT_data_member_location[DW_OP_plus_uconst 0x26]
   10452                      .dwattr DW$1269, DW_AT_accessibility(DW_ACCESS_public)
   10453              DW$1270 .dwtag  DW_TAG_member, DW_AT_type(*DW$T$11)
   10454                      .dwattr DW$1270, DW_AT_name("pctxtimeout"), DW_AT_symbol_name("_pctxtimeout")
   10455                      .dwattr DW$1270, DW_AT_data_member_location[DW_OP_plus_uconst 0x27]
   10456                      .dwattr DW$1270, DW_AT_accessibility(DW_ACCESS_public)
   10457              DW$1271 .dwtag  DW_TAG_member, DW_AT_type(*DW$T$11)
   10458                      .dwattr DW$1271, DW_AT_name("spistatus"), DW_AT_symbol_name("_spistatus")
   10459                      .dwattr DW$1271, DW_AT_data_member_location[DW_OP_plus_uconst 0x28]
   10460                      .dwattr DW$1271, DW_AT_accessibility(DW_ACCESS_public)
   10461              DW$1272 .dwtag  DW_TAG_member, DW_AT_type(*DW$T$11)
   10462                      .dwattr DW$1272, DW_AT_name("rpm"), DW_AT_symbol_name("_rpm")
   10463                      .dwattr DW$1272, DW_AT_data_member_location[DW_OP_plus_uconst 0x29]
   10464                      .dwattr DW$1272, DW_AT_accessibility(DW_ACCESS_public)
   10465              DW$1273 .dwtag  DW_TAG_member, DW_AT_type(*DW$T$11)
   10466                      .dwattr DW$1273, DW_AT_name("slaverqst"), DW_AT_symbol_name("_slaverqst")
   10467                      .dwattr DW$1273, DW_AT_data_member_location[DW_OP_plus_uconst 0x2a]
   10468                      .dwattr DW$1273, DW_AT_accessibility(DW_ACCESS_public)
   10469              DW$1274 .dwtag  DW_TAG_member, DW_AT_type(*DW$T$11)
   10470                      .dwattr DW$1274, DW_AT_name("mastermodebutton"), DW_AT_symbol_name("_mastermodebutton")
   10471                      .dwattr DW$1274, DW_AT_data_member_location[DW_OP_plus_uconst 0x2b]
   10472                      .dwattr DW$1274, DW_AT_accessibility(DW_ACCESS_public)
   10473              DW$1275 .dwtag  DW_TAG_member, DW_AT_type(*DW$T$11)
   10474                      .dwattr DW$1275, DW_AT_name("dcmode"), DW_AT_symbol_name("_dcmode")
   10475                      .dwattr DW$1275, DW_AT_data_member_location[DW_OP_plus_uconst 0x2c]
   10476                      .dwattr DW$1275, DW_AT_accessibility(DW_ACCESS_public)
   10477              DW$1276 .dwtag  DW_TAG_member, DW_AT_type(*DW$T$13)
   10478                      .dwattr DW$1276, DW_AT_name("calibrate"), DW_AT_symbol_name("_calibrate")
   10479                      .dwattr DW$1276, DW_AT_data_member_location[DW_OP_plus_uconst 0x2e]
   10480                      .dwattr DW$1276, DW_AT_accessibility(DW_ACCESS_public)
   10481              DW$1277 .dwtag  DW_TAG_member, DW_AT_type(*DW$T$13)
   10482                      .dwattr DW$1277, DW_AT_name("calibrate2"), DW_AT_symbol_name("_calibrate2")
   10483                      .dwattr DW$1277, DW_AT_data_member_location[DW_OP_plus_uconst 0x30]
   10484                      .dwattr DW$1277, DW_AT_accessibility(DW_ACCESS_public)
   10485              DW$1278 .dwtag  DW_TAG_member, DW_AT_type(*DW$T$11)
   10486                      .dwattr DW$1278, DW_AT_name("alarmreflash"), DW_AT_symbol_name("_alarmreflash")
   10487                      .dwattr DW$1278, DW_AT_data_member_location[DW_OP_plus_uconst 0x32]
   10488                      .dwattr DW$1278, DW_AT_accessibility(DW_ACCESS_public)
   10489              DW$1279 .dwtag  DW_TAG_member, DW_AT_type(*DW$T$11)
   10490                      .dwattr DW$1279, DW_AT_name("slowdownreflash"), DW_AT_symbol_name("_slowdownreflash")
   10491                      .dwattr DW$1279, DW_AT_data_member_location[DW_OP_plus_uconst 0x33]
   10492                      .dwattr DW$1279, DW_AT_accessibility(DW_ACCESS_public)
   10493              DW$1280 .dwtag  DW_TAG_member, DW_AT_type(*DW$T$11)
   10494                      .dwattr DW$1280, DW_AT_name("wiorqst"), DW_AT_symbol_name("_wiorqst")
   10495                      .dwattr DW$1280, DW_AT_data_member_location[DW_OP_plus_uconst 0x34]
   10496                      .dwattr DW$1280, DW_AT_accessibility(DW_ACCESS_public)
   10497              DW$1281 .dwtag  DW_TAG_member, DW_AT_type(*DW$T$11)
   10498                      .dwattr DW$1281, DW_AT_name("rpmtimeout"), DW_AT_symbol_name("_rpmtimeout")
   10499                      .dwattr DW$1281, DW_AT_data_member_location[DW_OP_plus_uconst 0x35]
   10500                      .dwattr DW$1281, DW_AT_accessibility(DW_ACCESS_public)
   10501              DW$1282 .dwtag  DW_TAG_member, DW_AT_type(*DW$T$11)
   10502                      .dwattr DW$1282, DW_AT_name("analogoor"), DW_AT_symbol_name("_analogoor")
   10503                      .dwattr DW$1282, DW_AT_data_member_location[DW_OP_plus_uconst 0x36]
TMS320C2000 COFF Assembler PC v4.1.3 Thu Aug 18 12:16:25 2016

Tools Copyright (c) 1996-2006 Texas Instruments Incorporated
PCModBus.asm                                                         PAGE  216

   10504                      .dwattr DW$1282, DW_AT_accessibility(DW_ACCESS_public)
   10505              DW$1283 .dwtag  DW_TAG_member, DW_AT_type(*DW$T$11)
   10506                      .dwattr DW$1283, DW_AT_name("motioncal"), DW_AT_symbol_name("_motioncal")
   10507                      .dwattr DW$1283, DW_AT_data_member_location[DW_OP_plus_uconst 0x37]
   10508                      .dwattr DW$1283, DW_AT_accessibility(DW_ACCESS_public)
   10509              DW$1284 .dwtag  DW_TAG_member, DW_AT_type(*DW$T$11)
   10510                      .dwattr DW$1284, DW_AT_name("framcheck"), DW_AT_symbol_name("_framcheck")
   10511                      .dwattr DW$1284, DW_AT_data_member_location[DW_OP_plus_uconst 0x38]
   10512                      .dwattr DW$1284, DW_AT_accessibility(DW_ACCESS_public)
   10513              DW$1285 .dwtag  DW_TAG_member, DW_AT_type(*DW$T$11)
   10514                      .dwattr DW$1285, DW_AT_name("pcmodbus"), DW_AT_symbol_name("_pcmodbus")
   10515                      .dwattr DW$1285, DW_AT_data_member_location[DW_OP_plus_uconst 0x39]
   10516                      .dwattr DW$1285, DW_AT_accessibility(DW_ACCESS_public)
   10517              DW$1286 .dwtag  DW_TAG_member, DW_AT_type(*DW$T$11)
   10518                      .dwattr DW$1286, DW_AT_name("statusreflash"), DW_AT_symbol_name("_statusreflash")
   10519                      .dwattr DW$1286, DW_AT_data_member_location[DW_OP_plus_uconst 0x3a]
   10520                      .dwattr DW$1286, DW_AT_accessibility(DW_ACCESS_public)
   10521              DW$1287 .dwtag  DW_TAG_member, DW_AT_type(*DW$T$13)
   10522                      .dwattr DW$1287, DW_AT_name("prewarn"), DW_AT_symbol_name("_prewarn")
   10523                      .dwattr DW$1287, DW_AT_data_member_location[DW_OP_plus_uconst 0x3c]
   10524                      .dwattr DW$1287, DW_AT_accessibility(DW_ACCESS_public)
   10525              DW$1288 .dwtag  DW_TAG_member, DW_AT_type(*DW$T$11)
   10526                      .dwattr DW$1288, DW_AT_name("clocktofram"), DW_AT_symbol_name("_clocktofram")
   10527                      .dwattr DW$1288, DW_AT_data_member_location[DW_OP_plus_uconst 0x3e]
   10528                      .dwattr DW$1288, DW_AT_accessibility(DW_ACCESS_public)
   10529              DW$1289 .dwtag  DW_TAG_member, DW_AT_type(*DW$T$11)
   10530                      .dwattr DW$1289, DW_AT_name("debugrapidfast"), DW_AT_symbol_name("_debugrapidfast")
   10531                      .dwattr DW$1289, DW_AT_data_member_location[DW_OP_plus_uconst 0x3f]
   10532                      .dwattr DW$1289, DW_AT_accessibility(DW_ACCESS_public)
   10533              DW$1290 .dwtag  DW_TAG_member, DW_AT_type(*DW$T$11)
   10534                      .dwattr DW$1290, DW_AT_name("debugupdate"), DW_AT_symbol_name("_debugupdate")
   10535                      .dwattr DW$1290, DW_AT_data_member_location[DW_OP_plus_uconst 0x40]
   10536                      .dwattr DW$1290, DW_AT_accessibility(DW_ACCESS_public)
   10537              DW$1291 .dwtag  DW_TAG_member, DW_AT_type(*DW$T$11)
   10538                      .dwattr DW$1291, DW_AT_name("dircountdown"), DW_AT_symbol_name("_dircountdown")
   10539                      .dwattr DW$1291, DW_AT_data_member_location[DW_OP_plus_uconst 0x41]
   10540                      .dwattr DW$1291, DW_AT_accessibility(DW_ACCESS_public)
   10541              DW$1292 .dwtag  DW_TAG_member, DW_AT_type(*DW$T$11)
   10542                      .dwattr DW$1292, DW_AT_name("startup"), DW_AT_symbol_name("_startup")
   10543                      .dwattr DW$1292, DW_AT_data_member_location[DW_OP_plus_uconst 0x42]
   10544                      .dwattr DW$1292, DW_AT_accessibility(DW_ACCESS_public)
   10545              DW$1293 .dwtag  DW_TAG_member, DW_AT_type(*DW$T$11)
   10546                      .dwattr DW$1293, DW_AT_name("analogsettle"), DW_AT_symbol_name("_analogsettle")
   10547                      .dwattr DW$1293, DW_AT_data_member_location[DW_OP_plus_uconst 0x43]
   10548                      .dwattr DW$1293, DW_AT_accessibility(DW_ACCESS_public)
   10549              DW$1294 .dwtag  DW_TAG_member, DW_AT_type(*DW$T$11)
   10550                      .dwattr DW$1294, DW_AT_name("reprogram"), DW_AT_symbol_name("_reprogram")
   10551                      .dwattr DW$1294, DW_AT_data_member_location[DW_OP_plus_uconst 0x44]
   10552                      .dwattr DW$1294, DW_AT_accessibility(DW_ACCESS_public)
   10553              DW$1295 .dwtag  DW_TAG_member, DW_AT_type(*DW$T$11)
   10554                      .dwattr DW$1295, DW_AT_name("reprogramtimeout"), DW_AT_symbol_name("_reprogramtimeout")
   10555                      .dwattr DW$1295, DW_AT_data_member_location[DW_OP_plus_uconst 0x45]
   10556                      .dwattr DW$1295, DW_AT_accessibility(DW_ACCESS_public)
   10557              DW$1296 .dwtag  DW_TAG_member, DW_AT_type(*DW$T$11)
   10558                      .dwattr DW$1296, DW_AT_name("dcmodestayalive"), DW_AT_symbol_name("_dcmodestayalive")
TMS320C2000 COFF Assembler PC v4.1.3 Thu Aug 18 12:16:25 2016

Tools Copyright (c) 1996-2006 Texas Instruments Incorporated
PCModBus.asm                                                         PAGE  217

   10559                      .dwattr DW$1296, DW_AT_data_member_location[DW_OP_plus_uconst 0x46]
   10560                      .dwattr DW$1296, DW_AT_accessibility(DW_ACCESS_public)
   10561              DW$1297 .dwtag  DW_TAG_member, DW_AT_type(*DW$T$11)
   10562                      .dwattr DW$1297, DW_AT_name("biteventchange"), DW_AT_symbol_name("_biteventchange")
   10563                      .dwattr DW$1297, DW_AT_data_member_location[DW_OP_plus_uconst 0x47]
   10564                      .dwattr DW$1297, DW_AT_accessibility(DW_ACCESS_public)
   10565              DW$1298 .dwtag  DW_TAG_member, DW_AT_type(*DW$T$11)
   10566                      .dwattr DW$1298, DW_AT_name("iSensorReplace"), DW_AT_symbol_name("_iSensorReplace")
   10567                      .dwattr DW$1298, DW_AT_data_member_location[DW_OP_plus_uconst 0x48]
   10568                      .dwattr DW$1298, DW_AT_accessibility(DW_ACCESS_public)
   10569              DW$1299 .dwtag  DW_TAG_member, DW_AT_type(*DW$T$13)
   10570                      .dwattr DW$1299, DW_AT_name("deltarpm15Delay"), DW_AT_symbol_name("_deltarpm15Delay")
   10571                      .dwattr DW$1299, DW_AT_data_member_location[DW_OP_plus_uconst 0x4a]
   10572                      .dwattr DW$1299, DW_AT_accessibility(DW_ACCESS_public)
   10573                      .dwendtag DW$T$49
   10574              
   10575              
   10576              DW$T$50 .dwtag  DW_TAG_structure_type
   10577                      .dwattr DW$T$50, DW_AT_byte_size(0x01)
   10578              DW$1300 .dwtag  DW_TAG_member, DW_AT_type(*DW$T$11)
   10579                      .dwattr DW$1300, DW_AT_name("newval"), DW_AT_symbol_name("_newval")
   10580                      .dwattr DW$1300, DW_AT_bit_offset(0x0f), DW_AT_bit_size(0x01)
   10581                      .dwattr DW$1300, DW_AT_data_member_location[DW_OP_plus_uconst 0x0]
   10582                      .dwattr DW$1300, DW_AT_accessibility(DW_ACCESS_public)
   10583              DW$1301 .dwtag  DW_TAG_member, DW_AT_type(*DW$T$11)
   10584                      .dwattr DW$1301, DW_AT_name("calmode"), DW_AT_symbol_name("_calmode")
   10585                      .dwattr DW$1301, DW_AT_bit_offset(0x0e), DW_AT_bit_size(0x01)
   10586                      .dwattr DW$1301, DW_AT_data_member_location[DW_OP_plus_uconst 0x0]
   10587                      .dwattr DW$1301, DW_AT_accessibility(DW_ACCESS_public)
   10588              DW$1302 .dwtag  DW_TAG_member, DW_AT_type(*DW$T$11)
   10589                      .dwattr DW$1302, DW_AT_name("startcal"), DW_AT_symbol_name("_startcal")
   10590                      .dwattr DW$1302, DW_AT_bit_offset(0x0d), DW_AT_bit_size(0x01)
   10591                      .dwattr DW$1302, DW_AT_data_member_location[DW_OP_plus_uconst 0x0]
   10592                      .dwattr DW$1302, DW_AT_accessibility(DW_ACCESS_public)
   10593              DW$1303 .dwtag  DW_TAG_member, DW_AT_type(*DW$T$11)
   10594                      .dwattr DW$1303, DW_AT_name("newvalspu2"), DW_AT_symbol_name("_newvalspu2")
   10595                      .dwattr DW$1303, DW_AT_bit_offset(0x0c), DW_AT_bit_size(0x01)
   10596                      .dwattr DW$1303, DW_AT_data_member_location[DW_OP_plus_uconst 0x0]
   10597                      .dwattr DW$1303, DW_AT_accessibility(DW_ACCESS_public)
   10598              DW$1304 .dwtag  DW_TAG_member, DW_AT_type(*DW$T$11)
   10599                      .dwattr DW$1304, DW_AT_name("unused"), DW_AT_symbol_name("_unused")
   10600                      .dwattr DW$1304, DW_AT_bit_offset(0x00), DW_AT_bit_size(0x0c)
   10601                      .dwattr DW$1304, DW_AT_data_member_location[DW_OP_plus_uconst 0x0]
   10602                      .dwattr DW$1304, DW_AT_accessibility(DW_ACCESS_public)
   10603                      .dwendtag DW$T$50
   10604              
   10605              
   10606              DW$T$51 .dwtag  DW_TAG_structure_type
   10607                      .dwattr DW$T$51, DW_AT_byte_size(0x01)
   10608              DW$1305 .dwtag  DW_TAG_member, DW_AT_type(*DW$T$11)
   10609                      .dwattr DW$1305, DW_AT_name("slowdowncntrl"), DW_AT_symbol_name("_slowdowncntrl")
   10610                      .dwattr DW$1305, DW_AT_bit_offset(0x0f), DW_AT_bit_size(0x01)
   10611                      .dwattr DW$1305, DW_AT_data_member_location[DW_OP_plus_uconst 0x0]
   10612                      .dwattr DW$1305, DW_AT_accessibility(DW_ACCESS_public)
   10613              DW$1306 .dwtag  DW_TAG_member, DW_AT_type(*DW$T$11)
TMS320C2000 COFF Assembler PC v4.1.3 Thu Aug 18 12:16:25 2016

Tools Copyright (c) 1996-2006 Texas Instruments Incorporated
PCModBus.asm                                                         PAGE  218

   10614                      .dwattr DW$1306, DW_AT_name("unused"), DW_AT_symbol_name("_unused")
   10615                      .dwattr DW$1306, DW_AT_bit_offset(0x00), DW_AT_bit_size(0x0f)
   10616                      .dwattr DW$1306, DW_AT_data_member_location[DW_OP_plus_uconst 0x0]
   10617                      .dwattr DW$1306, DW_AT_accessibility(DW_ACCESS_public)
   10618                      .dwendtag DW$T$51
   10619              
   10620              
   10621              DW$T$56 .dwtag  DW_TAG_structure_type
   10622                      .dwattr DW$T$56, DW_AT_name("tag_cylinderstruct")
   10623                      .dwattr DW$T$56, DW_AT_byte_size(0x04)
   10624              DW$1307 .dwtag  DW_TAG_member, DW_AT_type(*DW$T$54)
   10625                      .dwattr DW$1307, DW_AT_name("status1"), DW_AT_symbol_name("_status1")
   10626                      .dwattr DW$1307, DW_AT_data_member_location[DW_OP_plus_uconst 0x0]
   10627                      .dwattr DW$1307, DW_AT_accessibility(DW_ACCESS_public)
   10628              DW$1308 .dwtag  DW_TAG_member, DW_AT_type(*DW$T$55)
   10629                      .dwattr DW$1308, DW_AT_name("status2"), DW_AT_symbol_name("_status2")
   10630                      .dwattr DW$1308, DW_AT_data_member_location[DW_OP_plus_uconst 0x1]
   10631                      .dwattr DW$1308, DW_AT_accessibility(DW_ACCESS_public)
   10632              DW$1309 .dwtag  DW_TAG_member, DW_AT_type(*DW$T$10)
   10633                      .dwattr DW$1309, DW_AT_name("average"), DW_AT_symbol_name("_average")
   10634                      .dwattr DW$1309, DW_AT_data_member_location[DW_OP_plus_uconst 0x2]
   10635                      .dwattr DW$1309, DW_AT_accessibility(DW_ACCESS_public)
   10636              DW$1310 .dwtag  DW_TAG_member, DW_AT_type(*DW$T$10)
   10637                      .dwattr DW$1310, DW_AT_name("deviation"), DW_AT_symbol_name("_deviation")
   10638                      .dwattr DW$1310, DW_AT_data_member_location[DW_OP_plus_uconst 0x3]
   10639                      .dwattr DW$1310, DW_AT_accessibility(DW_ACCESS_public)
   10640                      .dwendtag DW$T$56
   10641              
   10642              
   10643              DW$T$57 .dwtag  DW_TAG_structure_type
   10644                      .dwattr DW$T$57, DW_AT_byte_size(0x01)
   10645              DW$1311 .dwtag  DW_TAG_member, DW_AT_type(*DW$T$11)
   10646                      .dwattr DW$1311, DW_AT_name("inputtap"), DW_AT_symbol_name("_inputtap")
   10647                      .dwattr DW$1311, DW_AT_data_member_location[DW_OP_plus_uconst 0x0]
   10648                      .dwattr DW$1311, DW_AT_accessibility(DW_ACCESS_public)
   10649                      .dwendtag DW$T$57
   10650              
   10651              
   10652              DW$T$58 .dwtag  DW_TAG_structure_type
   10653                      .dwattr DW$T$58, DW_AT_byte_size(0x01)
   10654              DW$1312 .dwtag  DW_TAG_member, DW_AT_type(*DW$T$11)
   10655                      .dwattr DW$1312, DW_AT_name("bitmap"), DW_AT_symbol_name("_bitmap")
   10656                      .dwattr DW$1312, DW_AT_data_member_location[DW_OP_plus_uconst 0x0]
   10657                      .dwattr DW$1312, DW_AT_accessibility(DW_ACCESS_public)
   10658                      .dwendtag DW$T$58
   10659              
   10660              
   10661              DW$T$59 .dwtag  DW_TAG_structure_type
   10662                      .dwattr DW$T$59, DW_AT_byte_size(0x01)
   10663              DW$1313 .dwtag  DW_TAG_member, DW_AT_type(*DW$T$11)
   10664                      .dwattr DW$1313, DW_AT_name("graphvalue"), DW_AT_symbol_name("_graphvalue")
   10665                      .dwattr DW$1313, DW_AT_data_member_location[DW_OP_plus_uconst 0x0]
   10666                      .dwattr DW$1313, DW_AT_accessibility(DW_ACCESS_public)
   10667                      .dwendtag DW$T$59
   10668              
TMS320C2000 COFF Assembler PC v4.1.3 Thu Aug 18 12:16:25 2016

Tools Copyright (c) 1996-2006 Texas Instruments Incorporated
PCModBus.asm                                                         PAGE  219

   10669              
   10670              DW$T$60 .dwtag  DW_TAG_structure_type
   10671                      .dwattr DW$T$60, DW_AT_byte_size(0x03)
   10672              DW$1314 .dwtag  DW_TAG_member, DW_AT_type(*DW$T$11)
   10673                      .dwattr DW$1314, DW_AT_name("chanlowthreshold"), DW_AT_symbol_name("_chanlowthreshold")
   10674                      .dwattr DW$1314, DW_AT_data_member_location[DW_OP_plus_uconst 0x0]
   10675                      .dwattr DW$1314, DW_AT_accessibility(DW_ACCESS_public)
   10676              DW$1315 .dwtag  DW_TAG_member, DW_AT_type(*DW$T$11)
   10677                      .dwattr DW$1315, DW_AT_name("chanhighthreshold"), DW_AT_symbol_name("_chanhighthreshold")
   10678                      .dwattr DW$1315, DW_AT_data_member_location[DW_OP_plus_uconst 0x1]
   10679                      .dwattr DW$1315, DW_AT_accessibility(DW_ACCESS_public)
   10680              DW$1316 .dwtag  DW_TAG_member, DW_AT_type(*DW$T$11)
   10681                      .dwattr DW$1316, DW_AT_name("sensorscalingfactor"), DW_AT_symbol_name("_sensorscalingfactor")
   10682                      .dwattr DW$1316, DW_AT_data_member_location[DW_OP_plus_uconst 0x2]
   10683                      .dwattr DW$1316, DW_AT_accessibility(DW_ACCESS_public)
   10684                      .dwendtag DW$T$60
   10685              
   10686              
   10687              DW$T$61 .dwtag  DW_TAG_structure_type
   10688                      .dwattr DW$T$61, DW_AT_byte_size(0x02)
   10689              DW$1317 .dwtag  DW_TAG_member, DW_AT_type(*DW$T$11)
   10690                      .dwattr DW$1317, DW_AT_name("shortlrate"), DW_AT_symbol_name("_shortlrate")
   10691                      .dwattr DW$1317, DW_AT_data_member_location[DW_OP_plus_uconst 0x0]
   10692                      .dwattr DW$1317, DW_AT_accessibility(DW_ACCESS_public)
   10693              DW$1318 .dwtag  DW_TAG_member, DW_AT_type(*DW$T$11)
   10694                      .dwattr DW$1318, DW_AT_name("longlrate"), DW_AT_symbol_name("_longlrate")
   10695                      .dwattr DW$1318, DW_AT_data_member_location[DW_OP_plus_uconst 0x1]
   10696                      .dwattr DW$1318, DW_AT_accessibility(DW_ACCESS_public)
   10697                      .dwendtag DW$T$61
   10698              
   10699              
   10700              DW$T$62 .dwtag  DW_TAG_structure_type
   10701                      .dwattr DW$T$62, DW_AT_byte_size(0x10)
   10702              DW$1319 .dwtag  DW_TAG_member, DW_AT_type(*DW$T$13)
   10703                      .dwattr DW$1319, DW_AT_name("wiorequest"), DW_AT_symbol_name("_wiorequest")
   10704                      .dwattr DW$1319, DW_AT_data_member_location[DW_OP_plus_uconst 0x0]
   10705                      .dwattr DW$1319, DW_AT_accessibility(DW_ACCESS_public)
   10706              DW$1320 .dwtag  DW_TAG_member, DW_AT_type(*DW$T$13)
   10707                      .dwattr DW$1320, DW_AT_name("wiocancelled"), DW_AT_symbol_name("_wiocancelled")
   10708                      .dwattr DW$1320, DW_AT_data_member_location[DW_OP_plus_uconst 0x2]
   10709                      .dwattr DW$1320, DW_AT_accessibility(DW_ACCESS_public)
   10710              DW$1321 .dwtag  DW_TAG_member, DW_AT_type(*DW$T$13)
   10711                      .dwattr DW$1321, DW_AT_name("wioreceived"), DW_AT_symbol_name("_wioreceived")
   10712                      .dwattr DW$1321, DW_AT_data_member_location[DW_OP_plus_uconst 0x4]
   10713                      .dwattr DW$1321, DW_AT_accessibility(DW_ACCESS_public)
   10714              DW$1322 .dwtag  DW_TAG_member, DW_AT_type(*DW$T$13)
   10715                      .dwattr DW$1322, DW_AT_name("slaverequest"), DW_AT_symbol_name("_slaverequest")
   10716                      .dwattr DW$1322, DW_AT_data_member_location[DW_OP_plus_uconst 0x6]
   10717                      .dwattr DW$1322, DW_AT_accessibility(DW_ACCESS_public)
   10718              DW$1323 .dwtag  DW_TAG_member, DW_AT_type(*DW$T$13)
   10719                      .dwattr DW$1323, DW_AT_name("slavereceived"), DW_AT_symbol_name("_slavereceived")
   10720                      .dwattr DW$1323, DW_AT_data_member_location[DW_OP_plus_uconst 0x8]
   10721                      .dwattr DW$1323, DW_AT_accessibility(DW_ACCESS_public)
   10722              DW$1324 .dwtag  DW_TAG_member, DW_AT_type(*DW$T$13)
   10723                      .dwattr DW$1324, DW_AT_name("slaveretry"), DW_AT_symbol_name("_slaveretry")
TMS320C2000 COFF Assembler PC v4.1.3 Thu Aug 18 12:16:25 2016

Tools Copyright (c) 1996-2006 Texas Instruments Incorporated
PCModBus.asm                                                         PAGE  220

   10724                      .dwattr DW$1324, DW_AT_data_member_location[DW_OP_plus_uconst 0xa]
   10725                      .dwattr DW$1324, DW_AT_accessibility(DW_ACCESS_public)
   10726              DW$1325 .dwtag  DW_TAG_member, DW_AT_type(*DW$T$13)
   10727                      .dwattr DW$1325, DW_AT_name("pcrequest"), DW_AT_symbol_name("_pcrequest")
   10728                      .dwattr DW$1325, DW_AT_data_member_location[DW_OP_plus_uconst 0xc]
   10729                      .dwattr DW$1325, DW_AT_accessibility(DW_ACCESS_public)
   10730              DW$1326 .dwtag  DW_TAG_member, DW_AT_type(*DW$T$13)
   10731                      .dwattr DW$1326, DW_AT_name("pcreqtimeout"), DW_AT_symbol_name("_pcreqtimeout")
   10732                      .dwattr DW$1326, DW_AT_data_member_location[DW_OP_plus_uconst 0xe]
   10733                      .dwattr DW$1326, DW_AT_accessibility(DW_ACCESS_public)
   10734                      .dwendtag DW$T$62
   10735              
   10736              
   10737              DW$T$76 .dwtag  DW_TAG_structure_type
   10738                      .dwattr DW$T$76, DW_AT_name("tag_sensorstruct")
   10739                      .dwattr DW$T$76, DW_AT_byte_size(0x12)
   10740              DW$1327 .dwtag  DW_TAG_member, DW_AT_type(*DW$T$74)
   10741                      .dwattr DW$1327, DW_AT_name("status1"), DW_AT_symbol_name("_status1")
   10742                      .dwattr DW$1327, DW_AT_data_member_location[DW_OP_plus_uconst 0x0]
   10743                      .dwattr DW$1327, DW_AT_accessibility(DW_ACCESS_public)
   10744              DW$1328 .dwtag  DW_TAG_member, DW_AT_type(*DW$T$75)
   10745                      .dwattr DW$1328, DW_AT_name("status2"), DW_AT_symbol_name("_status2")
   10746                      .dwattr DW$1328, DW_AT_data_member_location[DW_OP_plus_uconst 0x1]
   10747                      .dwattr DW$1328, DW_AT_accessibility(DW_ACCESS_public)
   10748              DW$1329 .dwtag  DW_TAG_member, DW_AT_type(*DW$T$11)
   10749                      .dwattr DW$1329, DW_AT_name("newval"), DW_AT_symbol_name("_newval")
   10750                      .dwattr DW$1329, DW_AT_data_member_location[DW_OP_plus_uconst 0x2]
   10751                      .dwattr DW$1329, DW_AT_accessibility(DW_ACCESS_public)
   10752              DW$1330 .dwtag  DW_TAG_member, DW_AT_type(*DW$T$10)
   10753                      .dwattr DW$1330, DW_AT_name("val"), DW_AT_symbol_name("_val")
   10754                      .dwattr DW$1330, DW_AT_data_member_location[DW_OP_plus_uconst 0x3]
   10755                      .dwattr DW$1330, DW_AT_accessibility(DW_ACCESS_public)
   10756              DW$1331 .dwtag  DW_TAG_member, DW_AT_type(*DW$T$10)
   10757                      .dwattr DW$1331, DW_AT_name("immediateval"), DW_AT_symbol_name("_immediateval")
   10758                      .dwattr DW$1331, DW_AT_data_member_location[DW_OP_plus_uconst 0x4]
   10759                      .dwattr DW$1331, DW_AT_accessibility(DW_ACCESS_public)
   10760              DW$1332 .dwtag  DW_TAG_member, DW_AT_type(*DW$T$10)
   10761                      .dwattr DW$1332, DW_AT_name("initialval"), DW_AT_symbol_name("_initialval")
   10762                      .dwattr DW$1332, DW_AT_data_member_location[DW_OP_plus_uconst 0x5]
   10763                      .dwattr DW$1332, DW_AT_accessibility(DW_ACCESS_public)
   10764              DW$1333 .dwtag  DW_TAG_member, DW_AT_type(*DW$T$10)
   10765                      .dwattr DW$1333, DW_AT_name("precomp"), DW_AT_symbol_name("_precomp")
   10766                      .dwattr DW$1333, DW_AT_data_member_location[DW_OP_plus_uconst 0x6]
   10767                      .dwattr DW$1333, DW_AT_accessibility(DW_ACCESS_public)
   10768              DW$1334 .dwtag  DW_TAG_member, DW_AT_type(*DW$T$10)
   10769                      .dwattr DW$1334, DW_AT_name("postcomp"), DW_AT_symbol_name("_postcomp")
   10770                      .dwattr DW$1334, DW_AT_data_member_location[DW_OP_plus_uconst 0x7]
   10771                      .dwattr DW$1334, DW_AT_accessibility(DW_ACCESS_public)
   10772              DW$1335 .dwtag  DW_TAG_member, DW_AT_type(*DW$T$16)
   10773                      .dwattr DW$1335, DW_AT_name("postfilter"), DW_AT_symbol_name("_postfilter")
   10774                      .dwattr DW$1335, DW_AT_data_member_location[DW_OP_plus_uconst 0x8]
   10775                      .dwattr DW$1335, DW_AT_accessibility(DW_ACCESS_public)
   10776              DW$1336 .dwtag  DW_TAG_member, DW_AT_type(*DW$T$10)
   10777                      .dwattr DW$1336, DW_AT_name("endresult"), DW_AT_symbol_name("_endresult")
   10778                      .dwattr DW$1336, DW_AT_data_member_location[DW_OP_plus_uconst 0xa]
TMS320C2000 COFF Assembler PC v4.1.3 Thu Aug 18 12:16:25 2016

Tools Copyright (c) 1996-2006 Texas Instruments Incorporated
PCModBus.asm                                                         PAGE  221

   10779                      .dwattr DW$1336, DW_AT_accessibility(DW_ACCESS_public)
   10780              DW$1337 .dwtag  DW_TAG_member, DW_AT_type(*DW$T$10)
   10781                      .dwattr DW$1337, DW_AT_name("deviation"), DW_AT_symbol_name("_deviation")
   10782                      .dwattr DW$1337, DW_AT_data_member_location[DW_OP_plus_uconst 0xb]
   10783                      .dwattr DW$1337, DW_AT_accessibility(DW_ACCESS_public)
   10784              DW$1338 .dwtag  DW_TAG_member, DW_AT_type(*DW$T$10)
   10785                      .dwattr DW$1338, DW_AT_name("min"), DW_AT_symbol_name("_min")
   10786                      .dwattr DW$1338, DW_AT_data_member_location[DW_OP_plus_uconst 0xc]
   10787                      .dwattr DW$1338, DW_AT_accessibility(DW_ACCESS_public)
   10788              DW$1339 .dwtag  DW_TAG_member, DW_AT_type(*DW$T$10)
   10789                      .dwattr DW$1339, DW_AT_name("max"), DW_AT_symbol_name("_max")
   10790                      .dwattr DW$1339, DW_AT_data_member_location[DW_OP_plus_uconst 0xd]
   10791                      .dwattr DW$1339, DW_AT_accessibility(DW_ACCESS_public)
   10792              DW$1340 .dwtag  DW_TAG_member, DW_AT_type(*DW$T$10)
   10793                      .dwattr DW$1340, DW_AT_name("devmin"), DW_AT_symbol_name("_devmin")
   10794                      .dwattr DW$1340, DW_AT_data_member_location[DW_OP_plus_uconst 0xe]
   10795                      .dwattr DW$1340, DW_AT_accessibility(DW_ACCESS_public)
   10796              DW$1341 .dwtag  DW_TAG_member, DW_AT_type(*DW$T$10)
   10797                      .dwattr DW$1341, DW_AT_name("devmax"), DW_AT_symbol_name("_devmax")
   10798                      .dwattr DW$1341, DW_AT_data_member_location[DW_OP_plus_uconst 0xf]
   10799                      .dwattr DW$1341, DW_AT_accessibility(DW_ACCESS_public)
   10800              DW$1342 .dwtag  DW_TAG_member, DW_AT_type(*DW$T$11)
   10801                      .dwattr DW$1342, DW_AT_name("rpm"), DW_AT_symbol_name("_rpm")
   10802                      .dwattr DW$1342, DW_AT_data_member_location[DW_OP_plus_uconst 0x10]
   10803                      .dwattr DW$1342, DW_AT_accessibility(DW_ACCESS_public)
   10804              DW$1343 .dwtag  DW_TAG_member, DW_AT_type(*DW$T$10)
   10805                      .dwattr DW$1343, DW_AT_name("prt"), DW_AT_symbol_name("_prt")
   10806                      .dwattr DW$1343, DW_AT_data_member_location[DW_OP_plus_uconst 0x11]
   10807                      .dwattr DW$1343, DW_AT_accessibility(DW_ACCESS_public)
   10808                      .dwendtag DW$T$76
   10809              
   10810              
   10811              DW$T$77 .dwtag  DW_TAG_structure_type
   10812                      .dwattr DW$T$77, DW_AT_byte_size(0x08)
   10813              DW$1344 .dwtag  DW_TAG_member, DW_AT_type(*DW$T$11)
   10814                      .dwattr DW$1344, DW_AT_name("applyoffset"), DW_AT_symbol_name("_applyoffset")
   10815                      .dwattr DW$1344, DW_AT_data_member_location[DW_OP_plus_uconst 0x0]
   10816                      .dwattr DW$1344, DW_AT_accessibility(DW_ACCESS_public)
   10817              DW$1345 .dwtag  DW_TAG_member, DW_AT_type(*DW$T$11)
   10818                      .dwattr DW$1345, DW_AT_name("sensorcompensation"), DW_AT_symbol_name("_sensorcompensation")
   10819                      .dwattr DW$1345, DW_AT_data_member_location[DW_OP_plus_uconst 0x1]
   10820                      .dwattr DW$1345, DW_AT_accessibility(DW_ACCESS_public)
   10821              DW$1346 .dwtag  DW_TAG_member, DW_AT_type(*DW$T$11)
   10822                      .dwattr DW$1346, DW_AT_name("sensornoiseremoval"), DW_AT_symbol_name("_sensornoiseremoval")
   10823                      .dwattr DW$1346, DW_AT_data_member_location[DW_OP_plus_uconst 0x2]
   10824                      .dwattr DW$1346, DW_AT_accessibility(DW_ACCESS_public)
   10825              DW$1347 .dwtag  DW_TAG_member, DW_AT_type(*DW$T$11)
   10826                      .dwattr DW$1347, DW_AT_name("sensordeviation"), DW_AT_symbol_name("_sensordeviation")
   10827                      .dwattr DW$1347, DW_AT_data_member_location[DW_OP_plus_uconst 0x3]
   10828                      .dwattr DW$1347, DW_AT_accessibility(DW_ACCESS_public)
   10829              DW$1348 .dwtag  DW_TAG_member, DW_AT_type(*DW$T$11)
   10830                      .dwattr DW$1348, DW_AT_name("cylinderaverage"), DW_AT_symbol_name("_cylinderaverage")
   10831                      .dwattr DW$1348, DW_AT_data_member_location[DW_OP_plus_uconst 0x4]
   10832                      .dwattr DW$1348, DW_AT_accessibility(DW_ACCESS_public)
   10833              DW$1349 .dwtag  DW_TAG_member, DW_AT_type(*DW$T$11)
TMS320C2000 COFF Assembler PC v4.1.3 Thu Aug 18 12:16:25 2016

Tools Copyright (c) 1996-2006 Texas Instruments Incorporated
PCModBus.asm                                                         PAGE  222

   10834                      .dwattr DW$1349, DW_AT_name("cylinderdeviation"), DW_AT_symbol_name("_cylinderdeviation")
   10835                      .dwattr DW$1349, DW_AT_data_member_location[DW_OP_plus_uconst 0x5]
   10836                      .dwattr DW$1349, DW_AT_accessibility(DW_ACCESS_public)
   10837              DW$1350 .dwtag  DW_TAG_member, DW_AT_type(*DW$T$11)
   10838                      .dwattr DW$1350, DW_AT_name("useroughcal"), DW_AT_symbol_name("_useroughcal")
   10839                      .dwattr DW$1350, DW_AT_data_member_location[DW_OP_plus_uconst 0x6]
   10840                      .dwattr DW$1350, DW_AT_accessibility(DW_ACCESS_public)
   10841              DW$1351 .dwtag  DW_TAG_member, DW_AT_type(*DW$T$11)
   10842                      .dwattr DW$1351, DW_AT_name("vincheckenabled"), DW_AT_symbol_name("_vincheckenabled")
   10843                      .dwattr DW$1351, DW_AT_data_member_location[DW_OP_plus_uconst 0x7]
   10844                      .dwattr DW$1351, DW_AT_accessibility(DW_ACCESS_public)
   10845                      .dwendtag DW$T$77
   10846              
   10847              
   10848              DW$T$79 .dwtag  DW_TAG_structure_type
   10849                      .dwattr DW$T$79, DW_AT_name("tag_manrefstruct")
   10850                      .dwattr DW$T$79, DW_AT_byte_size(0x0a)
   10851              DW$1352 .dwtag  DW_TAG_member, DW_AT_type(*DW$T$16)
   10852                      .dwattr DW$1352, DW_AT_name("reflevel"), DW_AT_symbol_name("_reflevel")
   10853                      .dwattr DW$1352, DW_AT_data_member_location[DW_OP_plus_uconst 0x0]
   10854                      .dwattr DW$1352, DW_AT_accessibility(DW_ACCESS_public)
   10855              DW$1353 .dwtag  DW_TAG_member, DW_AT_type(*DW$T$16)
   10856                      .dwattr DW$1353, DW_AT_name("presentstate"), DW_AT_symbol_name("_presentstate")
   10857                      .dwattr DW$1353, DW_AT_data_member_location[DW_OP_plus_uconst 0x2]
   10858                      .dwattr DW$1353, DW_AT_accessibility(DW_ACCESS_public)
   10859              DW$1354 .dwtag  DW_TAG_member, DW_AT_type(*DW$T$16)
   10860                      .dwattr DW$1354, DW_AT_name("refvalue"), DW_AT_symbol_name("_refvalue")
   10861                      .dwattr DW$1354, DW_AT_data_member_location[DW_OP_plus_uconst 0x4]
   10862                      .dwattr DW$1354, DW_AT_accessibility(DW_ACCESS_public)
   10863              DW$1355 .dwtag  DW_TAG_member, DW_AT_type(*DW$T$10)
   10864                      .dwattr DW$1355, DW_AT_name("reflevel_int"), DW_AT_symbol_name("_reflevel_int")
   10865                      .dwattr DW$1355, DW_AT_data_member_location[DW_OP_plus_uconst 0x6]
   10866                      .dwattr DW$1355, DW_AT_accessibility(DW_ACCESS_public)
   10867              DW$1356 .dwtag  DW_TAG_member, DW_AT_type(*DW$T$10)
   10868                      .dwattr DW$1356, DW_AT_name("presentstate_int"), DW_AT_symbol_name("_presentstate_int")
   10869                      .dwattr DW$1356, DW_AT_data_member_location[DW_OP_plus_uconst 0x7]
   10870                      .dwattr DW$1356, DW_AT_accessibility(DW_ACCESS_public)
   10871              DW$1357 .dwtag  DW_TAG_member, DW_AT_type(*DW$T$10)
   10872                      .dwattr DW$1357, DW_AT_name("refvalue_int"), DW_AT_symbol_name("_refvalue_int")
   10873                      .dwattr DW$1357, DW_AT_data_member_location[DW_OP_plus_uconst 0x8]
   10874                      .dwattr DW$1357, DW_AT_accessibility(DW_ACCESS_public)
   10875                      .dwendtag DW$T$79
   10876              
   10877              
   10878              DW$T$80 .dwtag  DW_TAG_structure_type
   10879                      .dwattr DW$T$80, DW_AT_name("tag_manrefsumstruct")
   10880                      .dwattr DW$T$80, DW_AT_byte_size(0x02)
   10881              DW$1358 .dwtag  DW_TAG_member, DW_AT_type(*DW$T$10)
   10882                      .dwattr DW$1358, DW_AT_name("cylsum"), DW_AT_symbol_name("_cylsum")
   10883                      .dwattr DW$1358, DW_AT_data_member_location[DW_OP_plus_uconst 0x0]
   10884                      .dwattr DW$1358, DW_AT_accessibility(DW_ACCESS_public)
   10885              DW$1359 .dwtag  DW_TAG_member, DW_AT_type(*DW$T$10)
   10886                      .dwattr DW$1359, DW_AT_name("mbnsum"), DW_AT_symbol_name("_mbnsum")
   10887                      .dwattr DW$1359, DW_AT_data_member_location[DW_OP_plus_uconst 0x1]
   10888                      .dwattr DW$1359, DW_AT_accessibility(DW_ACCESS_public)
TMS320C2000 COFF Assembler PC v4.1.3 Thu Aug 18 12:16:25 2016

Tools Copyright (c) 1996-2006 Texas Instruments Incorporated
PCModBus.asm                                                         PAGE  223

   10889                      .dwendtag DW$T$80
   10890              
   10891              DW$T$95 .dwtag  DW_TAG_pointer_type, DW_AT_type(*DW$T$94)
   10892                      .dwattr DW$T$95, DW_AT_address_class(0x16)
   10893              
   10894              DW$T$97 .dwtag  DW_TAG_array_type, DW_AT_type(*DW$T$96)
   10895                      .dwattr DW$T$97, DW_AT_language(DW_LANG_C)
   10896                      .dwattr DW$T$97, DW_AT_byte_size(0x12c)
   10897              DW$1360 .dwtag  DW_TAG_subrange_type
   10898                      .dwattr DW$1360, DW_AT_upper_bound(0x12b)
   10899                      .dwendtag DW$T$97
   10900              
   10901              
   10902              DW$T$100        .dwtag  DW_TAG_structure_type
   10903                      .dwattr DW$T$100, DW_AT_byte_size(0x01)
   10904              DW$1361 .dwtag  DW_TAG_member, DW_AT_type(*DW$T$10)
   10905                      .dwattr DW$1361, DW_AT_name("settings"), DW_AT_symbol_name("_settings")
   10906                      .dwattr DW$1361, DW_AT_bit_offset(0x0f), DW_AT_bit_size(0x01)
   10907                      .dwattr DW$1361, DW_AT_data_member_location[DW_OP_plus_uconst 0x0]
   10908                      .dwattr DW$1361, DW_AT_accessibility(DW_ACCESS_public)
   10909              DW$1362 .dwtag  DW_TAG_member, DW_AT_type(*DW$T$10)
   10910                      .dwattr DW$1362, DW_AT_name("sensorstatus"), DW_AT_symbol_name("_sensorstatus")
   10911                      .dwattr DW$1362, DW_AT_bit_offset(0x0e), DW_AT_bit_size(0x01)
   10912                      .dwattr DW$1362, DW_AT_data_member_location[DW_OP_plus_uconst 0x0]
   10913                      .dwattr DW$1362, DW_AT_accessibility(DW_ACCESS_public)
   10914              DW$1363 .dwtag  DW_TAG_member, DW_AT_type(*DW$T$10)
   10915                      .dwattr DW$1363, DW_AT_name("offsets"), DW_AT_symbol_name("_offsets")
   10916                      .dwattr DW$1363, DW_AT_bit_offset(0x0d), DW_AT_bit_size(0x01)
   10917                      .dwattr DW$1363, DW_AT_data_member_location[DW_OP_plus_uconst 0x0]
   10918                      .dwattr DW$1363, DW_AT_accessibility(DW_ACCESS_public)
   10919              DW$1364 .dwtag  DW_TAG_member, DW_AT_type(*DW$T$10)
   10920                      .dwattr DW$1364, DW_AT_name("mantable"), DW_AT_symbol_name("_mantable")
   10921                      .dwattr DW$1364, DW_AT_bit_offset(0x0c), DW_AT_bit_size(0x01)
   10922                      .dwattr DW$1364, DW_AT_data_member_location[DW_OP_plus_uconst 0x0]
   10923                      .dwattr DW$1364, DW_AT_accessibility(DW_ACCESS_public)
   10924              DW$1365 .dwtag  DW_TAG_member, DW_AT_type(*DW$T$10)
   10925                      .dwattr DW$1365, DW_AT_name("calibtd"), DW_AT_symbol_name("_calibtd")
   10926                      .dwattr DW$1365, DW_AT_bit_offset(0x0b), DW_AT_bit_size(0x01)
   10927                      .dwattr DW$1365, DW_AT_data_member_location[DW_OP_plus_uconst 0x0]
   10928                      .dwattr DW$1365, DW_AT_accessibility(DW_ACCESS_public)
   10929              DW$1366 .dwtag  DW_TAG_member, DW_AT_type(*DW$T$10)
   10930                      .dwattr DW$1366, DW_AT_name("unused6"), DW_AT_symbol_name("_unused6")
   10931                      .dwattr DW$1366, DW_AT_bit_offset(0x0a), DW_AT_bit_size(0x01)
   10932                      .dwattr DW$1366, DW_AT_data_member_location[DW_OP_plus_uconst 0x0]
   10933                      .dwattr DW$1366, DW_AT_accessibility(DW_ACCESS_public)
   10934              DW$1367 .dwtag  DW_TAG_member, DW_AT_type(*DW$T$10)
   10935                      .dwattr DW$1367, DW_AT_name("unused7"), DW_AT_symbol_name("_unused7")
   10936                      .dwattr DW$1367, DW_AT_bit_offset(0x09), DW_AT_bit_size(0x01)
   10937                      .dwattr DW$1367, DW_AT_data_member_location[DW_OP_plus_uconst 0x0]
   10938                      .dwattr DW$1367, DW_AT_accessibility(DW_ACCESS_public)
   10939              DW$1368 .dwtag  DW_TAG_member, DW_AT_type(*DW$T$10)
   10940                      .dwattr DW$1368, DW_AT_name("unused8"), DW_AT_symbol_name("_unused8")
   10941                      .dwattr DW$1368, DW_AT_bit_offset(0x08), DW_AT_bit_size(0x01)
   10942                      .dwattr DW$1368, DW_AT_data_member_location[DW_OP_plus_uconst 0x0]
   10943                      .dwattr DW$1368, DW_AT_accessibility(DW_ACCESS_public)
TMS320C2000 COFF Assembler PC v4.1.3 Thu Aug 18 12:16:25 2016

Tools Copyright (c) 1996-2006 Texas Instruments Incorporated
PCModBus.asm                                                         PAGE  224

   10944              DW$1369 .dwtag  DW_TAG_member, DW_AT_type(*DW$T$10)
   10945                      .dwattr DW$1369, DW_AT_name("unused9"), DW_AT_symbol_name("_unused9")
   10946                      .dwattr DW$1369, DW_AT_bit_offset(0x07), DW_AT_bit_size(0x01)
   10947                      .dwattr DW$1369, DW_AT_data_member_location[DW_OP_plus_uconst 0x0]
   10948                      .dwattr DW$1369, DW_AT_accessibility(DW_ACCESS_public)
   10949              DW$1370 .dwtag  DW_TAG_member, DW_AT_type(*DW$T$10)
   10950                      .dwattr DW$1370, DW_AT_name("unused10"), DW_AT_symbol_name("_unused10")
   10951                      .dwattr DW$1370, DW_AT_bit_offset(0x06), DW_AT_bit_size(0x01)
   10952                      .dwattr DW$1370, DW_AT_data_member_location[DW_OP_plus_uconst 0x0]
   10953                      .dwattr DW$1370, DW_AT_accessibility(DW_ACCESS_public)
   10954              DW$1371 .dwtag  DW_TAG_member, DW_AT_type(*DW$T$10)
   10955                      .dwattr DW$1371, DW_AT_name("unused11"), DW_AT_symbol_name("_unused11")
   10956                      .dwattr DW$1371, DW_AT_bit_offset(0x05), DW_AT_bit_size(0x01)
   10957                      .dwattr DW$1371, DW_AT_data_member_location[DW_OP_plus_uconst 0x0]
   10958                      .dwattr DW$1371, DW_AT_accessibility(DW_ACCESS_public)
   10959              DW$1372 .dwtag  DW_TAG_member, DW_AT_type(*DW$T$10)
   10960                      .dwattr DW$1372, DW_AT_name("unused12"), DW_AT_symbol_name("_unused12")
   10961                      .dwattr DW$1372, DW_AT_bit_offset(0x04), DW_AT_bit_size(0x01)
   10962                      .dwattr DW$1372, DW_AT_data_member_location[DW_OP_plus_uconst 0x0]
   10963                      .dwattr DW$1372, DW_AT_accessibility(DW_ACCESS_public)
   10964              DW$1373 .dwtag  DW_TAG_member, DW_AT_type(*DW$T$10)
   10965                      .dwattr DW$1373, DW_AT_name("unused13"), DW_AT_symbol_name("_unused13")
   10966                      .dwattr DW$1373, DW_AT_bit_offset(0x03), DW_AT_bit_size(0x01)
   10967                      .dwattr DW$1373, DW_AT_data_member_location[DW_OP_plus_uconst 0x0]
   10968                      .dwattr DW$1373, DW_AT_accessibility(DW_ACCESS_public)
   10969              DW$1374 .dwtag  DW_TAG_member, DW_AT_type(*DW$T$10)
   10970                      .dwattr DW$1374, DW_AT_name("unused14"), DW_AT_symbol_name("_unused14")
   10971                      .dwattr DW$1374, DW_AT_bit_offset(0x02), DW_AT_bit_size(0x01)
   10972                      .dwattr DW$1374, DW_AT_data_member_location[DW_OP_plus_uconst 0x0]
   10973                      .dwattr DW$1374, DW_AT_accessibility(DW_ACCESS_public)
   10974              DW$1375 .dwtag  DW_TAG_member, DW_AT_type(*DW$T$10)
   10975                      .dwattr DW$1375, DW_AT_name("unused15"), DW_AT_symbol_name("_unused15")
   10976                      .dwattr DW$1375, DW_AT_bit_offset(0x01), DW_AT_bit_size(0x01)
   10977                      .dwattr DW$1375, DW_AT_data_member_location[DW_OP_plus_uconst 0x0]
   10978                      .dwattr DW$1375, DW_AT_accessibility(DW_ACCESS_public)
   10979              DW$1376 .dwtag  DW_TAG_member, DW_AT_type(*DW$T$10)
   10980                      .dwattr DW$1376, DW_AT_name("unused16"), DW_AT_symbol_name("_unused16")
   10981                      .dwattr DW$1376, DW_AT_bit_offset(0x00), DW_AT_bit_size(0x01)
   10982                      .dwattr DW$1376, DW_AT_data_member_location[DW_OP_plus_uconst 0x0]
   10983                      .dwattr DW$1376, DW_AT_accessibility(DW_ACCESS_public)
   10984                      .dwendtag DW$T$100
   10985              
   10986              DW$T$103        .dwtag  DW_TAG_typedef, DW_AT_name("wioalarmstruct"), DW_AT_type(*DW$T$102)
   10987                      .dwattr DW$T$103, DW_AT_language(DW_LANG_C)
   10988              
   10989              DW$T$107        .dwtag  DW_TAG_structure_type
   10990                      .dwattr DW$T$107, DW_AT_byte_size(0x01)
   10991              DW$1377 .dwtag  DW_TAG_member, DW_AT_type(*DW$T$11)
   10992                      .dwattr DW$1377, DW_AT_name("oor"), DW_AT_symbol_name("_oor")
   10993                      .dwattr DW$1377, DW_AT_bit_offset(0x0f), DW_AT_bit_size(0x01)
   10994                      .dwattr DW$1377, DW_AT_data_member_location[DW_OP_plus_uconst 0x0]
   10995                      .dwattr DW$1377, DW_AT_accessibility(DW_ACCESS_public)
   10996              DW$1378 .dwtag  DW_TAG_member, DW_AT_type(*DW$T$11)
   10997                      .dwattr DW$1378, DW_AT_name("alarm"), DW_AT_symbol_name("_alarm")
   10998                      .dwattr DW$1378, DW_AT_bit_offset(0x0e), DW_AT_bit_size(0x01)
TMS320C2000 COFF Assembler PC v4.1.3 Thu Aug 18 12:16:25 2016

Tools Copyright (c) 1996-2006 Texas Instruments Incorporated
PCModBus.asm                                                         PAGE  225

   10999                      .dwattr DW$1378, DW_AT_data_member_location[DW_OP_plus_uconst 0x0]
   11000                      .dwattr DW$1378, DW_AT_accessibility(DW_ACCESS_public)
   11001              DW$1379 .dwtag  DW_TAG_member, DW_AT_type(*DW$T$11)
   11002                      .dwattr DW$1379, DW_AT_name("unused"), DW_AT_symbol_name("_unused")
   11003                      .dwattr DW$1379, DW_AT_bit_offset(0x00), DW_AT_bit_size(0x0e)
   11004                      .dwattr DW$1379, DW_AT_data_member_location[DW_OP_plus_uconst 0x0]
   11005                      .dwattr DW$1379, DW_AT_accessibility(DW_ACCESS_public)
   11006                      .dwendtag DW$T$107
   11007              
   11008              
   11009              DW$T$109        .dwtag  DW_TAG_structure_type
   11010                      .dwattr DW$T$109, DW_AT_byte_size(0x01)
   11011              DW$1380 .dwtag  DW_TAG_member, DW_AT_type(*DW$T$11)
   11012                      .dwattr DW$1380, DW_AT_name("low"), DW_AT_symbol_name("_low")
   11013                      .dwattr DW$1380, DW_AT_data_member_location[DW_OP_plus_uconst 0x0]
   11014                      .dwattr DW$1380, DW_AT_accessibility(DW_ACCESS_public)
   11015                      .dwendtag DW$T$109
   11016              
   11017              
   11018              DW$T$24 .dwtag  DW_TAG_union_type
   11019                      .dwattr DW$T$24, DW_AT_byte_size(0x01)
   11020              DW$1381 .dwtag  DW_TAG_member, DW_AT_type(*DW$T$11)
   11021                      .dwattr DW$1381, DW_AT_name("port"), DW_AT_symbol_name("_port")
   11022                      .dwattr DW$1381, DW_AT_data_member_location[DW_OP_plus_uconst 0x0]
   11023                      .dwattr DW$1381, DW_AT_accessibility(DW_ACCESS_public)
   11024              DW$1382 .dwtag  DW_TAG_member, DW_AT_type(*DW$T$23)
   11025                      .dwattr DW$1382, DW_AT_name("bits"), DW_AT_symbol_name("_bits")
   11026                      .dwattr DW$1382, DW_AT_data_member_location[DW_OP_plus_uconst 0x0]
   11027                      .dwattr DW$1382, DW_AT_accessibility(DW_ACCESS_public)
   11028                      .dwendtag DW$T$24
   11029              
   11030              
   11031              DW$T$54 .dwtag  DW_TAG_structure_type
   11032                      .dwattr DW$T$54, DW_AT_byte_size(0x01)
   11033              DW$1383 .dwtag  DW_TAG_member, DW_AT_type(*DW$T$11)
   11034                      .dwattr DW$1383, DW_AT_name("alarmack"), DW_AT_symbol_name("_alarmack")
   11035                      .dwattr DW$1383, DW_AT_bit_offset(0x0f), DW_AT_bit_size(0x01)
   11036                      .dwattr DW$1383, DW_AT_data_member_location[DW_OP_plus_uconst 0x0]
   11037                      .dwattr DW$1383, DW_AT_accessibility(DW_ACCESS_public)
   11038              DW$1384 .dwtag  DW_TAG_member, DW_AT_type(*DW$T$11)
   11039                      .dwattr DW$1384, DW_AT_name("unused2"), DW_AT_symbol_name("_unused2")
   11040                      .dwattr DW$1384, DW_AT_bit_offset(0x0e), DW_AT_bit_size(0x01)
   11041                      .dwattr DW$1384, DW_AT_data_member_location[DW_OP_plus_uconst 0x0]
   11042                      .dwattr DW$1384, DW_AT_accessibility(DW_ACCESS_public)
   11043              DW$1385 .dwtag  DW_TAG_member, DW_AT_type(*DW$T$11)
   11044                      .dwattr DW$1385, DW_AT_name("unused3"), DW_AT_symbol_name("_unused3")
   11045                      .dwattr DW$1385, DW_AT_bit_offset(0x0d), DW_AT_bit_size(0x01)
   11046                      .dwattr DW$1385, DW_AT_data_member_location[DW_OP_plus_uconst 0x0]
   11047                      .dwattr DW$1385, DW_AT_accessibility(DW_ACCESS_public)
   11048              DW$1386 .dwtag  DW_TAG_member, DW_AT_type(*DW$T$11)
   11049                      .dwattr DW$1386, DW_AT_name("unused4"), DW_AT_symbol_name("_unused4")
   11050                      .dwattr DW$1386, DW_AT_bit_offset(0x0c), DW_AT_bit_size(0x01)
   11051                      .dwattr DW$1386, DW_AT_data_member_location[DW_OP_plus_uconst 0x0]
   11052                      .dwattr DW$1386, DW_AT_accessibility(DW_ACCESS_public)
   11053              DW$1387 .dwtag  DW_TAG_member, DW_AT_type(*DW$T$11)
TMS320C2000 COFF Assembler PC v4.1.3 Thu Aug 18 12:16:25 2016

Tools Copyright (c) 1996-2006 Texas Instruments Incorporated
PCModBus.asm                                                         PAGE  226

   11054                      .dwattr DW$1387, DW_AT_name("unused5"), DW_AT_symbol_name("_unused5")
   11055                      .dwattr DW$1387, DW_AT_bit_offset(0x0b), DW_AT_bit_size(0x01)
   11056                      .dwattr DW$1387, DW_AT_data_member_location[DW_OP_plus_uconst 0x0]
   11057                      .dwattr DW$1387, DW_AT_accessibility(DW_ACCESS_public)
   11058              DW$1388 .dwtag  DW_TAG_member, DW_AT_type(*DW$T$11)
   11059                      .dwattr DW$1388, DW_AT_name("unused6"), DW_AT_symbol_name("_unused6")
   11060                      .dwattr DW$1388, DW_AT_bit_offset(0x0a), DW_AT_bit_size(0x01)
   11061                      .dwattr DW$1388, DW_AT_data_member_location[DW_OP_plus_uconst 0x0]
   11062                      .dwattr DW$1388, DW_AT_accessibility(DW_ACCESS_public)
   11063              DW$1389 .dwtag  DW_TAG_member, DW_AT_type(*DW$T$11)
   11064                      .dwattr DW$1389, DW_AT_name("unused7"), DW_AT_symbol_name("_unused7")
   11065                      .dwattr DW$1389, DW_AT_bit_offset(0x09), DW_AT_bit_size(0x01)
   11066                      .dwattr DW$1389, DW_AT_data_member_location[DW_OP_plus_uconst 0x0]
   11067                      .dwattr DW$1389, DW_AT_accessibility(DW_ACCESS_public)
   11068              DW$1390 .dwtag  DW_TAG_member, DW_AT_type(*DW$T$11)
   11069                      .dwattr DW$1390, DW_AT_name("unused8"), DW_AT_symbol_name("_unused8")
   11070                      .dwattr DW$1390, DW_AT_bit_offset(0x08), DW_AT_bit_size(0x01)
   11071                      .dwattr DW$1390, DW_AT_data_member_location[DW_OP_plus_uconst 0x0]
   11072                      .dwattr DW$1390, DW_AT_accessibility(DW_ACCESS_public)
   11073              DW$1391 .dwtag  DW_TAG_member, DW_AT_type(*DW$T$11)
   11074                      .dwattr DW$1391, DW_AT_name("unused9"), DW_AT_symbol_name("_unused9")
   11075                      .dwattr DW$1391, DW_AT_bit_offset(0x07), DW_AT_bit_size(0x01)
   11076                      .dwattr DW$1391, DW_AT_data_member_location[DW_OP_plus_uconst 0x0]
   11077                      .dwattr DW$1391, DW_AT_accessibility(DW_ACCESS_public)
   11078              DW$1392 .dwtag  DW_TAG_member, DW_AT_type(*DW$T$11)
   11079                      .dwattr DW$1392, DW_AT_name("unused10"), DW_AT_symbol_name("_unused10")
   11080                      .dwattr DW$1392, DW_AT_bit_offset(0x06), DW_AT_bit_size(0x01)
   11081                      .dwattr DW$1392, DW_AT_data_member_location[DW_OP_plus_uconst 0x0]
   11082                      .dwattr DW$1392, DW_AT_accessibility(DW_ACCESS_public)
   11083              DW$1393 .dwtag  DW_TAG_member, DW_AT_type(*DW$T$11)
   11084                      .dwattr DW$1393, DW_AT_name("unused11"), DW_AT_symbol_name("_unused11")
   11085                      .dwattr DW$1393, DW_AT_bit_offset(0x05), DW_AT_bit_size(0x01)
   11086                      .dwattr DW$1393, DW_AT_data_member_location[DW_OP_plus_uconst 0x0]
   11087                      .dwattr DW$1393, DW_AT_accessibility(DW_ACCESS_public)
   11088              DW$1394 .dwtag  DW_TAG_member, DW_AT_type(*DW$T$11)
   11089                      .dwattr DW$1394, DW_AT_name("unused12"), DW_AT_symbol_name("_unused12")
   11090                      .dwattr DW$1394, DW_AT_bit_offset(0x04), DW_AT_bit_size(0x01)
   11091                      .dwattr DW$1394, DW_AT_data_member_location[DW_OP_plus_uconst 0x0]
   11092                      .dwattr DW$1394, DW_AT_accessibility(DW_ACCESS_public)
   11093              DW$1395 .dwtag  DW_TAG_member, DW_AT_type(*DW$T$11)
   11094                      .dwattr DW$1395, DW_AT_name("unused13"), DW_AT_symbol_name("_unused13")
   11095                      .dwattr DW$1395, DW_AT_bit_offset(0x03), DW_AT_bit_size(0x01)
   11096                      .dwattr DW$1395, DW_AT_data_member_location[DW_OP_plus_uconst 0x0]
   11097                      .dwattr DW$1395, DW_AT_accessibility(DW_ACCESS_public)
   11098              DW$1396 .dwtag  DW_TAG_member, DW_AT_type(*DW$T$11)
   11099                      .dwattr DW$1396, DW_AT_name("unused14"), DW_AT_symbol_name("_unused14")
   11100                      .dwattr DW$1396, DW_AT_bit_offset(0x02), DW_AT_bit_size(0x01)
   11101                      .dwattr DW$1396, DW_AT_data_member_location[DW_OP_plus_uconst 0x0]
   11102                      .dwattr DW$1396, DW_AT_accessibility(DW_ACCESS_public)
   11103              DW$1397 .dwtag  DW_TAG_member, DW_AT_type(*DW$T$11)
   11104                      .dwattr DW$1397, DW_AT_name("unused15"), DW_AT_symbol_name("_unused15")
   11105                      .dwattr DW$1397, DW_AT_bit_offset(0x01), DW_AT_bit_size(0x01)
   11106                      .dwattr DW$1397, DW_AT_data_member_location[DW_OP_plus_uconst 0x0]
   11107                      .dwattr DW$1397, DW_AT_accessibility(DW_ACCESS_public)
   11108              DW$1398 .dwtag  DW_TAG_member, DW_AT_type(*DW$T$11)
TMS320C2000 COFF Assembler PC v4.1.3 Thu Aug 18 12:16:25 2016

Tools Copyright (c) 1996-2006 Texas Instruments Incorporated
PCModBus.asm                                                         PAGE  227

   11109                      .dwattr DW$1398, DW_AT_name("unused16"), DW_AT_symbol_name("_unused16")
   11110                      .dwattr DW$1398, DW_AT_bit_offset(0x00), DW_AT_bit_size(0x01)
   11111                      .dwattr DW$1398, DW_AT_data_member_location[DW_OP_plus_uconst 0x0]
   11112                      .dwattr DW$1398, DW_AT_accessibility(DW_ACCESS_public)
   11113                      .dwendtag DW$T$54
   11114              
   11115              
   11116              DW$T$55 .dwtag  DW_TAG_structure_type
   11117                      .dwattr DW$T$55, DW_AT_byte_size(0x01)
   11118              DW$1399 .dwtag  DW_TAG_member, DW_AT_type(*DW$T$11)
   11119                      .dwattr DW$1399, DW_AT_name("alarm"), DW_AT_symbol_name("_alarm")
   11120                      .dwattr DW$1399, DW_AT_bit_offset(0x0f), DW_AT_bit_size(0x01)
   11121                      .dwattr DW$1399, DW_AT_data_member_location[DW_OP_plus_uconst 0x0]
   11122                      .dwattr DW$1399, DW_AT_accessibility(DW_ACCESS_public)
   11123              DW$1400 .dwtag  DW_TAG_member, DW_AT_type(*DW$T$11)
   11124                      .dwattr DW$1400, DW_AT_name("alarmlatched"), DW_AT_symbol_name("_alarmlatched")
   11125                      .dwattr DW$1400, DW_AT_bit_offset(0x0e), DW_AT_bit_size(0x01)
   11126                      .dwattr DW$1400, DW_AT_data_member_location[DW_OP_plus_uconst 0x0]
   11127                      .dwattr DW$1400, DW_AT_accessibility(DW_ACCESS_public)
   11128              DW$1401 .dwtag  DW_TAG_member, DW_AT_type(*DW$T$11)
   11129                      .dwattr DW$1401, DW_AT_name("unused3"), DW_AT_symbol_name("_unused3")
   11130                      .dwattr DW$1401, DW_AT_bit_offset(0x0d), DW_AT_bit_size(0x01)
   11131                      .dwattr DW$1401, DW_AT_data_member_location[DW_OP_plus_uconst 0x0]
   11132                      .dwattr DW$1401, DW_AT_accessibility(DW_ACCESS_public)
   11133              DW$1402 .dwtag  DW_TAG_member, DW_AT_type(*DW$T$11)
   11134                      .dwattr DW$1402, DW_AT_name("unused4"), DW_AT_symbol_name("_unused4")
   11135                      .dwattr DW$1402, DW_AT_bit_offset(0x0c), DW_AT_bit_size(0x01)
   11136                      .dwattr DW$1402, DW_AT_data_member_location[DW_OP_plus_uconst 0x0]
   11137                      .dwattr DW$1402, DW_AT_accessibility(DW_ACCESS_public)
   11138              DW$1403 .dwtag  DW_TAG_member, DW_AT_type(*DW$T$11)
   11139                      .dwattr DW$1403, DW_AT_name("unused5"), DW_AT_symbol_name("_unused5")
   11140                      .dwattr DW$1403, DW_AT_bit_offset(0x0b), DW_AT_bit_size(0x01)
   11141                      .dwattr DW$1403, DW_AT_data_member_location[DW_OP_plus_uconst 0x0]
   11142                      .dwattr DW$1403, DW_AT_accessibility(DW_ACCESS_public)
   11143              DW$1404 .dwtag  DW_TAG_member, DW_AT_type(*DW$T$11)
   11144                      .dwattr DW$1404, DW_AT_name("unused6"), DW_AT_symbol_name("_unused6")
   11145                      .dwattr DW$1404, DW_AT_bit_offset(0x0a), DW_AT_bit_size(0x01)
   11146                      .dwattr DW$1404, DW_AT_data_member_location[DW_OP_plus_uconst 0x0]
   11147                      .dwattr DW$1404, DW_AT_accessibility(DW_ACCESS_public)
   11148              DW$1405 .dwtag  DW_TAG_member, DW_AT_type(*DW$T$11)
   11149                      .dwattr DW$1405, DW_AT_name("unused7"), DW_AT_symbol_name("_unused7")
   11150                      .dwattr DW$1405, DW_AT_bit_offset(0x09), DW_AT_bit_size(0x01)
   11151                      .dwattr DW$1405, DW_AT_data_member_location[DW_OP_plus_uconst 0x0]
   11152                      .dwattr DW$1405, DW_AT_accessibility(DW_ACCESS_public)
   11153              DW$1406 .dwtag  DW_TAG_member, DW_AT_type(*DW$T$11)
   11154                      .dwattr DW$1406, DW_AT_name("unused8"), DW_AT_symbol_name("_unused8")
   11155                      .dwattr DW$1406, DW_AT_bit_offset(0x08), DW_AT_bit_size(0x01)
   11156                      .dwattr DW$1406, DW_AT_data_member_location[DW_OP_plus_uconst 0x0]
   11157                      .dwattr DW$1406, DW_AT_accessibility(DW_ACCESS_public)
   11158              DW$1407 .dwtag  DW_TAG_member, DW_AT_type(*DW$T$11)
   11159                      .dwattr DW$1407, DW_AT_name("unused9"), DW_AT_symbol_name("_unused9")
   11160                      .dwattr DW$1407, DW_AT_bit_offset(0x07), DW_AT_bit_size(0x01)
   11161                      .dwattr DW$1407, DW_AT_data_member_location[DW_OP_plus_uconst 0x0]
   11162                      .dwattr DW$1407, DW_AT_accessibility(DW_ACCESS_public)
   11163              DW$1408 .dwtag  DW_TAG_member, DW_AT_type(*DW$T$11)
TMS320C2000 COFF Assembler PC v4.1.3 Thu Aug 18 12:16:25 2016

Tools Copyright (c) 1996-2006 Texas Instruments Incorporated
PCModBus.asm                                                         PAGE  228

   11164                      .dwattr DW$1408, DW_AT_name("unused10"), DW_AT_symbol_name("_unused10")
   11165                      .dwattr DW$1408, DW_AT_bit_offset(0x06), DW_AT_bit_size(0x01)
   11166                      .dwattr DW$1408, DW_AT_data_member_location[DW_OP_plus_uconst 0x0]
   11167                      .dwattr DW$1408, DW_AT_accessibility(DW_ACCESS_public)
   11168              DW$1409 .dwtag  DW_TAG_member, DW_AT_type(*DW$T$11)
   11169                      .dwattr DW$1409, DW_AT_name("unused11"), DW_AT_symbol_name("_unused11")
   11170                      .dwattr DW$1409, DW_AT_bit_offset(0x05), DW_AT_bit_size(0x01)
   11171                      .dwattr DW$1409, DW_AT_data_member_location[DW_OP_plus_uconst 0x0]
   11172                      .dwattr DW$1409, DW_AT_accessibility(DW_ACCESS_public)
   11173              DW$1410 .dwtag  DW_TAG_member, DW_AT_type(*DW$T$11)
   11174                      .dwattr DW$1410, DW_AT_name("unused12"), DW_AT_symbol_name("_unused12")
   11175                      .dwattr DW$1410, DW_AT_bit_offset(0x04), DW_AT_bit_size(0x01)
   11176                      .dwattr DW$1410, DW_AT_data_member_location[DW_OP_plus_uconst 0x0]
   11177                      .dwattr DW$1410, DW_AT_accessibility(DW_ACCESS_public)
   11178              DW$1411 .dwtag  DW_TAG_member, DW_AT_type(*DW$T$11)
   11179                      .dwattr DW$1411, DW_AT_name("unused13"), DW_AT_symbol_name("_unused13")
   11180                      .dwattr DW$1411, DW_AT_bit_offset(0x03), DW_AT_bit_size(0x01)
   11181                      .dwattr DW$1411, DW_AT_data_member_location[DW_OP_plus_uconst 0x0]
   11182                      .dwattr DW$1411, DW_AT_accessibility(DW_ACCESS_public)
   11183              DW$1412 .dwtag  DW_TAG_member, DW_AT_type(*DW$T$11)
   11184                      .dwattr DW$1412, DW_AT_name("unused14"), DW_AT_symbol_name("_unused14")
   11185                      .dwattr DW$1412, DW_AT_bit_offset(0x02), DW_AT_bit_size(0x01)
   11186                      .dwattr DW$1412, DW_AT_data_member_location[DW_OP_plus_uconst 0x0]
   11187                      .dwattr DW$1412, DW_AT_accessibility(DW_ACCESS_public)
   11188              DW$1413 .dwtag  DW_TAG_member, DW_AT_type(*DW$T$11)
   11189                      .dwattr DW$1413, DW_AT_name("unused15"), DW_AT_symbol_name("_unused15")
   11190                      .dwattr DW$1413, DW_AT_bit_offset(0x01), DW_AT_bit_size(0x01)
   11191                      .dwattr DW$1413, DW_AT_data_member_location[DW_OP_plus_uconst 0x0]
   11192                      .dwattr DW$1413, DW_AT_accessibility(DW_ACCESS_public)
   11193              DW$1414 .dwtag  DW_TAG_member, DW_AT_type(*DW$T$11)
   11194                      .dwattr DW$1414, DW_AT_name("unused16"), DW_AT_symbol_name("_unused16")
   11195                      .dwattr DW$1414, DW_AT_bit_offset(0x00), DW_AT_bit_size(0x01)
   11196                      .dwattr DW$1414, DW_AT_data_member_location[DW_OP_plus_uconst 0x0]
   11197                      .dwattr DW$1414, DW_AT_accessibility(DW_ACCESS_public)
   11198                      .dwendtag DW$T$55
   11199              
   11200              DW$T$94 .dwtag  DW_TAG_typedef, DW_AT_name("F_FILE"), DW_AT_type(*DW$T$93)
   11201                      .dwattr DW$T$94, DW_AT_language(DW_LANG_C)
   11202              
   11203              DW$T$102        .dwtag  DW_TAG_structure_type
   11204                      .dwattr DW$T$102, DW_AT_name("tag_wioalarmstruct")
   11205                      .dwattr DW$T$102, DW_AT_byte_size(0x01)
   11206              DW$1415 .dwtag  DW_TAG_member, DW_AT_type(*DW$T$11)
   11207                      .dwattr DW$1415, DW_AT_name("alarmupper"), DW_AT_symbol_name("_alarmupper")
   11208                      .dwattr DW$1415, DW_AT_bit_offset(0x0f), DW_AT_bit_size(0x01)
   11209                      .dwattr DW$1415, DW_AT_data_member_location[DW_OP_plus_uconst 0x0]
   11210                      .dwattr DW$1415, DW_AT_accessibility(DW_ACCESS_public)
   11211              DW$1416 .dwtag  DW_TAG_member, DW_AT_type(*DW$T$11)
   11212                      .dwattr DW$1416, DW_AT_name("alarmupperlatched"), DW_AT_symbol_name("_alarmupperlatched")
   11213                      .dwattr DW$1416, DW_AT_bit_offset(0x0e), DW_AT_bit_size(0x01)
   11214                      .dwattr DW$1416, DW_AT_data_member_location[DW_OP_plus_uconst 0x0]
   11215                      .dwattr DW$1416, DW_AT_accessibility(DW_ACCESS_public)
   11216              DW$1417 .dwtag  DW_TAG_member, DW_AT_type(*DW$T$11)
   11217                      .dwattr DW$1417, DW_AT_name("alarm"), DW_AT_symbol_name("_alarm")
   11218                      .dwattr DW$1417, DW_AT_bit_offset(0x0d), DW_AT_bit_size(0x01)
TMS320C2000 COFF Assembler PC v4.1.3 Thu Aug 18 12:16:25 2016

Tools Copyright (c) 1996-2006 Texas Instruments Incorporated
PCModBus.asm                                                         PAGE  229

   11219                      .dwattr DW$1417, DW_AT_data_member_location[DW_OP_plus_uconst 0x0]
   11220                      .dwattr DW$1417, DW_AT_accessibility(DW_ACCESS_public)
   11221              DW$1418 .dwtag  DW_TAG_member, DW_AT_type(*DW$T$11)
   11222                      .dwattr DW$1418, DW_AT_name("alarmlatched"), DW_AT_symbol_name("_alarmlatched")
   11223                      .dwattr DW$1418, DW_AT_bit_offset(0x0c), DW_AT_bit_size(0x01)
   11224                      .dwattr DW$1418, DW_AT_data_member_location[DW_OP_plus_uconst 0x0]
   11225                      .dwattr DW$1418, DW_AT_accessibility(DW_ACCESS_public)
   11226              DW$1419 .dwtag  DW_TAG_member, DW_AT_type(*DW$T$11)
   11227                      .dwattr DW$1419, DW_AT_name("comms"), DW_AT_symbol_name("_comms")
   11228                      .dwattr DW$1419, DW_AT_bit_offset(0x0b), DW_AT_bit_size(0x01)
   11229                      .dwattr DW$1419, DW_AT_data_member_location[DW_OP_plus_uconst 0x0]
   11230                      .dwattr DW$1419, DW_AT_accessibility(DW_ACCESS_public)
   11231              DW$1420 .dwtag  DW_TAG_member, DW_AT_type(*DW$T$11)
   11232                      .dwattr DW$1420, DW_AT_name("commslatched"), DW_AT_symbol_name("_commslatched")
   11233                      .dwattr DW$1420, DW_AT_bit_offset(0x0a), DW_AT_bit_size(0x01)
   11234                      .dwattr DW$1420, DW_AT_data_member_location[DW_OP_plus_uconst 0x0]
   11235                      .dwattr DW$1420, DW_AT_accessibility(DW_ACCESS_public)
   11236              DW$1421 .dwtag  DW_TAG_member, DW_AT_type(*DW$T$11)
   11237                      .dwattr DW$1421, DW_AT_name("analoglow"), DW_AT_symbol_name("_analoglow")
   11238                      .dwattr DW$1421, DW_AT_bit_offset(0x09), DW_AT_bit_size(0x01)
   11239                      .dwattr DW$1421, DW_AT_data_member_location[DW_OP_plus_uconst 0x0]
   11240                      .dwattr DW$1421, DW_AT_accessibility(DW_ACCESS_public)
   11241              DW$1422 .dwtag  DW_TAG_member, DW_AT_type(*DW$T$11)
   11242                      .dwattr DW$1422, DW_AT_name("analoghigh"), DW_AT_symbol_name("_analoghigh")
   11243                      .dwattr DW$1422, DW_AT_bit_offset(0x08), DW_AT_bit_size(0x01)
   11244                      .dwattr DW$1422, DW_AT_data_member_location[DW_OP_plus_uconst 0x0]
   11245                      .dwattr DW$1422, DW_AT_accessibility(DW_ACCESS_public)
   11246              DW$1423 .dwtag  DW_TAG_member, DW_AT_type(*DW$T$11)
   11247                      .dwattr DW$1423, DW_AT_name("unused9"), DW_AT_symbol_name("_unused9")
   11248                      .dwattr DW$1423, DW_AT_bit_offset(0x07), DW_AT_bit_size(0x01)
   11249                      .dwattr DW$1423, DW_AT_data_member_location[DW_OP_plus_uconst 0x0]
   11250                      .dwattr DW$1423, DW_AT_accessibility(DW_ACCESS_public)
   11251              DW$1424 .dwtag  DW_TAG_member, DW_AT_type(*DW$T$11)
   11252                      .dwattr DW$1424, DW_AT_name("unused10"), DW_AT_symbol_name("_unused10")
   11253                      .dwattr DW$1424, DW_AT_bit_offset(0x06), DW_AT_bit_size(0x01)
   11254                      .dwattr DW$1424, DW_AT_data_member_location[DW_OP_plus_uconst 0x0]
   11255                      .dwattr DW$1424, DW_AT_accessibility(DW_ACCESS_public)
   11256              DW$1425 .dwtag  DW_TAG_member, DW_AT_type(*DW$T$11)
   11257                      .dwattr DW$1425, DW_AT_name("unused11"), DW_AT_symbol_name("_unused11")
   11258                      .dwattr DW$1425, DW_AT_bit_offset(0x05), DW_AT_bit_size(0x01)
   11259                      .dwattr DW$1425, DW_AT_data_member_location[DW_OP_plus_uconst 0x0]
   11260                      .dwattr DW$1425, DW_AT_accessibility(DW_ACCESS_public)
   11261              DW$1426 .dwtag  DW_TAG_member, DW_AT_type(*DW$T$11)
   11262                      .dwattr DW$1426, DW_AT_name("unused12"), DW_AT_symbol_name("_unused12")
   11263                      .dwattr DW$1426, DW_AT_bit_offset(0x04), DW_AT_bit_size(0x01)
   11264                      .dwattr DW$1426, DW_AT_data_member_location[DW_OP_plus_uconst 0x0]
   11265                      .dwattr DW$1426, DW_AT_accessibility(DW_ACCESS_public)
   11266              DW$1427 .dwtag  DW_TAG_member, DW_AT_type(*DW$T$11)
   11267                      .dwattr DW$1427, DW_AT_name("unused13"), DW_AT_symbol_name("_unused13")
   11268                      .dwattr DW$1427, DW_AT_bit_offset(0x03), DW_AT_bit_size(0x01)
   11269                      .dwattr DW$1427, DW_AT_data_member_location[DW_OP_plus_uconst 0x0]
   11270                      .dwattr DW$1427, DW_AT_accessibility(DW_ACCESS_public)
   11271              DW$1428 .dwtag  DW_TAG_member, DW_AT_type(*DW$T$11)
   11272                      .dwattr DW$1428, DW_AT_name("unused14"), DW_AT_symbol_name("_unused14")
   11273                      .dwattr DW$1428, DW_AT_bit_offset(0x02), DW_AT_bit_size(0x01)
TMS320C2000 COFF Assembler PC v4.1.3 Thu Aug 18 12:16:25 2016

Tools Copyright (c) 1996-2006 Texas Instruments Incorporated
PCModBus.asm                                                         PAGE  230

   11274                      .dwattr DW$1428, DW_AT_data_member_location[DW_OP_plus_uconst 0x0]
   11275                      .dwattr DW$1428, DW_AT_accessibility(DW_ACCESS_public)
   11276              DW$1429 .dwtag  DW_TAG_member, DW_AT_type(*DW$T$11)
   11277                      .dwattr DW$1429, DW_AT_name("unused15"), DW_AT_symbol_name("_unused15")
   11278                      .dwattr DW$1429, DW_AT_bit_offset(0x01), DW_AT_bit_size(0x01)
   11279                      .dwattr DW$1429, DW_AT_data_member_location[DW_OP_plus_uconst 0x0]
   11280                      .dwattr DW$1429, DW_AT_accessibility(DW_ACCESS_public)
   11281              DW$1430 .dwtag  DW_TAG_member, DW_AT_type(*DW$T$11)
   11282                      .dwattr DW$1430, DW_AT_name("unused16"), DW_AT_symbol_name("_unused16")
   11283                      .dwattr DW$1430, DW_AT_bit_offset(0x00), DW_AT_bit_size(0x01)
   11284                      .dwattr DW$1430, DW_AT_data_member_location[DW_OP_plus_uconst 0x0]
   11285                      .dwattr DW$1430, DW_AT_accessibility(DW_ACCESS_public)
   11286                      .dwendtag DW$T$102
   11287              
   11288              
   11289              DW$T$23 .dwtag  DW_TAG_structure_type
   11290                      .dwattr DW$T$23, DW_AT_byte_size(0x01)
   11291              DW$1431 .dwtag  DW_TAG_member, DW_AT_type(*DW$T$11)
   11292                      .dwattr DW$1431, DW_AT_name("spimo"), DW_AT_symbol_name("_spimo")
   11293                      .dwattr DW$1431, DW_AT_bit_offset(0x0f), DW_AT_bit_size(0x01)
   11294                      .dwattr DW$1431, DW_AT_data_member_location[DW_OP_plus_uconst 0x0]
   11295                      .dwattr DW$1431, DW_AT_accessibility(DW_ACCESS_public)
   11296              DW$1432 .dwtag  DW_TAG_member, DW_AT_type(*DW$T$11)
   11297                      .dwattr DW$1432, DW_AT_name("spimi"), DW_AT_symbol_name("_spimi")
   11298                      .dwattr DW$1432, DW_AT_bit_offset(0x0e), DW_AT_bit_size(0x01)
   11299                      .dwattr DW$1432, DW_AT_data_member_location[DW_OP_plus_uconst 0x0]
   11300                      .dwattr DW$1432, DW_AT_accessibility(DW_ACCESS_public)
   11301              DW$1433 .dwtag  DW_TAG_member, DW_AT_type(*DW$T$11)
   11302                      .dwattr DW$1433, DW_AT_name("spiclk"), DW_AT_symbol_name("_spiclk")
   11303                      .dwattr DW$1433, DW_AT_bit_offset(0x0d), DW_AT_bit_size(0x01)
   11304                      .dwattr DW$1433, DW_AT_data_member_location[DW_OP_plus_uconst 0x0]
   11305                      .dwattr DW$1433, DW_AT_accessibility(DW_ACCESS_public)
   11306              DW$1434 .dwtag  DW_TAG_member, DW_AT_type(*DW$T$11)
   11307                      .dwattr DW$1434, DW_AT_name("spiste"), DW_AT_symbol_name("_spiste")
   11308                      .dwattr DW$1434, DW_AT_bit_offset(0x0c), DW_AT_bit_size(0x01)
   11309                      .dwattr DW$1434, DW_AT_data_member_location[DW_OP_plus_uconst 0x0]
   11310                      .dwattr DW$1434, DW_AT_accessibility(DW_ACCESS_public)
   11311              DW$1435 .dwtag  DW_TAG_member, DW_AT_type(*DW$T$11)
   11312                      .dwattr DW$1435, DW_AT_name("scitxa"), DW_AT_symbol_name("_scitxa")
   11313                      .dwattr DW$1435, DW_AT_bit_offset(0x0b), DW_AT_bit_size(0x01)
   11314                      .dwattr DW$1435, DW_AT_data_member_location[DW_OP_plus_uconst 0x0]
   11315                      .dwattr DW$1435, DW_AT_accessibility(DW_ACCESS_public)
   11316              DW$1436 .dwtag  DW_TAG_member, DW_AT_type(*DW$T$11)
   11317                      .dwattr DW$1436, DW_AT_name("scirxa"), DW_AT_symbol_name("_scirxa")
   11318                      .dwattr DW$1436, DW_AT_bit_offset(0x0a), DW_AT_bit_size(0x01)
   11319                      .dwattr DW$1436, DW_AT_data_member_location[DW_OP_plus_uconst 0x0]
   11320                      .dwattr DW$1436, DW_AT_accessibility(DW_ACCESS_public)
   11321              DW$1437 .dwtag  DW_TAG_member, DW_AT_type(*DW$T$11)
   11322                      .dwattr DW$1437, DW_AT_name("op1"), DW_AT_symbol_name("_op1")
   11323                      .dwattr DW$1437, DW_AT_bit_offset(0x09), DW_AT_bit_size(0x01)
   11324                      .dwattr DW$1437, DW_AT_data_member_location[DW_OP_plus_uconst 0x0]
   11325                      .dwattr DW$1437, DW_AT_accessibility(DW_ACCESS_public)
   11326              DW$1438 .dwtag  DW_TAG_member, DW_AT_type(*DW$T$11)
   11327                      .dwattr DW$1438, DW_AT_name("op2"), DW_AT_symbol_name("_op2")
   11328                      .dwattr DW$1438, DW_AT_bit_offset(0x08), DW_AT_bit_size(0x01)
TMS320C2000 COFF Assembler PC v4.1.3 Thu Aug 18 12:16:25 2016

Tools Copyright (c) 1996-2006 Texas Instruments Incorporated
PCModBus.asm                                                         PAGE  231

   11329                      .dwattr DW$1438, DW_AT_data_member_location[DW_OP_plus_uconst 0x0]
   11330                      .dwattr DW$1438, DW_AT_accessibility(DW_ACCESS_public)
   11331              DW$1439 .dwtag  DW_TAG_member, DW_AT_type(*DW$T$11)
   11332                      .dwattr DW$1439, DW_AT_name("spiselect1"), DW_AT_symbol_name("_spiselect1")
   11333                      .dwattr DW$1439, DW_AT_bit_offset(0x07), DW_AT_bit_size(0x01)
   11334                      .dwattr DW$1439, DW_AT_data_member_location[DW_OP_plus_uconst 0x0]
   11335                      .dwattr DW$1439, DW_AT_accessibility(DW_ACCESS_public)
   11336              DW$1440 .dwtag  DW_TAG_member, DW_AT_type(*DW$T$11)
   11337                      .dwattr DW$1440, DW_AT_name("spiselect2"), DW_AT_symbol_name("_spiselect2")
   11338                      .dwattr DW$1440, DW_AT_bit_offset(0x06), DW_AT_bit_size(0x01)
   11339                      .dwattr DW$1440, DW_AT_data_member_location[DW_OP_plus_uconst 0x0]
   11340                      .dwattr DW$1440, DW_AT_accessibility(DW_ACCESS_public)
   11341              DW$1441 .dwtag  DW_TAG_member, DW_AT_type(*DW$T$11)
   11342                      .dwattr DW$1441, DW_AT_name("spiselect3"), DW_AT_symbol_name("_spiselect3")
   11343                      .dwattr DW$1441, DW_AT_bit_offset(0x05), DW_AT_bit_size(0x01)
   11344                      .dwattr DW$1441, DW_AT_data_member_location[DW_OP_plus_uconst 0x0]
   11345                      .dwattr DW$1441, DW_AT_accessibility(DW_ACCESS_public)
   11346              DW$1442 .dwtag  DW_TAG_member, DW_AT_type(*DW$T$11)
   11347                      .dwattr DW$1442, DW_AT_name("pc485rxen"), DW_AT_symbol_name("_pc485rxen")
   11348                      .dwattr DW$1442, DW_AT_bit_offset(0x04), DW_AT_bit_size(0x01)
   11349                      .dwattr DW$1442, DW_AT_data_member_location[DW_OP_plus_uconst 0x0]
   11350                      .dwattr DW$1442, DW_AT_accessibility(DW_ACCESS_public)
   11351              DW$1443 .dwtag  DW_TAG_member, DW_AT_type(*DW$T$11)
   11352                      .dwattr DW$1443, DW_AT_name("pc485txen"), DW_AT_symbol_name("_pc485txen")
   11353                      .dwattr DW$1443, DW_AT_bit_offset(0x03), DW_AT_bit_size(0x01)
   11354                      .dwattr DW$1443, DW_AT_data_member_location[DW_OP_plus_uconst 0x0]
   11355                      .dwattr DW$1443, DW_AT_accessibility(DW_ACCESS_public)
   11356              DW$1444 .dwtag  DW_TAG_member, DW_AT_type(*DW$T$11)
   11357                      .dwattr DW$1444, DW_AT_name("modeselect"), DW_AT_symbol_name("_modeselect")
   11358                      .dwattr DW$1444, DW_AT_bit_offset(0x02), DW_AT_bit_size(0x01)
   11359                      .dwattr DW$1444, DW_AT_data_member_location[DW_OP_plus_uconst 0x0]
   11360                      .dwattr DW$1444, DW_AT_accessibility(DW_ACCESS_public)
   11361              DW$1445 .dwtag  DW_TAG_member, DW_AT_type(*DW$T$11)
   11362                      .dwattr DW$1445, DW_AT_name("xf_xplldis"), DW_AT_symbol_name("_xf_xplldis")
   11363                      .dwattr DW$1445, DW_AT_bit_offset(0x01), DW_AT_bit_size(0x01)
   11364                      .dwattr DW$1445, DW_AT_data_member_location[DW_OP_plus_uconst 0x0]
   11365                      .dwattr DW$1445, DW_AT_accessibility(DW_ACCESS_public)
   11366              DW$1446 .dwtag  DW_TAG_member, DW_AT_type(*DW$T$11)
   11367                      .dwattr DW$1446, DW_AT_name("notused3"), DW_AT_symbol_name("_notused3")
   11368                      .dwattr DW$1446, DW_AT_bit_offset(0x00), DW_AT_bit_size(0x01)
   11369                      .dwattr DW$1446, DW_AT_data_member_location[DW_OP_plus_uconst 0x0]
   11370                      .dwattr DW$1446, DW_AT_accessibility(DW_ACCESS_public)
   11371                      .dwendtag DW$T$23
   11372              
   11373              
   11374              DW$T$93 .dwtag  DW_TAG_structure_type
   11375                      .dwattr DW$T$93, DW_AT_byte_size(0x02)
   11376              DW$1447 .dwtag  DW_TAG_member, DW_AT_type(*DW$T$3)
   11377                      .dwattr DW$1447, DW_AT_name("reference"), DW_AT_symbol_name("_reference")
   11378                      .dwattr DW$1447, DW_AT_data_member_location[DW_OP_plus_uconst 0x0]
   11379                      .dwattr DW$1447, DW_AT_accessibility(DW_ACCESS_public)
   11380                      .dwendtag DW$T$93
   11381              
   11382              
   11383                      .dwattr DW$187, DW_AT_external(0x01)
TMS320C2000 COFF Assembler PC v4.1.3 Thu Aug 18 12:16:25 2016

Tools Copyright (c) 1996-2006 Texas Instruments Incorporated
PCModBus.asm                                                         PAGE  232

   11384                      .dwattr DW$197, DW_AT_external(0x01)
   11385                      .dwattr DW$197, DW_AT_type(*DW$T$6)
   11386                      .dwattr DW$186, DW_AT_external(0x01)
   11387                      .dwattr DW$194, DW_AT_external(0x01)
   11388                      .dwattr DW$194, DW_AT_type(*DW$T$96)
   11389                      .dwattr DW$210, DW_AT_external(0x01)
   11390                      .dwattr DW$200, DW_AT_external(0x01)
   11391                      .dwattr DW$827, DW_AT_external(0x01)
   11392                      .dwattr DW$830, DW_AT_external(0x01)
   11393                      .dwattr DW$823, DW_AT_external(0x01)
   11394                      .dwattr DW$211, DW_AT_external(0x01)
   11395                      .dwattr DW$211, DW_AT_type(*DW$T$10)
   11396                      .dwattr DW$216, DW_AT_external(0x01)
   11397                      .dwattr DW$212, DW_AT_external(0x01)
   11398                      .dwattr DW$201, DW_AT_external(0x01)
   11399                      .dwattr DW$201, DW_AT_type(*DW$T$96)
   11400                      .dwattr DW$193, DW_AT_external(0x01)
   11401                      .dwattr DW$CU, DW_AT_language(DW_LANG_C)
   11402              
   11403              ;***************************************************************
   11404              ;* DWARF REGISTER MAP                                          *
   11405              ;***************************************************************
   11406              
   11407              DW$1448 .dwtag  DW_TAG_assign_register, DW_AT_name("AL")
   11408                      .dwattr DW$1448, DW_AT_location[DW_OP_reg0]
   11409              DW$1449 .dwtag  DW_TAG_assign_register, DW_AT_name("AH")
   11410                      .dwattr DW$1449, DW_AT_location[DW_OP_reg1]
   11411              DW$1450 .dwtag  DW_TAG_assign_register, DW_AT_name("PL")
   11412                      .dwattr DW$1450, DW_AT_location[DW_OP_reg2]
   11413              DW$1451 .dwtag  DW_TAG_assign_register, DW_AT_name("PH")
   11414                      .dwattr DW$1451, DW_AT_location[DW_OP_reg3]
   11415              DW$1452 .dwtag  DW_TAG_assign_register, DW_AT_name("AR0")
   11416                      .dwattr DW$1452, DW_AT_location[DW_OP_reg4]
   11417              DW$1453 .dwtag  DW_TAG_assign_register, DW_AT_name("XAR0")
   11418                      .dwattr DW$1453, DW_AT_location[DW_OP_reg5]
   11419              DW$1454 .dwtag  DW_TAG_assign_register, DW_AT_name("AR1")
   11420                      .dwattr DW$1454, DW_AT_location[DW_OP_reg6]
   11421              DW$1455 .dwtag  DW_TAG_assign_register, DW_AT_name("XAR1")
   11422                      .dwattr DW$1455, DW_AT_location[DW_OP_reg7]
   11423              DW$1456 .dwtag  DW_TAG_assign_register, DW_AT_name("AR2")
   11424                      .dwattr DW$1456, DW_AT_location[DW_OP_reg8]
   11425              DW$1457 .dwtag  DW_TAG_assign_register, DW_AT_name("XAR2")
   11426                      .dwattr DW$1457, DW_AT_location[DW_OP_reg9]
   11427              DW$1458 .dwtag  DW_TAG_assign_register, DW_AT_name("AR3")
   11428                      .dwattr DW$1458, DW_AT_location[DW_OP_reg10]
   11429              DW$1459 .dwtag  DW_TAG_assign_register, DW_AT_name("XAR3")
   11430                      .dwattr DW$1459, DW_AT_location[DW_OP_reg11]
   11431              DW$1460 .dwtag  DW_TAG_assign_register, DW_AT_name("AR4")
   11432                      .dwattr DW$1460, DW_AT_location[DW_OP_reg12]
   11433              DW$1461 .dwtag  DW_TAG_assign_register, DW_AT_name("XAR4")
   11434                      .dwattr DW$1461, DW_AT_location[DW_OP_reg13]
   11435              DW$1462 .dwtag  DW_TAG_assign_register, DW_AT_name("AR5")
   11436                      .dwattr DW$1462, DW_AT_location[DW_OP_reg14]
   11437              DW$1463 .dwtag  DW_TAG_assign_register, DW_AT_name("XAR5")
   11438                      .dwattr DW$1463, DW_AT_location[DW_OP_reg15]
TMS320C2000 COFF Assembler PC v4.1.3 Thu Aug 18 12:16:25 2016

Tools Copyright (c) 1996-2006 Texas Instruments Incorporated
PCModBus.asm                                                         PAGE  233

   11439              DW$1464 .dwtag  DW_TAG_assign_register, DW_AT_name("AR6")
   11440                      .dwattr DW$1464, DW_AT_location[DW_OP_reg16]
   11441              DW$1465 .dwtag  DW_TAG_assign_register, DW_AT_name("XAR6")
   11442                      .dwattr DW$1465, DW_AT_location[DW_OP_reg17]
   11443              DW$1466 .dwtag  DW_TAG_assign_register, DW_AT_name("AR7")
   11444                      .dwattr DW$1466, DW_AT_location[DW_OP_reg18]
   11445              DW$1467 .dwtag  DW_TAG_assign_register, DW_AT_name("XAR7")
   11446                      .dwattr DW$1467, DW_AT_location[DW_OP_reg19]
   11447              DW$1468 .dwtag  DW_TAG_assign_register, DW_AT_name("SP")
   11448                      .dwattr DW$1468, DW_AT_location[DW_OP_reg20]
   11449              DW$1469 .dwtag  DW_TAG_assign_register, DW_AT_name("XT")
   11450                      .dwattr DW$1469, DW_AT_location[DW_OP_reg21]
   11451              DW$1470 .dwtag  DW_TAG_assign_register, DW_AT_name("T")
   11452                      .dwattr DW$1470, DW_AT_location[DW_OP_reg22]
   11453              DW$1471 .dwtag  DW_TAG_assign_register, DW_AT_name("ST0")
   11454                      .dwattr DW$1471, DW_AT_location[DW_OP_reg23]
   11455              DW$1472 .dwtag  DW_TAG_assign_register, DW_AT_name("ST1")
   11456                      .dwattr DW$1472, DW_AT_location[DW_OP_reg24]
   11457              DW$1473 .dwtag  DW_TAG_assign_register, DW_AT_name("PC")
   11458                      .dwattr DW$1473, DW_AT_location[DW_OP_reg25]
   11459              DW$1474 .dwtag  DW_TAG_assign_register, DW_AT_name("RPC")
   11460                      .dwattr DW$1474, DW_AT_location[DW_OP_reg26]
   11461              DW$1475 .dwtag  DW_TAG_assign_register, DW_AT_name("FP")
   11462                      .dwattr DW$1475, DW_AT_location[DW_OP_reg27]
   11463              DW$1476 .dwtag  DW_TAG_assign_register, DW_AT_name("DP")
   11464                      .dwattr DW$1476, DW_AT_location[DW_OP_reg28]
   11465              DW$1477 .dwtag  DW_TAG_assign_register, DW_AT_name("SXM")
   11466                      .dwattr DW$1477, DW_AT_location[DW_OP_reg29]
   11467              DW$1478 .dwtag  DW_TAG_assign_register, DW_AT_name("PM")
   11468                      .dwattr DW$1478, DW_AT_location[DW_OP_reg30]
   11469              DW$1479 .dwtag  DW_TAG_assign_register, DW_AT_name("OVM")
   11470                      .dwattr DW$1479, DW_AT_location[DW_OP_reg31]
   11471              DW$1480 .dwtag  DW_TAG_assign_register, DW_AT_name("PAGE0")
   11472                      .dwattr DW$1480, DW_AT_location[DW_OP_regx 0x20]
   11473              DW$1481 .dwtag  DW_TAG_assign_register, DW_AT_name("AMODE")
   11474                      .dwattr DW$1481, DW_AT_location[DW_OP_regx 0x21]
   11475              DW$1482 .dwtag  DW_TAG_assign_register, DW_AT_name("IFR")
   11476                      .dwattr DW$1482, DW_AT_location[DW_OP_regx 0x22]
   11477              DW$1483 .dwtag  DW_TAG_assign_register, DW_AT_name("IER")
   11478                      .dwattr DW$1483, DW_AT_location[DW_OP_regx 0x23]
   11479              DW$1484 .dwtag  DW_TAG_assign_register, DW_AT_name("IER")
   11480                      .dwattr DW$1484, DW_AT_location[DW_OP_regx 0x24]
   11481              DW$1485 .dwtag  DW_TAG_assign_register, DW_AT_name("PSEUDO")
   11482                      .dwattr DW$1485, DW_AT_location[DW_OP_regx 0x25]
   11483              DW$1486 .dwtag  DW_TAG_assign_register, DW_AT_name("PSEUDOH")
   11484                      .dwattr DW$1486, DW_AT_location[DW_OP_regx 0x26]
   11485              DW$1487 .dwtag  DW_TAG_assign_register, DW_AT_name("VOL")
   11486                      .dwattr DW$1487, DW_AT_location[DW_OP_regx 0x27]
   11487              DW$1488 .dwtag  DW_TAG_assign_register, DW_AT_name("CIE_RETA")
   11488                      .dwattr DW$1488, DW_AT_location[DW_OP_regx 0x28]
   11489                      .dwendtag DW$CU
   11490              

No Assembly Errors, No Assembly Warnings
