TMS320C2000 COFF Assembler PC v4.1.3 Wed Sep 14 09:00:58 2016

Tools Copyright (c) 1996-2006 Texas Instruments Incorporated
sci.asm                                                              PAGE    1

       1              ;***************************************************************
       2              ;* TMS320C2000 C/C++ Codegen                         PC v4.1.3 *
       3              ;* Date/Time created: Wed Sep 14 09:00:58 2016                 *
       4              ;***************************************************************
       5                      .compiler_opts --mem_model:code=flat --mem_model:data=large --quiet --silicon_version=28 
       6        0002  FP      .set    XAR2
       7              
       8              DW$CU   .dwtag  DW_TAG_compile_unit
       9                      .dwattr DW$CU, DW_AT_name("sci.c")
      10                      .dwattr DW$CU, DW_AT_producer("TMS320C2000 C/C++ Codegen PC v4.1.3 Copyright (c) 1996-2006 Texas Inst
      11                      .dwattr DW$CU, DW_AT_stmt_list(0x00)
      12                      .dwattr DW$CU, DW_AT_TI_VERSION(0x01)
      13              
      14              DW$1    .dwtag  DW_TAG_subprogram, DW_AT_name("NOPDelay"), DW_AT_symbol_name("_NOPDelay")
      15                      .dwattr DW$1, DW_AT_declaration(0x01)
      16                      .dwattr DW$1, DW_AT_external(0x01)
      17              DW$2    .dwtag  DW_TAG_formal_parameter, DW_AT_type(*DW$T$11)
      18                      .dwendtag DW$1
      19              
      20              
      21              DW$3    .dwtag  DW_TAG_subprogram, DW_AT_name("ReadDataFromUart_D"), DW_AT_symbol_name("_ReadDataFromUart_D")
      22                      .dwattr DW$3, DW_AT_type(*DW$T$10)
      23                      .dwattr DW$3, DW_AT_declaration(0x01)
      24                      .dwattr DW$3, DW_AT_external(0x01)
      25              
      26              DW$4    .dwtag  DW_TAG_subprogram, DW_AT_name("WriteUartConfig_C"), DW_AT_symbol_name("_WriteUartConfig_C")
      27                      .dwattr DW$4, DW_AT_type(*DW$T$10)
      28                      .dwattr DW$4, DW_AT_declaration(0x01)
      29                      .dwattr DW$4, DW_AT_external(0x01)
      30              
      31              DW$5    .dwtag  DW_TAG_subprogram, DW_AT_name("ReadDataFromUart_C"), DW_AT_symbol_name("_ReadDataFromUart_C")
      32                      .dwattr DW$5, DW_AT_type(*DW$T$10)
      33                      .dwattr DW$5, DW_AT_declaration(0x01)
      34                      .dwattr DW$5, DW_AT_external(0x01)
      35              
      36              DW$6    .dwtag  DW_TAG_subprogram, DW_AT_name("WriteUartConfig_D"), DW_AT_symbol_name("_WriteUartConfig_D")
      37                      .dwattr DW$6, DW_AT_type(*DW$T$10)
      38                      .dwattr DW$6, DW_AT_declaration(0x01)
      39                      .dwattr DW$6, DW_AT_external(0x01)
      40              
      41              DW$7    .dwtag  DW_TAG_subprogram, DW_AT_name("WriteBytetoUart_C"), DW_AT_symbol_name("_WriteBytetoUart_C")
      42                      .dwattr DW$7, DW_AT_type(*DW$T$10)
      43                      .dwattr DW$7, DW_AT_declaration(0x01)
      44                      .dwattr DW$7, DW_AT_external(0x01)
      45              
      46              DW$8    .dwtag  DW_TAG_subprogram, DW_AT_name("WriteBytetoUart_D"), DW_AT_symbol_name("_WriteBytetoUart_D")
      47                      .dwattr DW$8, DW_AT_type(*DW$T$10)
      48                      .dwattr DW$8, DW_AT_declaration(0x01)
      49                      .dwattr DW$8, DW_AT_external(0x01)
      50              
      51              DW$9    .dwtag  DW_TAG_subprogram, DW_AT_name("WaitforUartTxComplete_C"), DW_AT_symbol_name("_WaitforUartTxCo
      52                      .dwattr DW$9, DW_AT_type(*DW$T$10)
      53                      .dwattr DW$9, DW_AT_declaration(0x01)
      54                      .dwattr DW$9, DW_AT_external(0x01)
      55              DW$10   .dwtag  DW_TAG_variable, DW_AT_name("gpa"), DW_AT_symbol_name("_gpa")
TMS320C2000 COFF Assembler PC v4.1.3 Wed Sep 14 09:00:58 2016

Tools Copyright (c) 1996-2006 Texas Instruments Incorporated
sci.asm                                                              PAGE    2

      56                      .dwattr DW$10, DW_AT_type(*DW$T$88)
      57                      .dwattr DW$10, DW_AT_declaration(0x01)
      58                      .dwattr DW$10, DW_AT_external(0x01)
      59              DW$11   .dwtag  DW_TAG_variable, DW_AT_name("gpb"), DW_AT_symbol_name("_gpb")
      60                      .dwattr DW$11, DW_AT_type(*DW$T$92)
      61                      .dwattr DW$11, DW_AT_declaration(0x01)
      62                      .dwattr DW$11, DW_AT_external(0x01)
      63              DW$12   .dwtag  DW_TAG_variable, DW_AT_name("gpf"), DW_AT_symbol_name("_gpf")
      64                      .dwattr DW$12, DW_AT_type(*DW$T$96)
      65                      .dwattr DW$12, DW_AT_declaration(0x01)
      66                      .dwattr DW$12, DW_AT_external(0x01)
      67              DW$13   .dwtag  DW_TAG_variable, DW_AT_name("settings"), DW_AT_symbol_name("_settings")
      68                      .dwattr DW$13, DW_AT_type(*DW$T$99)
      69                      .dwattr DW$13, DW_AT_declaration(0x01)
      70                      .dwattr DW$13, DW_AT_external(0x01)
      71              DW$14   .dwtag  DW_TAG_variable, DW_AT_name("safe2"), DW_AT_symbol_name("_safe2")
      72                      .dwattr DW$14, DW_AT_type(*DW$T$100)
      73                      .dwattr DW$14, DW_AT_declaration(0x01)
      74                      .dwattr DW$14, DW_AT_external(0x01)
      75              DW$15   .dwtag  DW_TAG_variable, DW_AT_name("timers"), DW_AT_symbol_name("_timers")
      76                      .dwattr DW$15, DW_AT_type(*DW$T$102)
      77                      .dwattr DW$15, DW_AT_declaration(0x01)
      78                      .dwattr DW$15, DW_AT_external(0x01)
      79              DW$16   .dwtag  DW_TAG_variable, DW_AT_name("modbusrxchar"), DW_AT_symbol_name("_modbusrxchar")
      80                      .dwattr DW$16, DW_AT_type(*DW$T$6)
      81                      .dwattr DW$16, DW_AT_declaration(0x01)
      82                      .dwattr DW$16, DW_AT_external(0x01)
      83              DW$17   .dwtag  DW_TAG_variable, DW_AT_name("pcmodbus"), DW_AT_symbol_name("_pcmodbus")
      84                      .dwattr DW$17, DW_AT_type(*DW$T$104)
      85                      .dwattr DW$17, DW_AT_declaration(0x01)
      86                      .dwattr DW$17, DW_AT_external(0x01)
      87                      .global _sciportA
      88 00000000       _sciportA:      .usect  ".sciportAregisters",14,0,0
      89              DW$18   .dwtag  DW_TAG_variable, DW_AT_name("sciportA"), DW_AT_symbol_name("_sciportA")
      90                      .dwattr DW$18, DW_AT_location[DW_OP_addr _sciportA]
      91                      .dwattr DW$18, DW_AT_type(*DW$T$106)
      92                      .dwattr DW$18, DW_AT_external(0x01)
      93                      .global _sciportB
      94 00000000       _sciportB:      .usect  ".sciportBregisters",14,0,0
      95              DW$19   .dwtag  DW_TAG_variable, DW_AT_name("sciportB"), DW_AT_symbol_name("_sciportB")
      96                      .dwattr DW$19, DW_AT_location[DW_OP_addr _sciportB]
      97                      .dwattr DW$19, DW_AT_type(*DW$T$106)
      98                      .dwattr DW$19, DW_AT_external(0x01)
      99                      .global _receiveA
     100 00000000       _receiveA:      .usect  ".commssection1",150,0,1
     101              DW$20   .dwtag  DW_TAG_variable, DW_AT_name("receiveA"), DW_AT_symbol_name("_receiveA")
     102                      .dwattr DW$20, DW_AT_location[DW_OP_addr _receiveA]
     103                      .dwattr DW$20, DW_AT_type(*DW$T$113)
     104                      .dwattr DW$20, DW_AT_external(0x01)
     105                      .global _transmitA
     106 00000096       _transmitA:     .usect  ".commssection1",12,0,1
     107              DW$21   .dwtag  DW_TAG_variable, DW_AT_name("transmitA"), DW_AT_symbol_name("_transmitA")
     108                      .dwattr DW$21, DW_AT_location[DW_OP_addr _transmitA]
     109                      .dwattr DW$21, DW_AT_type(*DW$T$115)
     110                      .dwattr DW$21, DW_AT_external(0x01)
TMS320C2000 COFF Assembler PC v4.1.3 Wed Sep 14 09:00:58 2016

Tools Copyright (c) 1996-2006 Texas Instruments Incorporated
sci.asm                                                              PAGE    3

     111                      .global _receiveB
     112 00000000       _receiveB:      .usect  ".commssection2",150,0,1
     113              DW$22   .dwtag  DW_TAG_variable, DW_AT_name("receiveB"), DW_AT_symbol_name("_receiveB")
     114                      .dwattr DW$22, DW_AT_location[DW_OP_addr _receiveB]
     115                      .dwattr DW$22, DW_AT_type(*DW$T$117)
     116                      .dwattr DW$22, DW_AT_external(0x01)
     117                      .global _transmitB
     118 00000096       _transmitB:     .usect  ".commssection2",12,0,1
     119              DW$23   .dwtag  DW_TAG_variable, DW_AT_name("transmitB"), DW_AT_symbol_name("_transmitB")
     120                      .dwattr DW$23, DW_AT_location[DW_OP_addr _transmitB]
     121                      .dwattr DW$23, DW_AT_type(*DW$T$115)
     122                      .dwattr DW$23, DW_AT_external(0x01)
     123                      .global _receiveC
     124 000000a2       _receiveC:      .usect  ".commssection1",104,0,0
     125              DW$24   .dwtag  DW_TAG_variable, DW_AT_name("receiveC"), DW_AT_symbol_name("_receiveC")
     126                      .dwattr DW$24, DW_AT_location[DW_OP_addr _receiveC]
     127                      .dwattr DW$24, DW_AT_type(*DW$T$119)
     128                      .dwattr DW$24, DW_AT_external(0x01)
     129                      .global _receiveD
     130 00000000       _receiveD:      .usect  ".ebss",30,1,1
     131              DW$25   .dwtag  DW_TAG_variable, DW_AT_name("receiveD"), DW_AT_symbol_name("_receiveD")
     132                      .dwattr DW$25, DW_AT_location[DW_OP_addr _receiveD]
     133                      .dwattr DW$25, DW_AT_type(*DW$T$121)
     134                      .dwattr DW$25, DW_AT_external(0x01)
     135              ;       C:\CCStudio_v3.3\C2000\cgtools\bin\opt2000.exe C:\Users\Andrew\AppData\Local\Temp\TI5562 C:\Users\And
     136              ;       C:\CCStudio_v3.3\C2000\cgtools\bin\ac2000.exe -q -D_INLINE -DLARGE_MODEL -IC:/CCStudio_v3.3/C2000/xda
     137 00000000               .sect   ".text"
     138                      .global _Init485Drivers
     139              
     140              DW$26   .dwtag  DW_TAG_subprogram, DW_AT_name("Init485Drivers"), DW_AT_symbol_name("_Init485Drivers")
     141                      .dwattr DW$26, DW_AT_low_pc(_Init485Drivers)
     142                      .dwattr DW$26, DW_AT_high_pc(0x00)
     143                      .dwattr DW$26, DW_AT_begin_file("sci.c")
     144                      .dwattr DW$26, DW_AT_begin_line(0x32)
     145                      .dwattr DW$26, DW_AT_begin_column(0x06)
     146                      .dwattr DW$26, DW_AT_frame_base[DW_OP_breg20 -2]
     147                      .dwattr DW$26, DW_AT_skeletal(0x01)
     148                      .dwpsn  "sci.c",51,1
     149              
     150              ;***************************************************************
     151              ;* FNAME: _Init485Drivers               FR SIZE:   0           *
     152              ;*                                                             *
     153              ;* FUNCTION ENVIRONMENT                                        *
     154              ;*                                                             *
     155              ;* FUNCTION PROPERTIES                                         *
     156              ;*                            0 Parameter,  0 Auto,  0 SOE     *
     157              ;***************************************************************
     158              
     159 00000000       _Init485Drivers:
     160 00000000 7622   eallow             ; Enable accesses to PIE control registers
     161 00000001 F5A9          MOV       AL,*(0:0x70c1)        ; |53| 
         00000002 70C1 
     162 00000003 501F          ORB       AL,#0x1f              ; |53| 
     163 00000004 F4A9          MOV       *(0:0x70c1),AL        ; |53| 
         00000005 70C1 
TMS320C2000 COFF Assembler PC v4.1.3 Wed Sep 14 09:00:58 2016

Tools Copyright (c) 1996-2006 Texas Instruments Incorporated
sci.asm                                                              PAGE    4

     164 00000006 7700          NOP
     165 00000007 7700          NOP
     166 00000008 F5A9          MOV       AL,*(0:0x70c5)        ; |54| 
         00000009 70C5 
     167 0000000a 1AA9          OR        AL,#0x0300            ; |54| 
         0000000b 0300 
     168 0000000c F4A9          MOV       *(0:0x70c5),AL        ; |54| 
         0000000d 70C5 
     169 0000000e 7700          NOP
     170 0000000f 7700          NOP
     171 00000010 F5A9          MOV       AL,*(0:0x70d5)        ; |55| 
         00000011 70D5 
     172 00000012 1AA9          OR        AL,#0x1800            ; |55| 
         00000013 1800 
     173 00000014 F4A9          MOV       *(0:0x70d5),AL        ; |55| 
         00000015 70D5 
     174 00000016 761A   edis               ; Disable accesses to PIE control registers
     175 00000017 761F!         MOVW      DP,#_gpb
         00000018 0000 
     176 00000019 1800!         AND       @_gpb,#0xfdff         ; |57| 
         0000001a FDFF 
     177 0000001b 761F!         MOVW      DP,#_gpb
         0000001c 0000 
     178 0000001d 1800!         AND       @_gpb,#0xfeff         ; |58| 
         0000001e FEFF 
     179 0000001f 761F!         MOVW      DP,#_gpf
         00000020 0000 
     180 00000021 1800!         AND       @_gpf,#0xf7ff         ; |59| 
         00000022 F7FF 
     181 00000023 761F!         MOVW      DP,#_gpf
         00000024 0000 
     182 00000025 1800!         AND       @_gpf,#0xefff         ; |60| 
         00000026 EFFF 
     183 00000027 761F!         MOVW      DP,#_gpa
         00000028 0000 
     184 00000029 1800!         AND       @_gpa,#0xffef         ; |62| 
         0000002a FFEF 
     185 0000002b 761F!         MOVW      DP,#_gpa
         0000002c 0000 
     186 0000002d 1A00!         OR        @_gpa,#0x0001         ; |65| 
         0000002e 0001 
     187 0000002f FF69          SPM       #0
     188 00000030 761F!         MOVW      DP,#_gpa
         00000031 0000 
     189 00000032 1A00!         OR        @_gpa,#0x0002         ; |66| 
         00000033 0002 
     190 00000034 761F!         MOVW      DP,#_gpa
         00000035 0000 
     191 00000036 1A00!         OR        @_gpa,#0x0004         ; |67| 
         00000037 0004 
     192 00000038 761F!         MOVW      DP,#_gpa
         00000039 0000 
     193 0000003a 1A00!         OR        @_gpa,#0x0008         ; |68| 
         0000003b 0008 
     194                      .dwpsn  "sci.c",71,1
TMS320C2000 COFF Assembler PC v4.1.3 Wed Sep 14 09:00:58 2016

Tools Copyright (c) 1996-2006 Texas Instruments Incorporated
sci.asm                                                              PAGE    5

     195 0000003c 0006          LRETR
     196                      ; return occurs
     197                      .dwattr DW$26, DW_AT_end_file("sci.c")
     198                      .dwattr DW$26, DW_AT_end_line(0x47)
     199                      .dwattr DW$26, DW_AT_end_column(0x01)
     200                      .dwendtag DW$26
     201              
     202 0000003d               .sect   ".text"
     203                      .global _SerialPortASetup
     204              
     205              DW$27   .dwtag  DW_TAG_subprogram, DW_AT_name("SerialPortASetup"), DW_AT_symbol_name("_SerialPortASetup")
     206                      .dwattr DW$27, DW_AT_low_pc(_SerialPortASetup)
     207                      .dwattr DW$27, DW_AT_high_pc(0x00)
     208                      .dwattr DW$27, DW_AT_begin_file("sci.c")
     209                      .dwattr DW$27, DW_AT_begin_line(0x49)
     210                      .dwattr DW$27, DW_AT_begin_column(0x06)
     211                      .dwattr DW$27, DW_AT_frame_base[DW_OP_breg20 -2]
     212                      .dwattr DW$27, DW_AT_skeletal(0x01)
     213                      .dwpsn  "sci.c",74,1
     214              
     215              ;***************************************************************
     216              ;* FNAME: _SerialPortASetup             FR SIZE:   0           *
     217              ;*                                                             *
     218              ;* FUNCTION ENVIRONMENT                                        *
     219              ;*                                                             *
     220              ;* FUNCTION PROPERTIES                                         *
     221              ;*                            0 Parameter,  0 Auto,  0 SOE     *
     222              ;***************************************************************
     223              
     224 0000003d       _SerialPortASetup:
     225 0000003d 7622   eallow             ; Enable accesses to PIE control registers
     226 0000003e F5A9          MOV       AL,*(0:0x70d5)        ; |77| 
         0000003f 70D5 
     227 00000040 5010          ORB       AL,#0x10              ; |77| 
     228 00000041 F4A9          MOV       *(0:0x70d5),AL        ; |77| 
         00000042 70D5 
     229 00000043 7700          NOP
     230 00000044 7700          NOP
     231 00000045 F5A9          MOV       AL,*(0:0x70d4)        ; |78| 
         00000046 70D4 
     232 00000047 5030          ORB       AL,#0x30              ; |78| 
     233 00000048 F4A9          MOV       *(0:0x70d4),AL        ; |78| 
         00000049 70D4 
     234 0000004a 7700          NOP
     235 0000004b 7700          NOP
     236 0000004c F5A9          MOV       AL,*(0:0x701c)        ; |79| 
         0000004d 701C 
     237 0000004e 1AA9          OR        AL,#0x0400            ; |79| 
         0000004f 0400 
     238 00000050 F4A9          MOV       *(0:0x701c),AL        ; |79| 
         00000051 701C 
     239 00000052 9A02          MOVB      AL,#2                 ; |83| 
     240 00000053 F4A9          MOV       *(0:0x701b),AL        ; |83| 
         00000054 701B 
     241 00000055 761A   edis               ; Disable accesses to PIE control registers
TMS320C2000 COFF Assembler PC v4.1.3 Wed Sep 14 09:00:58 2016

Tools Copyright (c) 1996-2006 Texas Instruments Incorporated
sci.asm                                                              PAGE    6

     242 00000056 FF69          SPM       #0
     243 00000057 28A9          MOV       AL,#600               ; |85| 
         00000058 0258 
     244 00000059 7640!         LCR       #_NOPDelay            ; |85| 
         0000005a 0000 
     245                      ; call occurs [#_NOPDelay] ; |85| 
     246 0000005b 761F-         MOVW      DP,#_sciportA
         0000005c 0000 
     247 0000005d 2800-         MOV       @_sciportA,#7         ; |86| 
         0000005e 0007 
     248 0000005f 761F-         MOVW      DP,#_sciportA+1
         00000060 0000 
     249 00000061 2801-         MOV       @_sciportA+1,#35      ; |88| 
         00000062 0023 
     250 00000063 761F-         MOVW      DP,#_sciportA+2
         00000064 0000 
     251 00000065 2B02-         MOV       @_sciportA+2,#0       ; |93| 
     252 00000066 761F-         MOVW      DP,#_sciportA+3
         00000067 0000 
     253 00000068 2803-         MOV       @_sciportA+3,#121     ; |94| 
         00000069 0079 
     254 0000006a 761F-         MOVW      DP,#_sciportA+10
         0000006b 0000 
     255 0000006c 280A-         MOV       @_sciportA+10,#32768  ; |96| 
         0000006d 8000 
     256 0000006e 761F-         MOVW      DP,#_sciportA+11
         0000006f 0000 
     257 00000070 2B0B-         MOV       @_sciportA+11,#0      ; |97| 
     258 00000071 761F-         MOVW      DP,#_sciportA+12
         00000072 0000 
     259 00000073 2B0C-         MOV       @_sciportA+12,#0      ; |98| 
     260 00000074 761F-         MOVW      DP,#_sciportA+13
         00000075 0000 
     261 00000076 2B0D-         MOV       @_sciportA+13,#0      ; |99| 
     262 00000077 761F-         MOVW      DP,#_sciportA+4
         00000078 0000 
     263 00000079 1A04-         OR        @_sciportA+4,#0x0002  ; |101| 
         0000007a 0002 
     264 0000007b 8F00-         MOVL      XAR4,#_receiveA+9     ; |103| 
         0000007c 0009 
     265 0000007d 761F-         MOVW      DP,#_receiveA+2
         0000007e 0000 
     266 0000007f 028C          MOVB      ACC,#140
     267 00000080 A802-         MOVL      @_receiveA+2,XAR4     ; |103| 
     268 00000081 761F-         MOVW      DP,#_receiveA
         00000082 0000 
     269 00000083 07A4          ADDL      ACC,XAR4
     270 00000084 A800-         MOVL      @_receiveA,XAR4       ; |103| 
     271 00000085 761F-         MOVW      DP,#_receiveA+4
         00000086 0000 
     272 00000087 1E04-         MOVL      @_receiveA+4,ACC      ; |104| 
     273 00000088 761F-         MOVW      DP,#_receiveA+7
         00000089 0000 
     274 0000008a 2B07-         MOV       @_receiveA+7,#0       ; |106| 
     275 0000008b 761F-         MOVW      DP,#_receiveA+8
TMS320C2000 COFF Assembler PC v4.1.3 Wed Sep 14 09:00:58 2016

Tools Copyright (c) 1996-2006 Texas Instruments Incorporated
sci.asm                                                              PAGE    7

         0000008c 0000 
     276 0000008d 8F00-         MOVL      XAR4,#_transmitA+6    ; |109| 
         0000008e 009C 
     277 0000008f 0205          MOVB      ACC,#5
     278 00000090 2B08-         MOV       @_receiveA+8,#0       ; |107| 
     279 00000091 07A4          ADDL      ACC,XAR4
     280 00000092 761F-         MOVW      DP,#_transmitA+2
         00000093 0002 
     281 00000094 A818-         MOVL      @_transmitA+2,XAR4    ; |109| 
     282 00000095 761F-         MOVW      DP,#_transmitA
         00000096 0002 
     283 00000097 A816-         MOVL      @_transmitA,XAR4      ; |109| 
     284 00000098 761F-         MOVW      DP,#_transmitA+4
         00000099 0002 
     285 0000009a 1E1A-         MOVL      @_transmitA+4,ACC     ; |110| 
     286                      .dwpsn  "sci.c",112,1
     287 0000009b 0006          LRETR
     288                      ; return occurs
     289                      .dwattr DW$27, DW_AT_end_file("sci.c")
     290                      .dwattr DW$27, DW_AT_end_line(0x70)
     291                      .dwattr DW$27, DW_AT_end_column(0x01)
     292                      .dwendtag DW$27
     293              
     294 0000009c               .sect   ".text"
     295                      .global _SerialPortBSetup
     296              
     297              DW$28   .dwtag  DW_TAG_subprogram, DW_AT_name("SerialPortBSetup"), DW_AT_symbol_name("_SerialPortBSetup")
     298                      .dwattr DW$28, DW_AT_low_pc(_SerialPortBSetup)
     299                      .dwattr DW$28, DW_AT_high_pc(0x00)
     300                      .dwattr DW$28, DW_AT_begin_file("sci.c")
     301                      .dwattr DW$28, DW_AT_begin_line(0x73)
     302                      .dwattr DW$28, DW_AT_begin_column(0x06)
     303                      .dwattr DW$28, DW_AT_frame_base[DW_OP_breg20 -2]
     304                      .dwattr DW$28, DW_AT_skeletal(0x01)
     305                      .dwpsn  "sci.c",116,1
     306              
     307              ;***************************************************************
     308              ;* FNAME: _SerialPortBSetup             FR SIZE:   0           *
     309              ;*                                                             *
     310              ;* FUNCTION ENVIRONMENT                                        *
     311              ;*                                                             *
     312              ;* FUNCTION PROPERTIES                                         *
     313              ;*                            0 Parameter,  0 Auto,  0 SOE     *
     314              ;***************************************************************
     315              
     316 0000009c       _SerialPortBSetup:
     317 0000009c 7622   eallow             ; Enable accesses to PIE control registers
     318 0000009d F5A9          MOV       AL,*(0:0x70d9)        ; |119| 
         0000009e 70D9 
     319 0000009f 5010          ORB       AL,#0x10              ; |119| 
     320 000000a0 F4A9          MOV       *(0:0x70d9),AL        ; |119| 
         000000a1 70D9 
     321 000000a2 7700          NOP
     322 000000a3 7700          NOP
     323 000000a4 F5A9          MOV       AL,*(0:0x70d8)        ; |120| 
TMS320C2000 COFF Assembler PC v4.1.3 Wed Sep 14 09:00:58 2016

Tools Copyright (c) 1996-2006 Texas Instruments Incorporated
sci.asm                                                              PAGE    8

         000000a5 70D8 
     324 000000a6 5030          ORB       AL,#0x30              ; |120| 
     325 000000a7 F4A9          MOV       *(0:0x70d8),AL        ; |120| 
         000000a8 70D8 
     326 000000a9 7700          NOP
     327 000000aa 7700          NOP
     328 000000ab F5A9          MOV       AL,*(0:0x701c)        ; |121| 
         000000ac 701C 
     329 000000ad 1AA9          OR        AL,#0x0800            ; |121| 
         000000ae 0800 
     330 000000af F4A9          MOV       *(0:0x701c),AL        ; |121| 
         000000b0 701C 
     331 000000b1 9A02          MOVB      AL,#2                 ; |125| 
     332 000000b2 F4A9          MOV       *(0:0x701b),AL        ; |125| 
         000000b3 701B 
     333 000000b4 761A   edis               ; Disable accesses to PIE control registers
     334 000000b5 FF69          SPM       #0
     335 000000b6 28A9          MOV       AL,#600               ; |127| 
         000000b7 0258 
     336 000000b8 7640!         LCR       #_NOPDelay            ; |127| 
         000000b9 0000 
     337                      ; call occurs [#_NOPDelay] ; |127| 
     338 000000ba 761F-         MOVW      DP,#_sciportB
         000000bb 0000 
     339 000000bc 2800-         MOV       @_sciportB,#7         ; |128| 
         000000bd 0007 
     340 000000be 761F-         MOVW      DP,#_sciportB+1
         000000bf 0000 
     341 000000c0 2801-         MOV       @_sciportB+1,#35      ; |130| 
         000000c1 0023 
     342 000000c2 761F-         MOVW      DP,#_sciportB+2
         000000c3 0000 
     343 000000c4 2B02-         MOV       @_sciportB+2,#0       ; |143| 
     344 000000c5 761F-         MOVW      DP,#_sciportB+3
         000000c6 0000 
     345 000000c7 2803-         MOV       @_sciportB+3,#40      ; |144| 
         000000c8 0028 
     346 000000c9 761F-         MOVW      DP,#_sciportB+10
         000000ca 0000 
     347 000000cb 280A-         MOV       @_sciportB+10,#32768  ; |146| 
         000000cc 8000 
     348 000000cd 761F-         MOVW      DP,#_sciportB+11
         000000ce 0000 
     349 000000cf 2B0B-         MOV       @_sciportB+11,#0      ; |147| 
     350 000000d0 761F-         MOVW      DP,#_sciportB+12
         000000d1 0000 
     351 000000d2 2B0C-         MOV       @_sciportB+12,#0      ; |148| 
     352 000000d3 761F-         MOVW      DP,#_sciportB+13
         000000d4 0000 
     353 000000d5 2B0D-         MOV       @_sciportB+13,#0      ; |149| 
     354 000000d6 761F-         MOVW      DP,#_sciportB+4
         000000d7 0000 
     355 000000d8 1A04-         OR        @_sciportB+4,#0x0003  ; |151| 
         000000d9 0003 
     356 000000da 761F-         MOVW      DP,#_sciportB+4
TMS320C2000 COFF Assembler PC v4.1.3 Wed Sep 14 09:00:58 2016

Tools Copyright (c) 1996-2006 Texas Instruments Incorporated
sci.asm                                                              PAGE    9

         000000db 0000 
     357 000000dc 1A04-         OR        @_sciportB+4,#0x0002  ; |153| 
         000000dd 0002 
     358 000000de 8F00-         MOVL      XAR4,#_receiveB+9     ; |155| 
         000000df 0009 
     359 000000e0 761F-         MOVW      DP,#_receiveB+2
         000000e1 0000 
     360 000000e2 028C          MOVB      ACC,#140
     361 000000e3 A802-         MOVL      @_receiveB+2,XAR4     ; |155| 
     362 000000e4 761F-         MOVW      DP,#_receiveB
         000000e5 0000 
     363 000000e6 07A4          ADDL      ACC,XAR4
     364 000000e7 A800-         MOVL      @_receiveB,XAR4       ; |155| 
     365 000000e8 761F-         MOVW      DP,#_receiveB+4
         000000e9 0000 
     366 000000ea 1E04-         MOVL      @_receiveB+4,ACC      ; |156| 
     367 000000eb 761F-         MOVW      DP,#_receiveB+6
         000000ec 0000 
     368 000000ed 2B06-         MOV       @_receiveB+6,#0       ; |157| 
     369 000000ee 8F00-         MOVL      XAR4,#_transmitB+6    ; |159| 
         000000ef 009C 
     370 000000f0 761F-         MOVW      DP,#_transmitB+2
         000000f1 0002 
     371 000000f2 A818-         MOVL      @_transmitB+2,XAR4    ; |159| 
     372 000000f3 761F-         MOVW      DP,#_transmitB
         000000f4 0002 
     373 000000f5 0205          MOVB      ACC,#5
     374 000000f6 A816-         MOVL      @_transmitB,XAR4      ; |159| 
     375 000000f7 07A4          ADDL      ACC,XAR4
     376 000000f8 761F-         MOVW      DP,#_transmitB+4
         000000f9 0002 
     377 000000fa 1E1A-         MOVL      @_transmitB+4,ACC     ; |160| 
     378 000000fb 761F!         MOVW      DP,#_timers+57
         000000fc 0000 
     379 000000fd 2839!         MOV       @_timers+57,#6000     ; |162| 
         000000fe 1770 
     380 000000ff 761F!         MOVW      DP,#_pcmodbus+271
         00000100 0004 
     381 00000101 2B0F!         MOV       @_pcmodbus+271,#0     ; |163| 
     382 00000102 761F!         MOVW      DP,#_safe2+14
         00000103 0000 
     383 00000104 280E!         MOV       @_safe2+14,#1         ; |165| 
         00000105 0001 
     384                      .dwpsn  "sci.c",167,1
     385 00000106 0006          LRETR
     386                      ; return occurs
     387                      .dwattr DW$28, DW_AT_end_file("sci.c")
     388                      .dwattr DW$28, DW_AT_end_line(0xa7)
     389                      .dwattr DW$28, DW_AT_end_column(0x01)
     390                      .dwendtag DW$28
     391              
     392 00000107               .sect   ".text"
     393                      .global _PerformSciTxIntA
     394              
     395              DW$29   .dwtag  DW_TAG_subprogram, DW_AT_name("PerformSciTxIntA"), DW_AT_symbol_name("_PerformSciTxIntA")
TMS320C2000 COFF Assembler PC v4.1.3 Wed Sep 14 09:00:58 2016

Tools Copyright (c) 1996-2006 Texas Instruments Incorporated
sci.asm                                                              PAGE   10

     396                      .dwattr DW$29, DW_AT_low_pc(_PerformSciTxIntA)
     397                      .dwattr DW$29, DW_AT_high_pc(0x00)
     398                      .dwattr DW$29, DW_AT_begin_file("sci.c")
     399                      .dwattr DW$29, DW_AT_begin_line(0xab)
     400                      .dwattr DW$29, DW_AT_begin_column(0x06)
     401                      .dwattr DW$29, DW_AT_frame_base[DW_OP_breg20 -2]
     402                      .dwattr DW$29, DW_AT_skeletal(0x01)
     403                      .dwpsn  "sci.c",172,1
     404              
     405              ;***************************************************************
     406              ;* FNAME: _PerformSciTxIntA             FR SIZE:   0           *
     407              ;*                                                             *
     408              ;* FUNCTION ENVIRONMENT                                        *
     409              ;*                                                             *
     410              ;* FUNCTION PROPERTIES                                         *
     411              ;*                            0 Parameter,  0 Auto,  0 SOE     *
     412              ;***************************************************************
     413              
     414 00000107       _PerformSciTxIntA:
     415 00000107 761F-         MOVW      DP,#_sciportA+4
         00000108 0000 
     416 00000109 4704-         TBIT      @_sciportA+4,#7       ; |174| 
     417 0000010a EF1E          BF        L1,NTC                ; |174| 
     418                      ; branchcc occurs ; |174| 
     419 0000010b 761F-         MOVW      DP,#_transmitA+2
         0000010c 0002 
     420 0000010d 8A18-         MOVL      XAR4,@_transmitA+2    ; |176| 
     421 0000010e 761F-         MOVW      DP,#_transmitA
         0000010f 0002 
     422 00000110 C416-         MOVL      XAR6,@_transmitA      ; |176| 
     423 00000111 A8A9          MOVL      ACC,XAR4              ; |176| 
     424 00000112 0FA6          CMPL      ACC,XAR6              ; |176| 
     425 00000113 EC15          BF        L1,EQ                 ; |176| 
     426                      ; branchcc occurs ; |176| 
     427 00000114 92C4          MOV       AL,*+XAR4[0]          ; |178| 
     428 00000115 761F-         MOVW      DP,#_sciportA+9
         00000116 0000 
     429 00000117 9609-         MOV       @_sciportA+9,AL       ; |178| 
     430 00000118 0201          MOVB      ACC,#1
     431 00000119 07A4          ADDL      ACC,XAR4
     432 0000011a 1EA6          MOVL      XAR6,ACC              ; |179| 
     433 0000011b 761F-         MOVW      DP,#_transmitA+2
         0000011c 0002 
     434 0000011d 1E18-         MOVL      @_transmitA+2,ACC     ; |179| 
     435 0000011e 761F-         MOVW      DP,#_transmitA+4
         0000011f 0002 
     436 00000120 061A-         MOVL      ACC,@_transmitA+4     ; |179| 
     437 00000121 0FA6          CMPL      ACC,XAR6              ; |179| 
     438 00000122 ED06          BF        L1,NEQ                ; |179| 
     439                      ; branchcc occurs ; |179| 
     440 00000123 8F00-         MOVL      XAR4,#_transmitA+6    ; |179| 
         00000124 009C 
     441 00000125 761F-         MOVW      DP,#_transmitA+2
         00000126 0002 
     442 00000127 A818-         MOVL      @_transmitA+2,XAR4    ; |179| 
TMS320C2000 COFF Assembler PC v4.1.3 Wed Sep 14 09:00:58 2016

Tools Copyright (c) 1996-2006 Texas Instruments Incorporated
sci.asm                                                              PAGE   11

     443              L1:    
     444                      .dwpsn  "sci.c",183,1
     445 00000128 0006          LRETR
     446                      ; return occurs
     447                      .dwattr DW$29, DW_AT_end_file("sci.c")
     448                      .dwattr DW$29, DW_AT_end_line(0xb7)
     449                      .dwattr DW$29, DW_AT_end_column(0x01)
     450                      .dwendtag DW$29
     451              
     452 00000129               .sect   ".text"
     453                      .global _PerformSciRxIntA
     454              
     455              DW$30   .dwtag  DW_TAG_subprogram, DW_AT_name("PerformSciRxIntA"), DW_AT_symbol_name("_PerformSciRxIntA")
     456                      .dwattr DW$30, DW_AT_low_pc(_PerformSciRxIntA)
     457                      .dwattr DW$30, DW_AT_high_pc(0x00)
     458                      .dwattr DW$30, DW_AT_begin_file("sci.c")
     459                      .dwattr DW$30, DW_AT_begin_line(0xba)
     460                      .dwattr DW$30, DW_AT_begin_column(0x06)
     461                      .dwattr DW$30, DW_AT_frame_base[DW_OP_breg20 -2]
     462                      .dwattr DW$30, DW_AT_skeletal(0x01)
     463                      .dwpsn  "sci.c",187,1
     464              
     465              ;***************************************************************
     466              ;* FNAME: _PerformSciRxIntA             FR SIZE:   0           *
     467              ;*                                                             *
     468              ;* FUNCTION ENVIRONMENT                                        *
     469              ;*                                                             *
     470              ;* FUNCTION PROPERTIES                                         *
     471              ;*                            0 Parameter,  0 Auto,  0 SOE     *
     472              ;***************************************************************
     473              
     474 00000129       _PerformSciRxIntA:
     475 00000129 761F!         MOVW      DP,#_gpb
         0000012a 0000 
     476 0000012b 4D00!         TBIT      @_gpb,#13             ; |191| 
     477 0000012c EE34          BF        L4,TC                 ; |191| 
     478                      ; branchcc occurs ; |191| 
     479 0000012d 761F-         MOVW      DP,#_sciportA+5
         0000012e 0000 
     480 0000012f 4705-         TBIT      @_sciportA+5,#7       ; |193| 
     481 00000130 EE28          BF        L3,TC                 ; |193| 
     482                      ; branchcc occurs ; |193| 
     483 00000131 761F-         MOVW      DP,#_receiveA+7
         00000132 0000 
     484 00000133 5807-         MOVZ      AR0,@_receiveA+7      ; |201| 
     485 00000134 8F00-         MOVL      XAR4,#_receiveA+9     ; |201| 
         00000135 0009 
     486 00000136 761F-         MOVW      DP,#_sciportA+7
         00000137 0000 
     487 00000138 9207-         MOV       AL,@_sciportA+7       ; |201| 
     488 00000139 761F-         MOVW      DP,#_receiveA+7
         0000013a 0000 
     489 0000013b 9694          MOV       *+XAR4[AR0],AL        ; |201| 
     490 0000013c 0A07-         INC       @_receiveA+7          ; |204| 
     491 0000013d 761F-         MOVW      DP,#_receiveA+7
TMS320C2000 COFF Assembler PC v4.1.3 Wed Sep 14 09:00:58 2016

Tools Copyright (c) 1996-2006 Texas Instruments Incorporated
sci.asm                                                              PAGE   12

         0000013e 0000 
     492 0000013f 9207-         MOV       AL,@_receiveA+7       ; |204| 
     493 00000140 528C          CMPB      AL,#140               ; |204| 
     494 00000141 56C8          BF        L2,LO                 ; |204| 
         00000142 0005 
     495                      ; branchcc occurs ; |204| 
     496 00000143 761F-         MOVW      DP,#_receiveA+7
         00000144 0000 
     497 00000145 2B07-         MOV       @_receiveA+7,#0       ; |204| 
     498 00000146       L2:    
     499 00000146 761F-         MOVW      DP,#_receiveA
         00000147 0000 
     500 00000148 0600-         MOVL      ACC,@_receiveA        ; |206| 
     501 00000149 0901          ADDB      ACC,#1                ; |206| 
     502 0000014a 1EA6          MOVL      XAR6,ACC              ; |206| 
     503 0000014b 761F-         MOVW      DP,#_receiveA
         0000014c 0000 
     504 0000014d 1E00-         MOVL      @_receiveA,ACC        ; |206| 
     505 0000014e 761F-         MOVW      DP,#_receiveA+4
         0000014f 0000 
     506 00000150 0604-         MOVL      ACC,@_receiveA+4      ; |206| 
     507 00000151 0FA6          CMPL      ACC,XAR6              ; |206| 
     508 00000152 ED0E          BF        L4,NEQ                ; |206| 
     509                      ; branchcc occurs ; |206| 
     510 00000153 761F-         MOVW      DP,#_receiveA
         00000154 0000 
     511 00000155 A800-         MOVL      @_receiveA,XAR4       ; |206| 
     512 00000156 56CF          BF        L4,UNC                ; |206| 
         00000157 000A 
     513                      ; branch occurs ; |206| 
     514 00000158       L3:    
     515 00000158 761F-         MOVW      DP,#_sciportA+1
         00000159 0000 
     516 0000015a 1801-         AND       @_sciportA+1,#0xffdf  ; |196| 
         0000015b FFDF 
     517 0000015c 761F-         MOVW      DP,#_sciportA+1
         0000015d 0000 
     518 0000015e 1A01-         OR        @_sciportA+1,#0x0020  ; |197| 
         0000015f 0020 
     519              L4:    
     520                      .dwpsn  "sci.c",209,1
     521 00000160 0006          LRETR
     522                      ; return occurs
     523                      .dwattr DW$30, DW_AT_end_file("sci.c")
     524                      .dwattr DW$30, DW_AT_end_line(0xd1)
     525                      .dwattr DW$30, DW_AT_end_column(0x01)
     526                      .dwendtag DW$30
     527              
     528 00000161               .sect   ".text"
     529                      .global _PerformSciTxIntB
     530              
     531              DW$31   .dwtag  DW_TAG_subprogram, DW_AT_name("PerformSciTxIntB"), DW_AT_symbol_name("_PerformSciTxIntB")
     532                      .dwattr DW$31, DW_AT_low_pc(_PerformSciTxIntB)
     533                      .dwattr DW$31, DW_AT_high_pc(0x00)
     534                      .dwattr DW$31, DW_AT_begin_file("sci.c")
TMS320C2000 COFF Assembler PC v4.1.3 Wed Sep 14 09:00:58 2016

Tools Copyright (c) 1996-2006 Texas Instruments Incorporated
sci.asm                                                              PAGE   13

     535                      .dwattr DW$31, DW_AT_begin_line(0xd5)
     536                      .dwattr DW$31, DW_AT_begin_column(0x06)
     537                      .dwattr DW$31, DW_AT_frame_base[DW_OP_breg20 -2]
     538                      .dwattr DW$31, DW_AT_skeletal(0x01)
     539                      .dwpsn  "sci.c",214,1
     540              
     541              ;***************************************************************
     542              ;* FNAME: _PerformSciTxIntB             FR SIZE:   0           *
     543              ;*                                                             *
     544              ;* FUNCTION ENVIRONMENT                                        *
     545              ;*                                                             *
     546              ;* FUNCTION PROPERTIES                                         *
     547              ;*                            0 Parameter,  0 Auto,  0 SOE     *
     548              ;***************************************************************
     549              
     550 00000161       _PerformSciTxIntB:
     551 00000161 761F-         MOVW      DP,#_sciportB+4
         00000162 0000 
     552 00000163 4704-         TBIT      @_sciportB+4,#7       ; |216| 
     553 00000164 EF1E          BF        L5,NTC                ; |216| 
     554                      ; branchcc occurs ; |216| 
     555 00000165 761F-         MOVW      DP,#_transmitB+2
         00000166 0002 
     556 00000167 8A18-         MOVL      XAR4,@_transmitB+2    ; |218| 
     557 00000168 761F-         MOVW      DP,#_transmitB
         00000169 0002 
     558 0000016a C416-         MOVL      XAR6,@_transmitB      ; |218| 
     559 0000016b A8A9          MOVL      ACC,XAR4              ; |218| 
     560 0000016c 0FA6          CMPL      ACC,XAR6              ; |218| 
     561 0000016d EC15          BF        L5,EQ                 ; |218| 
     562                      ; branchcc occurs ; |218| 
     563 0000016e 92C4          MOV       AL,*+XAR4[0]          ; |220| 
     564 0000016f 761F-         MOVW      DP,#_sciportB+9
         00000170 0000 
     565 00000171 9609-         MOV       @_sciportB+9,AL       ; |220| 
     566 00000172 0201          MOVB      ACC,#1
     567 00000173 07A4          ADDL      ACC,XAR4
     568 00000174 1EA6          MOVL      XAR6,ACC              ; |221| 
     569 00000175 761F-         MOVW      DP,#_transmitB+2
         00000176 0002 
     570 00000177 1E18-         MOVL      @_transmitB+2,ACC     ; |221| 
     571 00000178 761F-         MOVW      DP,#_transmitB+4
         00000179 0002 
     572 0000017a 061A-         MOVL      ACC,@_transmitB+4     ; |221| 
     573 0000017b 0FA6          CMPL      ACC,XAR6              ; |221| 
     574 0000017c ED06          BF        L5,NEQ                ; |221| 
     575                      ; branchcc occurs ; |221| 
     576 0000017d 8F00-         MOVL      XAR4,#_transmitB+6    ; |221| 
         0000017e 009C 
     577 0000017f 761F-         MOVW      DP,#_transmitB+2
         00000180 0002 
     578 00000181 A818-         MOVL      @_transmitB+2,XAR4    ; |221| 
     579              L5:    
     580                      .dwpsn  "sci.c",225,1
     581 00000182 0006          LRETR
TMS320C2000 COFF Assembler PC v4.1.3 Wed Sep 14 09:00:58 2016

Tools Copyright (c) 1996-2006 Texas Instruments Incorporated
sci.asm                                                              PAGE   14

     582                      ; return occurs
     583                      .dwattr DW$31, DW_AT_end_file("sci.c")
     584                      .dwattr DW$31, DW_AT_end_line(0xe1)
     585                      .dwattr DW$31, DW_AT_end_column(0x01)
     586                      .dwendtag DW$31
     587              
     588 00000183               .sect   ".text"
     589                      .global _PerformSciRxIntB
     590              
     591              DW$32   .dwtag  DW_TAG_subprogram, DW_AT_name("PerformSciRxIntB"), DW_AT_symbol_name("_PerformSciRxIntB")
     592                      .dwattr DW$32, DW_AT_low_pc(_PerformSciRxIntB)
     593                      .dwattr DW$32, DW_AT_high_pc(0x00)
     594                      .dwattr DW$32, DW_AT_begin_file("sci.c")
     595                      .dwattr DW$32, DW_AT_begin_line(0xe4)
     596                      .dwattr DW$32, DW_AT_begin_column(0x06)
     597                      .dwattr DW$32, DW_AT_frame_base[DW_OP_breg20 -2]
     598                      .dwattr DW$32, DW_AT_skeletal(0x01)
     599                      .dwpsn  "sci.c",229,1
     600              
     601              ;***************************************************************
     602              ;* FNAME: _PerformSciRxIntB             FR SIZE:   0           *
     603              ;*                                                             *
     604              ;* FUNCTION ENVIRONMENT                                        *
     605              ;*                                                             *
     606              ;* FUNCTION PROPERTIES                                         *
     607              ;*                            0 Parameter,  0 Auto,  0 SOE     *
     608              ;***************************************************************
     609              
     610 00000183       _PerformSciRxIntB:
     611 00000183 761F!         MOVW      DP,#_gpf
         00000184 0000 
     612 00000185 4C00!         TBIT      @_gpf,#12             ; |233| 
     613 00000186 EE30          BF        L8,TC                 ; |233| 
     614                      ; branchcc occurs ; |233| 
     615 00000187 761F-         MOVW      DP,#_sciportB+5
         00000188 0000 
     616 00000189 4705-         TBIT      @_sciportB+5,#7       ; |235| 
     617 0000018a EE24          BF        L7,TC                 ; |235| 
     618                      ; branchcc occurs ; |235| 
     619 0000018b 761F-         MOVW      DP,#_receiveB
         0000018c 0000 
     620 0000018d 8A00-         MOVL      XAR4,@_receiveB       ; |243| 
     621 0000018e 761F-         MOVW      DP,#_sciportB+7
         0000018f 0000 
     622 00000190 9207-         MOV       AL,@_sciportB+7       ; |243| 
     623 00000191 761F-         MOVW      DP,#_receiveB+7
         00000192 0000 
     624 00000193 96C4          MOV       *+XAR4[0],AL          ; |243| 
     625 00000194 0A07-         INC       @_receiveB+7          ; |244| 
     626 00000195 761F-         MOVW      DP,#_receiveB
         00000196 0000 
     627 00000197 0600-         MOVL      ACC,@_receiveB        ; |246| 
     628 00000198 0901          ADDB      ACC,#1                ; |246| 
     629 00000199 761F-         MOVW      DP,#_receiveB
         0000019a 0000 
TMS320C2000 COFF Assembler PC v4.1.3 Wed Sep 14 09:00:58 2016

Tools Copyright (c) 1996-2006 Texas Instruments Incorporated
sci.asm                                                              PAGE   15

     630 0000019b 1EA6          MOVL      XAR6,ACC              ; |246| 
     631 0000019c 1E00-         MOVL      @_receiveB,ACC        ; |246| 
     632 0000019d 761F-         MOVW      DP,#_receiveB+4
         0000019e 0000 
     633 0000019f 0604-         MOVL      ACC,@_receiveB+4      ; |246| 
     634 000001a0 0FA6          CMPL      ACC,XAR6              ; |246| 
     635 000001a1 ED06          BF        L6,NEQ                ; |246| 
     636                      ; branchcc occurs ; |246| 
     637 000001a2 8F00-         MOVL      XAR4,#_receiveB+9     ; |246| 
         000001a3 0009 
     638 000001a4 761F-         MOVW      DP,#_receiveB
         000001a5 0000 
     639 000001a6 A800-         MOVL      @_receiveB,XAR4       ; |246| 
     640 000001a7       L6:    
     641 000001a7 761F!         MOVW      DP,#_timers+39
         000001a8 0000 
     642 000001a9 2827!         MOV       @_timers+39,#200      ; |249| 
         000001aa 00C8 
     643 000001ab 7700          NOP
     644 000001ac 56CF          BF        L8,UNC                ; |249| 
         000001ad 000A 
     645                      ; branch occurs ; |249| 
     646 000001ae       L7:    
     647 000001ae 761F-         MOVW      DP,#_sciportB+1
         000001af 0000 
     648 000001b0 1801-         AND       @_sciportB+1,#0xffdf  ; |238| 
         000001b1 FFDF 
     649 000001b2 761F-         MOVW      DP,#_sciportB+1
         000001b3 0000 
     650 000001b4 1A01-         OR        @_sciportB+1,#0x0020  ; |239| 
         000001b5 0020 
     651              L8:    
     652                      .dwpsn  "sci.c",253,1
     653 000001b6 0006          LRETR
     654                      ; return occurs
     655                      .dwattr DW$32, DW_AT_end_file("sci.c")
     656                      .dwattr DW$32, DW_AT_end_line(0xfd)
     657                      .dwattr DW$32, DW_AT_end_column(0x01)
     658                      .dwendtag DW$32
     659              
     660 000001b7               .sect   ".text"
     661                      .global _PerformSciRxIntD
     662              
     663              DW$33   .dwtag  DW_TAG_subprogram, DW_AT_name("PerformSciRxIntD"), DW_AT_symbol_name("_PerformSciRxIntD")
     664                      .dwattr DW$33, DW_AT_low_pc(_PerformSciRxIntD)
     665                      .dwattr DW$33, DW_AT_high_pc(0x00)
     666                      .dwattr DW$33, DW_AT_begin_file("sci.c")
     667                      .dwattr DW$33, DW_AT_begin_line(0x101)
     668                      .dwattr DW$33, DW_AT_begin_column(0x06)
     669                      .dwattr DW$33, DW_AT_frame_base[DW_OP_breg20 -2]
     670                      .dwattr DW$33, DW_AT_skeletal(0x01)
     671                      .dwpsn  "sci.c",258,1
     672              
     673              ;***************************************************************
     674              ;* FNAME: _PerformSciRxIntD             FR SIZE:   0           *
TMS320C2000 COFF Assembler PC v4.1.3 Wed Sep 14 09:00:58 2016

Tools Copyright (c) 1996-2006 Texas Instruments Incorporated
sci.asm                                                              PAGE   16

     675              ;*                                                             *
     676              ;* FUNCTION ENVIRONMENT                                        *
     677              ;*                                                             *
     678              ;* FUNCTION PROPERTIES                                         *
     679              ;*                            0 Parameter,  0 Auto,  0 SOE     *
     680              ;***************************************************************
     681              
     682 000001b7       _PerformSciRxIntD:
     683 000001b7 761F!         MOVW      DP,#_gpb
         000001b8 0000 
     684 000001b9 4C00!         TBIT      @_gpb,#12             ; |260| 
     685 000001ba EE1D          BF        L9,TC                 ; |260| 
     686                      ; branchcc occurs ; |260| 
     687 000001bb 7640!         LCR       #_ReadDataFromUart_D  ; |262| 
         000001bc 0000 
     688                      ; call occurs [#_ReadDataFromUart_D] ; |262| 
     689 000001bd 761F-         MOVW      DP,#_receiveD
         000001be 0000 
     690 000001bf 8A00-         MOVL      XAR4,@_receiveD       ; |262| 
     691 000001c0 90FF          ANDB      AL,#255               ; |262| 
     692 000001c1 761F-         MOVW      DP,#_receiveD+7
         000001c2 0000 
     693 000001c3 96C4          MOV       *+XAR4[0],AL          ; |262| 
     694 000001c4 0A07-         INC       @_receiveD+7          ; |263| 
     695 000001c5 761F-         MOVW      DP,#_receiveD
         000001c6 0000 
     696 000001c7 0600-         MOVL      ACC,@_receiveD        ; |265| 
     697 000001c8 0901          ADDB      ACC,#1                ; |265| 
     698 000001c9 1EA6          MOVL      XAR6,ACC              ; |265| 
     699 000001ca 761F-         MOVW      DP,#_receiveD
         000001cb 0000 
     700 000001cc 1E00-         MOVL      @_receiveD,ACC        ; |265| 
     701 000001cd 761F-         MOVW      DP,#_receiveD+4
         000001ce 0000 
     702 000001cf 0604-         MOVL      ACC,@_receiveD+4      ; |265| 
     703 000001d0 0FA6          CMPL      ACC,XAR6              ; |265| 
     704 000001d1 ED06          BF        L9,NEQ                ; |265| 
     705                      ; branchcc occurs ; |265| 
     706 000001d2 8F00-         MOVL      XAR4,#_receiveD+9     ; |265| 
         000001d3 0009 
     707 000001d4 761F-         MOVW      DP,#_receiveD
         000001d5 0000 
     708 000001d6 A800-         MOVL      @_receiveD,XAR4       ; |265| 
     709              L9:    
     710                      .dwpsn  "sci.c",268,1
     711 000001d7 0006          LRETR
     712                      ; return occurs
     713                      .dwattr DW$33, DW_AT_end_file("sci.c")
     714                      .dwattr DW$33, DW_AT_end_line(0x10c)
     715                      .dwattr DW$33, DW_AT_end_column(0x01)
     716                      .dwendtag DW$33
     717              
     718 000001d8               .sect   ".text"
     719                      .global _SendChar
     720              
TMS320C2000 COFF Assembler PC v4.1.3 Wed Sep 14 09:00:58 2016

Tools Copyright (c) 1996-2006 Texas Instruments Incorporated
sci.asm                                                              PAGE   17

     721              DW$34   .dwtag  DW_TAG_subprogram, DW_AT_name("SendChar"), DW_AT_symbol_name("_SendChar")
     722                      .dwattr DW$34, DW_AT_low_pc(_SendChar)
     723                      .dwattr DW$34, DW_AT_high_pc(0x00)
     724                      .dwattr DW$34, DW_AT_begin_file("sci.c")
     725                      .dwattr DW$34, DW_AT_begin_line(0x10e)
     726                      .dwattr DW$34, DW_AT_begin_column(0x06)
     727                      .dwattr DW$34, DW_AT_frame_base[DW_OP_breg20 -2]
     728                      .dwattr DW$34, DW_AT_skeletal(0x01)
     729                      .dwpsn  "sci.c",271,1
     730              
     731              ;***************************************************************
     732              ;* FNAME: _SendChar                     FR SIZE:   0           *
     733              ;*                                                             *
     734              ;* FUNCTION ENVIRONMENT                                        *
     735              ;*                                                             *
     736              ;* FUNCTION PROPERTIES                                         *
     737              ;*                            0 Parameter,  0 Auto,  0 SOE     *
     738              ;***************************************************************
     739              
     740              _SendChar:
     741              ;* AL    assigned to _c
     742              DW$35   .dwtag  DW_TAG_formal_parameter, DW_AT_name("c"), DW_AT_symbol_name("_c")
     743                      .dwattr DW$35, DW_AT_type(*DW$T$51)
     744                      .dwattr DW$35, DW_AT_location[DW_OP_reg0]
     745 000001d8 761F-         MOVW      DP,#_sciportA+1
         000001d9 0000 
     746 000001da 1A01-         OR        @_sciportA+1,#0x0002  ; |272| 
         000001db 0002 
     747 000001dc 761F-         MOVW      DP,#_transmitA
         000001dd 0002 
     748 000001de 8A16-         MOVL      XAR4,@_transmitA      ; |273| 
     749 000001df 88A9          MOVZ      AR6,AL                ; |271| 
     750 000001e0 761F-         MOVW      DP,#_transmitA
         000001e1 0002 
     751 000001e2 96C4          MOV       *+XAR4[0],AL          ; |273| 
     752 000001e3 0616-         MOVL      ACC,@_transmitA       ; |274| 
     753 000001e4 0901          ADDB      ACC,#1                ; |274| 
     754 000001e5 761F-         MOVW      DP,#_transmitA
         000001e6 0002 
     755 000001e7 1EA7          MOVL      XAR7,ACC              ; |274| 
     756 000001e8 1E16-         MOVL      @_transmitA,ACC       ; |274| 
     757 000001e9 761F-         MOVW      DP,#_transmitA+4
         000001ea 0002 
     758 000001eb 061A-         MOVL      ACC,@_transmitA+4     ; |274| 
     759 000001ec 0FA7          CMPL      ACC,XAR7              ; |274| 
     760 000001ed ED06          BF        L10,NEQ               ; |274| 
     761                      ; branchcc occurs ; |274| 
     762 000001ee 8F00-         MOVL      XAR4,#_transmitA+6    ; |274| 
         000001ef 009C 
     763 000001f0 761F-         MOVW      DP,#_transmitA
         000001f1 0002 
     764 000001f2 A816-         MOVL      @_transmitA,XAR4      ; |274| 
     765 000001f3       L10:    
     766 000001f3 761F-         MOVW      DP,#_sciportA+4
         000001f4 0000 
TMS320C2000 COFF Assembler PC v4.1.3 Wed Sep 14 09:00:58 2016

Tools Copyright (c) 1996-2006 Texas Instruments Incorporated
sci.asm                                                              PAGE   18

     767 000001f5 4704-         TBIT      @_sciportA+4,#7       ; |276| 
     768 000001f6 EE09          BF        L12,TC                ; |276| 
     769                      ; branchcc occurs ; |276| 
     770              L11:    
     771              DW$L$_SendChar$4$B:
     772                      .dwpsn  "sci.c",276,0
     773 000001f7 761F!         MOVW      DP,#_settings
         000001f8 0000 
     774 000001f9 2800!         MOV       @_settings,#1         ; |276| 
         000001fa 0001 
     775 000001fb 761F-         MOVW      DP,#_sciportA+4
         000001fc 0000 
     776 000001fd 4704-         TBIT      @_sciportA+4,#7       ; |276| 
     777 000001fe EFF9          BF        L11,NTC               ; |276| 
     778                      ; branchcc occurs ; |276| 
     779 000001ff       DW$L$_SendChar$4$E:
     780 000001ff       L12:    
     781 000001ff 761F-         MOVW      DP,#_sciportA+4
         00000200 0000 
     782 00000201 4704-         TBIT      @_sciportA+4,#7       ; |277| 
     783 00000202 EF1C          BF        L13,NTC               ; |277| 
     784                      ; branchcc occurs ; |277| 
     785 00000203 761F-         MOVW      DP,#_sciportA+4
         00000204 0000 
     786 00000205 1804-         AND       @_sciportA+4,#0xfffe  ; |279| 
         00000206 FFFE 
     787 00000207 761F-         MOVW      DP,#_transmitA+2
         00000208 0002 
     788 00000209 8A18-         MOVL      XAR4,@_transmitA+2    ; |284| 
     789 0000020a 761F-         MOVW      DP,#_sciportA+9
         0000020b 0000 
     790 0000020c 92C4          MOV       AL,*+XAR4[0]          ; |284| 
     791 0000020d 9609-         MOV       @_sciportA+9,AL       ; |284| 
     792 0000020e 0201          MOVB      ACC,#1
     793 0000020f 07A4          ADDL      ACC,XAR4
     794 00000210 761F-         MOVW      DP,#_transmitA+2
         00000211 0002 
     795 00000212 1EA7          MOVL      XAR7,ACC              ; |285| 
     796 00000213 1E18-         MOVL      @_transmitA+2,ACC     ; |285| 
     797 00000214 761F-         MOVW      DP,#_transmitA+4
         00000215 0002 
     798 00000216 061A-         MOVL      ACC,@_transmitA+4     ; |285| 
     799 00000217 0FA7          CMPL      ACC,XAR7              ; |285| 
     800 00000218 ED06          BF        L13,NEQ               ; |285| 
     801                      ; branchcc occurs ; |285| 
     802 00000219 8F00-         MOVL      XAR4,#_transmitA+6    ; |285| 
         0000021a 009C 
     803 0000021b 761F-         MOVW      DP,#_transmitA+2
         0000021c 0002 
     804 0000021d A818-         MOVL      @_transmitA+2,XAR4    ; |285| 
     805 0000021e       L13:    
     806 0000021e 92A6          MOV       AL,AR6                ; |287| 
     807                      .dwpsn  "sci.c",288,1
     808 0000021f 0006          LRETR
     809                      ; return occurs
TMS320C2000 COFF Assembler PC v4.1.3 Wed Sep 14 09:00:58 2016

Tools Copyright (c) 1996-2006 Texas Instruments Incorporated
sci.asm                                                              PAGE   19

     810              
     811              DW$36   .dwtag  DW_TAG_loop
     812                      .dwattr DW$36, DW_AT_name("D:\DEV\Amot\BearingWear\XTSW_V6_20\sci.asm:L11:1:1473840058")
     813                      .dwattr DW$36, DW_AT_begin_file("sci.c")
     814                      .dwattr DW$36, DW_AT_begin_line(0x114)
     815                      .dwattr DW$36, DW_AT_end_line(0x114)
     816              DW$37   .dwtag  DW_TAG_loop_range
     817                      .dwattr DW$37, DW_AT_low_pc(DW$L$_SendChar$4$B)
     818                      .dwattr DW$37, DW_AT_high_pc(DW$L$_SendChar$4$E)
     819                      .dwendtag DW$36
     820              
     821                      .dwattr DW$34, DW_AT_end_file("sci.c")
     822                      .dwattr DW$34, DW_AT_end_line(0x120)
     823                      .dwattr DW$34, DW_AT_end_column(0x01)
     824                      .dwendtag DW$34
     825              
     826 00000220               .sect   ".text"
     827                      .global _SendCharB
     828              
     829              DW$38   .dwtag  DW_TAG_subprogram, DW_AT_name("SendCharB"), DW_AT_symbol_name("_SendCharB")
     830                      .dwattr DW$38, DW_AT_low_pc(_SendCharB)
     831                      .dwattr DW$38, DW_AT_high_pc(0x00)
     832                      .dwattr DW$38, DW_AT_begin_file("sci.c")
     833                      .dwattr DW$38, DW_AT_begin_line(0x122)
     834                      .dwattr DW$38, DW_AT_begin_column(0x06)
     835                      .dwattr DW$38, DW_AT_frame_base[DW_OP_breg20 -2]
     836                      .dwattr DW$38, DW_AT_skeletal(0x01)
     837                      .dwpsn  "sci.c",291,1
     838              
     839              ;***************************************************************
     840              ;* FNAME: _SendCharB                    FR SIZE:   0           *
     841              ;*                                                             *
     842              ;* FUNCTION ENVIRONMENT                                        *
     843              ;*                                                             *
     844              ;* FUNCTION PROPERTIES                                         *
     845              ;*                            0 Parameter,  0 Auto,  0 SOE     *
     846              ;***************************************************************
     847              
     848              _SendCharB:
     849              ;* AL    assigned to _c
     850              DW$39   .dwtag  DW_TAG_formal_parameter, DW_AT_name("c"), DW_AT_symbol_name("_c")
     851                      .dwattr DW$39, DW_AT_type(*DW$T$51)
     852                      .dwattr DW$39, DW_AT_location[DW_OP_reg0]
     853 00000220 761F-         MOVW      DP,#_sciportB+1
         00000221 0000 
     854 00000222 1A01-         OR        @_sciportB+1,#0x0002  ; |292| 
         00000223 0002 
     855 00000224 761F-         MOVW      DP,#_transmitB
         00000225 0002 
     856 00000226 8A16-         MOVL      XAR4,@_transmitB      ; |293| 
     857 00000227 88A9          MOVZ      AR6,AL                ; |291| 
     858 00000228 761F-         MOVW      DP,#_transmitB
         00000229 0002 
     859 0000022a 96C4          MOV       *+XAR4[0],AL          ; |293| 
     860 0000022b 0616-         MOVL      ACC,@_transmitB       ; |294| 
TMS320C2000 COFF Assembler PC v4.1.3 Wed Sep 14 09:00:58 2016

Tools Copyright (c) 1996-2006 Texas Instruments Incorporated
sci.asm                                                              PAGE   20

     861 0000022c 0901          ADDB      ACC,#1                ; |294| 
     862 0000022d 761F-         MOVW      DP,#_transmitB
         0000022e 0002 
     863 0000022f 1EA7          MOVL      XAR7,ACC              ; |294| 
     864 00000230 1E16-         MOVL      @_transmitB,ACC       ; |294| 
     865 00000231 761F-         MOVW      DP,#_transmitB+4
         00000232 0002 
     866 00000233 061A-         MOVL      ACC,@_transmitB+4     ; |294| 
     867 00000234 0FA7          CMPL      ACC,XAR7              ; |294| 
     868 00000235 ED06          BF        L14,NEQ               ; |294| 
     869                      ; branchcc occurs ; |294| 
     870 00000236 8F00-         MOVL      XAR4,#_transmitB+6    ; |294| 
         00000237 009C 
     871 00000238 761F-         MOVW      DP,#_transmitB
         00000239 0002 
     872 0000023a A816-         MOVL      @_transmitB,XAR4      ; |294| 
     873 0000023b       L14:    
     874 0000023b 761F-         MOVW      DP,#_sciportB+4
         0000023c 0000 
     875 0000023d 4704-         TBIT      @_sciportB+4,#7       ; |297| 
     876 0000023e EE09          BF        L16,TC                ; |297| 
     877                      ; branchcc occurs ; |297| 
     878              L15:    
     879              DW$L$_SendCharB$4$B:
     880                      .dwpsn  "sci.c",297,0
     881 0000023f 761F!         MOVW      DP,#_settings
         00000240 0000 
     882 00000241 2800!         MOV       @_settings,#1         ; |297| 
         00000242 0001 
     883 00000243 761F-         MOVW      DP,#_sciportB+4
         00000244 0000 
     884 00000245 4704-         TBIT      @_sciportB+4,#7       ; |297| 
     885 00000246 EFF9          BF        L15,NTC               ; |297| 
     886                      ; branchcc occurs ; |297| 
     887 00000247       DW$L$_SendCharB$4$E:
     888 00000247       L16:    
     889 00000247 761F-         MOVW      DP,#_sciportB+4
         00000248 0000 
     890 00000249 4704-         TBIT      @_sciportB+4,#7       ; |299| 
     891 0000024a EF1C          BF        L17,NTC               ; |299| 
     892                      ; branchcc occurs ; |299| 
     893 0000024b 761F-         MOVW      DP,#_sciportB+4
         0000024c 0000 
     894 0000024d 1804-         AND       @_sciportB+4,#0xfffe  ; |301| 
         0000024e FFFE 
     895 0000024f 761F-         MOVW      DP,#_transmitB+2
         00000250 0002 
     896 00000251 8A18-         MOVL      XAR4,@_transmitB+2    ; |306| 
     897 00000252 761F-         MOVW      DP,#_sciportB+9
         00000253 0000 
     898 00000254 92C4          MOV       AL,*+XAR4[0]          ; |306| 
     899 00000255 9609-         MOV       @_sciportB+9,AL       ; |306| 
     900 00000256 0201          MOVB      ACC,#1
     901 00000257 07A4          ADDL      ACC,XAR4
     902 00000258 761F-         MOVW      DP,#_transmitB+2
TMS320C2000 COFF Assembler PC v4.1.3 Wed Sep 14 09:00:58 2016

Tools Copyright (c) 1996-2006 Texas Instruments Incorporated
sci.asm                                                              PAGE   21

         00000259 0002 
     903 0000025a 1EA7          MOVL      XAR7,ACC              ; |307| 
     904 0000025b 1E18-         MOVL      @_transmitB+2,ACC     ; |307| 
     905 0000025c 761F-         MOVW      DP,#_transmitB+4
         0000025d 0002 
     906 0000025e 061A-         MOVL      ACC,@_transmitB+4     ; |307| 
     907 0000025f 0FA7          CMPL      ACC,XAR7              ; |307| 
     908 00000260 ED06          BF        L17,NEQ               ; |307| 
     909                      ; branchcc occurs ; |307| 
     910 00000261 8F00-         MOVL      XAR4,#_transmitB+6    ; |307| 
         00000262 009C 
     911 00000263 761F-         MOVW      DP,#_transmitB+2
         00000264 0002 
     912 00000265 A818-         MOVL      @_transmitB+2,XAR4    ; |307| 
     913 00000266       L17:    
     914 00000266 92A6          MOV       AL,AR6                ; |311| 
     915 00000267 761F!         MOVW      DP,#_timers+57
         00000268 0000 
     916 00000269 2839!         MOV       @_timers+57,#6000     ; |309| 
         0000026a 1770 
     917 0000026b 761F!         MOVW      DP,#_pcmodbus+271
         0000026c 0004 
     918 0000026d 2B0F!         MOV       @_pcmodbus+271,#0     ; |310| 
     919                      .dwpsn  "sci.c",312,1
     920 0000026e 0006          LRETR
     921                      ; return occurs
     922              
     923              DW$40   .dwtag  DW_TAG_loop
     924                      .dwattr DW$40, DW_AT_name("D:\DEV\Amot\BearingWear\XTSW_V6_20\sci.asm:L15:1:1473840058")
     925                      .dwattr DW$40, DW_AT_begin_file("sci.c")
     926                      .dwattr DW$40, DW_AT_begin_line(0x129)
     927                      .dwattr DW$40, DW_AT_end_line(0x129)
     928              DW$41   .dwtag  DW_TAG_loop_range
     929                      .dwattr DW$41, DW_AT_low_pc(DW$L$_SendCharB$4$B)
     930                      .dwattr DW$41, DW_AT_high_pc(DW$L$_SendCharB$4$E)
     931                      .dwendtag DW$40
     932              
     933                      .dwattr DW$38, DW_AT_end_file("sci.c")
     934                      .dwattr DW$38, DW_AT_end_line(0x138)
     935                      .dwattr DW$38, DW_AT_end_column(0x01)
     936                      .dwendtag DW$38
     937              
     938 0000026f               .sect   ".text"
     939                      .global _SendCLIChar
     940              
     941              DW$42   .dwtag  DW_TAG_subprogram, DW_AT_name("SendCLIChar"), DW_AT_symbol_name("_SendCLIChar")
     942                      .dwattr DW$42, DW_AT_low_pc(_SendCLIChar)
     943                      .dwattr DW$42, DW_AT_high_pc(0x00)
     944                      .dwattr DW$42, DW_AT_begin_file("sci.c")
     945                      .dwattr DW$42, DW_AT_begin_line(0x13b)
     946                      .dwattr DW$42, DW_AT_begin_column(0x06)
     947                      .dwattr DW$42, DW_AT_frame_base[DW_OP_breg20 -4]
     948                      .dwattr DW$42, DW_AT_skeletal(0x01)
     949                      .dwpsn  "sci.c",316,1
     950              
TMS320C2000 COFF Assembler PC v4.1.3 Wed Sep 14 09:00:58 2016

Tools Copyright (c) 1996-2006 Texas Instruments Incorporated
sci.asm                                                              PAGE   22

     951              ;***************************************************************
     952              ;* FNAME: _SendCLIChar                  FR SIZE:   2           *
     953              ;*                                                             *
     954              ;* FUNCTION ENVIRONMENT                                        *
     955              ;*                                                             *
     956              ;* FUNCTION PROPERTIES                                         *
     957              ;*                            0 Parameter,  0 Auto,  2 SOE     *
     958              ;***************************************************************
     959              
     960              _SendCLIChar:
     961              ;* AL    assigned to _c
     962              DW$43   .dwtag  DW_TAG_formal_parameter, DW_AT_name("c"), DW_AT_symbol_name("_c")
     963                      .dwattr DW$43, DW_AT_type(*DW$T$51)
     964                      .dwattr DW$43, DW_AT_location[DW_OP_reg0]
     965 0000026f B2BD          MOVL      *SP++,XAR1
     966 00000270 59A9          MOVZ      AR1,AL                ; |316| 
     967 00000271 7640'         LCR       #_SendCharD           ; |317| 
         00000272 03DB 
     968                      ; call occurs [#_SendCharD] ; |317| 
     969 00000273 92A1          MOV       AL,AR1                ; |317| 
     970 00000274 8BBE          MOVL      XAR1,*--SP            ; |317| 
     971                      .dwpsn  "sci.c",320,1
     972 00000275 0006          LRETR
     973                      ; return occurs
     974                      .dwattr DW$42, DW_AT_end_file("sci.c")
     975                      .dwattr DW$42, DW_AT_end_line(0x140)
     976                      .dwattr DW$42, DW_AT_end_column(0x01)
     977                      .dwendtag DW$42
     978              
     979 00000276               .sect   ".text"
     980                      .global _CLITransmitBuffer
     981              
     982              DW$44   .dwtag  DW_TAG_subprogram, DW_AT_name("CLITransmitBuffer"), DW_AT_symbol_name("_CLITransmitBuffer")
     983                      .dwattr DW$44, DW_AT_low_pc(_CLITransmitBuffer)
     984                      .dwattr DW$44, DW_AT_high_pc(0x00)
     985                      .dwattr DW$44, DW_AT_begin_file("sci.c")
     986                      .dwattr DW$44, DW_AT_begin_line(0x142)
     987                      .dwattr DW$44, DW_AT_begin_column(0x06)
     988                      .dwattr DW$44, DW_AT_frame_base[DW_OP_breg20 -6]
     989                      .dwattr DW$44, DW_AT_skeletal(0x01)
     990                      .dwpsn  "sci.c",323,1
     991              
     992              ;***************************************************************
     993              ;* FNAME: _CLITransmitBuffer            FR SIZE:   4           *
     994              ;*                                                             *
     995              ;* FUNCTION ENVIRONMENT                                        *
     996              ;*                                                             *
     997              ;* FUNCTION PROPERTIES                                         *
     998              ;*                            0 Parameter,  0 Auto,  4 SOE     *
     999              ;***************************************************************
    1000              
    1001              _CLITransmitBuffer:
    1002              ;* AR4   assigned to _ptr
    1003              DW$45   .dwtag  DW_TAG_formal_parameter, DW_AT_name("ptr"), DW_AT_symbol_name("_ptr")
    1004                      .dwattr DW$45, DW_AT_type(*DW$T$65)
TMS320C2000 COFF Assembler PC v4.1.3 Wed Sep 14 09:00:58 2016

Tools Copyright (c) 1996-2006 Texas Instruments Incorporated
sci.asm                                                              PAGE   23

    1005                      .dwattr DW$45, DW_AT_location[DW_OP_reg12]
    1006 00000276 B2BD          MOVL      *SP++,XAR1
    1007 00000277 AABD          MOVL      *SP++,XAR2
    1008 00000278 86A4          MOVL      XAR2,XAR4             ; |323| 
    1009 00000279 92C2          MOV       AL,*+XAR2[0]          ; |326| 
    1010 0000027a D100          MOVB      XAR1,#0
    1011 0000027b EC0B          BF        L19,EQ                ; |326| 
    1012                      ; branchcc occurs ; |326| 
    1013              L18:    
    1014              DW$L$_CLITransmitBuffer$2$B:
    1015                      .dwpsn  "sci.c",327,0
    1016 0000027c 929A          MOV       AL,*+XAR2[AR1]        ; |328| 
    1017 0000027d 7640'         LCR       #_SendCharD           ; |328| 
         0000027e 03DB 
    1018                      ; call occurs [#_SendCharD] ; |328| 
    1019 0000027f D901          ADDB      XAR1,#1               ; |332| 
    1020 00000280 761F!         MOVW      DP,#_settings
         00000281 0000 
    1021 00000282 2800!         MOV       @_settings,#1         ; |332| 
         00000283 0001 
    1022 00000284 929A          MOV       AL,*+XAR2[AR1]        ; |332| 
    1023                      .dwpsn  "sci.c",333,0
    1024 00000285 EDF7          BF        L18,NEQ               ; |332| 
    1025                      ; branchcc occurs ; |332| 
    1026 00000286       DW$L$_CLITransmitBuffer$2$E:
    1027 00000286       L19:    
    1028 00000286 86BE          MOVL      XAR2,*--SP
    1029 00000287 8BBE          MOVL      XAR1,*--SP
    1030                      .dwpsn  "sci.c",334,1
    1031 00000288 0006          LRETR
    1032                      ; return occurs
    1033              
    1034              DW$46   .dwtag  DW_TAG_loop
    1035                      .dwattr DW$46, DW_AT_name("D:\DEV\Amot\BearingWear\XTSW_V6_20\sci.asm:L18:1:1473840058")
    1036                      .dwattr DW$46, DW_AT_begin_file("sci.c")
    1037                      .dwattr DW$46, DW_AT_begin_line(0x146)
    1038                      .dwattr DW$46, DW_AT_end_line(0x14d)
    1039              DW$47   .dwtag  DW_TAG_loop_range
    1040                      .dwattr DW$47, DW_AT_low_pc(DW$L$_CLITransmitBuffer$2$B)
    1041                      .dwattr DW$47, DW_AT_high_pc(DW$L$_CLITransmitBuffer$2$E)
    1042                      .dwendtag DW$46
    1043              
    1044                      .dwattr DW$44, DW_AT_end_file("sci.c")
    1045                      .dwattr DW$44, DW_AT_end_line(0x14e)
    1046                      .dwattr DW$44, DW_AT_end_column(0x01)
    1047                      .dwendtag DW$44
    1048              
    1049 00000289               .sect   ".text"
    1050                      .global _DebugStringOut
    1051              
    1052              DW$48   .dwtag  DW_TAG_subprogram, DW_AT_name("DebugStringOut"), DW_AT_symbol_name("_DebugStringOut")
    1053                      .dwattr DW$48, DW_AT_low_pc(_DebugStringOut)
    1054                      .dwattr DW$48, DW_AT_high_pc(0x00)
    1055                      .dwattr DW$48, DW_AT_begin_file("sci.c")
    1056                      .dwattr DW$48, DW_AT_begin_line(0x151)
TMS320C2000 COFF Assembler PC v4.1.3 Wed Sep 14 09:00:58 2016

Tools Copyright (c) 1996-2006 Texas Instruments Incorporated
sci.asm                                                              PAGE   24

    1057                      .dwattr DW$48, DW_AT_begin_column(0x06)
    1058                      .dwattr DW$48, DW_AT_frame_base[DW_OP_breg20 -2]
    1059                      .dwattr DW$48, DW_AT_skeletal(0x01)
    1060                      .dwpsn  "sci.c",338,1
    1061              
    1062              ;***************************************************************
    1063              ;* FNAME: _DebugStringOut               FR SIZE:   0           *
    1064              ;*                                                             *
    1065              ;* FUNCTION ENVIRONMENT                                        *
    1066              ;*                                                             *
    1067              ;* FUNCTION PROPERTIES                                         *
    1068              ;*                            0 Parameter,  0 Auto,  0 SOE     *
    1069              ;***************************************************************
    1070              
    1071              _DebugStringOut:
    1072              ;* AR4   assigned to _ptr
    1073              DW$49   .dwtag  DW_TAG_formal_parameter, DW_AT_name("ptr"), DW_AT_symbol_name("_ptr")
    1074                      .dwattr DW$49, DW_AT_type(*DW$T$65)
    1075                      .dwattr DW$49, DW_AT_location[DW_OP_reg12]
    1076 00000289 761F!         MOVW      DP,#_settings+33
         0000028a 0000 
    1077 0000028b 1B21!         CMP       @_settings+33,#21930  ; |339| 
         0000028c 55AA 
    1078 0000028d ED03          BF        L20,NEQ               ; |339| 
    1079                      ; branchcc occurs ; |339| 
    1080 0000028e 7640'         LCR       #_CLITransmitBuffer   ; |342| 
         0000028f 0276 
    1081                      ; call occurs [#_CLITransmitBuffer] ; |342| 
    1082              L20:    
    1083                      .dwpsn  "sci.c",344,1
    1084 00000290 0006          LRETR
    1085                      ; return occurs
    1086                      .dwattr DW$48, DW_AT_end_file("sci.c")
    1087                      .dwattr DW$48, DW_AT_end_line(0x158)
    1088                      .dwattr DW$48, DW_AT_end_column(0x01)
    1089                      .dwendtag DW$48
    1090              
    1091 00000291               .sect   ".text"
    1092                      .global _MastertoSlaveSendBuffer
    1093              
    1094              DW$50   .dwtag  DW_TAG_subprogram, DW_AT_name("MastertoSlaveSendBuffer"), DW_AT_symbol_name("_MastertoSlaveSe
    1095                      .dwattr DW$50, DW_AT_low_pc(_MastertoSlaveSendBuffer)
    1096                      .dwattr DW$50, DW_AT_high_pc(0x00)
    1097                      .dwattr DW$50, DW_AT_begin_file("sci.c")
    1098                      .dwattr DW$50, DW_AT_begin_line(0x15d)
    1099                      .dwattr DW$50, DW_AT_begin_column(0x06)
    1100                      .dwattr DW$50, DW_AT_frame_base[DW_OP_breg20 -6]
    1101                      .dwattr DW$50, DW_AT_skeletal(0x01)
    1102                      .dwpsn  "sci.c",350,1
    1103              
    1104              ;***************************************************************
    1105              ;* FNAME: _MastertoSlaveSendBuffer      FR SIZE:   4           *
    1106              ;*                                                             *
    1107              ;* FUNCTION ENVIRONMENT                                        *
    1108              ;*                                                             *
TMS320C2000 COFF Assembler PC v4.1.3 Wed Sep 14 09:00:58 2016

Tools Copyright (c) 1996-2006 Texas Instruments Incorporated
sci.asm                                                              PAGE   25

    1109              ;* FUNCTION PROPERTIES                                         *
    1110              ;*                            0 Parameter,  0 Auto,  4 SOE     *
    1111              ;***************************************************************
    1112              
    1113              _MastertoSlaveSendBuffer:
    1114              ;* AR4   assigned to _ptr
    1115              DW$51   .dwtag  DW_TAG_formal_parameter, DW_AT_name("ptr"), DW_AT_symbol_name("_ptr")
    1116                      .dwattr DW$51, DW_AT_type(*DW$T$49)
    1117                      .dwattr DW$51, DW_AT_location[DW_OP_reg12]
    1118              ;* AL    assigned to _count
    1119              DW$52   .dwtag  DW_TAG_formal_parameter, DW_AT_name("count"), DW_AT_symbol_name("_count")
    1120                      .dwattr DW$52, DW_AT_type(*DW$T$11)
    1121                      .dwattr DW$52, DW_AT_location[DW_OP_reg0]
    1122 00000291 B2BD          MOVL      *SP++,XAR1
    1123 00000292 761F!         MOVW      DP,#_gpb
         00000293 0000 
    1124 00000294 AABD          MOVL      *SP++,XAR2
    1125 00000295 59A9          MOVZ      AR1,AL                ; |350| 
    1126 00000296 1A00!         OR        @_gpb,#0x2000         ; |353| 
         00000297 2000 
    1127 00000298 86A4          MOVL      XAR2,XAR4             ; |350| 
    1128 00000299 28A9          MOV       AL,#600               ; |355| 
         0000029a 0258 
    1129 0000029b 7640!         LCR       #_NOPDelay            ; |355| 
         0000029c 0000 
    1130                      ; call occurs [#_NOPDelay] ; |355| 
    1131 0000029d 28A9          MOV       AL,#600               ; |356| 
         0000029e 0258 
    1132 0000029f 7640!         LCR       #_NOPDelay            ; |356| 
         000002a0 0000 
    1133                      ; call occurs [#_NOPDelay] ; |356| 
    1134 000002a1 28A9          MOV       AL,#600               ; |357| 
         000002a2 0258 
    1135 000002a3 7640!         LCR       #_NOPDelay            ; |357| 
         000002a4 0000 
    1136                      ; call occurs [#_NOPDelay] ; |357| 
    1137 000002a5 92A1          MOV       AL,AR1                ; |359| 
    1138 000002a6 D000          MOVB      XAR0,#0
    1139 000002a7 EC0D          BF        L22,EQ                ; |359| 
    1140                      ; branchcc occurs ; |359| 
    1141              L21:    
    1142              DW$L$_MastertoSlaveSendBuffer$2$B:
    1143                      .dwpsn  "sci.c",360,0
    1144 000002a8 9292          MOV       AL,*+XAR2[AR0]        ; |361| 
    1145 000002a9 7640'         LCR       #_SendChar            ; |361| 
         000002aa 01D8 
    1146                      ; call occurs [#_SendChar] ; |361| 
    1147 000002ab D801          ADDB      XAR0,#1               ; |359| 
    1148 000002ac 92A1          MOV       AL,AR1                ; |359| 
    1149 000002ad 761F!         MOVW      DP,#_settings
         000002ae 0000 
    1150 000002af 54A0          CMP       AL,AR0                ; |359| 
    1151 000002b0 2800!         MOV       @_settings,#1         ; |362| 
         000002b1 0001 
    1152                      .dwpsn  "sci.c",363,0
TMS320C2000 COFF Assembler PC v4.1.3 Wed Sep 14 09:00:58 2016

Tools Copyright (c) 1996-2006 Texas Instruments Incorporated
sci.asm                                                              PAGE   26

    1153 000002b2 56C6          BF        L21,HI                ; |359| 
         000002b3 FFF6 
    1154                      ; branchcc occurs ; |359| 
    1155 000002b4       DW$L$_MastertoSlaveSendBuffer$2$E:
    1156 000002b4       L22:    
    1157 000002b4 28A9          MOV       AL,#600               ; |369| 
         000002b5 0258 
    1158 000002b6 7640!         LCR       #_NOPDelay            ; |369| 
         000002b7 0000 
    1159                      ; call occurs [#_NOPDelay] ; |369| 
    1160 000002b8 28A9          MOV       AL,#600               ; |370| 
         000002b9 0258 
    1161 000002ba 7640!         LCR       #_NOPDelay            ; |370| 
         000002bb 0000 
    1162                      ; call occurs [#_NOPDelay] ; |370| 
    1163 000002bc 28A9          MOV       AL,#600               ; |371| 
         000002bd 0258 
    1164 000002be 7640!         LCR       #_NOPDelay            ; |371| 
         000002bf 0000 
    1165                      ; call occurs [#_NOPDelay] ; |371| 
    1166 000002c0 28A9          MOV       AL,#600               ; |372| 
         000002c1 0258 
    1167 000002c2 7640!         LCR       #_NOPDelay            ; |372| 
         000002c3 0000 
    1168                      ; call occurs [#_NOPDelay] ; |372| 
    1169 000002c4 761F!         MOVW      DP,#_gpb
         000002c5 0000 
    1170 000002c6 1800!         AND       @_gpb,#0xdfff         ; |374| 
         000002c7 DFFF 
    1171 000002c8 761F-         MOVW      DP,#_sciportA+1
         000002c9 0000 
    1172 000002ca 1801-         AND       @_sciportA+1,#0xffdf  ; |379| 
         000002cb FFDF 
    1173 000002cc 761F-         MOVW      DP,#_sciportA+1
         000002cd 0000 
    1174 000002ce 1A01-         OR        @_sciportA+1,#0x0020  ; |380| 
         000002cf 0020 
    1175 000002d0 86BE          MOVL      XAR2,*--SP
    1176 000002d1 8BBE          MOVL      XAR1,*--SP
    1177                      .dwpsn  "sci.c",383,1
    1178 000002d2 0006          LRETR
    1179                      ; return occurs
    1180              
    1181              DW$53   .dwtag  DW_TAG_loop
    1182                      .dwattr DW$53, DW_AT_name("D:\DEV\Amot\BearingWear\XTSW_V6_20\sci.asm:L21:1:1473840058")
    1183                      .dwattr DW$53, DW_AT_begin_file("sci.c")
    1184                      .dwattr DW$53, DW_AT_begin_line(0x167)
    1185                      .dwattr DW$53, DW_AT_end_line(0x16b)
    1186              DW$54   .dwtag  DW_TAG_loop_range
    1187                      .dwattr DW$54, DW_AT_low_pc(DW$L$_MastertoSlaveSendBuffer$2$B)
    1188                      .dwattr DW$54, DW_AT_high_pc(DW$L$_MastertoSlaveSendBuffer$2$E)
    1189                      .dwendtag DW$53
    1190              
    1191                      .dwattr DW$50, DW_AT_end_file("sci.c")
    1192                      .dwattr DW$50, DW_AT_end_line(0x17f)
TMS320C2000 COFF Assembler PC v4.1.3 Wed Sep 14 09:00:58 2016

Tools Copyright (c) 1996-2006 Texas Instruments Incorporated
sci.asm                                                              PAGE   27

    1193                      .dwattr DW$50, DW_AT_end_column(0x01)
    1194                      .dwendtag DW$50
    1195              
    1196 000002d3               .sect   ".text"
    1197                      .global _LoadSendBufferB
    1198              
    1199              DW$55   .dwtag  DW_TAG_subprogram, DW_AT_name("LoadSendBufferB"), DW_AT_symbol_name("_LoadSendBufferB")
    1200                      .dwattr DW$55, DW_AT_low_pc(_LoadSendBufferB)
    1201                      .dwattr DW$55, DW_AT_high_pc(0x00)
    1202                      .dwattr DW$55, DW_AT_begin_file("sci.c")
    1203                      .dwattr DW$55, DW_AT_begin_line(0x181)
    1204                      .dwattr DW$55, DW_AT_begin_column(0x06)
    1205                      .dwattr DW$55, DW_AT_frame_base[DW_OP_breg20 -6]
    1206                      .dwattr DW$55, DW_AT_skeletal(0x01)
    1207                      .dwpsn  "sci.c",386,1
    1208              
    1209              ;***************************************************************
    1210              ;* FNAME: _LoadSendBufferB              FR SIZE:   4           *
    1211              ;*                                                             *
    1212              ;* FUNCTION ENVIRONMENT                                        *
    1213              ;*                                                             *
    1214              ;* FUNCTION PROPERTIES                                         *
    1215              ;*                            0 Parameter,  0 Auto,  4 SOE     *
    1216              ;***************************************************************
    1217              
    1218              _LoadSendBufferB:
    1219              ;* AR4   assigned to _ptr
    1220              DW$56   .dwtag  DW_TAG_formal_parameter, DW_AT_name("ptr"), DW_AT_symbol_name("_ptr")
    1221                      .dwattr DW$56, DW_AT_type(*DW$T$49)
    1222                      .dwattr DW$56, DW_AT_location[DW_OP_reg12]
    1223              ;* AL    assigned to _count
    1224              DW$57   .dwtag  DW_TAG_formal_parameter, DW_AT_name("count"), DW_AT_symbol_name("_count")
    1225                      .dwattr DW$57, DW_AT_type(*DW$T$11)
    1226                      .dwattr DW$57, DW_AT_location[DW_OP_reg0]
    1227 000002d3 B2BD          MOVL      *SP++,XAR1
    1228 000002d4 761F!         MOVW      DP,#_gpf
         000002d5 0000 
    1229 000002d6 AABD          MOVL      *SP++,XAR2
    1230 000002d7 59A9          MOVZ      AR1,AL                ; |386| 
    1231 000002d8 1A00!         OR        @_gpf,#0x0800         ; |389| 
         000002d9 0800 
    1232 000002da 761F!         MOVW      DP,#_gpf
         000002db 0000 
    1233 000002dc 86A4          MOVL      XAR2,XAR4             ; |386| 
    1234 000002dd 1A00!         OR        @_gpf,#0x1000         ; |390| 
         000002de 1000 
    1235 000002df 28A9          MOV       AL,#600               ; |391| 
         000002e0 0258 
    1236 000002e1 7640!         LCR       #_NOPDelay            ; |391| 
         000002e2 0000 
    1237                      ; call occurs [#_NOPDelay] ; |391| 
    1238 000002e3 28A9          MOV       AL,#600               ; |392| 
         000002e4 0258 
    1239 000002e5 7640!         LCR       #_NOPDelay            ; |392| 
         000002e6 0000 
TMS320C2000 COFF Assembler PC v4.1.3 Wed Sep 14 09:00:58 2016

Tools Copyright (c) 1996-2006 Texas Instruments Incorporated
sci.asm                                                              PAGE   28

    1240                      ; call occurs [#_NOPDelay] ; |392| 
    1241 000002e7 28A9          MOV       AL,#600               ; |393| 
         000002e8 0258 
    1242 000002e9 7640!         LCR       #_NOPDelay            ; |393| 
         000002ea 0000 
    1243                      ; call occurs [#_NOPDelay] ; |393| 
    1244 000002eb 92A1          MOV       AL,AR1                ; |395| 
    1245 000002ec D000          MOVB      XAR0,#0
    1246 000002ed EC0D          BF        L24,EQ                ; |395| 
    1247                      ; branchcc occurs ; |395| 
    1248              L23:    
    1249              DW$L$_LoadSendBufferB$2$B:
    1250                      .dwpsn  "sci.c",396,0
    1251 000002ee 9292          MOV       AL,*+XAR2[AR0]        ; |397| 
    1252 000002ef 7640'         LCR       #_SendCharB           ; |397| 
         000002f0 0220 
    1253                      ; call occurs [#_SendCharB] ; |397| 
    1254 000002f1 D801          ADDB      XAR0,#1               ; |395| 
    1255 000002f2 92A1          MOV       AL,AR1                ; |395| 
    1256 000002f3 761F!         MOVW      DP,#_settings
         000002f4 0000 
    1257 000002f5 54A0          CMP       AL,AR0                ; |395| 
    1258 000002f6 2800!         MOV       @_settings,#1         ; |398| 
         000002f7 0001 
    1259                      .dwpsn  "sci.c",399,0
    1260 000002f8 56C6          BF        L23,HI                ; |395| 
         000002f9 FFF6 
    1261                      ; branchcc occurs ; |395| 
    1262 000002fa       DW$L$_LoadSendBufferB$2$E:
    1263 000002fa       L24:    
    1264 000002fa 28A9          MOV       AL,#600               ; |405| 
         000002fb 0258 
    1265 000002fc 7640!         LCR       #_NOPDelay            ; |405| 
         000002fd 0000 
    1266                      ; call occurs [#_NOPDelay] ; |405| 
    1267 000002fe 28A9          MOV       AL,#600               ; |406| 
         000002ff 0258 
    1268 00000300 7640!         LCR       #_NOPDelay            ; |406| 
         00000301 0000 
    1269                      ; call occurs [#_NOPDelay] ; |406| 
    1270 00000302 28A9          MOV       AL,#600               ; |407| 
         00000303 0258 
    1271 00000304 7640!         LCR       #_NOPDelay            ; |407| 
         00000305 0000 
    1272                      ; call occurs [#_NOPDelay] ; |407| 
    1273 00000306 28A9          MOV       AL,#600               ; |408| 
         00000307 0258 
    1274 00000308 7640!         LCR       #_NOPDelay            ; |408| 
         00000309 0000 
    1275                      ; call occurs [#_NOPDelay] ; |408| 
    1276 0000030a 761F!         MOVW      DP,#_gpf
         0000030b 0000 
    1277 0000030c 1800!         AND       @_gpf,#0xefff         ; |409| 
         0000030d EFFF 
    1278 0000030e 761F!         MOVW      DP,#_gpf
TMS320C2000 COFF Assembler PC v4.1.3 Wed Sep 14 09:00:58 2016

Tools Copyright (c) 1996-2006 Texas Instruments Incorporated
sci.asm                                                              PAGE   29

         0000030f 0000 
    1279 00000310 1800!         AND       @_gpf,#0xf7ff         ; |410| 
         00000311 F7FF 
    1280 00000312 28A9          MOV       AL,#300               ; |411| 
         00000313 012C 
    1281 00000314 7640!         LCR       #_NOPDelay            ; |411| 
         00000315 0000 
    1282                      ; call occurs [#_NOPDelay] ; |411| 
    1283 00000316 86BE          MOVL      XAR2,*--SP
    1284 00000317 8BBE          MOVL      XAR1,*--SP
    1285                      .dwpsn  "sci.c",419,1
    1286 00000318 0006          LRETR
    1287                      ; return occurs
    1288              
    1289              DW$58   .dwtag  DW_TAG_loop
    1290                      .dwattr DW$58, DW_AT_name("D:\DEV\Amot\BearingWear\XTSW_V6_20\sci.asm:L23:1:1473840058")
    1291                      .dwattr DW$58, DW_AT_begin_file("sci.c")
    1292                      .dwattr DW$58, DW_AT_begin_line(0x18b)
    1293                      .dwattr DW$58, DW_AT_end_line(0x18f)
    1294              DW$59   .dwtag  DW_TAG_loop_range
    1295                      .dwattr DW$59, DW_AT_low_pc(DW$L$_LoadSendBufferB$2$B)
    1296                      .dwattr DW$59, DW_AT_high_pc(DW$L$_LoadSendBufferB$2$E)
    1297                      .dwendtag DW$58
    1298              
    1299                      .dwattr DW$55, DW_AT_end_file("sci.c")
    1300                      .dwattr DW$55, DW_AT_end_line(0x1a3)
    1301                      .dwattr DW$55, DW_AT_end_column(0x01)
    1302                      .dwendtag DW$55
    1303              
    1304 00000319               .sect   ".text"
    1305                      .global _ReadCLIChar
    1306              
    1307              DW$60   .dwtag  DW_TAG_subprogram, DW_AT_name("ReadCLIChar"), DW_AT_symbol_name("_ReadCLIChar")
    1308                      .dwattr DW$60, DW_AT_low_pc(_ReadCLIChar)
    1309                      .dwattr DW$60, DW_AT_high_pc(0x00)
    1310                      .dwattr DW$60, DW_AT_begin_file("sci.c")
    1311                      .dwattr DW$60, DW_AT_begin_line(0x1a6)
    1312                      .dwattr DW$60, DW_AT_begin_column(0x06)
    1313                      .dwattr DW$60, DW_AT_frame_base[DW_OP_breg20 -2]
    1314                      .dwattr DW$60, DW_AT_skeletal(0x01)
    1315                      .dwpsn  "sci.c",423,1
    1316              
    1317              ;***************************************************************
    1318              ;* FNAME: _ReadCLIChar                  FR SIZE:   0           *
    1319              ;*                                                             *
    1320              ;* FUNCTION ENVIRONMENT                                        *
    1321              ;*                                                             *
    1322              ;* FUNCTION PROPERTIES                                         *
    1323              ;*                            0 Parameter,  0 Auto,  0 SOE     *
    1324              ;***************************************************************
    1325              
    1326 00000319       _ReadCLIChar:
    1327 00000319 7640'         LCR       #_ReadCharfromUartD   ; |426| 
         0000031a 036E 
    1328                      ; call occurs [#_ReadCharfromUartD] ; |426| 
TMS320C2000 COFF Assembler PC v4.1.3 Wed Sep 14 09:00:58 2016

Tools Copyright (c) 1996-2006 Texas Instruments Incorporated
sci.asm                                                              PAGE   30

    1329 0000031b 5201          CMPB      AL,#1                 ; |426| 
    1330 0000031c EC04          BF        L25,EQ                ; |426| 
    1331                      ; branchcc occurs ; |426| 
    1332 0000031d 9A00          MOVB      AL,#0
    1333 0000031e 56CF          BF        L26,UNC               ; |436| 
         0000031f 000B 
    1334                      ; branch occurs ; |436| 
    1335 00000320       L25:    
    1336 00000320 761F-         MOVW      DP,#_receiveD+29
         00000321 0000 
    1337 00000322 921D-         MOV       AL,@_receiveD+29      ; |435| 
    1338 00000323 93A9          MOV       AH,AL                 ; |152| 
    1339 00000324 9D9F          ADDB      AH,#-97
    1340 00000325 5319          CMPB      AH,#25                ; |152| 
    1341 00000326 56C6          BF        L26,HI                ; |152| 
         00000327 0003 
    1342                      ; branchcc occurs ; |152| 
    1343 00000328 9CE0          ADDB      AL,#-32
    1344              L26:    
    1345                      .dwpsn  "sci.c",439,1
    1346 00000329 0006          LRETR
    1347                      ; return occurs
    1348                      .dwattr DW$60, DW_AT_end_file("sci.c")
    1349                      .dwattr DW$60, DW_AT_end_line(0x1b7)
    1350                      .dwattr DW$60, DW_AT_end_column(0x01)
    1351                      .dwendtag DW$60
    1352              
    1353 0000032a               .sect   ".text"
    1354                      .global _ReadCharfromUartA
    1355              
    1356              DW$61   .dwtag  DW_TAG_subprogram, DW_AT_name("ReadCharfromUartA"), DW_AT_symbol_name("_ReadCharfromUartA")
    1357                      .dwattr DW$61, DW_AT_low_pc(_ReadCharfromUartA)
    1358                      .dwattr DW$61, DW_AT_high_pc(0x00)
    1359                      .dwattr DW$61, DW_AT_begin_file("sci.c")
    1360                      .dwattr DW$61, DW_AT_begin_line(0x1bb)
    1361                      .dwattr DW$61, DW_AT_begin_column(0x06)
    1362                      .dwattr DW$61, DW_AT_frame_base[DW_OP_breg20 -2]
    1363                      .dwattr DW$61, DW_AT_skeletal(0x01)
    1364                      .dwpsn  "sci.c",444,1
    1365              
    1366              ;***************************************************************
    1367              ;* FNAME: _ReadCharfromUartA            FR SIZE:   0           *
    1368              ;*                                                             *
    1369              ;* FUNCTION ENVIRONMENT                                        *
    1370              ;*                                                             *
    1371              ;* FUNCTION PROPERTIES                                         *
    1372              ;*                            0 Parameter,  0 Auto,  0 SOE     *
    1373              ;***************************************************************
    1374              
    1375 0000032a       _ReadCharfromUartA:
    1376 0000032a 761F-         MOVW      DP,#_receiveA+2
         0000032b 0000 
    1377 0000032c 0602-         MOVL      ACC,@_receiveA+2      ; |447| 
    1378 0000032d 761F-         MOVW      DP,#_receiveA
         0000032e 0000 
TMS320C2000 COFF Assembler PC v4.1.3 Wed Sep 14 09:00:58 2016

Tools Copyright (c) 1996-2006 Texas Instruments Incorporated
sci.asm                                                              PAGE   31

    1379 0000032f C400-         MOVL      XAR6,@_receiveA       ; |447| 
    1380 00000330 D400          MOVB      XAR4,#0
    1381 00000331 0FA6          CMPL      ACC,XAR6              ; |447| 
    1382 00000332 EC19          BF        L27,EQ                ; |447| 
    1383                      ; branchcc occurs ; |447| 
    1384 00000333 83A9          MOVL      XAR5,ACC              ; |449| 
    1385 00000334 761F-         MOVW      DP,#_receiveA+149
         00000335 0002 
    1386 00000336 92C5          MOV       AL,*+XAR5[0]          ; |450| 
    1387 00000337 9615-         MOV       @_receiveA+149,AL     ; |450| 
    1388 00000338 761F-         MOVW      DP,#_receiveA+2
         00000339 0000 
    1389 0000033a 0602-         MOVL      ACC,@_receiveA+2      ; |451| 
    1390 0000033b 0901          ADDB      ACC,#1                ; |451| 
    1391 0000033c 761F-         MOVW      DP,#_receiveA+2
         0000033d 0000 
    1392 0000033e 1EA6          MOVL      XAR6,ACC              ; |451| 
    1393 0000033f 1E02-         MOVL      @_receiveA+2,ACC      ; |451| 
    1394 00000340 761F-         MOVW      DP,#_receiveA+4
         00000341 0000 
    1395 00000342 0604-         MOVL      ACC,@_receiveA+4      ; |451| 
    1396 00000343 0FA6          CMPL      ACC,XAR6              ; |451| 
    1397 00000344 D401          MOVB      XAR4,#1               ; |449| 
    1398 00000345 ED06          BF        L27,NEQ               ; |451| 
    1399                      ; branchcc occurs ; |451| 
    1400 00000346 8F40-         MOVL      XAR5,#_receiveA+9     ; |451| 
         00000347 0009 
    1401 00000348 761F-         MOVW      DP,#_receiveA+2
         00000349 0000 
    1402 0000034a A002-         MOVL      @_receiveA+2,XAR5     ; |451| 
    1403 0000034b       L27:    
    1404 0000034b 92A4          MOV       AL,AR4                ; |453| 
    1405                      .dwpsn  "sci.c",454,1
    1406 0000034c 0006          LRETR
    1407                      ; return occurs
    1408                      .dwattr DW$61, DW_AT_end_file("sci.c")
    1409                      .dwattr DW$61, DW_AT_end_line(0x1c6)
    1410                      .dwattr DW$61, DW_AT_end_column(0x01)
    1411                      .dwendtag DW$61
    1412              
    1413 0000034d               .sect   ".text"
    1414                      .global _ReadCharfromUartB
    1415              
    1416              DW$62   .dwtag  DW_TAG_subprogram, DW_AT_name("ReadCharfromUartB"), DW_AT_symbol_name("_ReadCharfromUartB")
    1417                      .dwattr DW$62, DW_AT_low_pc(_ReadCharfromUartB)
    1418                      .dwattr DW$62, DW_AT_high_pc(0x00)
    1419                      .dwattr DW$62, DW_AT_begin_file("sci.c")
    1420                      .dwattr DW$62, DW_AT_begin_line(0x1cb)
    1421                      .dwattr DW$62, DW_AT_begin_column(0x06)
    1422                      .dwattr DW$62, DW_AT_frame_base[DW_OP_breg20 -2]
    1423                      .dwattr DW$62, DW_AT_skeletal(0x01)
    1424                      .dwpsn  "sci.c",460,1
    1425              
    1426              ;***************************************************************
    1427              ;* FNAME: _ReadCharfromUartB            FR SIZE:   0           *
TMS320C2000 COFF Assembler PC v4.1.3 Wed Sep 14 09:00:58 2016

Tools Copyright (c) 1996-2006 Texas Instruments Incorporated
sci.asm                                                              PAGE   32

    1428              ;*                                                             *
    1429              ;* FUNCTION ENVIRONMENT                                        *
    1430              ;*                                                             *
    1431              ;* FUNCTION PROPERTIES                                         *
    1432              ;*                            0 Parameter,  0 Auto,  0 SOE     *
    1433              ;***************************************************************
    1434              
    1435 0000034d       _ReadCharfromUartB:
    1436 0000034d 761F-         MOVW      DP,#_receiveB+2
         0000034e 0000 
    1437 0000034f 8302-         MOVL      XAR5,@_receiveB+2     ; |463| 
    1438 00000350 761F-         MOVW      DP,#_receiveB
         00000351 0000 
    1439 00000352 C400-         MOVL      XAR6,@_receiveB       ; |463| 
    1440 00000353 D400          MOVB      XAR4,#0
    1441 00000354 A0A9          MOVL      ACC,XAR5              ; |463| 
    1442 00000355 0FA6          CMPL      ACC,XAR6              ; |463| 
    1443 00000356 EC16          BF        L28,EQ                ; |463| 
    1444                      ; branchcc occurs ; |463| 
    1445 00000357 92C5          MOV       AL,*+XAR5[0]          ; |466| 
    1446 00000358 761F!         MOVW      DP,#_modbusrxchar
         00000359 0000 
    1447 0000035a 9600!         MOV       @_modbusrxchar,AL     ; |466| 
    1448 0000035b 0201          MOVB      ACC,#1
    1449 0000035c 07A5          ADDL      ACC,XAR5
    1450 0000035d 761F-         MOVW      DP,#_receiveB+2
         0000035e 0000 
    1451 0000035f 1EA6          MOVL      XAR6,ACC              ; |467| 
    1452 00000360 1E02-         MOVL      @_receiveB+2,ACC      ; |467| 
    1453 00000361 761F-         MOVW      DP,#_receiveB+4
         00000362 0000 
    1454 00000363 0604-         MOVL      ACC,@_receiveB+4      ; |467| 
    1455 00000364 0FA6          CMPL      ACC,XAR6              ; |467| 
    1456 00000365 D401          MOVB      XAR4,#1               ; |465| 
    1457 00000366 ED06          BF        L28,NEQ               ; |467| 
    1458                      ; branchcc occurs ; |467| 
    1459 00000367 8F40-         MOVL      XAR5,#_receiveB+9     ; |467| 
         00000368 0009 
    1460 00000369 761F-         MOVW      DP,#_receiveB+2
         0000036a 0000 
    1461 0000036b A002-         MOVL      @_receiveB+2,XAR5     ; |467| 
    1462 0000036c       L28:    
    1463 0000036c 92A4          MOV       AL,AR4                ; |469| 
    1464                      .dwpsn  "sci.c",470,1
    1465 0000036d 0006          LRETR
    1466                      ; return occurs
    1467                      .dwattr DW$62, DW_AT_end_file("sci.c")
    1468                      .dwattr DW$62, DW_AT_end_line(0x1d6)
    1469                      .dwattr DW$62, DW_AT_end_column(0x01)
    1470                      .dwendtag DW$62
    1471              
    1472 0000036e               .sect   ".text"
    1473                      .global _ReadCharfromUartD
    1474              
    1475              DW$63   .dwtag  DW_TAG_subprogram, DW_AT_name("ReadCharfromUartD"), DW_AT_symbol_name("_ReadCharfromUartD")
TMS320C2000 COFF Assembler PC v4.1.3 Wed Sep 14 09:00:58 2016

Tools Copyright (c) 1996-2006 Texas Instruments Incorporated
sci.asm                                                              PAGE   33

    1476                      .dwattr DW$63, DW_AT_low_pc(_ReadCharfromUartD)
    1477                      .dwattr DW$63, DW_AT_high_pc(0x00)
    1478                      .dwattr DW$63, DW_AT_begin_file("sci.c")
    1479                      .dwattr DW$63, DW_AT_begin_line(0x1d9)
    1480                      .dwattr DW$63, DW_AT_begin_column(0x06)
    1481                      .dwattr DW$63, DW_AT_frame_base[DW_OP_breg20 -4]
    1482                      .dwattr DW$63, DW_AT_skeletal(0x01)
    1483                      .dwpsn  "sci.c",474,1
    1484              
    1485              ;***************************************************************
    1486              ;* FNAME: _ReadCharfromUartD            FR SIZE:   2           *
    1487              ;*                                                             *
    1488              ;* FUNCTION ENVIRONMENT                                        *
    1489              ;*                                                             *
    1490              ;* FUNCTION PROPERTIES                                         *
    1491              ;*                            0 Parameter,  0 Auto,  2 SOE     *
    1492              ;***************************************************************
    1493              
    1494 0000036e       _ReadCharfromUartD:
    1495 0000036e B2BD          MOVL      *SP++,XAR1
    1496 0000036f 7640'         LCR       #_PerformSciRxIntD    ; |480| 
         00000370 01B7 
    1497                      ; call occurs [#_PerformSciRxIntD] ; |480| 
    1498 00000371 761F-         MOVW      DP,#_receiveD+2
         00000372 0000 
    1499 00000373 0602-         MOVL      ACC,@_receiveD+2      ; |482| 
    1500 00000374 761F-         MOVW      DP,#_receiveD
         00000375 0000 
    1501 00000376 C400-         MOVL      XAR6,@_receiveD       ; |482| 
    1502 00000377 0FA6          CMPL      ACC,XAR6              ; |482| 
    1503 00000378 D100          MOVB      XAR1,#0
    1504 00000379 EC19          BF        L29,EQ                ; |482| 
    1505                      ; branchcc occurs ; |482| 
    1506 0000037a 8AA9          MOVL      XAR4,ACC              ; |484| 
    1507 0000037b 761F-         MOVW      DP,#_receiveD+29
         0000037c 0000 
    1508 0000037d 92C4          MOV       AL,*+XAR4[0]          ; |485| 
    1509 0000037e 961D-         MOV       @_receiveD+29,AL      ; |485| 
    1510 0000037f 761F-         MOVW      DP,#_receiveD+2
         00000380 0000 
    1511 00000381 0602-         MOVL      ACC,@_receiveD+2      ; |486| 
    1512 00000382 0901          ADDB      ACC,#1                ; |486| 
    1513 00000383 761F-         MOVW      DP,#_receiveD+2
         00000384 0000 
    1514 00000385 1EA6          MOVL      XAR6,ACC              ; |486| 
    1515 00000386 1E02-         MOVL      @_receiveD+2,ACC      ; |486| 
    1516 00000387 761F-         MOVW      DP,#_receiveD+4
         00000388 0000 
    1517 00000389 0604-         MOVL      ACC,@_receiveD+4      ; |486| 
    1518 0000038a 0FA6          CMPL      ACC,XAR6              ; |486| 
    1519 0000038b D101          MOVB      XAR1,#1               ; |484| 
    1520 0000038c ED06          BF        L29,NEQ               ; |486| 
    1521                      ; branchcc occurs ; |486| 
    1522 0000038d 8F00-         MOVL      XAR4,#_receiveD+9     ; |486| 
         0000038e 0009 
TMS320C2000 COFF Assembler PC v4.1.3 Wed Sep 14 09:00:58 2016

Tools Copyright (c) 1996-2006 Texas Instruments Incorporated
sci.asm                                                              PAGE   34

    1523 0000038f 761F-         MOVW      DP,#_receiveD+2
         00000390 0000 
    1524 00000391 A802-         MOVL      @_receiveD+2,XAR4     ; |486| 
    1525 00000392       L29:    
    1526 00000392 92A1          MOV       AL,AR1                ; |488| 
    1527 00000393 8BBE          MOVL      XAR1,*--SP            ; |488| 
    1528                      .dwpsn  "sci.c",489,1
    1529 00000394 0006          LRETR
    1530                      ; return occurs
    1531                      .dwattr DW$63, DW_AT_end_file("sci.c")
    1532                      .dwattr DW$63, DW_AT_end_line(0x1e9)
    1533                      .dwattr DW$63, DW_AT_end_column(0x01)
    1534                      .dwendtag DW$63
    1535              
    1536 00000395               .sect   ".text"
    1537                      .global _SerialPortCSetup
    1538              
    1539              DW$64   .dwtag  DW_TAG_subprogram, DW_AT_name("SerialPortCSetup"), DW_AT_symbol_name("_SerialPortCSetup")
    1540                      .dwattr DW$64, DW_AT_low_pc(_SerialPortCSetup)
    1541                      .dwattr DW$64, DW_AT_high_pc(0x00)
    1542                      .dwattr DW$64, DW_AT_begin_file("sci.c")
    1543                      .dwattr DW$64, DW_AT_begin_line(0x1eb)
    1544                      .dwattr DW$64, DW_AT_begin_column(0x06)
    1545                      .dwattr DW$64, DW_AT_frame_base[DW_OP_breg20 -2]
    1546                      .dwattr DW$64, DW_AT_skeletal(0x01)
    1547                      .dwpsn  "sci.c",492,1
    1548              
    1549              ;***************************************************************
    1550              ;* FNAME: _SerialPortCSetup             FR SIZE:   0           *
    1551              ;*                                                             *
    1552              ;* FUNCTION ENVIRONMENT                                        *
    1553              ;*                                                             *
    1554              ;* FUNCTION PROPERTIES                                         *
    1555              ;*                            0 Parameter,  0 Auto,  0 SOE     *
    1556              ;***************************************************************
    1557              
    1558 00000395       _SerialPortCSetup:
    1559 00000395 761F-         MOVW      DP,#_receiveC+1
         00000396 0002 
    1560 00000397 2B23-         MOV       @_receiveC+1,#0       ; |493| 
    1561 00000398 761F-         MOVW      DP,#_receiveC+2
         00000399 0002 
    1562 0000039a 2B24-         MOV       @_receiveC+2,#0       ; |494| 
    1563 0000039b 761F!         MOVW      DP,#_gpb
         0000039c 0000 
    1564 0000039d 1800!         AND       @_gpb,#0xfeff         ; |495| 
         0000039e FEFF 
    1565 0000039f 761F!         MOVW      DP,#_gpb
         000003a0 0000 
    1566 000003a1 1800!         AND       @_gpb,#0xfdff         ; |496| 
         000003a2 FDFF 
    1567 000003a3 9A00          MOVB      AL,#0
    1568 000003a4 7640!         LCR       #_WriteUartConfig_C   ; |497| 
         000003a5 0000 
    1569                      ; call occurs [#_WriteUartConfig_C] ; |497| 
TMS320C2000 COFF Assembler PC v4.1.3 Wed Sep 14 09:00:58 2016

Tools Copyright (c) 1996-2006 Texas Instruments Incorporated
sci.asm                                                              PAGE   35

    1570 000003a6 7640!         LCR       #_ReadDataFromUart_C  ; |498| 
         000003a7 0000 
    1571                      ; call occurs [#_ReadDataFromUart_C] ; |498| 
    1572 000003a8 761F-         MOVW      DP,#_receiveC
         000003a9 0002 
    1573 000003aa 2B22-         MOV       @_receiveC,#0         ; |499| 
    1574 000003ab 761F-         MOVW      DP,#_receiveC+1
         000003ac 0002 
    1575 000003ad 2B23-         MOV       @_receiveC+1,#0       ; |500| 
    1576 000003ae 761F-         MOVW      DP,#_receiveC+2
         000003af 0002 
    1577 000003b0 2B24-         MOV       @_receiveC+2,#0       ; |501| 
    1578                      .dwpsn  "sci.c",502,1
    1579 000003b1 0006          LRETR
    1580                      ; return occurs
    1581                      .dwattr DW$64, DW_AT_end_file("sci.c")
    1582                      .dwattr DW$64, DW_AT_end_line(0x1f6)
    1583                      .dwattr DW$64, DW_AT_end_column(0x01)
    1584                      .dwendtag DW$64
    1585              
    1586 000003b2               .sect   ".text"
    1587                      .global _SerialPortDSetup
    1588              
    1589              DW$65   .dwtag  DW_TAG_subprogram, DW_AT_name("SerialPortDSetup"), DW_AT_symbol_name("_SerialPortDSetup")
    1590                      .dwattr DW$65, DW_AT_low_pc(_SerialPortDSetup)
    1591                      .dwattr DW$65, DW_AT_high_pc(0x00)
    1592                      .dwattr DW$65, DW_AT_begin_file("sci.c")
    1593                      .dwattr DW$65, DW_AT_begin_line(0x1f8)
    1594                      .dwattr DW$65, DW_AT_begin_column(0x06)
    1595                      .dwattr DW$65, DW_AT_frame_base[DW_OP_breg20 -2]
    1596                      .dwattr DW$65, DW_AT_skeletal(0x01)
    1597                      .dwpsn  "sci.c",505,1
    1598              
    1599              ;***************************************************************
    1600              ;* FNAME: _SerialPortDSetup             FR SIZE:   0           *
    1601              ;*                                                             *
    1602              ;* FUNCTION ENVIRONMENT                                        *
    1603              ;*                                                             *
    1604              ;* FUNCTION PROPERTIES                                         *
    1605              ;*                            0 Parameter,  0 Auto,  0 SOE     *
    1606              ;***************************************************************
    1607              
    1608 000003b2       _SerialPortDSetup:
    1609 000003b2 761F-         MOVW      DP,#_receiveD+7
         000003b3 0000 
    1610 000003b4 2B07-         MOV       @_receiveD+7,#0       ; |506| 
    1611 000003b5 9A00          MOVB      AL,#0
    1612 000003b6 761F-         MOVW      DP,#_receiveD+8
         000003b7 0000 
    1613 000003b8 2B08-         MOV       @_receiveD+8,#0       ; |507| 
    1614 000003b9 7640!         LCR       #_WriteUartConfig_D   ; |508| 
         000003ba 0000 
    1615                      ; call occurs [#_WriteUartConfig_D] ; |508| 
    1616 000003bb 7640!         LCR       #_ReadDataFromUart_D  ; |509| 
         000003bc 0000 
TMS320C2000 COFF Assembler PC v4.1.3 Wed Sep 14 09:00:58 2016

Tools Copyright (c) 1996-2006 Texas Instruments Incorporated
sci.asm                                                              PAGE   36

    1617                      ; call occurs [#_ReadDataFromUart_D] ; |509| 
    1618 000003bd 761F-         MOVW      DP,#_receiveD+6
         000003be 0000 
    1619 000003bf 2B06-         MOV       @_receiveD+6,#0       ; |510| 
    1620 000003c0 761F-         MOVW      DP,#_receiveD+7
         000003c1 0000 
    1621 000003c2 2B07-         MOV       @_receiveD+7,#0       ; |511| 
    1622 000003c3 761F-         MOVW      DP,#_receiveD+8
         000003c4 0000 
    1623 000003c5 8F00-         MOVL      XAR4,#_receiveD+9     ; |514| 
         000003c6 0009 
    1624 000003c7 0214          MOVB      ACC,#20
    1625 000003c8 2B08-         MOV       @_receiveD+8,#0       ; |512| 
    1626 000003c9 07A4          ADDL      ACC,XAR4
    1627 000003ca 761F-         MOVW      DP,#_receiveD+2
         000003cb 0000 
    1628 000003cc A802-         MOVL      @_receiveD+2,XAR4     ; |514| 
    1629 000003cd 761F-         MOVW      DP,#_receiveD
         000003ce 0000 
    1630 000003cf A800-         MOVL      @_receiveD,XAR4       ; |514| 
    1631 000003d0 761F-         MOVW      DP,#_receiveD+4
         000003d1 0000 
    1632 000003d2 1E04-         MOVL      @_receiveD+4,ACC      ; |515| 
    1633                      .dwpsn  "sci.c",516,1
    1634 000003d3 0006          LRETR
    1635                      ; return occurs
    1636                      .dwattr DW$65, DW_AT_end_file("sci.c")
    1637                      .dwattr DW$65, DW_AT_end_line(0x204)
    1638                      .dwattr DW$65, DW_AT_end_column(0x01)
    1639                      .dwendtag DW$65
    1640              
    1641 000003d4               .sect   ".text"
    1642                      .global _SendCharC
    1643              
    1644              DW$66   .dwtag  DW_TAG_subprogram, DW_AT_name("SendCharC"), DW_AT_symbol_name("_SendCharC")
    1645                      .dwattr DW$66, DW_AT_low_pc(_SendCharC)
    1646                      .dwattr DW$66, DW_AT_high_pc(0x00)
    1647                      .dwattr DW$66, DW_AT_begin_file("sci.c")
    1648                      .dwattr DW$66, DW_AT_begin_line(0x207)
    1649                      .dwattr DW$66, DW_AT_begin_column(0x0e)
    1650                      .dwattr DW$66, DW_AT_frame_base[DW_OP_breg20 -4]
    1651                      .dwattr DW$66, DW_AT_skeletal(0x01)
    1652                      .dwpsn  "sci.c",520,1
    1653              
    1654              ;***************************************************************
    1655              ;* FNAME: _SendCharC                    FR SIZE:   2           *
    1656              ;*                                                             *
    1657              ;* FUNCTION ENVIRONMENT                                        *
    1658              ;*                                                             *
    1659              ;* FUNCTION PROPERTIES                                         *
    1660              ;*                            0 Parameter,  0 Auto,  2 SOE     *
    1661              ;***************************************************************
    1662              
    1663              _SendCharC:
    1664              ;* AL    assigned to _c
TMS320C2000 COFF Assembler PC v4.1.3 Wed Sep 14 09:00:58 2016

Tools Copyright (c) 1996-2006 Texas Instruments Incorporated
sci.asm                                                              PAGE   37

    1665              DW$67   .dwtag  DW_TAG_formal_parameter, DW_AT_name("c"), DW_AT_symbol_name("_c")
    1666                      .dwattr DW$67, DW_AT_type(*DW$T$11)
    1667                      .dwattr DW$67, DW_AT_location[DW_OP_reg0]
    1668 000003d4 B2BD          MOVL      *SP++,XAR1
    1669 000003d5 59A9          MOVZ      AR1,AL                ; |520| 
    1670 000003d6 7640!         LCR       #_WriteBytetoUart_C   ; |521| 
         000003d7 0000 
    1671                      ; call occurs [#_WriteBytetoUart_C] ; |521| 
    1672 000003d8 92A1          MOV       AL,AR1                ; |522| 
    1673 000003d9 8BBE          MOVL      XAR1,*--SP            ; |522| 
    1674                      .dwpsn  "sci.c",523,1
    1675 000003da 0006          LRETR
    1676                      ; return occurs
    1677                      .dwattr DW$66, DW_AT_end_file("sci.c")
    1678                      .dwattr DW$66, DW_AT_end_line(0x20b)
    1679                      .dwattr DW$66, DW_AT_end_column(0x01)
    1680                      .dwendtag DW$66
    1681              
    1682 000003db               .sect   ".text"
    1683                      .global _SendCharD
    1684              
    1685              DW$68   .dwtag  DW_TAG_subprogram, DW_AT_name("SendCharD"), DW_AT_symbol_name("_SendCharD")
    1686                      .dwattr DW$68, DW_AT_low_pc(_SendCharD)
    1687                      .dwattr DW$68, DW_AT_high_pc(0x00)
    1688                      .dwattr DW$68, DW_AT_begin_file("sci.c")
    1689                      .dwattr DW$68, DW_AT_begin_line(0x20e)
    1690                      .dwattr DW$68, DW_AT_begin_column(0x0e)
    1691                      .dwattr DW$68, DW_AT_frame_base[DW_OP_breg20 -4]
    1692                      .dwattr DW$68, DW_AT_skeletal(0x01)
    1693                      .dwpsn  "sci.c",527,1
    1694              
    1695              ;***************************************************************
    1696              ;* FNAME: _SendCharD                    FR SIZE:   2           *
    1697              ;*                                                             *
    1698              ;* FUNCTION ENVIRONMENT                                        *
    1699              ;*                                                             *
    1700              ;* FUNCTION PROPERTIES                                         *
    1701              ;*                            0 Parameter,  0 Auto,  2 SOE     *
    1702              ;***************************************************************
    1703              
    1704              _SendCharD:
    1705              ;* AL    assigned to _c
    1706              DW$69   .dwtag  DW_TAG_formal_parameter, DW_AT_name("c"), DW_AT_symbol_name("_c")
    1707                      .dwattr DW$69, DW_AT_type(*DW$T$11)
    1708                      .dwattr DW$69, DW_AT_location[DW_OP_reg0]
    1709 000003db B2BD          MOVL      *SP++,XAR1
    1710 000003dc 59A9          MOVZ      AR1,AL                ; |527| 
    1711 000003dd 7640!         LCR       #_WriteBytetoUart_D   ; |528| 
         000003de 0000 
    1712                      ; call occurs [#_WriteBytetoUart_D] ; |528| 
    1713 000003df 92A1          MOV       AL,AR1                ; |529| 
    1714 000003e0 8BBE          MOVL      XAR1,*--SP            ; |529| 
    1715                      .dwpsn  "sci.c",530,1
    1716 000003e1 0006          LRETR
    1717                      ; return occurs
TMS320C2000 COFF Assembler PC v4.1.3 Wed Sep 14 09:00:58 2016

Tools Copyright (c) 1996-2006 Texas Instruments Incorporated
sci.asm                                                              PAGE   38

    1718                      .dwattr DW$68, DW_AT_end_file("sci.c")
    1719                      .dwattr DW$68, DW_AT_end_line(0x212)
    1720                      .dwattr DW$68, DW_AT_end_column(0x01)
    1721                      .dwendtag DW$68
    1722              
    1723 000003e2               .sect   ".text"
    1724                      .global _LoadSendBufferC
    1725              
    1726              DW$70   .dwtag  DW_TAG_subprogram, DW_AT_name("LoadSendBufferC"), DW_AT_symbol_name("_LoadSendBufferC")
    1727                      .dwattr DW$70, DW_AT_low_pc(_LoadSendBufferC)
    1728                      .dwattr DW$70, DW_AT_high_pc(0x00)
    1729                      .dwattr DW$70, DW_AT_begin_file("sci.c")
    1730                      .dwattr DW$70, DW_AT_begin_line(0x214)
    1731                      .dwattr DW$70, DW_AT_begin_column(0x06)
    1732                      .dwattr DW$70, DW_AT_frame_base[DW_OP_breg20 -8]
    1733                      .dwattr DW$70, DW_AT_skeletal(0x01)
    1734                      .dwpsn  "sci.c",533,1
    1735              
    1736              ;***************************************************************
    1737              ;* FNAME: _LoadSendBufferC              FR SIZE:   6           *
    1738              ;*                                                             *
    1739              ;* FUNCTION ENVIRONMENT                                        *
    1740              ;*                                                             *
    1741              ;* FUNCTION PROPERTIES                                         *
    1742              ;*                            0 Parameter,  0 Auto,  6 SOE     *
    1743              ;***************************************************************
    1744              
    1745              _LoadSendBufferC:
    1746              ;* AR4   assigned to _ptr
    1747              DW$71   .dwtag  DW_TAG_formal_parameter, DW_AT_name("ptr"), DW_AT_symbol_name("_ptr")
    1748                      .dwattr DW$71, DW_AT_type(*DW$T$49)
    1749                      .dwattr DW$71, DW_AT_location[DW_OP_reg12]
    1750              ;* AL    assigned to _count
    1751              DW$72   .dwtag  DW_TAG_formal_parameter, DW_AT_name("count"), DW_AT_symbol_name("_count")
    1752                      .dwattr DW$72, DW_AT_type(*DW$T$11)
    1753                      .dwattr DW$72, DW_AT_location[DW_OP_reg0]
    1754 000003e2 B2BD          MOVL      *SP++,XAR1
    1755 000003e3 761F!         MOVW      DP,#_gpb
         000003e4 0000 
    1756 000003e5 AABD          MOVL      *SP++,XAR2
    1757 000003e6 A2BD          MOVL      *SP++,XAR3
    1758 000003e7 1A00!         OR        @_gpb,#0x0100         ; |536| 
         000003e8 0100 
    1759 000003e9 5BA9          MOVZ      AR3,AL                ; |533| 
    1760 000003ea 761F!         MOVW      DP,#_gpb
         000003eb 0000 
    1761 000003ec 86A4          MOVL      XAR2,XAR4             ; |533| 
    1762 000003ed 1A00!         OR        @_gpb,#0x0200         ; |537| 
         000003ee 0200 
    1763 000003ef 28A9          MOV       AL,#600               ; |538| 
         000003f0 0258 
    1764 000003f1 7640!         LCR       #_NOPDelay            ; |538| 
         000003f2 0000 
    1765                      ; call occurs [#_NOPDelay] ; |538| 
    1766 000003f3 28A9          MOV       AL,#600               ; |539| 
TMS320C2000 COFF Assembler PC v4.1.3 Wed Sep 14 09:00:58 2016

Tools Copyright (c) 1996-2006 Texas Instruments Incorporated
sci.asm                                                              PAGE   39

         000003f4 0258 
    1767 000003f5 7640!         LCR       #_NOPDelay            ; |539| 
         000003f6 0000 
    1768                      ; call occurs [#_NOPDelay] ; |539| 
    1769 000003f7 28A9          MOV       AL,#600               ; |540| 
         000003f8 0258 
    1770 000003f9 7640!         LCR       #_NOPDelay            ; |540| 
         000003fa 0000 
    1771                      ; call occurs [#_NOPDelay] ; |540| 
    1772 000003fb D100          MOVB      XAR1,#0
    1773 000003fc 92A3          MOV       AL,AR3                ; |541| 
    1774 000003fd EC0D          BF        L31,EQ                ; |541| 
    1775                      ; branchcc occurs ; |541| 
    1776              L30:    
    1777              DW$L$_LoadSendBufferC$2$B:
    1778                      .dwpsn  "sci.c",542,0
    1779 000003fe 929A          MOV       AL,*+XAR2[AR1]        ; |543| 
    1780 000003ff 7640'         LCR       #_SendCharC           ; |543| 
         00000400 03D4 
    1781                      ; call occurs [#_SendCharC] ; |543| 
    1782 00000401 D901          ADDB      XAR1,#1               ; |541| 
    1783 00000402 92A3          MOV       AL,AR3                ; |541| 
    1784 00000403 761F!         MOVW      DP,#_settings
         00000404 0000 
    1785 00000405 54A1          CMP       AL,AR1                ; |541| 
    1786 00000406 2800!         MOV       @_settings,#1         ; |544| 
         00000407 0001 
    1787                      .dwpsn  "sci.c",545,0
    1788 00000408 56C6          BF        L30,HI                ; |541| 
         00000409 FFF6 
    1789                      ; branchcc occurs ; |541| 
    1790 0000040a       DW$L$_LoadSendBufferC$2$E:
    1791 0000040a       L31:    
    1792 0000040a 7640!         LCR       #_WaitforUartTxComplete_C ; |546| 
         0000040b 0000 
    1793                      ; call occurs [#_WaitforUartTxComplete_C] ; |546| 
    1794 0000040c 28A9          MOV       AL,#600               ; |547| 
         0000040d 0258 
    1795 0000040e 7640!         LCR       #_NOPDelay            ; |547| 
         0000040f 0000 
    1796                      ; call occurs [#_NOPDelay] ; |547| 
    1797 00000410 28A9          MOV       AL,#600               ; |548| 
         00000411 0258 
    1798 00000412 7640!         LCR       #_NOPDelay            ; |548| 
         00000413 0000 
    1799                      ; call occurs [#_NOPDelay] ; |548| 
    1800 00000414 28A9          MOV       AL,#600               ; |549| 
         00000415 0258 
    1801 00000416 7640!         LCR       #_NOPDelay            ; |549| 
         00000417 0000 
    1802                      ; call occurs [#_NOPDelay] ; |549| 
    1803 00000418 28A9          MOV       AL,#600               ; |550| 
         00000419 0258 
    1804 0000041a 7640!         LCR       #_NOPDelay            ; |550| 
         0000041b 0000 
TMS320C2000 COFF Assembler PC v4.1.3 Wed Sep 14 09:00:58 2016

Tools Copyright (c) 1996-2006 Texas Instruments Incorporated
sci.asm                                                              PAGE   40

    1805                      ; call occurs [#_NOPDelay] ; |550| 
    1806 0000041c 761F!         MOVW      DP,#_gpb
         0000041d 0000 
    1807 0000041e 1800!         AND       @_gpb,#0xfeff         ; |551| 
         0000041f FEFF 
    1808 00000420 761F!         MOVW      DP,#_gpb
         00000421 0000 
    1809 00000422 1800!         AND       @_gpb,#0xfdff         ; |552| 
         00000423 FDFF 
    1810 00000424 82BE          MOVL      XAR3,*--SP
    1811 00000425 86BE          MOVL      XAR2,*--SP
    1812 00000426 8BBE          MOVL      XAR1,*--SP
    1813                      .dwpsn  "sci.c",553,1
    1814 00000427 0006          LRETR
    1815                      ; return occurs
    1816              
    1817              DW$73   .dwtag  DW_TAG_loop
    1818                      .dwattr DW$73, DW_AT_name("D:\DEV\Amot\BearingWear\XTSW_V6_20\sci.asm:L30:1:1473840058")
    1819                      .dwattr DW$73, DW_AT_begin_file("sci.c")
    1820                      .dwattr DW$73, DW_AT_begin_line(0x21d)
    1821                      .dwattr DW$73, DW_AT_end_line(0x221)
    1822              DW$74   .dwtag  DW_TAG_loop_range
    1823                      .dwattr DW$74, DW_AT_low_pc(DW$L$_LoadSendBufferC$2$B)
    1824                      .dwattr DW$74, DW_AT_high_pc(DW$L$_LoadSendBufferC$2$E)
    1825                      .dwendtag DW$73
    1826              
    1827                      .dwattr DW$70, DW_AT_end_file("sci.c")
    1828                      .dwattr DW$70, DW_AT_end_line(0x229)
    1829                      .dwattr DW$70, DW_AT_end_column(0x01)
    1830                      .dwendtag DW$70
    1831              
    1832 00000428               .sect   ".text"
    1833                      .global _PerformSciRxIntC
    1834              
    1835              DW$75   .dwtag  DW_TAG_subprogram, DW_AT_name("PerformSciRxIntC"), DW_AT_symbol_name("_PerformSciRxIntC")
    1836                      .dwattr DW$75, DW_AT_low_pc(_PerformSciRxIntC)
    1837                      .dwattr DW$75, DW_AT_high_pc(0x00)
    1838                      .dwattr DW$75, DW_AT_begin_file("sci.c")
    1839                      .dwattr DW$75, DW_AT_begin_line(0x22c)
    1840                      .dwattr DW$75, DW_AT_begin_column(0x06)
    1841                      .dwattr DW$75, DW_AT_frame_base[DW_OP_breg20 -2]
    1842                      .dwattr DW$75, DW_AT_skeletal(0x01)
    1843                      .dwpsn  "sci.c",557,1
    1844              
    1845              ;***************************************************************
    1846              ;* FNAME: _PerformSciRxIntC             FR SIZE:   0           *
    1847              ;*                                                             *
    1848              ;* FUNCTION ENVIRONMENT                                        *
    1849              ;*                                                             *
    1850              ;* FUNCTION PROPERTIES                                         *
    1851              ;*                            0 Parameter,  0 Auto,  0 SOE     *
    1852              ;***************************************************************
    1853              
    1854 00000428       _PerformSciRxIntC:
    1855 00000428 7640!         LCR       #_ReadDataFromUart_C  ; |558| 
TMS320C2000 COFF Assembler PC v4.1.3 Wed Sep 14 09:00:58 2016

Tools Copyright (c) 1996-2006 Texas Instruments Incorporated
sci.asm                                                              PAGE   41

         00000429 0000 
    1856                      ; call occurs [#_ReadDataFromUart_C] ; |558| 
    1857 0000042a 761F-         MOVW      DP,#_receiveC+1
         0000042b 0002 
    1858 0000042c 5823-         MOVZ      AR0,@_receiveC+1      ; |558| 
    1859 0000042d 90FF          ANDB      AL,#255               ; |558| 
    1860 0000042e 8F00-         MOVL      XAR4,#_receiveC+3     ; |558| 
         0000042f 00A5 
    1861 00000430 761F-         MOVW      DP,#_receiveC+1
         00000431 0002 
    1862 00000432 9694          MOV       *+XAR4[AR0],AL        ; |558| 
    1863 00000433 0A23-         INC       @_receiveC+1          ; |562| 
    1864 00000434 761F-         MOVW      DP,#_receiveC+1
         00000435 0002 
    1865 00000436 9223-         MOV       AL,@_receiveC+1       ; |562| 
    1866 00000437 5264          CMPB      AL,#100               ; |562| 
    1867 00000438 56C8          BF        L32,LO                ; |562| 
         00000439 0005 
    1868                      ; branchcc occurs ; |562| 
    1869 0000043a 761F-         MOVW      DP,#_receiveC+1
         0000043b 0002 
    1870 0000043c 2B23-         MOV       @_receiveC+1,#0       ; |562| 
    1871              L32:    
    1872                      .dwpsn  "sci.c",563,1
    1873 0000043d 0006          LRETR
    1874                      ; return occurs
    1875                      .dwattr DW$75, DW_AT_end_file("sci.c")
    1876                      .dwattr DW$75, DW_AT_end_line(0x233)
    1877                      .dwattr DW$75, DW_AT_end_column(0x01)
    1878                      .dwendtag DW$75
    1879              
    1880 0000043e               .sect   ".text"
    1881                      .global _clearCommsErrors
    1882              
    1883              DW$76   .dwtag  DW_TAG_subprogram, DW_AT_name("clearCommsErrors"), DW_AT_symbol_name("_clearCommsErrors")
    1884                      .dwattr DW$76, DW_AT_low_pc(_clearCommsErrors)
    1885                      .dwattr DW$76, DW_AT_high_pc(0x00)
    1886                      .dwattr DW$76, DW_AT_begin_file("sci.c")
    1887                      .dwattr DW$76, DW_AT_begin_line(0x237)
    1888                      .dwattr DW$76, DW_AT_begin_column(0x06)
    1889                      .dwattr DW$76, DW_AT_frame_base[DW_OP_breg20 -2]
    1890                      .dwattr DW$76, DW_AT_skeletal(0x01)
    1891                      .dwpsn  "sci.c",568,1
    1892              
    1893              ;***************************************************************
    1894              ;* FNAME: _clearCommsErrors             FR SIZE:   0           *
    1895              ;*                                                             *
    1896              ;* FUNCTION ENVIRONMENT                                        *
    1897              ;*                                                             *
    1898              ;* FUNCTION PROPERTIES                                         *
    1899              ;*                            0 Parameter,  0 Auto,  0 SOE     *
    1900              ;***************************************************************
    1901              
    1902 0000043e       _clearCommsErrors:
    1903 0000043e 761F-         MOVW      DP,#_sciportA+5
TMS320C2000 COFF Assembler PC v4.1.3 Wed Sep 14 09:00:58 2016

Tools Copyright (c) 1996-2006 Texas Instruments Incorporated
sci.asm                                                              PAGE   42

         0000043f 0000 
    1904 00000440 4705-         TBIT      @_sciportA+5,#7       ; |570| 
    1905 00000441 EF0D          BF        L33,NTC               ; |570| 
    1906                      ; branchcc occurs ; |570| 
    1907 00000442 8F00+         MOVL      XAR4,#FSL1            ; |572| 
         00000443 0000 
    1908 00000444 7640'         LCR       #_DebugStringOut      ; |572| 
         00000445 0289 
    1909                      ; call occurs [#_DebugStringOut] ; |572| 
    1910 00000446 761F-         MOVW      DP,#_sciportA+1
         00000447 0000 
    1911 00000448 1801-         AND       @_sciportA+1,#0xffdf  ; |574| 
         00000449 FFDF 
    1912 0000044a 761F-         MOVW      DP,#_sciportA+1
         0000044b 0000 
    1913 0000044c 1A01-         OR        @_sciportA+1,#0x0020  ; |575| 
         0000044d 0020 
    1914 0000044e       L33:    
    1915 0000044e 761F-         MOVW      DP,#_sciportB+5
         0000044f 0000 
    1916 00000450 4705-         TBIT      @_sciportB+5,#7       ; |578| 
    1917 00000451 EF0D          BF        L34,NTC               ; |578| 
    1918                      ; branchcc occurs ; |578| 
    1919 00000452 8F00+         MOVL      XAR4,#FSL2            ; |580| 
         00000453 0010 
    1920 00000454 7640'         LCR       #_DebugStringOut      ; |580| 
         00000455 0289 
    1921                      ; call occurs [#_DebugStringOut] ; |580| 
    1922 00000456 761F-         MOVW      DP,#_sciportB+1
         00000457 0000 
    1923 00000458 1801-         AND       @_sciportB+1,#0xffdf  ; |582| 
         00000459 FFDF 
    1924 0000045a 761F-         MOVW      DP,#_sciportB+1
         0000045b 0000 
    1925 0000045c 1A01-         OR        @_sciportB+1,#0x0020  ; |583| 
         0000045d 0020 
    1926              L34:    
    1927                      .dwpsn  "sci.c",585,1
    1928 0000045e 0006          LRETR
    1929                      ; return occurs
    1930                      .dwattr DW$76, DW_AT_end_file("sci.c")
    1931                      .dwattr DW$76, DW_AT_end_line(0x249)
    1932                      .dwattr DW$76, DW_AT_end_column(0x01)
    1933                      .dwendtag DW$76
    1934              
    1935              ;***************************************************************
    1936              ;* FAR STRINGS                                                 *
    1937              ;***************************************************************
    1938 00000000               .sect   ".econst"
    1939                      .align  2
    1940 00000000 0052  FSL1:   .string "Reset Port A",13,10,0
         00000001 0065 
         00000002 0073 
         00000003 0065 
         00000004 0074 
TMS320C2000 COFF Assembler PC v4.1.3 Wed Sep 14 09:00:58 2016

Tools Copyright (c) 1996-2006 Texas Instruments Incorporated
sci.asm                                                              PAGE   43

         00000005 0020 
         00000006 0050 
         00000007 006F 
         00000008 0072 
         00000009 0074 
         0000000a 0020 
         0000000b 0041 
         0000000c 000D 
         0000000d 000A 
         0000000e 0000 
    1941                      .align  2
    1942 00000010 0052  FSL2:   .string "Reset Port B",13,10,0
         00000011 0065 
         00000012 0073 
         00000013 0065 
         00000014 0074 
         00000015 0020 
         00000016 0050 
         00000017 006F 
         00000018 0072 
         00000019 0074 
         0000001a 0020 
         0000001b 0042 
         0000001c 000D 
         0000001d 000A 
         0000001e 0000 
    1943              ;***************************************************************
    1944              ;* UNDEFINED EXTERNAL REFERENCES                               *
    1945              ;***************************************************************
    1946                      .global _NOPDelay
    1947                      .global _ReadDataFromUart_D
    1948                      .global _WriteUartConfig_C
    1949                      .global _ReadDataFromUart_C
    1950                      .global _WriteUartConfig_D
    1951                      .global _WriteBytetoUart_C
    1952                      .global _WriteBytetoUart_D
    1953                      .global _WaitforUartTxComplete_C
    1954                      .global _gpa
    1955                      .global _gpb
    1956                      .global _gpf
    1957                      .global _settings
    1958                      .global _safe2
    1959                      .global _timers
    1960                      .global _modbusrxchar
    1961                      .global _pcmodbus
    1962              
    1963              ;***************************************************************
    1964              ;* TYPE INFORMATION                                            *
    1965              ;***************************************************************
    1966              
    1967              DW$T$61 .dwtag  DW_TAG_subroutine_type
    1968                      .dwattr DW$T$61, DW_AT_language(DW_LANG_C)
    1969              DW$77   .dwtag  DW_TAG_formal_parameter, DW_AT_type(*DW$T$11)
    1970                      .dwendtag DW$T$61
    1971              
TMS320C2000 COFF Assembler PC v4.1.3 Wed Sep 14 09:00:58 2016

Tools Copyright (c) 1996-2006 Texas Instruments Incorporated
sci.asm                                                              PAGE   44

    1972              
    1973              DW$T$63 .dwtag  DW_TAG_subroutine_type
    1974                      .dwattr DW$T$63, DW_AT_language(DW_LANG_C)
    1975              
    1976              DW$T$66 .dwtag  DW_TAG_subroutine_type
    1977                      .dwattr DW$T$66, DW_AT_language(DW_LANG_C)
    1978              DW$78   .dwtag  DW_TAG_formal_parameter, DW_AT_type(*DW$T$65)
    1979                      .dwendtag DW$T$66
    1980              
    1981              
    1982              DW$T$68 .dwtag  DW_TAG_subroutine_type
    1983                      .dwattr DW$T$68, DW_AT_language(DW_LANG_C)
    1984              DW$79   .dwtag  DW_TAG_formal_parameter, DW_AT_type(*DW$T$49)
    1985              DW$80   .dwtag  DW_TAG_formal_parameter, DW_AT_type(*DW$T$11)
    1986                      .dwendtag DW$T$68
    1987              
    1988              DW$T$6  .dwtag  DW_TAG_base_type, DW_AT_name("unsigned char")
    1989                      .dwattr DW$T$6, DW_AT_encoding(DW_ATE_unsigned_char)
    1990                      .dwattr DW$T$6, DW_AT_byte_size(0x01)
    1991              DW$T$10 .dwtag  DW_TAG_base_type, DW_AT_name("int")
    1992                      .dwattr DW$T$10, DW_AT_encoding(DW_ATE_signed)
    1993                      .dwattr DW$T$10, DW_AT_byte_size(0x01)
    1994              
    1995              DW$T$71 .dwtag  DW_TAG_subroutine_type, DW_AT_type(*DW$T$10)
    1996                      .dwattr DW$T$71, DW_AT_language(DW_LANG_C)
    1997              DW$81   .dwtag  DW_TAG_formal_parameter, DW_AT_type(*DW$T$10)
    1998                      .dwendtag DW$T$71
    1999              
    2000              
    2001              DW$T$72 .dwtag  DW_TAG_subroutine_type, DW_AT_type(*DW$T$10)
    2002                      .dwattr DW$T$72, DW_AT_language(DW_LANG_C)
    2003              DW$T$11 .dwtag  DW_TAG_base_type, DW_AT_name("unsigned int")
    2004                      .dwattr DW$T$11, DW_AT_encoding(DW_ATE_unsigned)
    2005                      .dwattr DW$T$11, DW_AT_byte_size(0x01)
    2006              DW$T$49 .dwtag  DW_TAG_pointer_type, DW_AT_type(*DW$T$11)
    2007                      .dwattr DW$T$49, DW_AT_address_class(0x16)
    2008              
    2009              DW$T$80 .dwtag  DW_TAG_subroutine_type, DW_AT_type(*DW$T$11)
    2010                      .dwattr DW$T$80, DW_AT_language(DW_LANG_C)
    2011              DW$82   .dwtag  DW_TAG_formal_parameter, DW_AT_type(*DW$T$11)
    2012                      .dwendtag DW$T$80
    2013              
    2014              DW$83   .dwtag  DW_TAG_far_type
    2015                      .dwattr DW$83, DW_AT_type(*DW$T$87)
    2016              DW$T$88 .dwtag  DW_TAG_volatile_type
    2017                      .dwattr DW$T$88, DW_AT_type(*DW$83)
    2018              DW$84   .dwtag  DW_TAG_far_type
    2019                      .dwattr DW$84, DW_AT_type(*DW$T$91)
    2020              DW$T$92 .dwtag  DW_TAG_volatile_type
    2021                      .dwattr DW$T$92, DW_AT_type(*DW$84)
    2022              DW$85   .dwtag  DW_TAG_far_type
    2023                      .dwattr DW$85, DW_AT_type(*DW$T$95)
    2024              DW$T$96 .dwtag  DW_TAG_volatile_type
    2025                      .dwattr DW$T$96, DW_AT_type(*DW$85)
    2026              DW$T$99 .dwtag  DW_TAG_typedef, DW_AT_name("settingsstruct"), DW_AT_type(*DW$T$29)
TMS320C2000 COFF Assembler PC v4.1.3 Wed Sep 14 09:00:58 2016

Tools Copyright (c) 1996-2006 Texas Instruments Incorporated
sci.asm                                                              PAGE   45

    2027                      .dwattr DW$T$99, DW_AT_language(DW_LANG_C)
    2028              DW$T$100        .dwtag  DW_TAG_typedef, DW_AT_name("safestruct2struct"), DW_AT_type(*DW$T$42)
    2029                      .dwattr DW$T$100, DW_AT_language(DW_LANG_C)
    2030              DW$86   .dwtag  DW_TAG_far_type
    2031                      .dwattr DW$86, DW_AT_type(*DW$T$101)
    2032              DW$T$102        .dwtag  DW_TAG_volatile_type
    2033                      .dwattr DW$T$102, DW_AT_type(*DW$86)
    2034              DW$T$104        .dwtag  DW_TAG_typedef, DW_AT_name("PCCmdStruct"), DW_AT_type(*DW$T$46)
    2035                      .dwattr DW$T$104, DW_AT_language(DW_LANG_C)
    2036              DW$87   .dwtag  DW_TAG_far_type
    2037                      .dwattr DW$87, DW_AT_type(*DW$T$105)
    2038              DW$T$106        .dwtag  DW_TAG_volatile_type
    2039                      .dwattr DW$T$106, DW_AT_type(*DW$87)
    2040              DW$T$51 .dwtag  DW_TAG_base_type, DW_AT_name("signed char")
    2041                      .dwattr DW$T$51, DW_AT_encoding(DW_ATE_signed_char)
    2042                      .dwattr DW$T$51, DW_AT_byte_size(0x01)
    2043              DW$T$65 .dwtag  DW_TAG_pointer_type, DW_AT_type(*DW$T$51)
    2044                      .dwattr DW$T$65, DW_AT_address_class(0x16)
    2045              
    2046              DW$T$110        .dwtag  DW_TAG_subroutine_type, DW_AT_type(*DW$T$51)
    2047                      .dwattr DW$T$110, DW_AT_language(DW_LANG_C)
    2048              DW$88   .dwtag  DW_TAG_formal_parameter, DW_AT_type(*DW$T$51)
    2049                      .dwendtag DW$T$110
    2050              
    2051              
    2052              DW$T$111        .dwtag  DW_TAG_subroutine_type, DW_AT_type(*DW$T$51)
    2053                      .dwattr DW$T$111, DW_AT_language(DW_LANG_C)
    2054              DW$T$113        .dwtag  DW_TAG_typedef, DW_AT_name("uartreadA"), DW_AT_type(*DW$T$52)
    2055                      .dwattr DW$T$113, DW_AT_language(DW_LANG_C)
    2056              DW$T$115        .dwtag  DW_TAG_typedef, DW_AT_name("uartwrite"), DW_AT_type(*DW$T$55)
    2057                      .dwattr DW$T$115, DW_AT_language(DW_LANG_C)
    2058              DW$T$117        .dwtag  DW_TAG_typedef, DW_AT_name("uartreadB"), DW_AT_type(*DW$T$56)
    2059                      .dwattr DW$T$117, DW_AT_language(DW_LANG_C)
    2060              DW$T$119        .dwtag  DW_TAG_typedef, DW_AT_name("uartreadC"), DW_AT_type(*DW$T$58)
    2061                      .dwattr DW$T$119, DW_AT_language(DW_LANG_C)
    2062              DW$T$121        .dwtag  DW_TAG_typedef, DW_AT_name("uartreadD"), DW_AT_type(*DW$T$60)
    2063                      .dwattr DW$T$121, DW_AT_language(DW_LANG_C)
    2064              DW$T$87 .dwtag  DW_TAG_typedef, DW_AT_name("gpaport"), DW_AT_type(*DW$T$21)
    2065                      .dwattr DW$T$87, DW_AT_language(DW_LANG_C)
    2066              DW$T$91 .dwtag  DW_TAG_typedef, DW_AT_name("gpbport"), DW_AT_type(*DW$T$24)
    2067                      .dwattr DW$T$91, DW_AT_language(DW_LANG_C)
    2068              DW$T$95 .dwtag  DW_TAG_typedef, DW_AT_name("gpfport"), DW_AT_type(*DW$T$27)
    2069                      .dwattr DW$T$95, DW_AT_language(DW_LANG_C)
    2070              
    2071              DW$T$29 .dwtag  DW_TAG_structure_type
    2072                      .dwattr DW$T$29, DW_AT_name("tag_settingsstruct")
    2073                      .dwattr DW$T$29, DW_AT_byte_size(0x24)
    2074              DW$89   .dwtag  DW_TAG_member, DW_AT_type(*DW$T$11)
    2075                      .dwattr DW$89, DW_AT_name("watchdog"), DW_AT_symbol_name("_watchdog")
    2076                      .dwattr DW$89, DW_AT_data_member_location[DW_OP_plus_uconst 0x0]
    2077                      .dwattr DW$89, DW_AT_accessibility(DW_ACCESS_public)
    2078              DW$90   .dwtag  DW_TAG_member, DW_AT_type(*DW$T$11)
    2079                      .dwattr DW$90, DW_AT_name("ledflashflag"), DW_AT_symbol_name("_ledflashflag")
    2080                      .dwattr DW$90, DW_AT_data_member_location[DW_OP_plus_uconst 0x1]
    2081                      .dwattr DW$90, DW_AT_accessibility(DW_ACCESS_public)
TMS320C2000 COFF Assembler PC v4.1.3 Wed Sep 14 09:00:58 2016

Tools Copyright (c) 1996-2006 Texas Instruments Incorporated
sci.asm                                                              PAGE   46

    2082              DW$91   .dwtag  DW_TAG_member, DW_AT_type(*DW$T$11)
    2083                      .dwattr DW$91, DW_AT_name("updatesafe"), DW_AT_symbol_name("_updatesafe")
    2084                      .dwattr DW$91, DW_AT_data_member_location[DW_OP_plus_uconst 0x2]
    2085                      .dwattr DW$91, DW_AT_accessibility(DW_ACCESS_public)
    2086              DW$92   .dwtag  DW_TAG_member, DW_AT_type(*DW$T$11)
    2087                      .dwattr DW$92, DW_AT_name("tableconfigtype"), DW_AT_symbol_name("_tableconfigtype")
    2088                      .dwattr DW$92, DW_AT_data_member_location[DW_OP_plus_uconst 0x3]
    2089                      .dwattr DW$92, DW_AT_accessibility(DW_ACCESS_public)
    2090              DW$93   .dwtag  DW_TAG_member, DW_AT_type(*DW$T$11)
    2091                      .dwattr DW$93, DW_AT_name("caltableconfigtype"), DW_AT_symbol_name("_caltableconfigtype")
    2092                      .dwattr DW$93, DW_AT_data_member_location[DW_OP_plus_uconst 0x4]
    2093                      .dwattr DW$93, DW_AT_accessibility(DW_ACCESS_public)
    2094              DW$94   .dwtag  DW_TAG_member, DW_AT_type(*DW$T$11)
    2095                      .dwattr DW$94, DW_AT_name("eventmsgid"), DW_AT_symbol_name("_eventmsgid")
    2096                      .dwattr DW$94, DW_AT_data_member_location[DW_OP_plus_uconst 0x5]
    2097                      .dwattr DW$94, DW_AT_accessibility(DW_ACCESS_public)
    2098              DW$95   .dwtag  DW_TAG_member, DW_AT_type(*DW$T$11)
    2099                      .dwattr DW$95, DW_AT_name("configoperationcomplete"), DW_AT_symbol_name("_configoperationcomplete")
    2100                      .dwattr DW$95, DW_AT_data_member_location[DW_OP_plus_uconst 0x6]
    2101                      .dwattr DW$95, DW_AT_accessibility(DW_ACCESS_public)
    2102              DW$96   .dwtag  DW_TAG_member, DW_AT_type(*DW$T$11)
    2103                      .dwattr DW$96, DW_AT_name("sdcarderr"), DW_AT_symbol_name("_sdcarderr")
    2104                      .dwattr DW$96, DW_AT_data_member_location[DW_OP_plus_uconst 0x7]
    2105                      .dwattr DW$96, DW_AT_accessibility(DW_ACCESS_public)
    2106              DW$97   .dwtag  DW_TAG_member, DW_AT_type(*DW$T$11)
    2107                      .dwattr DW$97, DW_AT_name("sderase"), DW_AT_symbol_name("_sderase")
    2108                      .dwattr DW$97, DW_AT_data_member_location[DW_OP_plus_uconst 0x8]
    2109                      .dwattr DW$97, DW_AT_accessibility(DW_ACCESS_public)
    2110              DW$98   .dwtag  DW_TAG_member, DW_AT_type(*DW$T$11)
    2111                      .dwattr DW$98, DW_AT_name("sdreinit"), DW_AT_symbol_name("_sdreinit")
    2112                      .dwattr DW$98, DW_AT_data_member_location[DW_OP_plus_uconst 0x9]
    2113                      .dwattr DW$98, DW_AT_accessibility(DW_ACCESS_public)
    2114              DW$99   .dwtag  DW_TAG_member, DW_AT_type(*DW$T$11)
    2115                      .dwattr DW$99, DW_AT_name("sdcardupdate"), DW_AT_symbol_name("_sdcardupdate")
    2116                      .dwattr DW$99, DW_AT_data_member_location[DW_OP_plus_uconst 0xa]
    2117                      .dwattr DW$99, DW_AT_accessibility(DW_ACCESS_public)
    2118              DW$100  .dwtag  DW_TAG_member, DW_AT_type(*DW$T$11)
    2119                      .dwattr DW$100, DW_AT_name("cardreadflag"), DW_AT_symbol_name("_cardreadflag")
    2120                      .dwattr DW$100, DW_AT_data_member_location[DW_OP_plus_uconst 0xb]
    2121                      .dwattr DW$100, DW_AT_accessibility(DW_ACCESS_public)
    2122              DW$101  .dwtag  DW_TAG_member, DW_AT_type(*DW$T$11)
    2123                      .dwattr DW$101, DW_AT_name("ignore"), DW_AT_symbol_name("_ignore")
    2124                      .dwattr DW$101, DW_AT_data_member_location[DW_OP_plus_uconst 0xc]
    2125                      .dwattr DW$101, DW_AT_accessibility(DW_ACCESS_public)
    2126              DW$102  .dwtag  DW_TAG_member, DW_AT_type(*DW$T$11)
    2127                      .dwattr DW$102, DW_AT_name("dcmode"), DW_AT_symbol_name("_dcmode")
    2128                      .dwattr DW$102, DW_AT_data_member_location[DW_OP_plus_uconst 0xd]
    2129                      .dwattr DW$102, DW_AT_accessibility(DW_ACCESS_public)
    2130              DW$103  .dwtag  DW_TAG_member, DW_AT_type(*DW$T$11)
    2131                      .dwattr DW$103, DW_AT_name("spiinuse"), DW_AT_symbol_name("_spiinuse")
    2132                      .dwattr DW$103, DW_AT_data_member_location[DW_OP_plus_uconst 0xe]
    2133                      .dwattr DW$103, DW_AT_accessibility(DW_ACCESS_public)
    2134              DW$104  .dwtag  DW_TAG_member, DW_AT_type(*DW$T$11)
    2135                      .dwattr DW$104, DW_AT_name("dcpeakhold"), DW_AT_symbol_name("_dcpeakhold")
    2136                      .dwattr DW$104, DW_AT_data_member_location[DW_OP_plus_uconst 0xf]
TMS320C2000 COFF Assembler PC v4.1.3 Wed Sep 14 09:00:58 2016

Tools Copyright (c) 1996-2006 Texas Instruments Incorporated
sci.asm                                                              PAGE   47

    2137                      .dwattr DW$104, DW_AT_accessibility(DW_ACCESS_public)
    2138              DW$105  .dwtag  DW_TAG_member, DW_AT_type(*DW$T$11)
    2139                      .dwattr DW$105, DW_AT_name("dcpause"), DW_AT_symbol_name("_dcpause")
    2140                      .dwattr DW$105, DW_AT_data_member_location[DW_OP_plus_uconst 0x10]
    2141                      .dwattr DW$105, DW_AT_accessibility(DW_ACCESS_public)
    2142              DW$106  .dwtag  DW_TAG_member, DW_AT_type(*DW$T$11)
    2143                      .dwattr DW$106, DW_AT_name("mastermode"), DW_AT_symbol_name("_mastermode")
    2144                      .dwattr DW$106, DW_AT_data_member_location[DW_OP_plus_uconst 0x11]
    2145                      .dwattr DW$106, DW_AT_accessibility(DW_ACCESS_public)
    2146              DW$107  .dwtag  DW_TAG_member, DW_AT_type(*DW$T$11)
    2147                      .dwattr DW$107, DW_AT_name("updatescaling"), DW_AT_symbol_name("_updatescaling")
    2148                      .dwattr DW$107, DW_AT_data_member_location[DW_OP_plus_uconst 0x12]
    2149                      .dwattr DW$107, DW_AT_accessibility(DW_ACCESS_public)
    2150              DW$108  .dwtag  DW_TAG_member, DW_AT_type(*DW$T$11)
    2151                      .dwattr DW$108, DW_AT_name("forwardasternflag"), DW_AT_symbol_name("_forwardasternflag")
    2152                      .dwattr DW$108, DW_AT_data_member_location[DW_OP_plus_uconst 0x13]
    2153                      .dwattr DW$108, DW_AT_accessibility(DW_ACCESS_public)
    2154              DW$109  .dwtag  DW_TAG_member, DW_AT_type(*DW$T$11)
    2155                      .dwattr DW$109, DW_AT_name("initprogress"), DW_AT_symbol_name("_initprogress")
    2156                      .dwattr DW$109, DW_AT_data_member_location[DW_OP_plus_uconst 0x14]
    2157                      .dwattr DW$109, DW_AT_accessibility(DW_ACCESS_public)
    2158              DW$110  .dwtag  DW_TAG_member, DW_AT_type(*DW$T$11)
    2159                      .dwattr DW$110, DW_AT_name("dircountdown"), DW_AT_symbol_name("_dircountdown")
    2160                      .dwattr DW$110, DW_AT_data_member_location[DW_OP_plus_uconst 0x15]
    2161                      .dwattr DW$110, DW_AT_accessibility(DW_ACCESS_public)
    2162              DW$111  .dwtag  DW_TAG_member, DW_AT_type(*DW$T$11)
    2163                      .dwattr DW$111, DW_AT_name("slowdowncounter"), DW_AT_symbol_name("_slowdowncounter")
    2164                      .dwattr DW$111, DW_AT_data_member_location[DW_OP_plus_uconst 0x16]
    2165                      .dwattr DW$111, DW_AT_accessibility(DW_ACCESS_public)
    2166              DW$112  .dwtag  DW_TAG_member, DW_AT_type(*DW$T$11)
    2167                      .dwattr DW$112, DW_AT_name("slowdowncondition"), DW_AT_symbol_name("_slowdowncondition")
    2168                      .dwattr DW$112, DW_AT_data_member_location[DW_OP_plus_uconst 0x17]
    2169                      .dwattr DW$112, DW_AT_accessibility(DW_ACCESS_public)
    2170              DW$113  .dwtag  DW_TAG_member, DW_AT_type(*DW$T$11)
    2171                      .dwattr DW$113, DW_AT_name("slowdownlevel"), DW_AT_symbol_name("_slowdownlevel")
    2172                      .dwattr DW$113, DW_AT_data_member_location[DW_OP_plus_uconst 0x18]
    2173                      .dwattr DW$113, DW_AT_accessibility(DW_ACCESS_public)
    2174              DW$114  .dwtag  DW_TAG_member, DW_AT_type(*DW$T$11)
    2175                      .dwattr DW$114, DW_AT_name("alarmlevel"), DW_AT_symbol_name("_alarmlevel")
    2176                      .dwattr DW$114, DW_AT_data_member_location[DW_OP_plus_uconst 0x19]
    2177                      .dwattr DW$114, DW_AT_accessibility(DW_ACCESS_public)
    2178              DW$115  .dwtag  DW_TAG_member, DW_AT_type(*DW$T$11)
    2179                      .dwattr DW$115, DW_AT_name("slowdowndevlevel"), DW_AT_symbol_name("_slowdowndevlevel")
    2180                      .dwattr DW$115, DW_AT_data_member_location[DW_OP_plus_uconst 0x1a]
    2181                      .dwattr DW$115, DW_AT_accessibility(DW_ACCESS_public)
    2182              DW$116  .dwtag  DW_TAG_member, DW_AT_type(*DW$T$11)
    2183                      .dwattr DW$116, DW_AT_name("alarmdevlevel"), DW_AT_symbol_name("_alarmdevlevel")
    2184                      .dwattr DW$116, DW_AT_data_member_location[DW_OP_plus_uconst 0x1b]
    2185                      .dwattr DW$116, DW_AT_accessibility(DW_ACCESS_public)
    2186              DW$117  .dwtag  DW_TAG_member, DW_AT_type(*DW$T$11)
    2187                      .dwattr DW$117, DW_AT_name("cylinderalarmlevel"), DW_AT_symbol_name("_cylinderalarmlevel")
    2188                      .dwattr DW$117, DW_AT_data_member_location[DW_OP_plus_uconst 0x1c]
    2189                      .dwattr DW$117, DW_AT_accessibility(DW_ACCESS_public)
    2190              DW$118  .dwtag  DW_TAG_member, DW_AT_type(*DW$T$11)
    2191                      .dwattr DW$118, DW_AT_name("temperaturealarm"), DW_AT_symbol_name("_temperaturealarm")
TMS320C2000 COFF Assembler PC v4.1.3 Wed Sep 14 09:00:58 2016

Tools Copyright (c) 1996-2006 Texas Instruments Incorporated
sci.asm                                                              PAGE   48

    2192                      .dwattr DW$118, DW_AT_data_member_location[DW_OP_plus_uconst 0x1d]
    2193                      .dwattr DW$118, DW_AT_accessibility(DW_ACCESS_public)
    2194              DW$119  .dwtag  DW_TAG_member, DW_AT_type(*DW$T$11)
    2195                      .dwattr DW$119, DW_AT_name("temperatureslowdown"), DW_AT_symbol_name("_temperatureslowdown")
    2196                      .dwattr DW$119, DW_AT_data_member_location[DW_OP_plus_uconst 0x1e]
    2197                      .dwattr DW$119, DW_AT_accessibility(DW_ACCESS_public)
    2198              DW$120  .dwtag  DW_TAG_member, DW_AT_type(*DW$T$28)
    2199                      .dwattr DW$120, DW_AT_name("anadebug"), DW_AT_symbol_name("_anadebug")
    2200                      .dwattr DW$120, DW_AT_data_member_location[DW_OP_plus_uconst 0x1f]
    2201                      .dwattr DW$120, DW_AT_accessibility(DW_ACCESS_public)
    2202              DW$121  .dwtag  DW_TAG_member, DW_AT_type(*DW$T$11)
    2203                      .dwattr DW$121, DW_AT_name("serialdebug"), DW_AT_symbol_name("_serialdebug")
    2204                      .dwattr DW$121, DW_AT_data_member_location[DW_OP_plus_uconst 0x21]
    2205                      .dwattr DW$121, DW_AT_accessibility(DW_ACCESS_public)
    2206              DW$122  .dwtag  DW_TAG_member, DW_AT_type(*DW$T$11)
    2207                      .dwattr DW$122, DW_AT_name("timerrunning"), DW_AT_symbol_name("_timerrunning")
    2208                      .dwattr DW$122, DW_AT_data_member_location[DW_OP_plus_uconst 0x22]
    2209                      .dwattr DW$122, DW_AT_accessibility(DW_ACCESS_public)
    2210              DW$123  .dwtag  DW_TAG_member, DW_AT_type(*DW$T$11)
    2211                      .dwattr DW$123, DW_AT_name("rpm"), DW_AT_symbol_name("_rpm")
    2212                      .dwattr DW$123, DW_AT_data_member_location[DW_OP_plus_uconst 0x23]
    2213                      .dwattr DW$123, DW_AT_accessibility(DW_ACCESS_public)
    2214                      .dwendtag DW$T$29
    2215              
    2216              
    2217              DW$T$42 .dwtag  DW_TAG_structure_type
    2218                      .dwattr DW$T$42, DW_AT_name("tag_safestruct2struct")
    2219                      .dwattr DW$T$42, DW_AT_byte_size(0x1e)
    2220              DW$124  .dwtag  DW_TAG_member, DW_AT_type(*DW$T$31)
    2221                      .dwattr DW$124, DW_AT_name("inputs"), DW_AT_symbol_name("_inputs")
    2222                      .dwattr DW$124, DW_AT_data_member_location[DW_OP_plus_uconst 0x0]
    2223                      .dwattr DW$124, DW_AT_accessibility(DW_ACCESS_public)
    2224              DW$125  .dwtag  DW_TAG_member, DW_AT_type(*DW$T$32)
    2225                      .dwattr DW$125, DW_AT_name("log"), DW_AT_symbol_name("_log")
    2226                      .dwattr DW$125, DW_AT_data_member_location[DW_OP_plus_uconst 0xb]
    2227                      .dwattr DW$125, DW_AT_accessibility(DW_ACCESS_public)
    2228              DW$126  .dwtag  DW_TAG_member, DW_AT_type(*DW$T$33)
    2229                      .dwattr DW$126, DW_AT_name("modbus"), DW_AT_symbol_name("_modbus")
    2230                      .dwattr DW$126, DW_AT_data_member_location[DW_OP_plus_uconst 0xe]
    2231                      .dwattr DW$126, DW_AT_accessibility(DW_ACCESS_public)
    2232              DW$127  .dwtag  DW_TAG_member, DW_AT_type(*DW$T$34)
    2233                      .dwattr DW$127, DW_AT_name("filter"), DW_AT_symbol_name("_filter")
    2234                      .dwattr DW$127, DW_AT_data_member_location[DW_OP_plus_uconst 0xf]
    2235                      .dwattr DW$127, DW_AT_accessibility(DW_ACCESS_public)
    2236              DW$128  .dwtag  DW_TAG_member, DW_AT_type(*DW$T$35)
    2237                      .dwattr DW$128, DW_AT_name("alarms"), DW_AT_symbol_name("_alarms")
    2238                      .dwattr DW$128, DW_AT_data_member_location[DW_OP_plus_uconst 0x11]
    2239                      .dwattr DW$128, DW_AT_accessibility(DW_ACCESS_public)
    2240              DW$129  .dwtag  DW_TAG_member, DW_AT_type(*DW$T$36)
    2241                      .dwattr DW$129, DW_AT_name("modbusbaud"), DW_AT_symbol_name("_modbusbaud")
    2242                      .dwattr DW$129, DW_AT_data_member_location[DW_OP_plus_uconst 0x14]
    2243                      .dwattr DW$129, DW_AT_accessibility(DW_ACCESS_public)
    2244              DW$130  .dwtag  DW_TAG_member, DW_AT_type(*DW$T$37)
    2245                      .dwattr DW$130, DW_AT_name("modbus2"), DW_AT_symbol_name("_modbus2")
    2246                      .dwattr DW$130, DW_AT_data_member_location[DW_OP_plus_uconst 0x15]
TMS320C2000 COFF Assembler PC v4.1.3 Wed Sep 14 09:00:58 2016

Tools Copyright (c) 1996-2006 Texas Instruments Incorporated
sci.asm                                                              PAGE   49

    2247                      .dwattr DW$130, DW_AT_accessibility(DW_ACCESS_public)
    2248              DW$131  .dwtag  DW_TAG_member, DW_AT_type(*DW$T$38)
    2249                      .dwattr DW$131, DW_AT_name("sync"), DW_AT_symbol_name("_sync")
    2250                      .dwattr DW$131, DW_AT_data_member_location[DW_OP_plus_uconst 0x17]
    2251                      .dwattr DW$131, DW_AT_accessibility(DW_ACCESS_public)
    2252              DW$132  .dwtag  DW_TAG_member, DW_AT_type(*DW$T$39)
    2253                      .dwattr DW$132, DW_AT_name("alarmenable"), DW_AT_symbol_name("_alarmenable")
    2254                      .dwattr DW$132, DW_AT_data_member_location[DW_OP_plus_uconst 0x1b]
    2255                      .dwattr DW$132, DW_AT_accessibility(DW_ACCESS_public)
    2256              DW$133  .dwtag  DW_TAG_member, DW_AT_type(*DW$T$40)
    2257                      .dwattr DW$133, DW_AT_name("trendmax"), DW_AT_symbol_name("_trendmax")
    2258                      .dwattr DW$133, DW_AT_data_member_location[DW_OP_plus_uconst 0x1c]
    2259                      .dwattr DW$133, DW_AT_accessibility(DW_ACCESS_public)
    2260              DW$134  .dwtag  DW_TAG_member, DW_AT_type(*DW$T$41)
    2261                      .dwattr DW$134, DW_AT_name("tempcomp"), DW_AT_symbol_name("_tempcomp")
    2262                      .dwattr DW$134, DW_AT_data_member_location[DW_OP_plus_uconst 0x1d]
    2263                      .dwattr DW$134, DW_AT_accessibility(DW_ACCESS_public)
    2264                      .dwendtag DW$T$42
    2265              
    2266              DW$T$101        .dwtag  DW_TAG_typedef, DW_AT_name("timersstruct"), DW_AT_type(*DW$T$44)
    2267                      .dwattr DW$T$101, DW_AT_language(DW_LANG_C)
    2268              
    2269              DW$T$46 .dwtag  DW_TAG_structure_type
    2270                      .dwattr DW$T$46, DW_AT_name("tag_PCCmdStruct")
    2271                      .dwattr DW$T$46, DW_AT_byte_size(0x110)
    2272              DW$135  .dwtag  DW_TAG_member, DW_AT_type(*DW$T$6)
    2273                      .dwattr DW$135, DW_AT_name("SlaveAddr"), DW_AT_symbol_name("_SlaveAddr")
    2274                      .dwattr DW$135, DW_AT_data_member_location[DW_OP_plus_uconst 0x0]
    2275                      .dwattr DW$135, DW_AT_accessibility(DW_ACCESS_public)
    2276              DW$136  .dwtag  DW_TAG_member, DW_AT_type(*DW$T$6)
    2277                      .dwattr DW$136, DW_AT_name("Func"), DW_AT_symbol_name("_Func")
    2278                      .dwattr DW$136, DW_AT_data_member_location[DW_OP_plus_uconst 0x1]
    2279                      .dwattr DW$136, DW_AT_accessibility(DW_ACCESS_public)
    2280              DW$137  .dwtag  DW_TAG_member, DW_AT_type(*DW$T$11)
    2281                      .dwattr DW$137, DW_AT_name("StartAdd"), DW_AT_symbol_name("_StartAdd")
    2282                      .dwattr DW$137, DW_AT_data_member_location[DW_OP_plus_uconst 0x2]
    2283                      .dwattr DW$137, DW_AT_accessibility(DW_ACCESS_public)
    2284              DW$138  .dwtag  DW_TAG_member, DW_AT_type(*DW$T$11)
    2285                      .dwattr DW$138, DW_AT_name("NoReg"), DW_AT_symbol_name("_NoReg")
    2286                      .dwattr DW$138, DW_AT_data_member_location[DW_OP_plus_uconst 0x3]
    2287                      .dwattr DW$138, DW_AT_accessibility(DW_ACCESS_public)
    2288              DW$139  .dwtag  DW_TAG_member, DW_AT_type(*DW$T$11)
    2289                      .dwattr DW$139, DW_AT_name("ByteCount"), DW_AT_symbol_name("_ByteCount")
    2290                      .dwattr DW$139, DW_AT_data_member_location[DW_OP_plus_uconst 0x4]
    2291                      .dwattr DW$139, DW_AT_accessibility(DW_ACCESS_public)
    2292              DW$140  .dwtag  DW_TAG_member, DW_AT_type(*DW$T$45)
    2293                      .dwattr DW$140, DW_AT_name("Data"), DW_AT_symbol_name("_Data")
    2294                      .dwattr DW$140, DW_AT_data_member_location[DW_OP_plus_uconst 0x5]
    2295                      .dwattr DW$140, DW_AT_accessibility(DW_ACCESS_public)
    2296              DW$141  .dwtag  DW_TAG_member, DW_AT_type(*DW$T$11)
    2297                      .dwattr DW$141, DW_AT_name("errorflag"), DW_AT_symbol_name("_errorflag")
    2298                      .dwattr DW$141, DW_AT_data_member_location[DW_OP_plus_uconst 0x10f]
    2299                      .dwattr DW$141, DW_AT_accessibility(DW_ACCESS_public)
    2300                      .dwendtag DW$T$46
    2301              
TMS320C2000 COFF Assembler PC v4.1.3 Wed Sep 14 09:00:58 2016

Tools Copyright (c) 1996-2006 Texas Instruments Incorporated
sci.asm                                                              PAGE   50

    2302              DW$T$105        .dwtag  DW_TAG_typedef, DW_AT_name("sciport"), DW_AT_type(*DW$T$48)
    2303                      .dwattr DW$T$105, DW_AT_language(DW_LANG_C)
    2304              
    2305              DW$T$52 .dwtag  DW_TAG_structure_type
    2306                      .dwattr DW$T$52, DW_AT_name("tag_uartreadA")
    2307                      .dwattr DW$T$52, DW_AT_byte_size(0x96)
    2308              DW$142  .dwtag  DW_TAG_member, DW_AT_type(*DW$T$49)
    2309                      .dwattr DW$142, DW_AT_name("headptr"), DW_AT_symbol_name("_headptr")
    2310                      .dwattr DW$142, DW_AT_data_member_location[DW_OP_plus_uconst 0x0]
    2311                      .dwattr DW$142, DW_AT_accessibility(DW_ACCESS_public)
    2312              DW$143  .dwtag  DW_TAG_member, DW_AT_type(*DW$T$49)
    2313                      .dwattr DW$143, DW_AT_name("tailptr"), DW_AT_symbol_name("_tailptr")
    2314                      .dwattr DW$143, DW_AT_data_member_location[DW_OP_plus_uconst 0x2]
    2315                      .dwattr DW$143, DW_AT_accessibility(DW_ACCESS_public)
    2316              DW$144  .dwtag  DW_TAG_member, DW_AT_type(*DW$T$49)
    2317                      .dwattr DW$144, DW_AT_name("eobuf"), DW_AT_symbol_name("_eobuf")
    2318                      .dwattr DW$144, DW_AT_data_member_location[DW_OP_plus_uconst 0x4]
    2319                      .dwattr DW$144, DW_AT_accessibility(DW_ACCESS_public)
    2320              DW$145  .dwtag  DW_TAG_member, DW_AT_type(*DW$T$11)
    2321                      .dwattr DW$145, DW_AT_name("charcount"), DW_AT_symbol_name("_charcount")
    2322                      .dwattr DW$145, DW_AT_data_member_location[DW_OP_plus_uconst 0x6]
    2323                      .dwattr DW$145, DW_AT_accessibility(DW_ACCESS_public)
    2324              DW$146  .dwtag  DW_TAG_member, DW_AT_type(*DW$T$11)
    2325                      .dwattr DW$146, DW_AT_name("currentcharcount"), DW_AT_symbol_name("_currentcharcount")
    2326                      .dwattr DW$146, DW_AT_data_member_location[DW_OP_plus_uconst 0x7]
    2327                      .dwattr DW$146, DW_AT_accessibility(DW_ACCESS_public)
    2328              DW$147  .dwtag  DW_TAG_member, DW_AT_type(*DW$T$11)
    2329                      .dwattr DW$147, DW_AT_name("previouscharcount"), DW_AT_symbol_name("_previouscharcount")
    2330                      .dwattr DW$147, DW_AT_data_member_location[DW_OP_plus_uconst 0x8]
    2331                      .dwattr DW$147, DW_AT_accessibility(DW_ACCESS_public)
    2332              DW$148  .dwtag  DW_TAG_member, DW_AT_type(*DW$T$50)
    2333                      .dwattr DW$148, DW_AT_name("buf"), DW_AT_symbol_name("_buf")
    2334                      .dwattr DW$148, DW_AT_data_member_location[DW_OP_plus_uconst 0x9]
    2335                      .dwattr DW$148, DW_AT_accessibility(DW_ACCESS_public)
    2336              DW$149  .dwtag  DW_TAG_member, DW_AT_type(*DW$T$51)
    2337                      .dwattr DW$149, DW_AT_name("uartcharrx"), DW_AT_symbol_name("_uartcharrx")
    2338                      .dwattr DW$149, DW_AT_data_member_location[DW_OP_plus_uconst 0x95]
    2339                      .dwattr DW$149, DW_AT_accessibility(DW_ACCESS_public)
    2340                      .dwendtag DW$T$52
    2341              
    2342              
    2343              DW$T$55 .dwtag  DW_TAG_structure_type
    2344                      .dwattr DW$T$55, DW_AT_name("tag_uartwrite")
    2345                      .dwattr DW$T$55, DW_AT_byte_size(0x0c)
    2346              DW$150  .dwtag  DW_TAG_member, DW_AT_type(*DW$T$53)
    2347                      .dwattr DW$150, DW_AT_name("headptr"), DW_AT_symbol_name("_headptr")
    2348                      .dwattr DW$150, DW_AT_data_member_location[DW_OP_plus_uconst 0x0]
    2349                      .dwattr DW$150, DW_AT_accessibility(DW_ACCESS_public)
    2350              DW$151  .dwtag  DW_TAG_member, DW_AT_type(*DW$T$53)
    2351                      .dwattr DW$151, DW_AT_name("tailptr"), DW_AT_symbol_name("_tailptr")
    2352                      .dwattr DW$151, DW_AT_data_member_location[DW_OP_plus_uconst 0x2]
    2353                      .dwattr DW$151, DW_AT_accessibility(DW_ACCESS_public)
    2354              DW$152  .dwtag  DW_TAG_member, DW_AT_type(*DW$T$53)
    2355                      .dwattr DW$152, DW_AT_name("eobuf"), DW_AT_symbol_name("_eobuf")
    2356                      .dwattr DW$152, DW_AT_data_member_location[DW_OP_plus_uconst 0x4]
TMS320C2000 COFF Assembler PC v4.1.3 Wed Sep 14 09:00:58 2016

Tools Copyright (c) 1996-2006 Texas Instruments Incorporated
sci.asm                                                              PAGE   51

    2357                      .dwattr DW$152, DW_AT_accessibility(DW_ACCESS_public)
    2358              DW$153  .dwtag  DW_TAG_member, DW_AT_type(*DW$T$54)
    2359                      .dwattr DW$153, DW_AT_name("buf"), DW_AT_symbol_name("_buf")
    2360                      .dwattr DW$153, DW_AT_data_member_location[DW_OP_plus_uconst 0x6]
    2361                      .dwattr DW$153, DW_AT_accessibility(DW_ACCESS_public)
    2362                      .dwendtag DW$T$55
    2363              
    2364              
    2365              DW$T$56 .dwtag  DW_TAG_structure_type
    2366                      .dwattr DW$T$56, DW_AT_name("tag_uartreadB")
    2367                      .dwattr DW$T$56, DW_AT_byte_size(0x96)
    2368              DW$154  .dwtag  DW_TAG_member, DW_AT_type(*DW$T$49)
    2369                      .dwattr DW$154, DW_AT_name("headptr"), DW_AT_symbol_name("_headptr")
    2370                      .dwattr DW$154, DW_AT_data_member_location[DW_OP_plus_uconst 0x0]
    2371                      .dwattr DW$154, DW_AT_accessibility(DW_ACCESS_public)
    2372              DW$155  .dwtag  DW_TAG_member, DW_AT_type(*DW$T$49)
    2373                      .dwattr DW$155, DW_AT_name("tailptr"), DW_AT_symbol_name("_tailptr")
    2374                      .dwattr DW$155, DW_AT_data_member_location[DW_OP_plus_uconst 0x2]
    2375                      .dwattr DW$155, DW_AT_accessibility(DW_ACCESS_public)
    2376              DW$156  .dwtag  DW_TAG_member, DW_AT_type(*DW$T$49)
    2377                      .dwattr DW$156, DW_AT_name("eobuf"), DW_AT_symbol_name("_eobuf")
    2378                      .dwattr DW$156, DW_AT_data_member_location[DW_OP_plus_uconst 0x4]
    2379                      .dwattr DW$156, DW_AT_accessibility(DW_ACCESS_public)
    2380              DW$157  .dwtag  DW_TAG_member, DW_AT_type(*DW$T$11)
    2381                      .dwattr DW$157, DW_AT_name("charcount"), DW_AT_symbol_name("_charcount")
    2382                      .dwattr DW$157, DW_AT_data_member_location[DW_OP_plus_uconst 0x6]
    2383                      .dwattr DW$157, DW_AT_accessibility(DW_ACCESS_public)
    2384              DW$158  .dwtag  DW_TAG_member, DW_AT_type(*DW$T$11)
    2385                      .dwattr DW$158, DW_AT_name("currentcharcount"), DW_AT_symbol_name("_currentcharcount")
    2386                      .dwattr DW$158, DW_AT_data_member_location[DW_OP_plus_uconst 0x7]
    2387                      .dwattr DW$158, DW_AT_accessibility(DW_ACCESS_public)
    2388              DW$159  .dwtag  DW_TAG_member, DW_AT_type(*DW$T$11)
    2389                      .dwattr DW$159, DW_AT_name("previouscharcount"), DW_AT_symbol_name("_previouscharcount")
    2390                      .dwattr DW$159, DW_AT_data_member_location[DW_OP_plus_uconst 0x8]
    2391                      .dwattr DW$159, DW_AT_accessibility(DW_ACCESS_public)
    2392              DW$160  .dwtag  DW_TAG_member, DW_AT_type(*DW$T$50)
    2393                      .dwattr DW$160, DW_AT_name("buf"), DW_AT_symbol_name("_buf")
    2394                      .dwattr DW$160, DW_AT_data_member_location[DW_OP_plus_uconst 0x9]
    2395                      .dwattr DW$160, DW_AT_accessibility(DW_ACCESS_public)
    2396              DW$161  .dwtag  DW_TAG_member, DW_AT_type(*DW$T$51)
    2397                      .dwattr DW$161, DW_AT_name("uartcharrx"), DW_AT_symbol_name("_uartcharrx")
    2398                      .dwattr DW$161, DW_AT_data_member_location[DW_OP_plus_uconst 0x95]
    2399                      .dwattr DW$161, DW_AT_accessibility(DW_ACCESS_public)
    2400                      .dwendtag DW$T$56
    2401              
    2402              
    2403              DW$T$58 .dwtag  DW_TAG_structure_type
    2404                      .dwattr DW$T$58, DW_AT_name("tag_uartreadC")
    2405                      .dwattr DW$T$58, DW_AT_byte_size(0x68)
    2406              DW$162  .dwtag  DW_TAG_member, DW_AT_type(*DW$T$11)
    2407                      .dwattr DW$162, DW_AT_name("receiveINTR"), DW_AT_symbol_name("_receiveINTR")
    2408                      .dwattr DW$162, DW_AT_data_member_location[DW_OP_plus_uconst 0x0]
    2409                      .dwattr DW$162, DW_AT_accessibility(DW_ACCESS_public)
    2410              DW$163  .dwtag  DW_TAG_member, DW_AT_type(*DW$T$11)
    2411                      .dwattr DW$163, DW_AT_name("currentcharcount"), DW_AT_symbol_name("_currentcharcount")
TMS320C2000 COFF Assembler PC v4.1.3 Wed Sep 14 09:00:58 2016

Tools Copyright (c) 1996-2006 Texas Instruments Incorporated
sci.asm                                                              PAGE   52

    2412                      .dwattr DW$163, DW_AT_data_member_location[DW_OP_plus_uconst 0x1]
    2413                      .dwattr DW$163, DW_AT_accessibility(DW_ACCESS_public)
    2414              DW$164  .dwtag  DW_TAG_member, DW_AT_type(*DW$T$11)
    2415                      .dwattr DW$164, DW_AT_name("previouscharcount"), DW_AT_symbol_name("_previouscharcount")
    2416                      .dwattr DW$164, DW_AT_data_member_location[DW_OP_plus_uconst 0x2]
    2417                      .dwattr DW$164, DW_AT_accessibility(DW_ACCESS_public)
    2418              DW$165  .dwtag  DW_TAG_member, DW_AT_type(*DW$T$57)
    2419                      .dwattr DW$165, DW_AT_name("buf"), DW_AT_symbol_name("_buf")
    2420                      .dwattr DW$165, DW_AT_data_member_location[DW_OP_plus_uconst 0x3]
    2421                      .dwattr DW$165, DW_AT_accessibility(DW_ACCESS_public)
    2422              DW$166  .dwtag  DW_TAG_member, DW_AT_type(*DW$T$51)
    2423                      .dwattr DW$166, DW_AT_name("uartcharrx"), DW_AT_symbol_name("_uartcharrx")
    2424                      .dwattr DW$166, DW_AT_data_member_location[DW_OP_plus_uconst 0x67]
    2425                      .dwattr DW$166, DW_AT_accessibility(DW_ACCESS_public)
    2426                      .dwendtag DW$T$58
    2427              
    2428              
    2429              DW$T$60 .dwtag  DW_TAG_structure_type
    2430                      .dwattr DW$T$60, DW_AT_name("tag_uartreadD")
    2431                      .dwattr DW$T$60, DW_AT_byte_size(0x1e)
    2432              DW$167  .dwtag  DW_TAG_member, DW_AT_type(*DW$T$49)
    2433                      .dwattr DW$167, DW_AT_name("headptr"), DW_AT_symbol_name("_headptr")
    2434                      .dwattr DW$167, DW_AT_data_member_location[DW_OP_plus_uconst 0x0]
    2435                      .dwattr DW$167, DW_AT_accessibility(DW_ACCESS_public)
    2436              DW$168  .dwtag  DW_TAG_member, DW_AT_type(*DW$T$49)
    2437                      .dwattr DW$168, DW_AT_name("tailptr"), DW_AT_symbol_name("_tailptr")
    2438                      .dwattr DW$168, DW_AT_data_member_location[DW_OP_plus_uconst 0x2]
    2439                      .dwattr DW$168, DW_AT_accessibility(DW_ACCESS_public)
    2440              DW$169  .dwtag  DW_TAG_member, DW_AT_type(*DW$T$49)
    2441                      .dwattr DW$169, DW_AT_name("eobuf"), DW_AT_symbol_name("_eobuf")
    2442                      .dwattr DW$169, DW_AT_data_member_location[DW_OP_plus_uconst 0x4]
    2443                      .dwattr DW$169, DW_AT_accessibility(DW_ACCESS_public)
    2444              DW$170  .dwtag  DW_TAG_member, DW_AT_type(*DW$T$11)
    2445                      .dwattr DW$170, DW_AT_name("receiveINTR"), DW_AT_symbol_name("_receiveINTR")
    2446                      .dwattr DW$170, DW_AT_data_member_location[DW_OP_plus_uconst 0x6]
    2447                      .dwattr DW$170, DW_AT_accessibility(DW_ACCESS_public)
    2448              DW$171  .dwtag  DW_TAG_member, DW_AT_type(*DW$T$11)
    2449                      .dwattr DW$171, DW_AT_name("currentcharcount"), DW_AT_symbol_name("_currentcharcount")
    2450                      .dwattr DW$171, DW_AT_data_member_location[DW_OP_plus_uconst 0x7]
    2451                      .dwattr DW$171, DW_AT_accessibility(DW_ACCESS_public)
    2452              DW$172  .dwtag  DW_TAG_member, DW_AT_type(*DW$T$11)
    2453                      .dwattr DW$172, DW_AT_name("previouscharcount"), DW_AT_symbol_name("_previouscharcount")
    2454                      .dwattr DW$172, DW_AT_data_member_location[DW_OP_plus_uconst 0x8]
    2455                      .dwattr DW$172, DW_AT_accessibility(DW_ACCESS_public)
    2456              DW$173  .dwtag  DW_TAG_member, DW_AT_type(*DW$T$59)
    2457                      .dwattr DW$173, DW_AT_name("buf"), DW_AT_symbol_name("_buf")
    2458                      .dwattr DW$173, DW_AT_data_member_location[DW_OP_plus_uconst 0x9]
    2459                      .dwattr DW$173, DW_AT_accessibility(DW_ACCESS_public)
    2460              DW$174  .dwtag  DW_TAG_member, DW_AT_type(*DW$T$51)
    2461                      .dwattr DW$174, DW_AT_name("uartcharrx"), DW_AT_symbol_name("_uartcharrx")
    2462                      .dwattr DW$174, DW_AT_data_member_location[DW_OP_plus_uconst 0x1d]
    2463                      .dwattr DW$174, DW_AT_accessibility(DW_ACCESS_public)
    2464                      .dwendtag DW$T$60
    2465              
    2466              DW$T$53 .dwtag  DW_TAG_pointer_type, DW_AT_type(*DW$T$6)
TMS320C2000 COFF Assembler PC v4.1.3 Wed Sep 14 09:00:58 2016

Tools Copyright (c) 1996-2006 Texas Instruments Incorporated
sci.asm                                                              PAGE   53

    2467                      .dwattr DW$T$53, DW_AT_address_class(0x16)
    2468              
    2469              DW$T$54 .dwtag  DW_TAG_array_type, DW_AT_type(*DW$T$6)
    2470                      .dwattr DW$T$54, DW_AT_language(DW_LANG_C)
    2471                      .dwattr DW$T$54, DW_AT_byte_size(0x05)
    2472              DW$175  .dwtag  DW_TAG_subrange_type
    2473                      .dwattr DW$175, DW_AT_upper_bound(0x04)
    2474                      .dwendtag DW$T$54
    2475              
    2476              
    2477              DW$T$45 .dwtag  DW_TAG_array_type, DW_AT_type(*DW$T$11)
    2478                      .dwattr DW$T$45, DW_AT_language(DW_LANG_C)
    2479                      .dwattr DW$T$45, DW_AT_byte_size(0x10a)
    2480              DW$176  .dwtag  DW_TAG_subrange_type
    2481                      .dwattr DW$176, DW_AT_upper_bound(0x109)
    2482                      .dwendtag DW$T$45
    2483              
    2484              
    2485              DW$T$50 .dwtag  DW_TAG_array_type, DW_AT_type(*DW$T$11)
    2486                      .dwattr DW$T$50, DW_AT_language(DW_LANG_C)
    2487                      .dwattr DW$T$50, DW_AT_byte_size(0x8c)
    2488              DW$177  .dwtag  DW_TAG_subrange_type
    2489                      .dwattr DW$177, DW_AT_upper_bound(0x8b)
    2490                      .dwendtag DW$T$50
    2491              
    2492              
    2493              DW$T$57 .dwtag  DW_TAG_array_type, DW_AT_type(*DW$T$11)
    2494                      .dwattr DW$T$57, DW_AT_language(DW_LANG_C)
    2495                      .dwattr DW$T$57, DW_AT_byte_size(0x64)
    2496              DW$178  .dwtag  DW_TAG_subrange_type
    2497                      .dwattr DW$178, DW_AT_upper_bound(0x63)
    2498                      .dwendtag DW$T$57
    2499              
    2500              
    2501              DW$T$59 .dwtag  DW_TAG_array_type, DW_AT_type(*DW$T$11)
    2502                      .dwattr DW$T$59, DW_AT_language(DW_LANG_C)
    2503                      .dwattr DW$T$59, DW_AT_byte_size(0x14)
    2504              DW$179  .dwtag  DW_TAG_subrange_type
    2505                      .dwattr DW$179, DW_AT_upper_bound(0x13)
    2506                      .dwendtag DW$T$59
    2507              
    2508              
    2509              DW$T$21 .dwtag  DW_TAG_structure_type
    2510                      .dwattr DW$T$21, DW_AT_name("taggpaport")
    2511                      .dwattr DW$T$21, DW_AT_byte_size(0x01)
    2512              DW$180  .dwtag  DW_TAG_member, DW_AT_type(*DW$T$20)
    2513                      .dwattr DW$180, DW_AT_name("selunion"), DW_AT_symbol_name("_selunion")
    2514                      .dwattr DW$180, DW_AT_data_member_location[DW_OP_plus_uconst 0x0]
    2515                      .dwattr DW$180, DW_AT_accessibility(DW_ACCESS_public)
    2516                      .dwendtag DW$T$21
    2517              
    2518              
    2519              DW$T$24 .dwtag  DW_TAG_structure_type
    2520                      .dwattr DW$T$24, DW_AT_name("taggpbport")
    2521                      .dwattr DW$T$24, DW_AT_byte_size(0x01)
TMS320C2000 COFF Assembler PC v4.1.3 Wed Sep 14 09:00:58 2016

Tools Copyright (c) 1996-2006 Texas Instruments Incorporated
sci.asm                                                              PAGE   54

    2522              DW$181  .dwtag  DW_TAG_member, DW_AT_type(*DW$T$23)
    2523                      .dwattr DW$181, DW_AT_name("selunion"), DW_AT_symbol_name("_selunion")
    2524                      .dwattr DW$181, DW_AT_data_member_location[DW_OP_plus_uconst 0x0]
    2525                      .dwattr DW$181, DW_AT_accessibility(DW_ACCESS_public)
    2526                      .dwendtag DW$T$24
    2527              
    2528              
    2529              DW$T$27 .dwtag  DW_TAG_structure_type
    2530                      .dwattr DW$T$27, DW_AT_name("taggpfport")
    2531                      .dwattr DW$T$27, DW_AT_byte_size(0x01)
    2532              DW$182  .dwtag  DW_TAG_member, DW_AT_type(*DW$T$26)
    2533                      .dwattr DW$182, DW_AT_name("selunion"), DW_AT_symbol_name("_selunion")
    2534                      .dwattr DW$182, DW_AT_data_member_location[DW_OP_plus_uconst 0x0]
    2535                      .dwattr DW$182, DW_AT_accessibility(DW_ACCESS_public)
    2536                      .dwendtag DW$T$27
    2537              
    2538              
    2539              DW$T$28 .dwtag  DW_TAG_structure_type
    2540                      .dwattr DW$T$28, DW_AT_byte_size(0x02)
    2541              DW$183  .dwtag  DW_TAG_member, DW_AT_type(*DW$T$11)
    2542                      .dwattr DW$183, DW_AT_name("enb"), DW_AT_symbol_name("_enb")
    2543                      .dwattr DW$183, DW_AT_data_member_location[DW_OP_plus_uconst 0x0]
    2544                      .dwattr DW$183, DW_AT_accessibility(DW_ACCESS_public)
    2545              DW$184  .dwtag  DW_TAG_member, DW_AT_type(*DW$T$11)
    2546                      .dwattr DW$184, DW_AT_name("chan"), DW_AT_symbol_name("_chan")
    2547                      .dwattr DW$184, DW_AT_data_member_location[DW_OP_plus_uconst 0x1]
    2548                      .dwattr DW$184, DW_AT_accessibility(DW_ACCESS_public)
    2549                      .dwendtag DW$T$28
    2550              
    2551              
    2552              DW$T$31 .dwtag  DW_TAG_structure_type
    2553                      .dwattr DW$T$31, DW_AT_byte_size(0x0b)
    2554              DW$185  .dwtag  DW_TAG_member, DW_AT_type(*DW$T$30)
    2555                      .dwattr DW$185, DW_AT_name("calprtzero"), DW_AT_symbol_name("_calprtzero")
    2556                      .dwattr DW$185, DW_AT_data_member_location[DW_OP_plus_uconst 0x0]
    2557                      .dwattr DW$185, DW_AT_accessibility(DW_ACCESS_public)
    2558              DW$186  .dwtag  DW_TAG_member, DW_AT_type(*DW$T$30)
    2559                      .dwattr DW$186, DW_AT_name("calprtfullscale"), DW_AT_symbol_name("_calprtfullscale")
    2560                      .dwattr DW$186, DW_AT_data_member_location[DW_OP_plus_uconst 0x4]
    2561                      .dwattr DW$186, DW_AT_accessibility(DW_ACCESS_public)
    2562              DW$187  .dwtag  DW_TAG_member, DW_AT_type(*DW$T$11)
    2563                      .dwattr DW$187, DW_AT_name("sensorscalingfactor"), DW_AT_symbol_name("_sensorscalingfactor")
    2564                      .dwattr DW$187, DW_AT_data_member_location[DW_OP_plus_uconst 0x8]
    2565                      .dwattr DW$187, DW_AT_accessibility(DW_ACCESS_public)
    2566              DW$188  .dwtag  DW_TAG_member, DW_AT_type(*DW$T$11)
    2567                      .dwattr DW$188, DW_AT_name("unused1"), DW_AT_symbol_name("_unused1")
    2568                      .dwattr DW$188, DW_AT_data_member_location[DW_OP_plus_uconst 0x9]
    2569                      .dwattr DW$188, DW_AT_accessibility(DW_ACCESS_public)
    2570              DW$189  .dwtag  DW_TAG_member, DW_AT_type(*DW$T$11)
    2571                      .dwattr DW$189, DW_AT_name("unused2"), DW_AT_symbol_name("_unused2")
    2572                      .dwattr DW$189, DW_AT_data_member_location[DW_OP_plus_uconst 0xa]
    2573                      .dwattr DW$189, DW_AT_accessibility(DW_ACCESS_public)
    2574                      .dwendtag DW$T$31
    2575              
    2576              
TMS320C2000 COFF Assembler PC v4.1.3 Wed Sep 14 09:00:58 2016

Tools Copyright (c) 1996-2006 Texas Instruments Incorporated
sci.asm                                                              PAGE   55

    2577              DW$T$32 .dwtag  DW_TAG_structure_type
    2578                      .dwattr DW$T$32, DW_AT_byte_size(0x03)
    2579              DW$190  .dwtag  DW_TAG_member, DW_AT_type(*DW$T$11)
    2580                      .dwattr DW$190, DW_AT_name("mainrate"), DW_AT_symbol_name("_mainrate")
    2581                      .dwattr DW$190, DW_AT_data_member_location[DW_OP_plus_uconst 0x0]
    2582                      .dwattr DW$190, DW_AT_accessibility(DW_ACCESS_public)
    2583              DW$191  .dwtag  DW_TAG_member, DW_AT_type(*DW$T$11)
    2584                      .dwattr DW$191, DW_AT_name("trendrate"), DW_AT_symbol_name("_trendrate")
    2585                      .dwattr DW$191, DW_AT_data_member_location[DW_OP_plus_uconst 0x1]
    2586                      .dwattr DW$191, DW_AT_accessibility(DW_ACCESS_public)
    2587              DW$192  .dwtag  DW_TAG_member, DW_AT_type(*DW$T$11)
    2588                      .dwattr DW$192, DW_AT_name("unused1"), DW_AT_symbol_name("_unused1")
    2589                      .dwattr DW$192, DW_AT_data_member_location[DW_OP_plus_uconst 0x2]
    2590                      .dwattr DW$192, DW_AT_accessibility(DW_ACCESS_public)
    2591                      .dwendtag DW$T$32
    2592              
    2593              
    2594              DW$T$33 .dwtag  DW_TAG_structure_type
    2595                      .dwattr DW$T$33, DW_AT_byte_size(0x01)
    2596              DW$193  .dwtag  DW_TAG_member, DW_AT_type(*DW$T$11)
    2597                      .dwattr DW$193, DW_AT_name("address"), DW_AT_symbol_name("_address")
    2598                      .dwattr DW$193, DW_AT_data_member_location[DW_OP_plus_uconst 0x0]
    2599                      .dwattr DW$193, DW_AT_accessibility(DW_ACCESS_public)
    2600                      .dwendtag DW$T$33
    2601              
    2602              
    2603              DW$T$34 .dwtag  DW_TAG_structure_type
    2604                      .dwattr DW$T$34, DW_AT_byte_size(0x02)
    2605              DW$194  .dwtag  DW_TAG_member, DW_AT_type(*DW$T$11)
    2606                      .dwattr DW$194, DW_AT_name("inputtap"), DW_AT_symbol_name("_inputtap")
    2607                      .dwattr DW$194, DW_AT_data_member_location[DW_OP_plus_uconst 0x0]
    2608                      .dwattr DW$194, DW_AT_accessibility(DW_ACCESS_public)
    2609              DW$195  .dwtag  DW_TAG_member, DW_AT_type(*DW$T$11)
    2610                      .dwattr DW$195, DW_AT_name("unused1"), DW_AT_symbol_name("_unused1")
    2611                      .dwattr DW$195, DW_AT_data_member_location[DW_OP_plus_uconst 0x1]
    2612                      .dwattr DW$195, DW_AT_accessibility(DW_ACCESS_public)
    2613                      .dwendtag DW$T$34
    2614              
    2615              
    2616              DW$T$35 .dwtag  DW_TAG_structure_type
    2617                      .dwattr DW$T$35, DW_AT_byte_size(0x03)
    2618              DW$196  .dwtag  DW_TAG_member, DW_AT_type(*DW$T$11)
    2619                      .dwattr DW$196, DW_AT_name("notused1"), DW_AT_symbol_name("_notused1")
    2620                      .dwattr DW$196, DW_AT_data_member_location[DW_OP_plus_uconst 0x0]
    2621                      .dwattr DW$196, DW_AT_accessibility(DW_ACCESS_public)
    2622              DW$197  .dwtag  DW_TAG_member, DW_AT_type(*DW$T$11)
    2623                      .dwattr DW$197, DW_AT_name("notused2"), DW_AT_symbol_name("_notused2")
    2624                      .dwattr DW$197, DW_AT_data_member_location[DW_OP_plus_uconst 0x1]
    2625                      .dwattr DW$197, DW_AT_accessibility(DW_ACCESS_public)
    2626              DW$198  .dwtag  DW_TAG_member, DW_AT_type(*DW$T$11)
    2627                      .dwattr DW$198, DW_AT_name("notused3"), DW_AT_symbol_name("_notused3")
    2628                      .dwattr DW$198, DW_AT_data_member_location[DW_OP_plus_uconst 0x2]
    2629                      .dwattr DW$198, DW_AT_accessibility(DW_ACCESS_public)
    2630                      .dwendtag DW$T$35
    2631              
TMS320C2000 COFF Assembler PC v4.1.3 Wed Sep 14 09:00:58 2016

Tools Copyright (c) 1996-2006 Texas Instruments Incorporated
sci.asm                                                              PAGE   56

    2632              
    2633              DW$T$36 .dwtag  DW_TAG_structure_type
    2634                      .dwattr DW$T$36, DW_AT_byte_size(0x01)
    2635              DW$199  .dwtag  DW_TAG_member, DW_AT_type(*DW$T$11)
    2636                      .dwattr DW$199, DW_AT_name("rate"), DW_AT_symbol_name("_rate")
    2637                      .dwattr DW$199, DW_AT_data_member_location[DW_OP_plus_uconst 0x0]
    2638                      .dwattr DW$199, DW_AT_accessibility(DW_ACCESS_public)
    2639                      .dwendtag DW$T$36
    2640              
    2641              
    2642              DW$T$37 .dwtag  DW_TAG_structure_type
    2643                      .dwattr DW$T$37, DW_AT_byte_size(0x02)
    2644              DW$200  .dwtag  DW_TAG_member, DW_AT_type(*DW$T$11)
    2645                      .dwattr DW$200, DW_AT_name("notused1"), DW_AT_symbol_name("_notused1")
    2646                      .dwattr DW$200, DW_AT_data_member_location[DW_OP_plus_uconst 0x0]
    2647                      .dwattr DW$200, DW_AT_accessibility(DW_ACCESS_public)
    2648              DW$201  .dwtag  DW_TAG_member, DW_AT_type(*DW$T$11)
    2649                      .dwattr DW$201, DW_AT_name("notused2"), DW_AT_symbol_name("_notused2")
    2650                      .dwattr DW$201, DW_AT_data_member_location[DW_OP_plus_uconst 0x1]
    2651                      .dwattr DW$201, DW_AT_accessibility(DW_ACCESS_public)
    2652                      .dwendtag DW$T$37
    2653              
    2654              
    2655              DW$T$38 .dwtag  DW_TAG_structure_type
    2656                      .dwattr DW$T$38, DW_AT_byte_size(0x04)
    2657              DW$202  .dwtag  DW_TAG_member, DW_AT_type(*DW$T$11)
    2658                      .dwattr DW$202, DW_AT_name("notused1"), DW_AT_symbol_name("_notused1")
    2659                      .dwattr DW$202, DW_AT_data_member_location[DW_OP_plus_uconst 0x0]
    2660                      .dwattr DW$202, DW_AT_accessibility(DW_ACCESS_public)
    2661              DW$203  .dwtag  DW_TAG_member, DW_AT_type(*DW$T$11)
    2662                      .dwattr DW$203, DW_AT_name("notused2"), DW_AT_symbol_name("_notused2")
    2663                      .dwattr DW$203, DW_AT_data_member_location[DW_OP_plus_uconst 0x1]
    2664                      .dwattr DW$203, DW_AT_accessibility(DW_ACCESS_public)
    2665              DW$204  .dwtag  DW_TAG_member, DW_AT_type(*DW$T$11)
    2666                      .dwattr DW$204, DW_AT_name("notused3"), DW_AT_symbol_name("_notused3")
    2667                      .dwattr DW$204, DW_AT_data_member_location[DW_OP_plus_uconst 0x2]
    2668                      .dwattr DW$204, DW_AT_accessibility(DW_ACCESS_public)
    2669              DW$205  .dwtag  DW_TAG_member, DW_AT_type(*DW$T$11)
    2670                      .dwattr DW$205, DW_AT_name("notused4"), DW_AT_symbol_name("_notused4")
    2671                      .dwattr DW$205, DW_AT_data_member_location[DW_OP_plus_uconst 0x3]
    2672                      .dwattr DW$205, DW_AT_accessibility(DW_ACCESS_public)
    2673                      .dwendtag DW$T$38
    2674              
    2675              
    2676              DW$T$39 .dwtag  DW_TAG_structure_type
    2677                      .dwattr DW$T$39, DW_AT_byte_size(0x01)
    2678              DW$206  .dwtag  DW_TAG_member, DW_AT_type(*DW$T$11)
    2679                      .dwattr DW$206, DW_AT_name("bitmap"), DW_AT_symbol_name("_bitmap")
    2680                      .dwattr DW$206, DW_AT_data_member_location[DW_OP_plus_uconst 0x0]
    2681                      .dwattr DW$206, DW_AT_accessibility(DW_ACCESS_public)
    2682                      .dwendtag DW$T$39
    2683              
    2684              
    2685              DW$T$40 .dwtag  DW_TAG_structure_type
    2686                      .dwattr DW$T$40, DW_AT_byte_size(0x01)
TMS320C2000 COFF Assembler PC v4.1.3 Wed Sep 14 09:00:58 2016

Tools Copyright (c) 1996-2006 Texas Instruments Incorporated
sci.asm                                                              PAGE   57

    2687              DW$207  .dwtag  DW_TAG_member, DW_AT_type(*DW$T$11)
    2688                      .dwattr DW$207, DW_AT_name("graphvalue"), DW_AT_symbol_name("_graphvalue")
    2689                      .dwattr DW$207, DW_AT_data_member_location[DW_OP_plus_uconst 0x0]
    2690                      .dwattr DW$207, DW_AT_accessibility(DW_ACCESS_public)
    2691                      .dwendtag DW$T$40
    2692              
    2693              
    2694              DW$T$41 .dwtag  DW_TAG_structure_type
    2695                      .dwattr DW$T$41, DW_AT_byte_size(0x01)
    2696              DW$208  .dwtag  DW_TAG_member, DW_AT_type(*DW$T$11)
    2697                      .dwattr DW$208, DW_AT_name("notused1"), DW_AT_symbol_name("_notused1")
    2698                      .dwattr DW$208, DW_AT_data_member_location[DW_OP_plus_uconst 0x0]
    2699                      .dwattr DW$208, DW_AT_accessibility(DW_ACCESS_public)
    2700                      .dwendtag DW$T$41
    2701              
    2702              
    2703              DW$T$44 .dwtag  DW_TAG_structure_type
    2704                      .dwattr DW$T$44, DW_AT_name("tag_timers")
    2705                      .dwattr DW$T$44, DW_AT_byte_size(0x4c)
    2706              DW$209  .dwtag  DW_TAG_member, DW_AT_type(*DW$T$11)
    2707                      .dwattr DW$209, DW_AT_name("update"), DW_AT_symbol_name("_update")
    2708                      .dwattr DW$209, DW_AT_data_member_location[DW_OP_plus_uconst 0x0]
    2709                      .dwattr DW$209, DW_AT_accessibility(DW_ACCESS_public)
    2710              DW$210  .dwtag  DW_TAG_member, DW_AT_type(*DW$T$11)
    2711                      .dwattr DW$210, DW_AT_name("general"), DW_AT_symbol_name("_general")
    2712                      .dwattr DW$210, DW_AT_data_member_location[DW_OP_plus_uconst 0x1]
    2713                      .dwattr DW$210, DW_AT_accessibility(DW_ACCESS_public)
    2714              DW$211  .dwtag  DW_TAG_member, DW_AT_type(*DW$T$11)
    2715                      .dwattr DW$211, DW_AT_name("rxcharTimeout"), DW_AT_symbol_name("_rxcharTimeout")
    2716                      .dwattr DW$211, DW_AT_data_member_location[DW_OP_plus_uconst 0x2]
    2717                      .dwattr DW$211, DW_AT_accessibility(DW_ACCESS_public)
    2718              DW$212  .dwtag  DW_TAG_member, DW_AT_type(*DW$T$11)
    2719                      .dwattr DW$212, DW_AT_name("wiorxtimeout"), DW_AT_symbol_name("_wiorxtimeout")
    2720                      .dwattr DW$212, DW_AT_data_member_location[DW_OP_plus_uconst 0x3]
    2721                      .dwattr DW$212, DW_AT_accessibility(DW_ACCESS_public)
    2722              DW$213  .dwtag  DW_TAG_member, DW_AT_type(*DW$T$11)
    2723                      .dwattr DW$213, DW_AT_name("wiomasterrxtimeout"), DW_AT_symbol_name("_wiomasterrxtimeout")
    2724                      .dwattr DW$213, DW_AT_data_member_location[DW_OP_plus_uconst 0x4]
    2725                      .dwattr DW$213, DW_AT_accessibility(DW_ACCESS_public)
    2726              DW$214  .dwtag  DW_TAG_member, DW_AT_type(*DW$T$11)
    2727                      .dwattr DW$214, DW_AT_name("masterrxtimeout"), DW_AT_symbol_name("_masterrxtimeout")
    2728                      .dwattr DW$214, DW_AT_data_member_location[DW_OP_plus_uconst 0x5]
    2729                      .dwattr DW$214, DW_AT_accessibility(DW_ACCESS_public)
    2730              DW$215  .dwtag  DW_TAG_member, DW_AT_type(*DW$T$11)
    2731                      .dwattr DW$215, DW_AT_name("slaverxtimeout"), DW_AT_symbol_name("_slaverxtimeout")
    2732                      .dwattr DW$215, DW_AT_data_member_location[DW_OP_plus_uconst 0x6]
    2733                      .dwattr DW$215, DW_AT_accessibility(DW_ACCESS_public)
    2734              DW$216  .dwtag  DW_TAG_member, DW_AT_type(*DW$T$11)
    2735                      .dwattr DW$216, DW_AT_name("sectick"), DW_AT_symbol_name("_sectick")
    2736                      .dwattr DW$216, DW_AT_data_member_location[DW_OP_plus_uconst 0x7]
    2737                      .dwattr DW$216, DW_AT_accessibility(DW_ACCESS_public)
    2738              DW$217  .dwtag  DW_TAG_member, DW_AT_type(*DW$T$11)
    2739                      .dwattr DW$217, DW_AT_name("ledflash"), DW_AT_symbol_name("_ledflash")
    2740                      .dwattr DW$217, DW_AT_data_member_location[DW_OP_plus_uconst 0x8]
    2741                      .dwattr DW$217, DW_AT_accessibility(DW_ACCESS_public)
TMS320C2000 COFF Assembler PC v4.1.3 Wed Sep 14 09:00:58 2016

Tools Copyright (c) 1996-2006 Texas Instruments Incorporated
sci.asm                                                              PAGE   58

    2742              DW$218  .dwtag  DW_TAG_member, DW_AT_type(*DW$T$11)
    2743                      .dwattr DW$218, DW_AT_name("prtsettle"), DW_AT_symbol_name("_prtsettle")
    2744                      .dwattr DW$218, DW_AT_data_member_location[DW_OP_plus_uconst 0x9]
    2745                      .dwattr DW$218, DW_AT_accessibility(DW_ACCESS_public)
    2746              DW$219  .dwtag  DW_TAG_member, DW_AT_type(*DW$T$43)
    2747                      .dwattr DW$219, DW_AT_name("chantimeout"), DW_AT_symbol_name("_chantimeout")
    2748                      .dwattr DW$219, DW_AT_data_member_location[DW_OP_plus_uconst 0xa]
    2749                      .dwattr DW$219, DW_AT_accessibility(DW_ACCESS_public)
    2750              DW$220  .dwtag  DW_TAG_member, DW_AT_type(*DW$T$43)
    2751                      .dwattr DW$220, DW_AT_name("chanwait"), DW_AT_symbol_name("_chanwait")
    2752                      .dwattr DW$220, DW_AT_data_member_location[DW_OP_plus_uconst 0x18]
    2753                      .dwattr DW$220, DW_AT_accessibility(DW_ACCESS_public)
    2754              DW$221  .dwtag  DW_TAG_member, DW_AT_type(*DW$T$11)
    2755                      .dwattr DW$221, DW_AT_name("pcrxtimeout"), DW_AT_symbol_name("_pcrxtimeout")
    2756                      .dwattr DW$221, DW_AT_data_member_location[DW_OP_plus_uconst 0x26]
    2757                      .dwattr DW$221, DW_AT_accessibility(DW_ACCESS_public)
    2758              DW$222  .dwtag  DW_TAG_member, DW_AT_type(*DW$T$11)
    2759                      .dwattr DW$222, DW_AT_name("pctxtimeout"), DW_AT_symbol_name("_pctxtimeout")
    2760                      .dwattr DW$222, DW_AT_data_member_location[DW_OP_plus_uconst 0x27]
    2761                      .dwattr DW$222, DW_AT_accessibility(DW_ACCESS_public)
    2762              DW$223  .dwtag  DW_TAG_member, DW_AT_type(*DW$T$11)
    2763                      .dwattr DW$223, DW_AT_name("spistatus"), DW_AT_symbol_name("_spistatus")
    2764                      .dwattr DW$223, DW_AT_data_member_location[DW_OP_plus_uconst 0x28]
    2765                      .dwattr DW$223, DW_AT_accessibility(DW_ACCESS_public)
    2766              DW$224  .dwtag  DW_TAG_member, DW_AT_type(*DW$T$11)
    2767                      .dwattr DW$224, DW_AT_name("rpm"), DW_AT_symbol_name("_rpm")
    2768                      .dwattr DW$224, DW_AT_data_member_location[DW_OP_plus_uconst 0x29]
    2769                      .dwattr DW$224, DW_AT_accessibility(DW_ACCESS_public)
    2770              DW$225  .dwtag  DW_TAG_member, DW_AT_type(*DW$T$11)
    2771                      .dwattr DW$225, DW_AT_name("slaverqst"), DW_AT_symbol_name("_slaverqst")
    2772                      .dwattr DW$225, DW_AT_data_member_location[DW_OP_plus_uconst 0x2a]
    2773                      .dwattr DW$225, DW_AT_accessibility(DW_ACCESS_public)
    2774              DW$226  .dwtag  DW_TAG_member, DW_AT_type(*DW$T$11)
    2775                      .dwattr DW$226, DW_AT_name("mastermodebutton"), DW_AT_symbol_name("_mastermodebutton")
    2776                      .dwattr DW$226, DW_AT_data_member_location[DW_OP_plus_uconst 0x2b]
    2777                      .dwattr DW$226, DW_AT_accessibility(DW_ACCESS_public)
    2778              DW$227  .dwtag  DW_TAG_member, DW_AT_type(*DW$T$11)
    2779                      .dwattr DW$227, DW_AT_name("dcmode"), DW_AT_symbol_name("_dcmode")
    2780                      .dwattr DW$227, DW_AT_data_member_location[DW_OP_plus_uconst 0x2c]
    2781                      .dwattr DW$227, DW_AT_accessibility(DW_ACCESS_public)
    2782              DW$228  .dwtag  DW_TAG_member, DW_AT_type(*DW$T$13)
    2783                      .dwattr DW$228, DW_AT_name("calibrate"), DW_AT_symbol_name("_calibrate")
    2784                      .dwattr DW$228, DW_AT_data_member_location[DW_OP_plus_uconst 0x2e]
    2785                      .dwattr DW$228, DW_AT_accessibility(DW_ACCESS_public)
    2786              DW$229  .dwtag  DW_TAG_member, DW_AT_type(*DW$T$13)
    2787                      .dwattr DW$229, DW_AT_name("calibrate2"), DW_AT_symbol_name("_calibrate2")
    2788                      .dwattr DW$229, DW_AT_data_member_location[DW_OP_plus_uconst 0x30]
    2789                      .dwattr DW$229, DW_AT_accessibility(DW_ACCESS_public)
    2790              DW$230  .dwtag  DW_TAG_member, DW_AT_type(*DW$T$11)
    2791                      .dwattr DW$230, DW_AT_name("alarmreflash"), DW_AT_symbol_name("_alarmreflash")
    2792                      .dwattr DW$230, DW_AT_data_member_location[DW_OP_plus_uconst 0x32]
    2793                      .dwattr DW$230, DW_AT_accessibility(DW_ACCESS_public)
    2794              DW$231  .dwtag  DW_TAG_member, DW_AT_type(*DW$T$11)
    2795                      .dwattr DW$231, DW_AT_name("slowdownreflash"), DW_AT_symbol_name("_slowdownreflash")
    2796                      .dwattr DW$231, DW_AT_data_member_location[DW_OP_plus_uconst 0x33]
TMS320C2000 COFF Assembler PC v4.1.3 Wed Sep 14 09:00:58 2016

Tools Copyright (c) 1996-2006 Texas Instruments Incorporated
sci.asm                                                              PAGE   59

    2797                      .dwattr DW$231, DW_AT_accessibility(DW_ACCESS_public)
    2798              DW$232  .dwtag  DW_TAG_member, DW_AT_type(*DW$T$11)
    2799                      .dwattr DW$232, DW_AT_name("wiorqst"), DW_AT_symbol_name("_wiorqst")
    2800                      .dwattr DW$232, DW_AT_data_member_location[DW_OP_plus_uconst 0x34]
    2801                      .dwattr DW$232, DW_AT_accessibility(DW_ACCESS_public)
    2802              DW$233  .dwtag  DW_TAG_member, DW_AT_type(*DW$T$11)
    2803                      .dwattr DW$233, DW_AT_name("rpmtimeout"), DW_AT_symbol_name("_rpmtimeout")
    2804                      .dwattr DW$233, DW_AT_data_member_location[DW_OP_plus_uconst 0x35]
    2805                      .dwattr DW$233, DW_AT_accessibility(DW_ACCESS_public)
    2806              DW$234  .dwtag  DW_TAG_member, DW_AT_type(*DW$T$11)
    2807                      .dwattr DW$234, DW_AT_name("analogoor"), DW_AT_symbol_name("_analogoor")
    2808                      .dwattr DW$234, DW_AT_data_member_location[DW_OP_plus_uconst 0x36]
    2809                      .dwattr DW$234, DW_AT_accessibility(DW_ACCESS_public)
    2810              DW$235  .dwtag  DW_TAG_member, DW_AT_type(*DW$T$11)
    2811                      .dwattr DW$235, DW_AT_name("motioncal"), DW_AT_symbol_name("_motioncal")
    2812                      .dwattr DW$235, DW_AT_data_member_location[DW_OP_plus_uconst 0x37]
    2813                      .dwattr DW$235, DW_AT_accessibility(DW_ACCESS_public)
    2814              DW$236  .dwtag  DW_TAG_member, DW_AT_type(*DW$T$11)
    2815                      .dwattr DW$236, DW_AT_name("framcheck"), DW_AT_symbol_name("_framcheck")
    2816                      .dwattr DW$236, DW_AT_data_member_location[DW_OP_plus_uconst 0x38]
    2817                      .dwattr DW$236, DW_AT_accessibility(DW_ACCESS_public)
    2818              DW$237  .dwtag  DW_TAG_member, DW_AT_type(*DW$T$11)
    2819                      .dwattr DW$237, DW_AT_name("pcmodbus"), DW_AT_symbol_name("_pcmodbus")
    2820                      .dwattr DW$237, DW_AT_data_member_location[DW_OP_plus_uconst 0x39]
    2821                      .dwattr DW$237, DW_AT_accessibility(DW_ACCESS_public)
    2822              DW$238  .dwtag  DW_TAG_member, DW_AT_type(*DW$T$11)
    2823                      .dwattr DW$238, DW_AT_name("statusreflash"), DW_AT_symbol_name("_statusreflash")
    2824                      .dwattr DW$238, DW_AT_data_member_location[DW_OP_plus_uconst 0x3a]
    2825                      .dwattr DW$238, DW_AT_accessibility(DW_ACCESS_public)
    2826              DW$239  .dwtag  DW_TAG_member, DW_AT_type(*DW$T$13)
    2827                      .dwattr DW$239, DW_AT_name("prewarn"), DW_AT_symbol_name("_prewarn")
    2828                      .dwattr DW$239, DW_AT_data_member_location[DW_OP_plus_uconst 0x3c]
    2829                      .dwattr DW$239, DW_AT_accessibility(DW_ACCESS_public)
    2830              DW$240  .dwtag  DW_TAG_member, DW_AT_type(*DW$T$11)
    2831                      .dwattr DW$240, DW_AT_name("clocktofram"), DW_AT_symbol_name("_clocktofram")
    2832                      .dwattr DW$240, DW_AT_data_member_location[DW_OP_plus_uconst 0x3e]
    2833                      .dwattr DW$240, DW_AT_accessibility(DW_ACCESS_public)
    2834              DW$241  .dwtag  DW_TAG_member, DW_AT_type(*DW$T$11)
    2835                      .dwattr DW$241, DW_AT_name("debugrapidfast"), DW_AT_symbol_name("_debugrapidfast")
    2836                      .dwattr DW$241, DW_AT_data_member_location[DW_OP_plus_uconst 0x3f]
    2837                      .dwattr DW$241, DW_AT_accessibility(DW_ACCESS_public)
    2838              DW$242  .dwtag  DW_TAG_member, DW_AT_type(*DW$T$11)
    2839                      .dwattr DW$242, DW_AT_name("debugupdate"), DW_AT_symbol_name("_debugupdate")
    2840                      .dwattr DW$242, DW_AT_data_member_location[DW_OP_plus_uconst 0x40]
    2841                      .dwattr DW$242, DW_AT_accessibility(DW_ACCESS_public)
    2842              DW$243  .dwtag  DW_TAG_member, DW_AT_type(*DW$T$11)
    2843                      .dwattr DW$243, DW_AT_name("dircountdown"), DW_AT_symbol_name("_dircountdown")
    2844                      .dwattr DW$243, DW_AT_data_member_location[DW_OP_plus_uconst 0x41]
    2845                      .dwattr DW$243, DW_AT_accessibility(DW_ACCESS_public)
    2846              DW$244  .dwtag  DW_TAG_member, DW_AT_type(*DW$T$11)
    2847                      .dwattr DW$244, DW_AT_name("startup"), DW_AT_symbol_name("_startup")
    2848                      .dwattr DW$244, DW_AT_data_member_location[DW_OP_plus_uconst 0x42]
    2849                      .dwattr DW$244, DW_AT_accessibility(DW_ACCESS_public)
    2850              DW$245  .dwtag  DW_TAG_member, DW_AT_type(*DW$T$11)
    2851                      .dwattr DW$245, DW_AT_name("analogsettle"), DW_AT_symbol_name("_analogsettle")
TMS320C2000 COFF Assembler PC v4.1.3 Wed Sep 14 09:00:58 2016

Tools Copyright (c) 1996-2006 Texas Instruments Incorporated
sci.asm                                                              PAGE   60

    2852                      .dwattr DW$245, DW_AT_data_member_location[DW_OP_plus_uconst 0x43]
    2853                      .dwattr DW$245, DW_AT_accessibility(DW_ACCESS_public)
    2854              DW$246  .dwtag  DW_TAG_member, DW_AT_type(*DW$T$11)
    2855                      .dwattr DW$246, DW_AT_name("reprogram"), DW_AT_symbol_name("_reprogram")
    2856                      .dwattr DW$246, DW_AT_data_member_location[DW_OP_plus_uconst 0x44]
    2857                      .dwattr DW$246, DW_AT_accessibility(DW_ACCESS_public)
    2858              DW$247  .dwtag  DW_TAG_member, DW_AT_type(*DW$T$11)
    2859                      .dwattr DW$247, DW_AT_name("reprogramtimeout"), DW_AT_symbol_name("_reprogramtimeout")
    2860                      .dwattr DW$247, DW_AT_data_member_location[DW_OP_plus_uconst 0x45]
    2861                      .dwattr DW$247, DW_AT_accessibility(DW_ACCESS_public)
    2862              DW$248  .dwtag  DW_TAG_member, DW_AT_type(*DW$T$11)
    2863                      .dwattr DW$248, DW_AT_name("dcmodestayalive"), DW_AT_symbol_name("_dcmodestayalive")
    2864                      .dwattr DW$248, DW_AT_data_member_location[DW_OP_plus_uconst 0x46]
    2865                      .dwattr DW$248, DW_AT_accessibility(DW_ACCESS_public)
    2866              DW$249  .dwtag  DW_TAG_member, DW_AT_type(*DW$T$11)
    2867                      .dwattr DW$249, DW_AT_name("biteventchange"), DW_AT_symbol_name("_biteventchange")
    2868                      .dwattr DW$249, DW_AT_data_member_location[DW_OP_plus_uconst 0x47]
    2869                      .dwattr DW$249, DW_AT_accessibility(DW_ACCESS_public)
    2870              DW$250  .dwtag  DW_TAG_member, DW_AT_type(*DW$T$11)
    2871                      .dwattr DW$250, DW_AT_name("iSensorReplace"), DW_AT_symbol_name("_iSensorReplace")
    2872                      .dwattr DW$250, DW_AT_data_member_location[DW_OP_plus_uconst 0x48]
    2873                      .dwattr DW$250, DW_AT_accessibility(DW_ACCESS_public)
    2874              DW$251  .dwtag  DW_TAG_member, DW_AT_type(*DW$T$13)
    2875                      .dwattr DW$251, DW_AT_name("deltarpm15Delay"), DW_AT_symbol_name("_deltarpm15Delay")
    2876                      .dwattr DW$251, DW_AT_data_member_location[DW_OP_plus_uconst 0x4a]
    2877                      .dwattr DW$251, DW_AT_accessibility(DW_ACCESS_public)
    2878                      .dwendtag DW$T$44
    2879              
    2880              
    2881              DW$T$48 .dwtag  DW_TAG_structure_type
    2882                      .dwattr DW$T$48, DW_AT_name("tag_sciport")
    2883                      .dwattr DW$T$48, DW_AT_byte_size(0x0e)
    2884              DW$252  .dwtag  DW_TAG_member, DW_AT_type(*DW$T$47)
    2885                      .dwattr DW$252, DW_AT_name("sciccr"), DW_AT_symbol_name("_sciccr")
    2886                      .dwattr DW$252, DW_AT_data_member_location[DW_OP_plus_uconst 0x0]
    2887                      .dwattr DW$252, DW_AT_accessibility(DW_ACCESS_public)
    2888              DW$253  .dwtag  DW_TAG_member, DW_AT_type(*DW$T$47)
    2889                      .dwattr DW$253, DW_AT_name("scictl1"), DW_AT_symbol_name("_scictl1")
    2890                      .dwattr DW$253, DW_AT_data_member_location[DW_OP_plus_uconst 0x1]
    2891                      .dwattr DW$253, DW_AT_accessibility(DW_ACCESS_public)
    2892              DW$254  .dwtag  DW_TAG_member, DW_AT_type(*DW$T$47)
    2893                      .dwattr DW$254, DW_AT_name("scihbaud"), DW_AT_symbol_name("_scihbaud")
    2894                      .dwattr DW$254, DW_AT_data_member_location[DW_OP_plus_uconst 0x2]
    2895                      .dwattr DW$254, DW_AT_accessibility(DW_ACCESS_public)
    2896              DW$255  .dwtag  DW_TAG_member, DW_AT_type(*DW$T$47)
    2897                      .dwattr DW$255, DW_AT_name("scilbaud"), DW_AT_symbol_name("_scilbaud")
    2898                      .dwattr DW$255, DW_AT_data_member_location[DW_OP_plus_uconst 0x3]
    2899                      .dwattr DW$255, DW_AT_accessibility(DW_ACCESS_public)
    2900              DW$256  .dwtag  DW_TAG_member, DW_AT_type(*DW$T$47)
    2901                      .dwattr DW$256, DW_AT_name("scictl2"), DW_AT_symbol_name("_scictl2")
    2902                      .dwattr DW$256, DW_AT_data_member_location[DW_OP_plus_uconst 0x4]
    2903                      .dwattr DW$256, DW_AT_accessibility(DW_ACCESS_public)
    2904              DW$257  .dwtag  DW_TAG_member, DW_AT_type(*DW$T$47)
    2905                      .dwattr DW$257, DW_AT_name("scirxst"), DW_AT_symbol_name("_scirxst")
    2906                      .dwattr DW$257, DW_AT_data_member_location[DW_OP_plus_uconst 0x5]
TMS320C2000 COFF Assembler PC v4.1.3 Wed Sep 14 09:00:58 2016

Tools Copyright (c) 1996-2006 Texas Instruments Incorporated
sci.asm                                                              PAGE   61

    2907                      .dwattr DW$257, DW_AT_accessibility(DW_ACCESS_public)
    2908              DW$258  .dwtag  DW_TAG_member, DW_AT_type(*DW$T$47)
    2909                      .dwattr DW$258, DW_AT_name("scirxemu"), DW_AT_symbol_name("_scirxemu")
    2910                      .dwattr DW$258, DW_AT_data_member_location[DW_OP_plus_uconst 0x6]
    2911                      .dwattr DW$258, DW_AT_accessibility(DW_ACCESS_public)
    2912              DW$259  .dwtag  DW_TAG_member, DW_AT_type(*DW$T$47)
    2913                      .dwattr DW$259, DW_AT_name("scirxbuf"), DW_AT_symbol_name("_scirxbuf")
    2914                      .dwattr DW$259, DW_AT_data_member_location[DW_OP_plus_uconst 0x7]
    2915                      .dwattr DW$259, DW_AT_accessibility(DW_ACCESS_public)
    2916              DW$260  .dwtag  DW_TAG_member, DW_AT_type(*DW$T$47)
    2917                      .dwattr DW$260, DW_AT_name("dummy"), DW_AT_symbol_name("_dummy")
    2918                      .dwattr DW$260, DW_AT_data_member_location[DW_OP_plus_uconst 0x8]
    2919                      .dwattr DW$260, DW_AT_accessibility(DW_ACCESS_public)
    2920              DW$261  .dwtag  DW_TAG_member, DW_AT_type(*DW$T$47)
    2921                      .dwattr DW$261, DW_AT_name("scitxbuf"), DW_AT_symbol_name("_scitxbuf")
    2922                      .dwattr DW$261, DW_AT_data_member_location[DW_OP_plus_uconst 0x9]
    2923                      .dwattr DW$261, DW_AT_accessibility(DW_ACCESS_public)
    2924              DW$262  .dwtag  DW_TAG_member, DW_AT_type(*DW$T$47)
    2925                      .dwattr DW$262, DW_AT_name("scifftx"), DW_AT_symbol_name("_scifftx")
    2926                      .dwattr DW$262, DW_AT_data_member_location[DW_OP_plus_uconst 0xa]
    2927                      .dwattr DW$262, DW_AT_accessibility(DW_ACCESS_public)
    2928              DW$263  .dwtag  DW_TAG_member, DW_AT_type(*DW$T$47)
    2929                      .dwattr DW$263, DW_AT_name("sciffrx"), DW_AT_symbol_name("_sciffrx")
    2930                      .dwattr DW$263, DW_AT_data_member_location[DW_OP_plus_uconst 0xb]
    2931                      .dwattr DW$263, DW_AT_accessibility(DW_ACCESS_public)
    2932              DW$264  .dwtag  DW_TAG_member, DW_AT_type(*DW$T$47)
    2933                      .dwattr DW$264, DW_AT_name("sciffct"), DW_AT_symbol_name("_sciffct")
    2934                      .dwattr DW$264, DW_AT_data_member_location[DW_OP_plus_uconst 0xc]
    2935                      .dwattr DW$264, DW_AT_accessibility(DW_ACCESS_public)
    2936              DW$265  .dwtag  DW_TAG_member, DW_AT_type(*DW$T$47)
    2937                      .dwattr DW$265, DW_AT_name("scipri"), DW_AT_symbol_name("_scipri")
    2938                      .dwattr DW$265, DW_AT_data_member_location[DW_OP_plus_uconst 0xd]
    2939                      .dwattr DW$265, DW_AT_accessibility(DW_ACCESS_public)
    2940                      .dwendtag DW$T$48
    2941              
    2942              DW$T$47 .dwtag  DW_TAG_typedef, DW_AT_name("uint16"), DW_AT_type(*DW$T$9)
    2943                      .dwattr DW$T$47, DW_AT_language(DW_LANG_C)
    2944              
    2945              DW$T$30 .dwtag  DW_TAG_array_type, DW_AT_type(*DW$T$11)
    2946                      .dwattr DW$T$30, DW_AT_language(DW_LANG_C)
    2947                      .dwattr DW$T$30, DW_AT_byte_size(0x04)
    2948              DW$266  .dwtag  DW_TAG_subrange_type
    2949                      .dwattr DW$266, DW_AT_upper_bound(0x03)
    2950                      .dwendtag DW$T$30
    2951              
    2952              
    2953              DW$T$43 .dwtag  DW_TAG_array_type, DW_AT_type(*DW$T$11)
    2954                      .dwattr DW$T$43, DW_AT_language(DW_LANG_C)
    2955                      .dwattr DW$T$43, DW_AT_byte_size(0x0e)
    2956              DW$267  .dwtag  DW_TAG_subrange_type
    2957                      .dwattr DW$267, DW_AT_upper_bound(0x0d)
    2958                      .dwendtag DW$T$43
    2959              
    2960              DW$T$13 .dwtag  DW_TAG_base_type, DW_AT_name("unsigned long")
    2961                      .dwattr DW$T$13, DW_AT_encoding(DW_ATE_unsigned)
TMS320C2000 COFF Assembler PC v4.1.3 Wed Sep 14 09:00:58 2016

Tools Copyright (c) 1996-2006 Texas Instruments Incorporated
sci.asm                                                              PAGE   62

    2962                      .dwattr DW$T$13, DW_AT_byte_size(0x02)
    2963              
    2964              DW$T$20 .dwtag  DW_TAG_union_type
    2965                      .dwattr DW$T$20, DW_AT_byte_size(0x01)
    2966              DW$268  .dwtag  DW_TAG_member, DW_AT_type(*DW$T$11)
    2967                      .dwattr DW$268, DW_AT_name("port"), DW_AT_symbol_name("_port")
    2968                      .dwattr DW$268, DW_AT_data_member_location[DW_OP_plus_uconst 0x0]
    2969                      .dwattr DW$268, DW_AT_accessibility(DW_ACCESS_public)
    2970              DW$269  .dwtag  DW_TAG_member, DW_AT_type(*DW$T$19)
    2971                      .dwattr DW$269, DW_AT_name("bits"), DW_AT_symbol_name("_bits")
    2972                      .dwattr DW$269, DW_AT_data_member_location[DW_OP_plus_uconst 0x0]
    2973                      .dwattr DW$269, DW_AT_accessibility(DW_ACCESS_public)
    2974                      .dwendtag DW$T$20
    2975              
    2976              
    2977              DW$T$23 .dwtag  DW_TAG_union_type
    2978                      .dwattr DW$T$23, DW_AT_byte_size(0x01)
    2979              DW$270  .dwtag  DW_TAG_member, DW_AT_type(*DW$T$11)
    2980                      .dwattr DW$270, DW_AT_name("port"), DW_AT_symbol_name("_port")
    2981                      .dwattr DW$270, DW_AT_data_member_location[DW_OP_plus_uconst 0x0]
    2982                      .dwattr DW$270, DW_AT_accessibility(DW_ACCESS_public)
    2983              DW$271  .dwtag  DW_TAG_member, DW_AT_type(*DW$T$22)
    2984                      .dwattr DW$271, DW_AT_name("bits"), DW_AT_symbol_name("_bits")
    2985                      .dwattr DW$271, DW_AT_data_member_location[DW_OP_plus_uconst 0x0]
    2986                      .dwattr DW$271, DW_AT_accessibility(DW_ACCESS_public)
    2987                      .dwendtag DW$T$23
    2988              
    2989              
    2990              DW$T$26 .dwtag  DW_TAG_union_type
    2991                      .dwattr DW$T$26, DW_AT_byte_size(0x01)
    2992              DW$272  .dwtag  DW_TAG_member, DW_AT_type(*DW$T$11)
    2993                      .dwattr DW$272, DW_AT_name("port"), DW_AT_symbol_name("_port")
    2994                      .dwattr DW$272, DW_AT_data_member_location[DW_OP_plus_uconst 0x0]
    2995                      .dwattr DW$272, DW_AT_accessibility(DW_ACCESS_public)
    2996              DW$273  .dwtag  DW_TAG_member, DW_AT_type(*DW$T$25)
    2997                      .dwattr DW$273, DW_AT_name("bits"), DW_AT_symbol_name("_bits")
    2998                      .dwattr DW$273, DW_AT_data_member_location[DW_OP_plus_uconst 0x0]
    2999                      .dwattr DW$273, DW_AT_accessibility(DW_ACCESS_public)
    3000                      .dwendtag DW$T$26
    3001              
    3002              DW$T$9  .dwtag  DW_TAG_base_type, DW_AT_name("unsigned short")
    3003                      .dwattr DW$T$9, DW_AT_encoding(DW_ATE_unsigned)
    3004                      .dwattr DW$T$9, DW_AT_byte_size(0x01)
    3005              
    3006              DW$T$19 .dwtag  DW_TAG_structure_type
    3007                      .dwattr DW$T$19, DW_AT_byte_size(0x01)
    3008              DW$274  .dwtag  DW_TAG_member, DW_AT_type(*DW$T$11)
    3009                      .dwattr DW$274, DW_AT_name("anain_select1"), DW_AT_symbol_name("_anain_select1")
    3010                      .dwattr DW$274, DW_AT_bit_offset(0x0f), DW_AT_bit_size(0x01)
    3011                      .dwattr DW$274, DW_AT_data_member_location[DW_OP_plus_uconst 0x0]
    3012                      .dwattr DW$274, DW_AT_accessibility(DW_ACCESS_public)
    3013              DW$275  .dwtag  DW_TAG_member, DW_AT_type(*DW$T$11)
    3014                      .dwattr DW$275, DW_AT_name("anain_select2"), DW_AT_symbol_name("_anain_select2")
    3015                      .dwattr DW$275, DW_AT_bit_offset(0x0e), DW_AT_bit_size(0x01)
    3016                      .dwattr DW$275, DW_AT_data_member_location[DW_OP_plus_uconst 0x0]
TMS320C2000 COFF Assembler PC v4.1.3 Wed Sep 14 09:00:58 2016

Tools Copyright (c) 1996-2006 Texas Instruments Incorporated
sci.asm                                                              PAGE   63

    3017                      .dwattr DW$275, DW_AT_accessibility(DW_ACCESS_public)
    3018              DW$276  .dwtag  DW_TAG_member, DW_AT_type(*DW$T$11)
    3019                      .dwattr DW$276, DW_AT_name("anain_select3"), DW_AT_symbol_name("_anain_select3")
    3020                      .dwattr DW$276, DW_AT_bit_offset(0x0d), DW_AT_bit_size(0x01)
    3021                      .dwattr DW$276, DW_AT_data_member_location[DW_OP_plus_uconst 0x0]
    3022                      .dwattr DW$276, DW_AT_accessibility(DW_ACCESS_public)
    3023              DW$277  .dwtag  DW_TAG_member, DW_AT_type(*DW$T$11)
    3024                      .dwattr DW$277, DW_AT_name("program_cs"), DW_AT_symbol_name("_program_cs")
    3025                      .dwattr DW$277, DW_AT_bit_offset(0x0c), DW_AT_bit_size(0x01)
    3026                      .dwattr DW$277, DW_AT_data_member_location[DW_OP_plus_uconst 0x0]
    3027                      .dwattr DW$277, DW_AT_accessibility(DW_ACCESS_public)
    3028              DW$278  .dwtag  DW_TAG_member, DW_AT_type(*DW$T$11)
    3029                      .dwattr DW$278, DW_AT_name("com_select"), DW_AT_symbol_name("_com_select")
    3030                      .dwattr DW$278, DW_AT_bit_offset(0x0b), DW_AT_bit_size(0x01)
    3031                      .dwattr DW$278, DW_AT_data_member_location[DW_OP_plus_uconst 0x0]
    3032                      .dwattr DW$278, DW_AT_accessibility(DW_ACCESS_public)
    3033              DW$279  .dwtag  DW_TAG_member, DW_AT_type(*DW$T$11)
    3034                      .dwattr DW$279, DW_AT_name("s1"), DW_AT_symbol_name("_s1")
    3035                      .dwattr DW$279, DW_AT_bit_offset(0x0a), DW_AT_bit_size(0x01)
    3036                      .dwattr DW$279, DW_AT_data_member_location[DW_OP_plus_uconst 0x0]
    3037                      .dwattr DW$279, DW_AT_accessibility(DW_ACCESS_public)
    3038              DW$280  .dwtag  DW_TAG_member, DW_AT_type(*DW$T$11)
    3039                      .dwattr DW$280, DW_AT_name("s2"), DW_AT_symbol_name("_s2")
    3040                      .dwattr DW$280, DW_AT_bit_offset(0x09), DW_AT_bit_size(0x01)
    3041                      .dwattr DW$280, DW_AT_data_member_location[DW_OP_plus_uconst 0x0]
    3042                      .dwattr DW$280, DW_AT_accessibility(DW_ACCESS_public)
    3043              DW$281  .dwtag  DW_TAG_member, DW_AT_type(*DW$T$11)
    3044                      .dwattr DW$281, DW_AT_name("s3"), DW_AT_symbol_name("_s3")
    3045                      .dwattr DW$281, DW_AT_bit_offset(0x08), DW_AT_bit_size(0x01)
    3046                      .dwattr DW$281, DW_AT_data_member_location[DW_OP_plus_uconst 0x0]
    3047                      .dwattr DW$281, DW_AT_accessibility(DW_ACCESS_public)
    3048              DW$282  .dwtag  DW_TAG_member, DW_AT_type(*DW$T$11)
    3049                      .dwattr DW$282, DW_AT_name("s4"), DW_AT_symbol_name("_s4")
    3050                      .dwattr DW$282, DW_AT_bit_offset(0x07), DW_AT_bit_size(0x01)
    3051                      .dwattr DW$282, DW_AT_data_member_location[DW_OP_plus_uconst 0x0]
    3052                      .dwattr DW$282, DW_AT_accessibility(DW_ACCESS_public)
    3053              DW$283  .dwtag  DW_TAG_member, DW_AT_type(*DW$T$11)
    3054                      .dwattr DW$283, DW_AT_name("s5"), DW_AT_symbol_name("_s5")
    3055                      .dwattr DW$283, DW_AT_bit_offset(0x06), DW_AT_bit_size(0x01)
    3056                      .dwattr DW$283, DW_AT_data_member_location[DW_OP_plus_uconst 0x0]
    3057                      .dwattr DW$283, DW_AT_accessibility(DW_ACCESS_public)
    3058              DW$284  .dwtag  DW_TAG_member, DW_AT_type(*DW$T$11)
    3059                      .dwattr DW$284, DW_AT_name("s6"), DW_AT_symbol_name("_s6")
    3060                      .dwattr DW$284, DW_AT_bit_offset(0x05), DW_AT_bit_size(0x01)
    3061                      .dwattr DW$284, DW_AT_data_member_location[DW_OP_plus_uconst 0x0]
    3062                      .dwattr DW$284, DW_AT_accessibility(DW_ACCESS_public)
    3063              DW$285  .dwtag  DW_TAG_member, DW_AT_type(*DW$T$11)
    3064                      .dwattr DW$285, DW_AT_name("s7"), DW_AT_symbol_name("_s7")
    3065                      .dwattr DW$285, DW_AT_bit_offset(0x04), DW_AT_bit_size(0x01)
    3066                      .dwattr DW$285, DW_AT_data_member_location[DW_OP_plus_uconst 0x0]
    3067                      .dwattr DW$285, DW_AT_accessibility(DW_ACCESS_public)
    3068              DW$286  .dwtag  DW_TAG_member, DW_AT_type(*DW$T$11)
    3069                      .dwattr DW$286, DW_AT_name("s8"), DW_AT_symbol_name("_s8")
    3070                      .dwattr DW$286, DW_AT_bit_offset(0x03), DW_AT_bit_size(0x01)
    3071                      .dwattr DW$286, DW_AT_data_member_location[DW_OP_plus_uconst 0x0]
TMS320C2000 COFF Assembler PC v4.1.3 Wed Sep 14 09:00:58 2016

Tools Copyright (c) 1996-2006 Texas Instruments Incorporated
sci.asm                                                              PAGE   64

    3072                      .dwattr DW$286, DW_AT_accessibility(DW_ACCESS_public)
    3073              DW$287  .dwtag  DW_TAG_member, DW_AT_type(*DW$T$11)
    3074                      .dwattr DW$287, DW_AT_name("s9"), DW_AT_symbol_name("_s9")
    3075                      .dwattr DW$287, DW_AT_bit_offset(0x02), DW_AT_bit_size(0x01)
    3076                      .dwattr DW$287, DW_AT_data_member_location[DW_OP_plus_uconst 0x0]
    3077                      .dwattr DW$287, DW_AT_accessibility(DW_ACCESS_public)
    3078              DW$288  .dwtag  DW_TAG_member, DW_AT_type(*DW$T$11)
    3079                      .dwattr DW$288, DW_AT_name("s10"), DW_AT_symbol_name("_s10")
    3080                      .dwattr DW$288, DW_AT_bit_offset(0x01), DW_AT_bit_size(0x01)
    3081                      .dwattr DW$288, DW_AT_data_member_location[DW_OP_plus_uconst 0x0]
    3082                      .dwattr DW$288, DW_AT_accessibility(DW_ACCESS_public)
    3083              DW$289  .dwtag  DW_TAG_member, DW_AT_type(*DW$T$11)
    3084                      .dwattr DW$289, DW_AT_name("s11"), DW_AT_symbol_name("_s11")
    3085                      .dwattr DW$289, DW_AT_bit_offset(0x00), DW_AT_bit_size(0x01)
    3086                      .dwattr DW$289, DW_AT_data_member_location[DW_OP_plus_uconst 0x0]
    3087                      .dwattr DW$289, DW_AT_accessibility(DW_ACCESS_public)
    3088                      .dwendtag DW$T$19
    3089              
    3090              
    3091              DW$T$22 .dwtag  DW_TAG_structure_type
    3092                      .dwattr DW$T$22, DW_AT_byte_size(0x01)
    3093              DW$290  .dwtag  DW_TAG_member, DW_AT_type(*DW$T$11)
    3094                      .dwattr DW$290, DW_AT_name("s12"), DW_AT_symbol_name("_s12")
    3095                      .dwattr DW$290, DW_AT_bit_offset(0x0f), DW_AT_bit_size(0x01)
    3096                      .dwattr DW$290, DW_AT_data_member_location[DW_OP_plus_uconst 0x0]
    3097                      .dwattr DW$290, DW_AT_accessibility(DW_ACCESS_public)
    3098              DW$291  .dwtag  DW_TAG_member, DW_AT_type(*DW$T$11)
    3099                      .dwattr DW$291, DW_AT_name("s13"), DW_AT_symbol_name("_s13")
    3100                      .dwattr DW$291, DW_AT_bit_offset(0x0e), DW_AT_bit_size(0x01)
    3101                      .dwattr DW$291, DW_AT_data_member_location[DW_OP_plus_uconst 0x0]
    3102                      .dwattr DW$291, DW_AT_accessibility(DW_ACCESS_public)
    3103              DW$292  .dwtag  DW_TAG_member, DW_AT_type(*DW$T$11)
    3104                      .dwattr DW$292, DW_AT_name("s14"), DW_AT_symbol_name("_s14")
    3105                      .dwattr DW$292, DW_AT_bit_offset(0x0d), DW_AT_bit_size(0x01)
    3106                      .dwattr DW$292, DW_AT_data_member_location[DW_OP_plus_uconst 0x0]
    3107                      .dwattr DW$292, DW_AT_accessibility(DW_ACCESS_public)
    3108              DW$293  .dwtag  DW_TAG_member, DW_AT_type(*DW$T$11)
    3109                      .dwattr DW$293, DW_AT_name("s15"), DW_AT_symbol_name("_s15")
    3110                      .dwattr DW$293, DW_AT_bit_offset(0x0c), DW_AT_bit_size(0x01)
    3111                      .dwattr DW$293, DW_AT_data_member_location[DW_OP_plus_uconst 0x0]
    3112                      .dwattr DW$293, DW_AT_accessibility(DW_ACCESS_public)
    3113              DW$294  .dwtag  DW_TAG_member, DW_AT_type(*DW$T$11)
    3114                      .dwattr DW$294, DW_AT_name("s16"), DW_AT_symbol_name("_s16")
    3115                      .dwattr DW$294, DW_AT_bit_offset(0x0b), DW_AT_bit_size(0x01)
    3116                      .dwattr DW$294, DW_AT_data_member_location[DW_OP_plus_uconst 0x0]
    3117                      .dwattr DW$294, DW_AT_accessibility(DW_ACCESS_public)
    3118              DW$295  .dwtag  DW_TAG_member, DW_AT_type(*DW$T$11)
    3119                      .dwattr DW$295, DW_AT_name("s17"), DW_AT_symbol_name("_s17")
    3120                      .dwattr DW$295, DW_AT_bit_offset(0x0a), DW_AT_bit_size(0x01)
    3121                      .dwattr DW$295, DW_AT_data_member_location[DW_OP_plus_uconst 0x0]
    3122                      .dwattr DW$295, DW_AT_accessibility(DW_ACCESS_public)
    3123              DW$296  .dwtag  DW_TAG_member, DW_AT_type(*DW$T$11)
    3124                      .dwattr DW$296, DW_AT_name("s18"), DW_AT_symbol_name("_s18")
    3125                      .dwattr DW$296, DW_AT_bit_offset(0x09), DW_AT_bit_size(0x01)
    3126                      .dwattr DW$296, DW_AT_data_member_location[DW_OP_plus_uconst 0x0]
TMS320C2000 COFF Assembler PC v4.1.3 Wed Sep 14 09:00:58 2016

Tools Copyright (c) 1996-2006 Texas Instruments Incorporated
sci.asm                                                              PAGE   65

    3127                      .dwattr DW$296, DW_AT_accessibility(DW_ACCESS_public)
    3128              DW$297  .dwtag  DW_TAG_member, DW_AT_type(*DW$T$11)
    3129                      .dwattr DW$297, DW_AT_name("s19"), DW_AT_symbol_name("_s19")
    3130                      .dwattr DW$297, DW_AT_bit_offset(0x08), DW_AT_bit_size(0x01)
    3131                      .dwattr DW$297, DW_AT_data_member_location[DW_OP_plus_uconst 0x0]
    3132                      .dwattr DW$297, DW_AT_accessibility(DW_ACCESS_public)
    3133              DW$298  .dwtag  DW_TAG_member, DW_AT_type(*DW$T$11)
    3134                      .dwattr DW$298, DW_AT_name("disp485txen"), DW_AT_symbol_name("_disp485txen")
    3135                      .dwattr DW$298, DW_AT_bit_offset(0x07), DW_AT_bit_size(0x01)
    3136                      .dwattr DW$298, DW_AT_data_member_location[DW_OP_plus_uconst 0x0]
    3137                      .dwattr DW$298, DW_AT_accessibility(DW_ACCESS_public)
    3138              DW$299  .dwtag  DW_TAG_member, DW_AT_type(*DW$T$11)
    3139                      .dwattr DW$299, DW_AT_name("disp485rxen"), DW_AT_symbol_name("_disp485rxen")
    3140                      .dwattr DW$299, DW_AT_bit_offset(0x06), DW_AT_bit_size(0x01)
    3141                      .dwattr DW$299, DW_AT_data_member_location[DW_OP_plus_uconst 0x0]
    3142                      .dwattr DW$299, DW_AT_accessibility(DW_ACCESS_public)
    3143              DW$300  .dwtag  DW_TAG_member, DW_AT_type(*DW$T$11)
    3144                      .dwattr DW$300, DW_AT_name("gpio1"), DW_AT_symbol_name("_gpio1")
    3145                      .dwattr DW$300, DW_AT_bit_offset(0x05), DW_AT_bit_size(0x01)
    3146                      .dwattr DW$300, DW_AT_data_member_location[DW_OP_plus_uconst 0x0]
    3147                      .dwattr DW$300, DW_AT_accessibility(DW_ACCESS_public)
    3148              DW$301  .dwtag  DW_TAG_member, DW_AT_type(*DW$T$11)
    3149                      .dwattr DW$301, DW_AT_name("gpio2"), DW_AT_symbol_name("_gpio2")
    3150                      .dwattr DW$301, DW_AT_bit_offset(0x04), DW_AT_bit_size(0x01)
    3151                      .dwattr DW$301, DW_AT_data_member_location[DW_OP_plus_uconst 0x0]
    3152                      .dwattr DW$301, DW_AT_accessibility(DW_ACCESS_public)
    3153              DW$302  .dwtag  DW_TAG_member, DW_AT_type(*DW$T$11)
    3154                      .dwattr DW$302, DW_AT_name("gpio3"), DW_AT_symbol_name("_gpio3")
    3155                      .dwattr DW$302, DW_AT_bit_offset(0x03), DW_AT_bit_size(0x01)
    3156                      .dwattr DW$302, DW_AT_data_member_location[DW_OP_plus_uconst 0x0]
    3157                      .dwattr DW$302, DW_AT_accessibility(DW_ACCESS_public)
    3158              DW$303  .dwtag  DW_TAG_member, DW_AT_type(*DW$T$11)
    3159                      .dwattr DW$303, DW_AT_name("gpio4"), DW_AT_symbol_name("_gpio4")
    3160                      .dwattr DW$303, DW_AT_bit_offset(0x02), DW_AT_bit_size(0x01)
    3161                      .dwattr DW$303, DW_AT_data_member_location[DW_OP_plus_uconst 0x0]
    3162                      .dwattr DW$303, DW_AT_accessibility(DW_ACCESS_public)
    3163              DW$304  .dwtag  DW_TAG_member, DW_AT_type(*DW$T$11)
    3164                      .dwattr DW$304, DW_AT_name("rtccs"), DW_AT_symbol_name("_rtccs")
    3165                      .dwattr DW$304, DW_AT_bit_offset(0x01), DW_AT_bit_size(0x01)
    3166                      .dwattr DW$304, DW_AT_data_member_location[DW_OP_plus_uconst 0x0]
    3167                      .dwattr DW$304, DW_AT_accessibility(DW_ACCESS_public)
    3168              DW$305  .dwtag  DW_TAG_member, DW_AT_type(*DW$T$11)
    3169                      .dwattr DW$305, DW_AT_name("op3"), DW_AT_symbol_name("_op3")
    3170                      .dwattr DW$305, DW_AT_bit_offset(0x00), DW_AT_bit_size(0x01)
    3171                      .dwattr DW$305, DW_AT_data_member_location[DW_OP_plus_uconst 0x0]
    3172                      .dwattr DW$305, DW_AT_accessibility(DW_ACCESS_public)
    3173                      .dwendtag DW$T$22
    3174              
    3175              
    3176              DW$T$25 .dwtag  DW_TAG_structure_type
    3177                      .dwattr DW$T$25, DW_AT_byte_size(0x01)
    3178              DW$306  .dwtag  DW_TAG_member, DW_AT_type(*DW$T$11)
    3179                      .dwattr DW$306, DW_AT_name("spimo"), DW_AT_symbol_name("_spimo")
    3180                      .dwattr DW$306, DW_AT_bit_offset(0x0f), DW_AT_bit_size(0x01)
    3181                      .dwattr DW$306, DW_AT_data_member_location[DW_OP_plus_uconst 0x0]
TMS320C2000 COFF Assembler PC v4.1.3 Wed Sep 14 09:00:58 2016

Tools Copyright (c) 1996-2006 Texas Instruments Incorporated
sci.asm                                                              PAGE   66

    3182                      .dwattr DW$306, DW_AT_accessibility(DW_ACCESS_public)
    3183              DW$307  .dwtag  DW_TAG_member, DW_AT_type(*DW$T$11)
    3184                      .dwattr DW$307, DW_AT_name("spimi"), DW_AT_symbol_name("_spimi")
    3185                      .dwattr DW$307, DW_AT_bit_offset(0x0e), DW_AT_bit_size(0x01)
    3186                      .dwattr DW$307, DW_AT_data_member_location[DW_OP_plus_uconst 0x0]
    3187                      .dwattr DW$307, DW_AT_accessibility(DW_ACCESS_public)
    3188              DW$308  .dwtag  DW_TAG_member, DW_AT_type(*DW$T$11)
    3189                      .dwattr DW$308, DW_AT_name("spiclk"), DW_AT_symbol_name("_spiclk")
    3190                      .dwattr DW$308, DW_AT_bit_offset(0x0d), DW_AT_bit_size(0x01)
    3191                      .dwattr DW$308, DW_AT_data_member_location[DW_OP_plus_uconst 0x0]
    3192                      .dwattr DW$308, DW_AT_accessibility(DW_ACCESS_public)
    3193              DW$309  .dwtag  DW_TAG_member, DW_AT_type(*DW$T$11)
    3194                      .dwattr DW$309, DW_AT_name("spiste"), DW_AT_symbol_name("_spiste")
    3195                      .dwattr DW$309, DW_AT_bit_offset(0x0c), DW_AT_bit_size(0x01)
    3196                      .dwattr DW$309, DW_AT_data_member_location[DW_OP_plus_uconst 0x0]
    3197                      .dwattr DW$309, DW_AT_accessibility(DW_ACCESS_public)
    3198              DW$310  .dwtag  DW_TAG_member, DW_AT_type(*DW$T$11)
    3199                      .dwattr DW$310, DW_AT_name("scitxa"), DW_AT_symbol_name("_scitxa")
    3200                      .dwattr DW$310, DW_AT_bit_offset(0x0b), DW_AT_bit_size(0x01)
    3201                      .dwattr DW$310, DW_AT_data_member_location[DW_OP_plus_uconst 0x0]
    3202                      .dwattr DW$310, DW_AT_accessibility(DW_ACCESS_public)
    3203              DW$311  .dwtag  DW_TAG_member, DW_AT_type(*DW$T$11)
    3204                      .dwattr DW$311, DW_AT_name("scirxa"), DW_AT_symbol_name("_scirxa")
    3205                      .dwattr DW$311, DW_AT_bit_offset(0x0a), DW_AT_bit_size(0x01)
    3206                      .dwattr DW$311, DW_AT_data_member_location[DW_OP_plus_uconst 0x0]
    3207                      .dwattr DW$311, DW_AT_accessibility(DW_ACCESS_public)
    3208              DW$312  .dwtag  DW_TAG_member, DW_AT_type(*DW$T$11)
    3209                      .dwattr DW$312, DW_AT_name("op1"), DW_AT_symbol_name("_op1")
    3210                      .dwattr DW$312, DW_AT_bit_offset(0x09), DW_AT_bit_size(0x01)
    3211                      .dwattr DW$312, DW_AT_data_member_location[DW_OP_plus_uconst 0x0]
    3212                      .dwattr DW$312, DW_AT_accessibility(DW_ACCESS_public)
    3213              DW$313  .dwtag  DW_TAG_member, DW_AT_type(*DW$T$11)
    3214                      .dwattr DW$313, DW_AT_name("op2"), DW_AT_symbol_name("_op2")
    3215                      .dwattr DW$313, DW_AT_bit_offset(0x08), DW_AT_bit_size(0x01)
    3216                      .dwattr DW$313, DW_AT_data_member_location[DW_OP_plus_uconst 0x0]
    3217                      .dwattr DW$313, DW_AT_accessibility(DW_ACCESS_public)
    3218              DW$314  .dwtag  DW_TAG_member, DW_AT_type(*DW$T$11)
    3219                      .dwattr DW$314, DW_AT_name("spiselect1"), DW_AT_symbol_name("_spiselect1")
    3220                      .dwattr DW$314, DW_AT_bit_offset(0x07), DW_AT_bit_size(0x01)
    3221                      .dwattr DW$314, DW_AT_data_member_location[DW_OP_plus_uconst 0x0]
    3222                      .dwattr DW$314, DW_AT_accessibility(DW_ACCESS_public)
    3223              DW$315  .dwtag  DW_TAG_member, DW_AT_type(*DW$T$11)
    3224                      .dwattr DW$315, DW_AT_name("spiselect2"), DW_AT_symbol_name("_spiselect2")
    3225                      .dwattr DW$315, DW_AT_bit_offset(0x06), DW_AT_bit_size(0x01)
    3226                      .dwattr DW$315, DW_AT_data_member_location[DW_OP_plus_uconst 0x0]
    3227                      .dwattr DW$315, DW_AT_accessibility(DW_ACCESS_public)
    3228              DW$316  .dwtag  DW_TAG_member, DW_AT_type(*DW$T$11)
    3229                      .dwattr DW$316, DW_AT_name("spiselect3"), DW_AT_symbol_name("_spiselect3")
    3230                      .dwattr DW$316, DW_AT_bit_offset(0x05), DW_AT_bit_size(0x01)
    3231                      .dwattr DW$316, DW_AT_data_member_location[DW_OP_plus_uconst 0x0]
    3232                      .dwattr DW$316, DW_AT_accessibility(DW_ACCESS_public)
    3233              DW$317  .dwtag  DW_TAG_member, DW_AT_type(*DW$T$11)
    3234                      .dwattr DW$317, DW_AT_name("pc485rxen"), DW_AT_symbol_name("_pc485rxen")
    3235                      .dwattr DW$317, DW_AT_bit_offset(0x04), DW_AT_bit_size(0x01)
    3236                      .dwattr DW$317, DW_AT_data_member_location[DW_OP_plus_uconst 0x0]
TMS320C2000 COFF Assembler PC v4.1.3 Wed Sep 14 09:00:58 2016

Tools Copyright (c) 1996-2006 Texas Instruments Incorporated
sci.asm                                                              PAGE   67

    3237                      .dwattr DW$317, DW_AT_accessibility(DW_ACCESS_public)
    3238              DW$318  .dwtag  DW_TAG_member, DW_AT_type(*DW$T$11)
    3239                      .dwattr DW$318, DW_AT_name("pc485txen"), DW_AT_symbol_name("_pc485txen")
    3240                      .dwattr DW$318, DW_AT_bit_offset(0x03), DW_AT_bit_size(0x01)
    3241                      .dwattr DW$318, DW_AT_data_member_location[DW_OP_plus_uconst 0x0]
    3242                      .dwattr DW$318, DW_AT_accessibility(DW_ACCESS_public)
    3243              DW$319  .dwtag  DW_TAG_member, DW_AT_type(*DW$T$11)
    3244                      .dwattr DW$319, DW_AT_name("modeselect"), DW_AT_symbol_name("_modeselect")
    3245                      .dwattr DW$319, DW_AT_bit_offset(0x02), DW_AT_bit_size(0x01)
    3246                      .dwattr DW$319, DW_AT_data_member_location[DW_OP_plus_uconst 0x0]
    3247                      .dwattr DW$319, DW_AT_accessibility(DW_ACCESS_public)
    3248              DW$320  .dwtag  DW_TAG_member, DW_AT_type(*DW$T$11)
    3249                      .dwattr DW$320, DW_AT_name("xf_xplldis"), DW_AT_symbol_name("_xf_xplldis")
    3250                      .dwattr DW$320, DW_AT_bit_offset(0x01), DW_AT_bit_size(0x01)
    3251                      .dwattr DW$320, DW_AT_data_member_location[DW_OP_plus_uconst 0x0]
    3252                      .dwattr DW$320, DW_AT_accessibility(DW_ACCESS_public)
    3253              DW$321  .dwtag  DW_TAG_member, DW_AT_type(*DW$T$11)
    3254                      .dwattr DW$321, DW_AT_name("notused3"), DW_AT_symbol_name("_notused3")
    3255                      .dwattr DW$321, DW_AT_bit_offset(0x00), DW_AT_bit_size(0x01)
    3256                      .dwattr DW$321, DW_AT_data_member_location[DW_OP_plus_uconst 0x0]
    3257                      .dwattr DW$321, DW_AT_accessibility(DW_ACCESS_public)
    3258                      .dwendtag DW$T$25
    3259              
    3260              
    3261                      .dwattr DW$44, DW_AT_external(0x01)
    3262                      .dwattr DW$48, DW_AT_external(0x01)
    3263                      .dwattr DW$26, DW_AT_external(0x01)
    3264                      .dwattr DW$55, DW_AT_external(0x01)
    3265                      .dwattr DW$70, DW_AT_external(0x01)
    3266                      .dwattr DW$50, DW_AT_external(0x01)
    3267                      .dwattr DW$30, DW_AT_external(0x01)
    3268                      .dwattr DW$32, DW_AT_external(0x01)
    3269                      .dwattr DW$75, DW_AT_external(0x01)
    3270                      .dwattr DW$33, DW_AT_external(0x01)
    3271                      .dwattr DW$29, DW_AT_external(0x01)
    3272                      .dwattr DW$31, DW_AT_external(0x01)
    3273                      .dwattr DW$60, DW_AT_external(0x01)
    3274                      .dwattr DW$60, DW_AT_type(*DW$T$51)
    3275                      .dwattr DW$61, DW_AT_external(0x01)
    3276                      .dwattr DW$61, DW_AT_type(*DW$T$51)
    3277                      .dwattr DW$62, DW_AT_external(0x01)
    3278                      .dwattr DW$62, DW_AT_type(*DW$T$51)
    3279                      .dwattr DW$63, DW_AT_external(0x01)
    3280                      .dwattr DW$63, DW_AT_type(*DW$T$51)
    3281                      .dwattr DW$42, DW_AT_external(0x01)
    3282                      .dwattr DW$42, DW_AT_type(*DW$T$51)
    3283                      .dwattr DW$34, DW_AT_external(0x01)
    3284                      .dwattr DW$34, DW_AT_type(*DW$T$51)
    3285                      .dwattr DW$38, DW_AT_external(0x01)
    3286                      .dwattr DW$38, DW_AT_type(*DW$T$51)
    3287                      .dwattr DW$66, DW_AT_external(0x01)
    3288                      .dwattr DW$66, DW_AT_type(*DW$T$11)
    3289                      .dwattr DW$68, DW_AT_external(0x01)
    3290                      .dwattr DW$68, DW_AT_type(*DW$T$11)
    3291                      .dwattr DW$27, DW_AT_external(0x01)
TMS320C2000 COFF Assembler PC v4.1.3 Wed Sep 14 09:00:58 2016

Tools Copyright (c) 1996-2006 Texas Instruments Incorporated
sci.asm                                                              PAGE   68

    3292                      .dwattr DW$28, DW_AT_external(0x01)
    3293                      .dwattr DW$64, DW_AT_external(0x01)
    3294                      .dwattr DW$65, DW_AT_external(0x01)
    3295                      .dwattr DW$76, DW_AT_external(0x01)
    3296                      .dwattr DW$CU, DW_AT_language(DW_LANG_C)
    3297              
    3298              ;***************************************************************
    3299              ;* DWARF REGISTER MAP                                          *
    3300              ;***************************************************************
    3301              
    3302              DW$322  .dwtag  DW_TAG_assign_register, DW_AT_name("AL")
    3303                      .dwattr DW$322, DW_AT_location[DW_OP_reg0]
    3304              DW$323  .dwtag  DW_TAG_assign_register, DW_AT_name("AH")
    3305                      .dwattr DW$323, DW_AT_location[DW_OP_reg1]
    3306              DW$324  .dwtag  DW_TAG_assign_register, DW_AT_name("PL")
    3307                      .dwattr DW$324, DW_AT_location[DW_OP_reg2]
    3308              DW$325  .dwtag  DW_TAG_assign_register, DW_AT_name("PH")
    3309                      .dwattr DW$325, DW_AT_location[DW_OP_reg3]
    3310              DW$326  .dwtag  DW_TAG_assign_register, DW_AT_name("AR0")
    3311                      .dwattr DW$326, DW_AT_location[DW_OP_reg4]
    3312              DW$327  .dwtag  DW_TAG_assign_register, DW_AT_name("XAR0")
    3313                      .dwattr DW$327, DW_AT_location[DW_OP_reg5]
    3314              DW$328  .dwtag  DW_TAG_assign_register, DW_AT_name("AR1")
    3315                      .dwattr DW$328, DW_AT_location[DW_OP_reg6]
    3316              DW$329  .dwtag  DW_TAG_assign_register, DW_AT_name("XAR1")
    3317                      .dwattr DW$329, DW_AT_location[DW_OP_reg7]
    3318              DW$330  .dwtag  DW_TAG_assign_register, DW_AT_name("AR2")
    3319                      .dwattr DW$330, DW_AT_location[DW_OP_reg8]
    3320              DW$331  .dwtag  DW_TAG_assign_register, DW_AT_name("XAR2")
    3321                      .dwattr DW$331, DW_AT_location[DW_OP_reg9]
    3322              DW$332  .dwtag  DW_TAG_assign_register, DW_AT_name("AR3")
    3323                      .dwattr DW$332, DW_AT_location[DW_OP_reg10]
    3324              DW$333  .dwtag  DW_TAG_assign_register, DW_AT_name("XAR3")
    3325                      .dwattr DW$333, DW_AT_location[DW_OP_reg11]
    3326              DW$334  .dwtag  DW_TAG_assign_register, DW_AT_name("AR4")
    3327                      .dwattr DW$334, DW_AT_location[DW_OP_reg12]
    3328              DW$335  .dwtag  DW_TAG_assign_register, DW_AT_name("XAR4")
    3329                      .dwattr DW$335, DW_AT_location[DW_OP_reg13]
    3330              DW$336  .dwtag  DW_TAG_assign_register, DW_AT_name("AR5")
    3331                      .dwattr DW$336, DW_AT_location[DW_OP_reg14]
    3332              DW$337  .dwtag  DW_TAG_assign_register, DW_AT_name("XAR5")
    3333                      .dwattr DW$337, DW_AT_location[DW_OP_reg15]
    3334              DW$338  .dwtag  DW_TAG_assign_register, DW_AT_name("AR6")
    3335                      .dwattr DW$338, DW_AT_location[DW_OP_reg16]
    3336              DW$339  .dwtag  DW_TAG_assign_register, DW_AT_name("XAR6")
    3337                      .dwattr DW$339, DW_AT_location[DW_OP_reg17]
    3338              DW$340  .dwtag  DW_TAG_assign_register, DW_AT_name("AR7")
    3339                      .dwattr DW$340, DW_AT_location[DW_OP_reg18]
    3340              DW$341  .dwtag  DW_TAG_assign_register, DW_AT_name("XAR7")
    3341                      .dwattr DW$341, DW_AT_location[DW_OP_reg19]
    3342              DW$342  .dwtag  DW_TAG_assign_register, DW_AT_name("SP")
    3343                      .dwattr DW$342, DW_AT_location[DW_OP_reg20]
    3344              DW$343  .dwtag  DW_TAG_assign_register, DW_AT_name("XT")
    3345                      .dwattr DW$343, DW_AT_location[DW_OP_reg21]
    3346              DW$344  .dwtag  DW_TAG_assign_register, DW_AT_name("T")
TMS320C2000 COFF Assembler PC v4.1.3 Wed Sep 14 09:00:58 2016

Tools Copyright (c) 1996-2006 Texas Instruments Incorporated
sci.asm                                                              PAGE   69

    3347                      .dwattr DW$344, DW_AT_location[DW_OP_reg22]
    3348              DW$345  .dwtag  DW_TAG_assign_register, DW_AT_name("ST0")
    3349                      .dwattr DW$345, DW_AT_location[DW_OP_reg23]
    3350              DW$346  .dwtag  DW_TAG_assign_register, DW_AT_name("ST1")
    3351                      .dwattr DW$346, DW_AT_location[DW_OP_reg24]
    3352              DW$347  .dwtag  DW_TAG_assign_register, DW_AT_name("PC")
    3353                      .dwattr DW$347, DW_AT_location[DW_OP_reg25]
    3354              DW$348  .dwtag  DW_TAG_assign_register, DW_AT_name("RPC")
    3355                      .dwattr DW$348, DW_AT_location[DW_OP_reg26]
    3356              DW$349  .dwtag  DW_TAG_assign_register, DW_AT_name("FP")
    3357                      .dwattr DW$349, DW_AT_location[DW_OP_reg27]
    3358              DW$350  .dwtag  DW_TAG_assign_register, DW_AT_name("DP")
    3359                      .dwattr DW$350, DW_AT_location[DW_OP_reg28]
    3360              DW$351  .dwtag  DW_TAG_assign_register, DW_AT_name("SXM")
    3361                      .dwattr DW$351, DW_AT_location[DW_OP_reg29]
    3362              DW$352  .dwtag  DW_TAG_assign_register, DW_AT_name("PM")
    3363                      .dwattr DW$352, DW_AT_location[DW_OP_reg30]
    3364              DW$353  .dwtag  DW_TAG_assign_register, DW_AT_name("OVM")
    3365                      .dwattr DW$353, DW_AT_location[DW_OP_reg31]
    3366              DW$354  .dwtag  DW_TAG_assign_register, DW_AT_name("PAGE0")
    3367                      .dwattr DW$354, DW_AT_location[DW_OP_regx 0x20]
    3368              DW$355  .dwtag  DW_TAG_assign_register, DW_AT_name("AMODE")
    3369                      .dwattr DW$355, DW_AT_location[DW_OP_regx 0x21]
    3370              DW$356  .dwtag  DW_TAG_assign_register, DW_AT_name("IFR")
    3371                      .dwattr DW$356, DW_AT_location[DW_OP_regx 0x22]
    3372              DW$357  .dwtag  DW_TAG_assign_register, DW_AT_name("IER")
    3373                      .dwattr DW$357, DW_AT_location[DW_OP_regx 0x23]
    3374              DW$358  .dwtag  DW_TAG_assign_register, DW_AT_name("IER")
    3375                      .dwattr DW$358, DW_AT_location[DW_OP_regx 0x24]
    3376              DW$359  .dwtag  DW_TAG_assign_register, DW_AT_name("PSEUDO")
    3377                      .dwattr DW$359, DW_AT_location[DW_OP_regx 0x25]
    3378              DW$360  .dwtag  DW_TAG_assign_register, DW_AT_name("PSEUDOH")
    3379                      .dwattr DW$360, DW_AT_location[DW_OP_regx 0x26]
    3380              DW$361  .dwtag  DW_TAG_assign_register, DW_AT_name("VOL")
    3381                      .dwattr DW$361, DW_AT_location[DW_OP_regx 0x27]
    3382              DW$362  .dwtag  DW_TAG_assign_register, DW_AT_name("CIE_RETA")
    3383                      .dwattr DW$362, DW_AT_location[DW_OP_regx 0x28]
    3384                      .dwendtag DW$CU
    3385              

No Assembly Errors, No Assembly Warnings
