TMS320C2000 COFF Assembler PC v4.1.3 Thu Aug 18 12:16:30 2016

Tools Copyright (c) 1996-2006 Texas Instruments Incorporated
setup.asm                                                            PAGE    1

       1              ;***************************************************************
       2              ;* TMS320C2000 C/C++ Codegen                         PC v4.1.3 *
       3              ;* Date/Time created: Thu Aug 18 12:16:30 2016                 *
       4              ;***************************************************************
       5                      .compiler_opts --mem_model:code=flat --mem_model:data=large --quiet --silicon_version=28 
       6        0002  FP      .set    XAR2
       7              
       8              DW$CU   .dwtag  DW_TAG_compile_unit
       9                      .dwattr DW$CU, DW_AT_name("setup.c")
      10                      .dwattr DW$CU, DW_AT_producer("TMS320C2000 C/C++ Codegen PC v4.1.3 Copyright (c) 1996-2006 Texas Inst
      11                      .dwattr DW$CU, DW_AT_stmt_list(0x00)
      12                      .dwattr DW$CU, DW_AT_TI_VERSION(0x01)
      13              
      14              DW$1    .dwtag  DW_TAG_subprogram, DW_AT_name("PerformIsr1"), DW_AT_symbol_name("_PerformIsr1")
      15                      .dwattr DW$1, DW_AT_declaration(0x01)
      16                      .dwattr DW$1, DW_AT_external(0x01)
      17              
      18              DW$2    .dwtag  DW_TAG_subprogram, DW_AT_name("PerformIsr13"), DW_AT_symbol_name("_PerformIsr13")
      19                      .dwattr DW$2, DW_AT_declaration(0x01)
      20                      .dwattr DW$2, DW_AT_external(0x01)
      21              
      22              DW$3    .dwtag  DW_TAG_subprogram, DW_AT_name("PerformIsr14"), DW_AT_symbol_name("_PerformIsr14")
      23                      .dwattr DW$3, DW_AT_declaration(0x01)
      24                      .dwattr DW$3, DW_AT_external(0x01)
      25              
      26              DW$4    .dwtag  DW_TAG_subprogram, DW_AT_name("WatchdogKick"), DW_AT_symbol_name("_WatchdogKick")
      27                      .dwattr DW$4, DW_AT_declaration(0x01)
      28                      .dwattr DW$4, DW_AT_external(0x01)
      29              
      30              DW$5    .dwtag  DW_TAG_subprogram, DW_AT_name("PerformSciTxIntA"), DW_AT_symbol_name("_PerformSciTxIntA")
      31                      .dwattr DW$5, DW_AT_declaration(0x01)
      32                      .dwattr DW$5, DW_AT_external(0x01)
      33              
      34              DW$6    .dwtag  DW_TAG_subprogram, DW_AT_name("PerformSciRxIntA"), DW_AT_symbol_name("_PerformSciRxIntA")
      35                      .dwattr DW$6, DW_AT_declaration(0x01)
      36                      .dwattr DW$6, DW_AT_external(0x01)
      37              
      38              DW$7    .dwtag  DW_TAG_subprogram, DW_AT_name("PerformSciTxIntB"), DW_AT_symbol_name("_PerformSciTxIntB")
      39                      .dwattr DW$7, DW_AT_declaration(0x01)
      40                      .dwattr DW$7, DW_AT_external(0x01)
      41              
      42              DW$8    .dwtag  DW_TAG_subprogram, DW_AT_name("PerformSciRxIntB"), DW_AT_symbol_name("_PerformSciRxIntB")
      43                      .dwattr DW$8, DW_AT_declaration(0x01)
      44                      .dwattr DW$8, DW_AT_external(0x01)
      45              
      46              DW$9    .dwtag  DW_TAG_subprogram, DW_AT_name("PerformSciRxIntC"), DW_AT_symbol_name("_PerformSciRxIntC")
      47                      .dwattr DW$9, DW_AT_declaration(0x01)
      48                      .dwattr DW$9, DW_AT_external(0x01)
      49              
      50              DW$10   .dwtag  DW_TAG_subprogram, DW_AT_name("IntADCIsr"), DW_AT_symbol_name("_IntADCIsr")
      51                      .dwattr DW$10, DW_AT_declaration(0x01)
      52                      .dwattr DW$10, DW_AT_external(0x01)
      53              
      54              DW$11   .dwtag  DW_TAG_subprogram, DW_AT_name("WriteSLEMSettingstoNVMEM"), DW_AT_symbol_name("_WriteSLEMSetti
      55                      .dwattr DW$11, DW_AT_declaration(0x01)
TMS320C2000 COFF Assembler PC v4.1.3 Thu Aug 18 12:16:30 2016

Tools Copyright (c) 1996-2006 Texas Instruments Incorporated
setup.asm                                                            PAGE    2

      56                      .dwattr DW$11, DW_AT_external(0x01)
      57              
      58              DW$12   .dwtag  DW_TAG_subprogram, DW_AT_name("LoadSLEMDefaults"), DW_AT_symbol_name("_LoadSLEMDefaults")
      59                      .dwattr DW$12, DW_AT_declaration(0x01)
      60                      .dwattr DW$12, DW_AT_external(0x01)
      61              
      62              DW$13   .dwtag  DW_TAG_subprogram, DW_AT_name("WriteCPPSettingstoNVMEM"), DW_AT_symbol_name("_WriteCPPSetting
      63                      .dwattr DW$13, DW_AT_declaration(0x01)
      64                      .dwattr DW$13, DW_AT_external(0x01)
      65              
      66              DW$14   .dwtag  DW_TAG_subprogram, DW_AT_name("LoadCPPDefaults"), DW_AT_symbol_name("_LoadCPPDefaults")
      67                      .dwattr DW$14, DW_AT_declaration(0x01)
      68                      .dwattr DW$14, DW_AT_external(0x01)
      69              
      70              DW$15   .dwtag  DW_TAG_subprogram, DW_AT_name("WriteSensorSettingstoNVMEM"), DW_AT_symbol_name("_WriteSensorS
      71                      .dwattr DW$15, DW_AT_declaration(0x01)
      72                      .dwattr DW$15, DW_AT_external(0x01)
      73              
      74              DW$16   .dwtag  DW_TAG_subprogram, DW_AT_name("LoadSensorDefaults"), DW_AT_symbol_name("_LoadSensorDefaults")
      75                      .dwattr DW$16, DW_AT_declaration(0x01)
      76                      .dwattr DW$16, DW_AT_external(0x01)
      77              
      78              DW$17   .dwtag  DW_TAG_subprogram, DW_AT_name("SaveTimetoFram"), DW_AT_symbol_name("_SaveTimetoFram")
      79                      .dwattr DW$17, DW_AT_declaration(0x01)
      80                      .dwattr DW$17, DW_AT_external(0x01)
      81              
      82              DW$18   .dwtag  DW_TAG_subprogram, DW_AT_name("WriteConfigStructtoNVMEM"), DW_AT_symbol_name("_WriteConfigStr
      83                      .dwattr DW$18, DW_AT_declaration(0x01)
      84                      .dwattr DW$18, DW_AT_external(0x01)
      85              
      86              DW$19   .dwtag  DW_TAG_subprogram, DW_AT_name("ClearAlarmListandEventLog"), DW_AT_symbol_name("_ClearAlarmLis
      87                      .dwattr DW$19, DW_AT_declaration(0x01)
      88                      .dwattr DW$19, DW_AT_external(0x01)
      89              
      90              DW$20   .dwtag  DW_TAG_subprogram, DW_AT_name("InitStatus1Flags"), DW_AT_symbol_name("_InitStatus1Flags")
      91                      .dwattr DW$20, DW_AT_declaration(0x01)
      92                      .dwattr DW$20, DW_AT_external(0x01)
      93              
      94              DW$21   .dwtag  DW_TAG_subprogram, DW_AT_name("WriteDamagemontoNVMEM"), DW_AT_symbol_name("_WriteDamagemontoN
      95                      .dwattr DW$21, DW_AT_declaration(0x01)
      96                      .dwattr DW$21, DW_AT_external(0x01)
      97              
      98              DW$22   .dwtag  DW_TAG_subprogram, DW_AT_name("SetSensorEnabled"), DW_AT_symbol_name("_SetSensorEnabled")
      99                      .dwattr DW$22, DW_AT_declaration(0x01)
     100                      .dwattr DW$22, DW_AT_external(0x01)
     101              DW$23   .dwtag  DW_TAG_formal_parameter, DW_AT_type(*DW$T$11)
     102              DW$24   .dwtag  DW_TAG_formal_parameter, DW_AT_type(*DW$T$10)
     103                      .dwendtag DW$22
     104              
     105              
     106              DW$25   .dwtag  DW_TAG_subprogram, DW_AT_name("SetCalMode"), DW_AT_symbol_name("_SetCalMode")
     107                      .dwattr DW$25, DW_AT_declaration(0x01)
     108                      .dwattr DW$25, DW_AT_external(0x01)
     109              DW$26   .dwtag  DW_TAG_formal_parameter, DW_AT_type(*DW$T$11)
     110              DW$27   .dwtag  DW_TAG_formal_parameter, DW_AT_type(*DW$T$10)
TMS320C2000 COFF Assembler PC v4.1.3 Thu Aug 18 12:16:30 2016

Tools Copyright (c) 1996-2006 Texas Instruments Incorporated
setup.asm                                                            PAGE    3

     111                      .dwendtag DW$25
     112              
     113              
     114              DW$28   .dwtag  DW_TAG_subprogram, DW_AT_name("SetAlarmMask"), DW_AT_symbol_name("_SetAlarmMask")
     115                      .dwattr DW$28, DW_AT_declaration(0x01)
     116                      .dwattr DW$28, DW_AT_external(0x01)
     117              DW$29   .dwtag  DW_TAG_formal_parameter, DW_AT_type(*DW$T$11)
     118              DW$30   .dwtag  DW_TAG_formal_parameter, DW_AT_type(*DW$T$10)
     119                      .dwendtag DW$28
     120              
     121              
     122              DW$31   .dwtag  DW_TAG_subprogram, DW_AT_name("WriteSensorStatustoNVMEM"), DW_AT_symbol_name("_WriteSensorSta
     123                      .dwattr DW$31, DW_AT_declaration(0x01)
     124                      .dwattr DW$31, DW_AT_external(0x01)
     125              DW$32   .dwtag  DW_TAG_formal_parameter, DW_AT_type(*DW$T$11)
     126                      .dwendtag DW$31
     127              
     128              
     129              DW$33   .dwtag  DW_TAG_subprogram, DW_AT_name("WriteOffsetAtoNVMEM"), DW_AT_symbol_name("_WriteOffsetAtoNVMEM
     130                      .dwattr DW$33, DW_AT_declaration(0x01)
     131                      .dwattr DW$33, DW_AT_external(0x01)
     132              DW$34   .dwtag  DW_TAG_formal_parameter, DW_AT_type(*DW$T$11)
     133                      .dwendtag DW$33
     134              
     135              
     136              DW$35   .dwtag  DW_TAG_subprogram, DW_AT_name("WriteOffsetBtoNVMEM"), DW_AT_symbol_name("_WriteOffsetBtoNVMEM
     137                      .dwattr DW$35, DW_AT_declaration(0x01)
     138                      .dwattr DW$35, DW_AT_external(0x01)
     139              DW$36   .dwtag  DW_TAG_formal_parameter, DW_AT_type(*DW$T$11)
     140                      .dwendtag DW$35
     141              
     142              
     143              DW$37   .dwtag  DW_TAG_subprogram, DW_AT_name("WriteWIOSettingstoNVMEM"), DW_AT_symbol_name("_WriteWIOSetting
     144                      .dwattr DW$37, DW_AT_declaration(0x01)
     145                      .dwattr DW$37, DW_AT_external(0x01)
     146              
     147              DW$38   .dwtag  DW_TAG_subprogram, DW_AT_name("SDCardInitialise"), DW_AT_symbol_name("_SDCardInitialise")
     148                      .dwattr DW$38, DW_AT_type(*DW$T$10)
     149                      .dwattr DW$38, DW_AT_declaration(0x01)
     150                      .dwattr DW$38, DW_AT_external(0x01)
     151              
     152              DW$39   .dwtag  DW_TAG_subprogram, DW_AT_name("SaveSDSettings"), DW_AT_symbol_name("_SaveSDSettings")
     153                      .dwattr DW$39, DW_AT_declaration(0x01)
     154                      .dwattr DW$39, DW_AT_external(0x01)
     155              
     156              DW$40   .dwtag  DW_TAG_subprogram, DW_AT_name("OffsetstoSDCardFile"), DW_AT_symbol_name("_OffsetstoSDCardFile
     157                      .dwattr DW$40, DW_AT_type(*DW$T$10)
     158                      .dwattr DW$40, DW_AT_declaration(0x01)
     159                      .dwattr DW$40, DW_AT_external(0x01)
     160              
     161              DW$41   .dwtag  DW_TAG_subprogram, DW_AT_name("SensorStatustoSDCardFile"), DW_AT_symbol_name("_SensorStatusto
     162                      .dwattr DW$41, DW_AT_type(*DW$T$10)
     163                      .dwattr DW$41, DW_AT_declaration(0x01)
     164                      .dwattr DW$41, DW_AT_external(0x01)
     165              
TMS320C2000 COFF Assembler PC v4.1.3 Thu Aug 18 12:16:30 2016

Tools Copyright (c) 1996-2006 Texas Instruments Incorporated
setup.asm                                                            PAGE    4

     166              DW$42   .dwtag  DW_TAG_subprogram, DW_AT_name("GeneralSettingstoSDCardFile"), DW_AT_symbol_name("_GeneralSett
     167                      .dwattr DW$42, DW_AT_type(*DW$T$10)
     168                      .dwattr DW$42, DW_AT_declaration(0x01)
     169                      .dwattr DW$42, DW_AT_external(0x01)
     170              
     171              DW$43   .dwtag  DW_TAG_subprogram, DW_AT_name("BuildTimeStamp"), DW_AT_symbol_name("_BuildTimeStamp")
     172                      .dwattr DW$43, DW_AT_type(*DW$T$13)
     173                      .dwattr DW$43, DW_AT_declaration(0x01)
     174                      .dwattr DW$43, DW_AT_external(0x01)
     175              
     176              DW$44   .dwtag  DW_TAG_subprogram, DW_AT_name("LoadDamagemonDefaults"), DW_AT_symbol_name("_LoadDamagemonDefa
     177                      .dwattr DW$44, DW_AT_type(*DW$T$10)
     178                      .dwattr DW$44, DW_AT_declaration(0x01)
     179                      .dwattr DW$44, DW_AT_external(0x01)
     180              
     181              DW$45   .dwtag  DW_TAG_subprogram, DW_AT_name("SaveSafeStruct1"), DW_AT_symbol_name("_SaveSafeStruct1")
     182                      .dwattr DW$45, DW_AT_type(*DW$T$10)
     183                      .dwattr DW$45, DW_AT_declaration(0x01)
     184                      .dwattr DW$45, DW_AT_external(0x01)
     185              
     186              DW$46   .dwtag  DW_TAG_subprogram, DW_AT_name("WriteSpeedCompStructtoNVMEM"), DW_AT_symbol_name("_WriteSpeedC
     187                      .dwattr DW$46, DW_AT_type(*DW$T$10)
     188                      .dwattr DW$46, DW_AT_declaration(0x01)
     189                      .dwattr DW$46, DW_AT_external(0x01)
     190              
     191              DW$47   .dwtag  DW_TAG_subprogram, DW_AT_name("WriteAllSensorStructtoNVMEM"), DW_AT_symbol_name("_WriteAllSen
     192                      .dwattr DW$47, DW_AT_type(*DW$T$10)
     193                      .dwattr DW$47, DW_AT_declaration(0x01)
     194                      .dwattr DW$47, DW_AT_external(0x01)
     195              
     196              DW$48   .dwtag  DW_TAG_subprogram, DW_AT_name("PrewarnReset"), DW_AT_symbol_name("_PrewarnReset")
     197                      .dwattr DW$48, DW_AT_type(*DW$T$10)
     198                      .dwattr DW$48, DW_AT_declaration(0x01)
     199                      .dwattr DW$48, DW_AT_external(0x01)
     200              
     201              DW$49   .dwtag  DW_TAG_subprogram, DW_AT_name("ClearEventCodeListArea"), DW_AT_symbol_name("_ClearEventCodeLi
     202                      .dwattr DW$49, DW_AT_type(*DW$T$10)
     203                      .dwattr DW$49, DW_AT_declaration(0x01)
     204                      .dwattr DW$49, DW_AT_external(0x01)
     205              DW$50   .dwtag  DW_TAG_variable, DW_AT_name("settings"), DW_AT_symbol_name("_settings")
     206                      .dwattr DW$50, DW_AT_type(*DW$T$97)
     207                      .dwattr DW$50, DW_AT_declaration(0x01)
     208                      .dwattr DW$50, DW_AT_external(0x01)
     209              DW$51   .dwtag  DW_TAG_variable, DW_AT_name("safe1"), DW_AT_symbol_name("_safe1")
     210                      .dwattr DW$51, DW_AT_type(*DW$T$98)
     211                      .dwattr DW$51, DW_AT_declaration(0x01)
     212                      .dwattr DW$51, DW_AT_external(0x01)
     213              DW$52   .dwtag  DW_TAG_variable, DW_AT_name("safe2"), DW_AT_symbol_name("_safe2")
     214                      .dwattr DW$52, DW_AT_type(*DW$T$99)
     215                      .dwattr DW$52, DW_AT_declaration(0x01)
     216                      .dwattr DW$52, DW_AT_external(0x01)
     217              DW$53   .dwtag  DW_TAG_variable, DW_AT_name("clocktime"), DW_AT_symbol_name("_clocktime")
     218                      .dwattr DW$53, DW_AT_type(*DW$T$100)
     219                      .dwattr DW$53, DW_AT_declaration(0x01)
     220                      .dwattr DW$53, DW_AT_external(0x01)
TMS320C2000 COFF Assembler PC v4.1.3 Thu Aug 18 12:16:30 2016

Tools Copyright (c) 1996-2006 Texas Instruments Incorporated
setup.asm                                                            PAGE    5

     221              DW$54   .dwtag  DW_TAG_variable, DW_AT_name("timers"), DW_AT_symbol_name("_timers")
     222                      .dwattr DW$54, DW_AT_type(*DW$T$102)
     223                      .dwattr DW$54, DW_AT_declaration(0x01)
     224                      .dwattr DW$54, DW_AT_external(0x01)
     225              DW$55   .dwtag  DW_TAG_variable, DW_AT_name("allsensors"), DW_AT_symbol_name("_allsensors")
     226                      .dwattr DW$55, DW_AT_type(*DW$T$105)
     227                      .dwattr DW$55, DW_AT_declaration(0x01)
     228                      .dwattr DW$55, DW_AT_external(0x01)
     229              DW$56   .dwtag  DW_TAG_variable, DW_AT_name("config"), DW_AT_symbol_name("_config")
     230                      .dwattr DW$56, DW_AT_type(*DW$T$107)
     231                      .dwattr DW$56, DW_AT_declaration(0x01)
     232                      .dwattr DW$56, DW_AT_external(0x01)
     233              DW$57   .dwtag  DW_TAG_variable, DW_AT_name("receiveC"), DW_AT_symbol_name("_receiveC")
     234                      .dwattr DW$57, DW_AT_type(*DW$T$108)
     235                      .dwattr DW$57, DW_AT_declaration(0x01)
     236                      .dwattr DW$57, DW_AT_external(0x01)
     237              DW$58   .dwtag  DW_TAG_variable, DW_AT_name("rpmdata"), DW_AT_symbol_name("_rpmdata")
     238                      .dwattr DW$58, DW_AT_type(*DW$T$109)
     239                      .dwattr DW$58, DW_AT_declaration(0x01)
     240                      .dwattr DW$58, DW_AT_external(0x01)
     241              DW$59   .dwtag  DW_TAG_variable, DW_AT_name("speedcompcoeffs"), DW_AT_symbol_name("_speedcompcoeffs")
     242                      .dwattr DW$59, DW_AT_type(*DW$T$110)
     243                      .dwattr DW$59, DW_AT_declaration(0x01)
     244                      .dwattr DW$59, DW_AT_external(0x01)
     245              DW$60   .dwtag  DW_TAG_variable, DW_AT_name("prewarn"), DW_AT_symbol_name("_prewarn")
     246                      .dwattr DW$60, DW_AT_type(*DW$T$112)
     247                      .dwattr DW$60, DW_AT_declaration(0x01)
     248                      .dwattr DW$60, DW_AT_external(0x01)
     249              DW$61   .dwtag  DW_TAG_variable, DW_AT_name("offsetA"), DW_AT_symbol_name("_offsetA")
     250                      .dwattr DW$61, DW_AT_type(*DW$T$113)
     251                      .dwattr DW$61, DW_AT_declaration(0x01)
     252                      .dwattr DW$61, DW_AT_external(0x01)
     253              DW$62   .dwtag  DW_TAG_variable, DW_AT_name("offsetB"), DW_AT_symbol_name("_offsetB")
     254                      .dwattr DW$62, DW_AT_type(*DW$T$113)
     255                      .dwattr DW$62, DW_AT_declaration(0x01)
     256                      .dwattr DW$62, DW_AT_external(0x01)
     257              DW$63   .dwtag  DW_TAG_variable, DW_AT_name("wiosettings"), DW_AT_symbol_name("_wiosettings")
     258                      .dwattr DW$63, DW_AT_type(*DW$T$115)
     259                      .dwattr DW$63, DW_AT_declaration(0x01)
     260                      .dwattr DW$63, DW_AT_external(0x01)
     261              DW$64   .dwtag  DW_TAG_variable, DW_AT_name("sdsettings"), DW_AT_symbol_name("_sdsettings")
     262                      .dwattr DW$64, DW_AT_type(*DW$T$116)
     263                      .dwattr DW$64, DW_AT_declaration(0x01)
     264                      .dwattr DW$64, DW_AT_external(0x01)
     265                      .global _vec
     266 00000000               .sect   ".econst"
     267                      .align  2
     268 00000000       _vec:
     269 00000000 0000'         .field          _UnusedIsr,32           ; _vec[0] @ 0
         00000001 0000 
     270 00000002 0000'         .field          _UnusedIsr,32           ; _vec[1] @ 32
         00000003 0000 
     271 00000004 0000'         .field          _UnusedIsr,32           ; _vec[2] @ 64
         00000005 0000 
     272 00000006 0000'         .field          _UnusedIsr,32           ; _vec[3] @ 96
TMS320C2000 COFF Assembler PC v4.1.3 Thu Aug 18 12:16:30 2016

Tools Copyright (c) 1996-2006 Texas Instruments Incorporated
setup.asm                                                            PAGE    6

         00000007 0000 
     273 00000008 0000'         .field          _UnusedIsr,32           ; _vec[4] @ 128
         00000009 0000 
     274 0000000a 0000'         .field          _UnusedIsr,32           ; _vec[5] @ 160
         0000000b 0000 
     275 0000000c 0000'         .field          _UnusedIsr,32           ; _vec[6] @ 192
         0000000d 0000 
     276 0000000e 0000'         .field          _UnusedIsr,32           ; _vec[7] @ 224
         0000000f 0000 
     277 00000010 0000'         .field          _UnusedIsr,32           ; _vec[8] @ 256
         00000011 0000 
     278 00000012 0000'         .field          _UnusedIsr,32           ; _vec[9] @ 288
         00000013 0000 
     279 00000014 0000'         .field          _UnusedIsr,32           ; _vec[10] @ 320
         00000015 0000 
     280 00000016 0000'         .field          _UnusedIsr,32           ; _vec[11] @ 352
         00000017 0000 
     281 00000018 0077'         .field          _Int13Isr,32            ; _vec[12] @ 384
         00000019 0000 
     282 0000001a 008F'         .field          _Int14Isr,32            ; _vec[13] @ 416
         0000001b 0000 
     283 0000001c 0000'         .field          _UnusedIsr,32           ; _vec[14] @ 448
         0000001d 0000 
     284 0000001e 0000'         .field          _UnusedIsr,32           ; _vec[15] @ 480
         0000001f 0000 
     285 00000020 0000'         .field          _UnusedIsr,32           ; _vec[16] @ 512
         00000021 0000 
     286 00000022 0012'         .field          _SPIUart_XMNI,32                ; _vec[17] @ 544
         00000023 0000 
     287 00000024 0000'         .field          _UnusedIsr,32           ; _vec[18] @ 576
         00000025 0000 
     288 00000026 0000'         .field          _UnusedIsr,32           ; _vec[19] @ 608
         00000027 0000 
     289 00000028 0000'         .field          _UnusedIsr,32           ; _vec[20] @ 640
         00000029 0000 
     290 0000002a 0000'         .field          _UnusedIsr,32           ; _vec[21] @ 672
         0000002b 0000 
     291 0000002c 0000'         .field          _UnusedIsr,32           ; _vec[22] @ 704
         0000002d 0000 
     292 0000002e 0000'         .field          _UnusedIsr,32           ; _vec[23] @ 736
         0000002f 0000 
     293 00000030 0000'         .field          _UnusedIsr,32           ; _vec[24] @ 768
         00000031 0000 
     294 00000032 0000'         .field          _UnusedIsr,32           ; _vec[25] @ 800
         00000033 0000 
     295 00000034 0000'         .field          _UnusedIsr,32           ; _vec[26] @ 832
         00000035 0000 
     296 00000036 0000'         .field          _UnusedIsr,32           ; _vec[27] @ 864
         00000037 0000 
     297 00000038 0000'         .field          _UnusedIsr,32           ; _vec[28] @ 896
         00000039 0000 
     298 0000003a 0000'         .field          _UnusedIsr,32           ; _vec[29] @ 928
         0000003b 0000 
     299 0000003c 0000'         .field          _UnusedIsr,32           ; _vec[30] @ 960
         0000003d 0000 
TMS320C2000 COFF Assembler PC v4.1.3 Thu Aug 18 12:16:30 2016

Tools Copyright (c) 1996-2006 Texas Instruments Incorporated
setup.asm                                                            PAGE    7

     300 0000003e 0000'         .field          _UnusedIsr,32           ; _vec[31] @ 992
         0000003f 0000 
     301 00000040 0000'         .field          _UnusedIsr,32           ; _vec[32] @ 1024
         00000041 0000 
     302 00000042 0000'         .field          _UnusedIsr,32           ; _vec[33] @ 1056
         00000043 0000 
     303 00000044 0005'         .field          _Int1Xint1Isr,32                ; _vec[34] @ 1088
         00000045 0000 
     304 00000046 0030'         .field          _Int1Xint2Isr,32                ; _vec[35] @ 1120
         00000047 0000 
     305 00000048 0000!         .field          _IntADCIsr,32           ; _vec[36] @ 1152
         00000049 0000 
     306 0000004a 005C'         .field          _Int1Isr,32             ; _vec[37] @ 1184
         0000004b 0000 
     307 0000004c 0000'         .field          _UnusedIsr,32           ; _vec[38] @ 1216
         0000004d 0000 
     308 0000004e 0000'         .field          _UnusedIsr,32           ; _vec[39] @ 1248
         0000004f 0000 
     309 00000050 0000'         .field          _UnusedIsr,32           ; _vec[40] @ 1280
         00000051 0000 
     310 00000052 0000'         .field          _UnusedIsr,32           ; _vec[41] @ 1312
         00000053 0000 
     311 00000054 0000'         .field          _UnusedIsr,32           ; _vec[42] @ 1344
         00000055 0000 
     312 00000056 0000'         .field          _UnusedIsr,32           ; _vec[43] @ 1376
         00000057 0000 
     313 00000058 0000'         .field          _UnusedIsr,32           ; _vec[44] @ 1408
         00000059 0000 
     314 0000005a 0000'         .field          _UnusedIsr,32           ; _vec[45] @ 1440
         0000005b 0000 
     315 0000005c 0000'         .field          _UnusedIsr,32           ; _vec[46] @ 1472
         0000005d 0000 
     316 0000005e 0000'         .field          _UnusedIsr,32           ; _vec[47] @ 1504
         0000005f 0000 
     317 00000060 0000'         .field          _UnusedIsr,32           ; _vec[48] @ 1536
         00000061 0000 
     318 00000062 0000'         .field          _UnusedIsr,32           ; _vec[49] @ 1568
         00000063 0000 
     319 00000064 0000'         .field          _UnusedIsr,32           ; _vec[50] @ 1600
         00000065 0000 
     320 00000066 0000'         .field          _UnusedIsr,32           ; _vec[51] @ 1632
         00000067 0000 
     321 00000068 0000'         .field          _UnusedIsr,32           ; _vec[52] @ 1664
         00000069 0000 
     322 0000006a 0000'         .field          _UnusedIsr,32           ; _vec[53] @ 1696
         0000006b 0000 
     323 0000006c 0000'         .field          _UnusedIsr,32           ; _vec[54] @ 1728
         0000006d 0000 
     324 0000006e 0000'         .field          _UnusedIsr,32           ; _vec[55] @ 1760
         0000006f 0000 
     325 00000070 0000'         .field          _UnusedIsr,32           ; _vec[56] @ 1792
         00000071 0000 
     326 00000072 0000'         .field          _UnusedIsr,32           ; _vec[57] @ 1824
         00000073 0000 
     327 00000074 0000'         .field          _UnusedIsr,32           ; _vec[58] @ 1856
TMS320C2000 COFF Assembler PC v4.1.3 Thu Aug 18 12:16:30 2016

Tools Copyright (c) 1996-2006 Texas Instruments Incorporated
setup.asm                                                            PAGE    8

         00000075 0000 
     328 00000076 0000'         .field          _UnusedIsr,32           ; _vec[59] @ 1888
         00000077 0000 
     329 00000078 0000'         .field          _UnusedIsr,32           ; _vec[60] @ 1920
         00000079 0000 
     330 0000007a 0000'         .field          _UnusedIsr,32           ; _vec[61] @ 1952
         0000007b 0000 
     331 0000007c 0000'         .field          _UnusedIsr,32           ; _vec[62] @ 1984
         0000007d 0000 
     332 0000007e 0000'         .field          _UnusedIsr,32           ; _vec[63] @ 2016
         0000007f 0000 
     333 00000080 0000'         .field          _UnusedIsr,32           ; _vec[64] @ 2048
         00000081 0000 
     334 00000082 0000'         .field          _UnusedIsr,32           ; _vec[65] @ 2080
         00000083 0000 
     335 00000084 0000'         .field          _UnusedIsr,32           ; _vec[66] @ 2112
         00000085 0000 
     336 00000086 0000'         .field          _UnusedIsr,32           ; _vec[67] @ 2144
         00000087 0000 
     337 00000088 0000'         .field          _UnusedIsr,32           ; _vec[68] @ 2176
         00000089 0000 
     338 0000008a 0000'         .field          _UnusedIsr,32           ; _vec[69] @ 2208
         0000008b 0000 
     339 0000008c 0000'         .field          _UnusedIsr,32           ; _vec[70] @ 2240
         0000008d 0000 
     340 0000008e 0000'         .field          _UnusedIsr,32           ; _vec[71] @ 2272
         0000008f 0000 
     341 00000090 0000'         .field          _UnusedIsr,32           ; _vec[72] @ 2304
         00000091 0000 
     342 00000092 0000'         .field          _UnusedIsr,32           ; _vec[73] @ 2336
         00000093 0000 
     343 00000094 0000'         .field          _UnusedIsr,32           ; _vec[74] @ 2368
         00000095 0000 
     344 00000096 0000'         .field          _UnusedIsr,32           ; _vec[75] @ 2400
         00000097 0000 
     345 00000098 0000'         .field          _UnusedIsr,32           ; _vec[76] @ 2432
         00000099 0000 
     346 0000009a 0000'         .field          _UnusedIsr,32           ; _vec[77] @ 2464
         0000009b 0000 
     347 0000009c 0000'         .field          _UnusedIsr,32           ; _vec[78] @ 2496
         0000009d 0000 
     348 0000009e 0000'         .field          _UnusedIsr,32           ; _vec[79] @ 2528
         0000009f 0000 
     349 000000a0 0000'         .field          _UnusedIsr,32           ; _vec[80] @ 2560
         000000a1 0000 
     350 000000a2 0000'         .field          _UnusedIsr,32           ; _vec[81] @ 2592
         000000a3 0000 
     351 000000a4 0000'         .field          _UnusedIsr,32           ; _vec[82] @ 2624
         000000a5 0000 
     352 000000a6 0000'         .field          _UnusedIsr,32           ; _vec[83] @ 2656
         000000a7 0000 
     353 000000a8 0000'         .field          _UnusedIsr,32           ; _vec[84] @ 2688
         000000a9 0000 
     354 000000aa 0000'         .field          _UnusedIsr,32           ; _vec[85] @ 2720
         000000ab 0000 
TMS320C2000 COFF Assembler PC v4.1.3 Thu Aug 18 12:16:30 2016

Tools Copyright (c) 1996-2006 Texas Instruments Incorporated
setup.asm                                                            PAGE    9

     355 000000ac 0000'         .field          _UnusedIsr,32           ; _vec[86] @ 2752
         000000ad 0000 
     356 000000ae 0000'         .field          _UnusedIsr,32           ; _vec[87] @ 2784
         000000af 0000 
     357 000000b0 0000'         .field          _UnusedIsr,32           ; _vec[88] @ 2816
         000000b1 0000 
     358 000000b2 0000'         .field          _UnusedIsr,32           ; _vec[89] @ 2848
         000000b3 0000 
     359 000000b4 0000'         .field          _UnusedIsr,32           ; _vec[90] @ 2880
         000000b5 0000 
     360 000000b6 0000'         .field          _UnusedIsr,32           ; _vec[91] @ 2912
         000000b7 0000 
     361 000000b8 0000'         .field          _UnusedIsr,32           ; _vec[92] @ 2944
         000000b9 0000 
     362 000000ba 0000'         .field          _UnusedIsr,32           ; _vec[93] @ 2976
         000000bb 0000 
     363 000000bc 0000'         .field          _UnusedIsr,32           ; _vec[94] @ 3008
         000000bd 0000 
     364 000000be 00A5'         .field          _Int9SciRxIntA,32               ; _vec[95] @ 3040
         000000bf 0000 
     365 000000c0 0000'         .field          _UnusedIsr,32           ; _vec[96] @ 3072
         000000c1 0000 
     366 000000c2 00DD'         .field          _Int9SciRxIntB,32               ; _vec[97] @ 3104
         000000c3 0000 
     367 000000c4 0000'         .field          _UnusedIsr,32           ; _vec[98] @ 3136
         000000c5 0000 
     368 000000c6 0000'         .field          _UnusedIsr,32           ; _vec[99] @ 3168
         000000c7 0000 
     369 000000c8 0000'         .field          _UnusedIsr,32           ; _vec[100] @ 3200
         000000c9 0000 
     370 000000ca 0000'         .field          _UnusedIsr,32           ; _vec[101] @ 3232
         000000cb 0000 
     371 000000cc 0000'         .field          _UnusedIsr,32           ; _vec[102] @ 3264
         000000cd 0000 
     372 000000ce 0000'         .field          _UnusedIsr,32           ; _vec[103] @ 3296
         000000cf 0000 
     373 000000d0 0000'         .field          _UnusedIsr,32           ; _vec[104] @ 3328
         000000d1 0000 
     374              
     375              DW$65   .dwtag  DW_TAG_variable, DW_AT_name("vec"), DW_AT_symbol_name("_vec")
     376                      .dwattr DW$65, DW_AT_location[DW_OP_addr _vec]
     377                      .dwattr DW$65, DW_AT_type(*DW$T$78)
     378                      .dwattr DW$65, DW_AT_external(0x01)
     379              ;       C:\CCStudio_v3.3\C2000\cgtools\bin\opt2000.exe C:\Users\Andrew\AppData\Local\Temp\TI9042 C:\Users\And
     380              ;       C:\CCStudio_v3.3\C2000\cgtools\bin\ac2000.exe -q -D_INLINE -DLARGE_MODEL -IC:/CCStudio_v3.3/C2000/xda
     381 00000000               .sect   ".text"
     382                      .global _UnusedIsr
     383              
     384              DW$66   .dwtag  DW_TAG_subprogram, DW_AT_name("UnusedIsr"), DW_AT_symbol_name("_UnusedIsr")
     385                      .dwattr DW$66, DW_AT_low_pc(_UnusedIsr)
     386                      .dwattr DW$66, DW_AT_high_pc(0x00)
     387                      .dwattr DW$66, DW_AT_begin_file("setup.c")
     388                      .dwattr DW$66, DW_AT_begin_line(0xa6)
     389                      .dwattr DW$66, DW_AT_begin_column(0x10)
     390                      .dwattr DW$66, DW_AT_TI_interrupt(0x01)
TMS320C2000 COFF Assembler PC v4.1.3 Thu Aug 18 12:16:30 2016

Tools Copyright (c) 1996-2006 Texas Instruments Incorporated
setup.asm                                                            PAGE   10

     391                      .dwattr DW$66, DW_AT_frame_base[DW_OP_breg20 -2]
     392                      .dwattr DW$66, DW_AT_skeletal(0x01)
     393                      .dwpsn  "setup.c",167,1
     394              
     395              ;***************************************************************
     396              ;* FNAME: _UnusedIsr                    FR SIZE:   0           *
     397              ;*                                                             *
     398              ;* FUNCTION ENVIRONMENT                                        *
     399              ;*                                                             *
     400              ;* FUNCTION PROPERTIES                                         *
     401              ;*                            0 Parameter,  0 Auto,  0 SOE     *
     402              ;***************************************************************
     403              
     404 00000000       _UnusedIsr:
     405 00000000 761B          ASP
     406 00000001 2942          CLRC      PAGE0,OVM
     407 00000002 5616          CLRC      AMODE
     408 00000003 7617          NASP
     409                      .dwpsn  "setup.c",169,1
     410 00000004 7602          IRET
     411                      ; return occurs
     412                      .dwattr DW$66, DW_AT_end_file("setup.c")
     413                      .dwattr DW$66, DW_AT_end_line(0xa9)
     414                      .dwattr DW$66, DW_AT_end_column(0x01)
     415                      .dwendtag DW$66
     416              
     417 00000005               .sect   ".text"
     418                      .global _Int1Xint1Isr
     419              
     420              DW$67   .dwtag  DW_TAG_subprogram, DW_AT_name("Int1Xint1Isr"), DW_AT_symbol_name("_Int1Xint1Isr")
     421                      .dwattr DW$67, DW_AT_low_pc(_Int1Xint1Isr)
     422                      .dwattr DW$67, DW_AT_high_pc(0x00)
     423                      .dwattr DW$67, DW_AT_begin_file("setup.c")
     424                      .dwattr DW$67, DW_AT_begin_line(0xb0)
     425                      .dwattr DW$67, DW_AT_begin_column(0x10)
     426                      .dwattr DW$67, DW_AT_TI_interrupt(0x01)
     427                      .dwattr DW$67, DW_AT_frame_base[DW_OP_breg20 -2]
     428                      .dwattr DW$67, DW_AT_skeletal(0x01)
     429                      .dwpsn  "setup.c",177,1
     430              
     431              ;***************************************************************
     432              ;* FNAME: _Int1Xint1Isr                 FR SIZE:   0           *
     433              ;*                                                             *
     434              ;* FUNCTION ENVIRONMENT                                        *
     435              ;*                                                             *
     436              ;* FUNCTION PROPERTIES                                         *
     437              ;*                            0 Parameter,  0 Auto,  0 SOE     *
     438              ;***************************************************************
     439              
     440 00000005       _Int1Xint1Isr:
     441 00000005 761B          ASP
     442 00000006 2942          CLRC      PAGE0,OVM
     443 00000007 5616          CLRC      AMODE
     444 00000008 7623          OR        IER,#0x0001           ; |179| 
         00000009 0001 
TMS320C2000 COFF Assembler PC v4.1.3 Thu Aug 18 12:16:30 2016

Tools Copyright (c) 1996-2006 Texas Instruments Incorporated
setup.asm                                                            PAGE   11

     445 0000000a F5A9          MOV       AL,*(0:0x0ce1)        ; |180| 
         0000000b 0CE1 
     446 0000000c 5001          ORB       AL,#0x01              ; |180| 
     447 0000000d F4A9          MOV       *(0:0x0ce1),AL        ; |180| 
         0000000e 0CE1 
     448 0000000f 7700          NOP
     449 00000010 7617          NASP
     450                      .dwpsn  "setup.c",181,1
     451 00000011 7602          IRET
     452                      ; return occurs
     453                      .dwattr DW$67, DW_AT_end_file("setup.c")
     454                      .dwattr DW$67, DW_AT_end_line(0xb5)
     455                      .dwattr DW$67, DW_AT_end_column(0x01)
     456                      .dwendtag DW$67
     457              
     458 00000012               .sect   ".text"
     459                      .global _SPIUart_XMNI
     460              
     461              DW$68   .dwtag  DW_TAG_subprogram, DW_AT_name("SPIUart_XMNI"), DW_AT_symbol_name("_SPIUart_XMNI")
     462                      .dwattr DW$68, DW_AT_low_pc(_SPIUart_XMNI)
     463                      .dwattr DW$68, DW_AT_high_pc(0x00)
     464                      .dwattr DW$68, DW_AT_begin_file("setup.c")
     465                      .dwattr DW$68, DW_AT_begin_line(0xbc)
     466                      .dwattr DW$68, DW_AT_begin_column(0x10)
     467                      .dwattr DW$68, DW_AT_TI_interrupt(0x01)
     468                      .dwattr DW$68, DW_AT_frame_base[DW_OP_breg20 -14]
     469                      .dwattr DW$68, DW_AT_skeletal(0x01)
     470                      .dwpsn  "setup.c",189,1
     471              
     472              ;***************************************************************
     473              ;* FNAME: _SPIUart_XMNI                 FR SIZE:  12           *
     474              ;*                                                             *
     475              ;* FUNCTION ENVIRONMENT                                        *
     476              ;*                                                             *
     477              ;* FUNCTION PROPERTIES                                         *
     478              ;*                            0 Parameter,  0 Auto, 12 SOE     *
     479              ;***************************************************************
     480              
     481 00000012       _SPIUart_XMNI:
     482 00000012 761B          ASP
     483 00000013 0005          PUSH      AR1H:AR0H
     484 00000014 FF69          SPM       0
     485 00000015 A8BD          MOVL      *SP++,XAR4
     486 00000016 A0BD          MOVL      *SP++,XAR5
     487 00000017 C2BD          MOVL      *SP++,XAR6
     488 00000018 C3BD          MOVL      *SP++,XAR7
     489 00000019 ABBD          MOVL      *SP++,XT
     490 0000001a 2942          CLRC      PAGE0,OVM
     491 0000001b 5616          CLRC      AMODE
     492 0000001c 761F!         MOVW      DP,#_settings+14
         0000001d 0000 
     493 0000001e 920E!         MOV       AL,@_settings+14      ; |191| 
     494 0000001f ED05          BF        L1,NEQ                ; |191| 
     495                      ; branchcc occurs ; |191| 
     496 00000020 7640!         LCR       #_PerformSciRxIntC    ; |193| 
TMS320C2000 COFF Assembler PC v4.1.3 Thu Aug 18 12:16:30 2016

Tools Copyright (c) 1996-2006 Texas Instruments Incorporated
setup.asm                                                            PAGE   12

         00000021 0000 
     497                      ; call occurs [#_PerformSciRxIntC] ; |193| 
     498 00000022 56CF          BF        L2,UNC                ; |194| 
         00000023 0006 
     499                      ; branch occurs ; |194| 
     500 00000024       L1:    
     501 00000024 761F!         MOVW      DP,#_receiveC
         00000025 0000 
     502 00000026 2800!         MOV       @_receiveC,#1         ; |195| 
         00000027 0001 
     503 00000028       L2:    
     504 00000028 87BE          MOVL      XT,*--SP
     505 00000029 C5BE          MOVL      XAR7,*--SP
     506 0000002a C4BE          MOVL      XAR6,*--SP
     507 0000002b 83BE          MOVL      XAR5,*--SP
     508 0000002c 8ABE          MOVL      XAR4,*--SP
     509 0000002d 0003          POP       AR1H:AR0H
     510 0000002e 7617          NASP
     511                      .dwpsn  "setup.c",196,1
     512 0000002f 7602          IRET
     513                      ; return occurs
     514                      .dwattr DW$68, DW_AT_end_file("setup.c")
     515                      .dwattr DW$68, DW_AT_end_line(0xc4)
     516                      .dwattr DW$68, DW_AT_end_column(0x01)
     517                      .dwendtag DW$68
     518              
     519 00000030               .sect   ".text"
     520                      .global _Int1Xint2Isr
     521              
     522              DW$69   .dwtag  DW_TAG_subprogram, DW_AT_name("Int1Xint2Isr"), DW_AT_symbol_name("_Int1Xint2Isr")
     523                      .dwattr DW$69, DW_AT_low_pc(_Int1Xint2Isr)
     524                      .dwattr DW$69, DW_AT_high_pc(0x00)
     525                      .dwattr DW$69, DW_AT_begin_file("setup.c")
     526                      .dwattr DW$69, DW_AT_begin_line(0xcb)
     527                      .dwattr DW$69, DW_AT_begin_column(0x10)
     528                      .dwattr DW$69, DW_AT_TI_interrupt(0x01)
     529                      .dwattr DW$69, DW_AT_frame_base[DW_OP_breg20 -2]
     530                      .dwattr DW$69, DW_AT_skeletal(0x01)
     531                      .dwpsn  "setup.c",204,1
     532              
     533              ;***************************************************************
     534              ;* FNAME: _Int1Xint2Isr                 FR SIZE:   0           *
     535              ;*                                                             *
     536              ;* FUNCTION ENVIRONMENT                                        *
     537              ;*                                                             *
     538              ;* FUNCTION PROPERTIES                                         *
     539              ;*                            0 Parameter,  0 Auto,  0 SOE     *
     540              ;***************************************************************
     541              
     542 00000030       _Int1Xint2Isr:
     543 00000030 761B          ASP
     544 00000031 2942          CLRC      PAGE0,OVM
     545 00000032 5616          CLRC      AMODE
     546 00000033 7623          OR        IER,#0x0001           ; |206| 
         00000034 0001 
TMS320C2000 COFF Assembler PC v4.1.3 Thu Aug 18 12:16:30 2016

Tools Copyright (c) 1996-2006 Texas Instruments Incorporated
setup.asm                                                            PAGE   13

     547 00000035 761F!         MOVW      DP,#_rpmdata
         00000036 0000 
     548 00000037 0A00!         INC       @_rpmdata             ; |208| 
     549 00000038 761F!         MOVW      DP,#_timers+41
         00000039 0000 
     550 0000003a 1B29!         CMP       @_timers+41,#400      ; |209| 
         0000003b 0190 
     551 0000003c 56C8          BF        L3,LO                 ; |209| 
         0000003d 0018 
     552                      ; branchcc occurs ; |209| 
     553 0000003e 761F!         MOVW      DP,#_rpmdata+1
         0000003f 0000 
     554 00000040 2801!         MOV       @_rpmdata+1,#1        ; |211| 
         00000041 0001 
     555 00000042 761F!         MOVW      DP,#_timers+41
         00000043 0000 
     556 00000044 9229!         MOV       AL,@_timers+41        ; |212| 
     557 00000045 761F!         MOVW      DP,#_rpmdata+3
         00000046 0000 
     558 00000047 9603!         MOV       @_rpmdata+3,AL        ; |212| 
     559 00000048 761F!         MOVW      DP,#_rpmdata
         00000049 0000 
     560 0000004a 9200!         MOV       AL,@_rpmdata          ; |213| 
     561 0000004b 761F!         MOVW      DP,#_rpmdata+2
         0000004c 0000 
     562 0000004d 9602!         MOV       @_rpmdata+2,AL        ; |213| 
     563 0000004e 761F!         MOVW      DP,#_timers+41
         0000004f 0000 
     564 00000050 2B29!         MOV       @_timers+41,#0        ; |214| 
     565 00000051 761F!         MOVW      DP,#_rpmdata
         00000052 0000 
     566 00000053 2B00!         MOV       @_rpmdata,#0          ; |215| 
     567 00000054       L3:    
     568 00000054 F5A9          MOV       AL,*(0:0x0ce1)        ; |217| 
         00000055 0CE1 
     569 00000056 5001          ORB       AL,#0x01              ; |217| 
     570 00000057 F4A9          MOV       *(0:0x0ce1),AL        ; |217| 
         00000058 0CE1 
     571 00000059 7700          NOP
     572 0000005a 7617          NASP
     573                      .dwpsn  "setup.c",218,1
     574 0000005b 7602          IRET
     575                      ; return occurs
     576                      .dwattr DW$69, DW_AT_end_file("setup.c")
     577                      .dwattr DW$69, DW_AT_end_line(0xda)
     578                      .dwattr DW$69, DW_AT_end_column(0x01)
     579                      .dwendtag DW$69
     580              
     581 0000005c               .sect   ".text"
     582                      .global _Int1Isr
     583              
     584              DW$70   .dwtag  DW_TAG_subprogram, DW_AT_name("Int1Isr"), DW_AT_symbol_name("_Int1Isr")
     585                      .dwattr DW$70, DW_AT_low_pc(_Int1Isr)
     586                      .dwattr DW$70, DW_AT_high_pc(0x00)
     587                      .dwattr DW$70, DW_AT_begin_file("setup.c")
TMS320C2000 COFF Assembler PC v4.1.3 Thu Aug 18 12:16:30 2016

Tools Copyright (c) 1996-2006 Texas Instruments Incorporated
setup.asm                                                            PAGE   14

     588                      .dwattr DW$70, DW_AT_begin_line(0xe3)
     589                      .dwattr DW$70, DW_AT_begin_column(0x10)
     590                      .dwattr DW$70, DW_AT_TI_interrupt(0x01)
     591                      .dwattr DW$70, DW_AT_frame_base[DW_OP_breg20 -14]
     592                      .dwattr DW$70, DW_AT_skeletal(0x01)
     593                      .dwpsn  "setup.c",228,1
     594              
     595              ;***************************************************************
     596              ;* FNAME: _Int1Isr                      FR SIZE:  12           *
     597              ;*                                                             *
     598              ;* FUNCTION ENVIRONMENT                                        *
     599              ;*                                                             *
     600              ;* FUNCTION PROPERTIES                                         *
     601              ;*                            0 Parameter,  0 Auto, 12 SOE     *
     602              ;***************************************************************
     603              
     604 0000005c       _Int1Isr:
     605 0000005c 761B          ASP
     606 0000005d 0005          PUSH      AR1H:AR0H
     607 0000005e FF69          SPM       0
     608 0000005f A8BD          MOVL      *SP++,XAR4
     609 00000060 A0BD          MOVL      *SP++,XAR5
     610 00000061 C2BD          MOVL      *SP++,XAR6
     611 00000062 C3BD          MOVL      *SP++,XAR7
     612 00000063 ABBD          MOVL      *SP++,XT
     613 00000064 2942          CLRC      PAGE0,OVM
     614 00000065 5616          CLRC      AMODE
     615 00000066 7623          OR        IER,#0x0001           ; |230| 
         00000067 0001 
     616 00000068 7640!         LCR       #_PerformIsr1         ; |231| 
         00000069 0000 
     617                      ; call occurs [#_PerformIsr1] ; |231| 
     618 0000006a F5A9          MOV       AL,*(0:0x0ce1)        ; |232| 
         0000006b 0CE1 
     619 0000006c 5001          ORB       AL,#0x01              ; |232| 
     620 0000006d F4A9          MOV       *(0:0x0ce1),AL        ; |232| 
         0000006e 0CE1 
     621 0000006f 87BE          MOVL      XT,*--SP
     622 00000070 C5BE          MOVL      XAR7,*--SP
     623 00000071 C4BE          MOVL      XAR6,*--SP
     624 00000072 83BE          MOVL      XAR5,*--SP
     625 00000073 8ABE          MOVL      XAR4,*--SP
     626 00000074 0003          POP       AR1H:AR0H
     627 00000075 7617          NASP
     628                      .dwpsn  "setup.c",233,1
     629 00000076 7602          IRET
     630                      ; return occurs
     631                      .dwattr DW$70, DW_AT_end_file("setup.c")
     632                      .dwattr DW$70, DW_AT_end_line(0xe9)
     633                      .dwattr DW$70, DW_AT_end_column(0x01)
     634                      .dwendtag DW$70
     635              
     636 00000077               .sect   ".text"
     637                      .global _Int13Isr
     638              
TMS320C2000 COFF Assembler PC v4.1.3 Thu Aug 18 12:16:30 2016

Tools Copyright (c) 1996-2006 Texas Instruments Incorporated
setup.asm                                                            PAGE   15

     639              DW$71   .dwtag  DW_TAG_subprogram, DW_AT_name("Int13Isr"), DW_AT_symbol_name("_Int13Isr")
     640                      .dwattr DW$71, DW_AT_low_pc(_Int13Isr)
     641                      .dwattr DW$71, DW_AT_high_pc(0x00)
     642                      .dwattr DW$71, DW_AT_begin_file("setup.c")
     643                      .dwattr DW$71, DW_AT_begin_line(0xf1)
     644                      .dwattr DW$71, DW_AT_begin_column(0x10)
     645                      .dwattr DW$71, DW_AT_TI_interrupt(0x01)
     646                      .dwattr DW$71, DW_AT_frame_base[DW_OP_breg20 -14]
     647                      .dwattr DW$71, DW_AT_skeletal(0x01)
     648                      .dwpsn  "setup.c",242,1
     649              
     650              ;***************************************************************
     651              ;* FNAME: _Int13Isr                     FR SIZE:  12           *
     652              ;*                                                             *
     653              ;* FUNCTION ENVIRONMENT                                        *
     654              ;*                                                             *
     655              ;* FUNCTION PROPERTIES                                         *
     656              ;*                            0 Parameter,  0 Auto, 12 SOE     *
     657              ;***************************************************************
     658              
     659 00000077       _Int13Isr:
     660 00000077 761B          ASP
     661 00000078 0005          PUSH      AR1H:AR0H
     662 00000079 FF69          SPM       0
     663 0000007a A8BD          MOVL      *SP++,XAR4
     664 0000007b A0BD          MOVL      *SP++,XAR5
     665 0000007c C2BD          MOVL      *SP++,XAR6
     666 0000007d C3BD          MOVL      *SP++,XAR7
     667 0000007e ABBD          MOVL      *SP++,XT
     668 0000007f 2942          CLRC      PAGE0,OVM
     669 00000080 5616          CLRC      AMODE
     670 00000081 7623          OR        IER,#0x0001           ; |244| 
         00000082 0001 
     671 00000083 2930   clrc INTM, DBGM    ; Enable global interrupts and debug accesses
     672 00000084 FF69          SPM       #0
     673 00000085 7640!         LCR       #_PerformIsr13        ; |246| 
         00000086 0000 
     674                      ; call occurs [#_PerformIsr13] ; |246| 
     675 00000087 87BE          MOVL      XT,*--SP
     676 00000088 C5BE          MOVL      XAR7,*--SP
     677 00000089 C4BE          MOVL      XAR6,*--SP
     678 0000008a 83BE          MOVL      XAR5,*--SP
     679 0000008b 8ABE          MOVL      XAR4,*--SP
     680 0000008c 0003          POP       AR1H:AR0H
     681 0000008d 7617          NASP
     682                      .dwpsn  "setup.c",247,1
     683 0000008e 7602          IRET
     684                      ; return occurs
     685                      .dwattr DW$71, DW_AT_end_file("setup.c")
     686                      .dwattr DW$71, DW_AT_end_line(0xf7)
     687                      .dwattr DW$71, DW_AT_end_column(0x01)
     688                      .dwendtag DW$71
     689              
     690 0000008f               .sect   ".text"
     691                      .global _Int14Isr
TMS320C2000 COFF Assembler PC v4.1.3 Thu Aug 18 12:16:30 2016

Tools Copyright (c) 1996-2006 Texas Instruments Incorporated
setup.asm                                                            PAGE   16

     692              
     693              DW$72   .dwtag  DW_TAG_subprogram, DW_AT_name("Int14Isr"), DW_AT_symbol_name("_Int14Isr")
     694                      .dwattr DW$72, DW_AT_low_pc(_Int14Isr)
     695                      .dwattr DW$72, DW_AT_high_pc(0x00)
     696                      .dwattr DW$72, DW_AT_begin_file("setup.c")
     697                      .dwattr DW$72, DW_AT_begin_line(0x101)
     698                      .dwattr DW$72, DW_AT_begin_column(0x10)
     699                      .dwattr DW$72, DW_AT_TI_interrupt(0x01)
     700                      .dwattr DW$72, DW_AT_frame_base[DW_OP_breg20 -14]
     701                      .dwattr DW$72, DW_AT_skeletal(0x01)
     702                      .dwpsn  "setup.c",258,1
     703              
     704              ;***************************************************************
     705              ;* FNAME: _Int14Isr                     FR SIZE:  12           *
     706              ;*                                                             *
     707              ;* FUNCTION ENVIRONMENT                                        *
     708              ;*                                                             *
     709              ;* FUNCTION PROPERTIES                                         *
     710              ;*                            0 Parameter,  0 Auto, 12 SOE     *
     711              ;***************************************************************
     712              
     713 0000008f       _Int14Isr:
     714 0000008f 761B          ASP
     715 00000090 0005          PUSH      AR1H:AR0H
     716 00000091 FF69          SPM       0
     717 00000092 A8BD          MOVL      *SP++,XAR4
     718 00000093 A0BD          MOVL      *SP++,XAR5
     719 00000094 C2BD          MOVL      *SP++,XAR6
     720 00000095 C3BD          MOVL      *SP++,XAR7
     721 00000096 ABBD          MOVL      *SP++,XT
     722 00000097 2942          CLRC      PAGE0,OVM
     723 00000098 5616          CLRC      AMODE
     724 00000099 2930   clrc INTM, DBGM    ; Enable global interrupts and debug accesses
     725 0000009a FF69          SPM       #0
     726 0000009b 7640!         LCR       #_PerformIsr14        ; |260| 
         0000009c 0000 
     727                      ; call occurs [#_PerformIsr14] ; |260| 
     728 0000009d 87BE          MOVL      XT,*--SP
     729 0000009e C5BE          MOVL      XAR7,*--SP
     730 0000009f C4BE          MOVL      XAR6,*--SP
     731 000000a0 83BE          MOVL      XAR5,*--SP
     732 000000a1 8ABE          MOVL      XAR4,*--SP
     733 000000a2 0003          POP       AR1H:AR0H
     734 000000a3 7617          NASP
     735                      .dwpsn  "setup.c",261,1
     736 000000a4 7602          IRET
     737                      ; return occurs
     738                      .dwattr DW$72, DW_AT_end_file("setup.c")
     739                      .dwattr DW$72, DW_AT_end_line(0x105)
     740                      .dwattr DW$72, DW_AT_end_column(0x01)
     741                      .dwendtag DW$72
     742              
     743 000000a5               .sect   ".text"
     744                      .global _Int9SciRxIntA
     745              
TMS320C2000 COFF Assembler PC v4.1.3 Thu Aug 18 12:16:30 2016

Tools Copyright (c) 1996-2006 Texas Instruments Incorporated
setup.asm                                                            PAGE   17

     746              DW$73   .dwtag  DW_TAG_subprogram, DW_AT_name("Int9SciRxIntA"), DW_AT_symbol_name("_Int9SciRxIntA")
     747                      .dwattr DW$73, DW_AT_low_pc(_Int9SciRxIntA)
     748                      .dwattr DW$73, DW_AT_high_pc(0x00)
     749                      .dwattr DW$73, DW_AT_begin_file("setup.c")
     750                      .dwattr DW$73, DW_AT_begin_line(0x10b)
     751                      .dwattr DW$73, DW_AT_begin_column(0x10)
     752                      .dwattr DW$73, DW_AT_TI_interrupt(0x01)
     753                      .dwattr DW$73, DW_AT_frame_base[DW_OP_breg20 -14]
     754                      .dwattr DW$73, DW_AT_skeletal(0x01)
     755                      .dwpsn  "setup.c",268,1
     756              
     757              ;***************************************************************
     758              ;* FNAME: _Int9SciRxIntA                FR SIZE:  12           *
     759              ;*                                                             *
     760              ;* FUNCTION ENVIRONMENT                                        *
     761              ;*                                                             *
     762              ;* FUNCTION PROPERTIES                                         *
     763              ;*                            0 Parameter,  0 Auto, 12 SOE     *
     764              ;***************************************************************
     765              
     766 000000a5       _Int9SciRxIntA:
     767 000000a5 761B          ASP
     768 000000a6 0005          PUSH      AR1H:AR0H
     769 000000a7 FF69          SPM       0
     770 000000a8 A8BD          MOVL      *SP++,XAR4
     771 000000a9 A0BD          MOVL      *SP++,XAR5
     772 000000aa C2BD          MOVL      *SP++,XAR6
     773 000000ab C3BD          MOVL      *SP++,XAR7
     774 000000ac ABBD          MOVL      *SP++,XT
     775 000000ad 2942          CLRC      PAGE0,OVM
     776 000000ae 5616          CLRC      AMODE
     777 000000af 7623          OR        IER,#0x0100           ; |270| 
         000000b0 0100 
     778 000000b1 7640!         LCR       #_PerformSciRxIntA    ; |271| 
         000000b2 0000 
     779                      ; call occurs [#_PerformSciRxIntA] ; |271| 
     780 000000b3 F5A9          MOV       AL,*(0:0x0ce1)        ; |272| 
         000000b4 0CE1 
     781 000000b5 1AA9          OR        AL,#0x0100            ; |272| 
         000000b6 0100 
     782 000000b7 F4A9          MOV       *(0:0x0ce1),AL        ; |272| 
         000000b8 0CE1 
     783 000000b9 87BE          MOVL      XT,*--SP
     784 000000ba C5BE          MOVL      XAR7,*--SP
     785 000000bb C4BE          MOVL      XAR6,*--SP
     786 000000bc 83BE          MOVL      XAR5,*--SP
     787 000000bd 8ABE          MOVL      XAR4,*--SP
     788 000000be 0003          POP       AR1H:AR0H
     789 000000bf 7617          NASP
     790                      .dwpsn  "setup.c",273,1
     791 000000c0 7602          IRET
     792                      ; return occurs
     793                      .dwattr DW$73, DW_AT_end_file("setup.c")
     794                      .dwattr DW$73, DW_AT_end_line(0x111)
     795                      .dwattr DW$73, DW_AT_end_column(0x01)
TMS320C2000 COFF Assembler PC v4.1.3 Thu Aug 18 12:16:30 2016

Tools Copyright (c) 1996-2006 Texas Instruments Incorporated
setup.asm                                                            PAGE   18

     796                      .dwendtag DW$73
     797              
     798 000000c1               .sect   ".text"
     799                      .global _Int9SciTxIntA
     800              
     801              DW$74   .dwtag  DW_TAG_subprogram, DW_AT_name("Int9SciTxIntA"), DW_AT_symbol_name("_Int9SciTxIntA")
     802                      .dwattr DW$74, DW_AT_low_pc(_Int9SciTxIntA)
     803                      .dwattr DW$74, DW_AT_high_pc(0x00)
     804                      .dwattr DW$74, DW_AT_begin_file("setup.c")
     805                      .dwattr DW$74, DW_AT_begin_line(0x116)
     806                      .dwattr DW$74, DW_AT_begin_column(0x10)
     807                      .dwattr DW$74, DW_AT_TI_interrupt(0x01)
     808                      .dwattr DW$74, DW_AT_frame_base[DW_OP_breg20 -14]
     809                      .dwattr DW$74, DW_AT_skeletal(0x01)
     810                      .dwpsn  "setup.c",279,1
     811              
     812              ;***************************************************************
     813              ;* FNAME: _Int9SciTxIntA                FR SIZE:  12           *
     814              ;*                                                             *
     815              ;* FUNCTION ENVIRONMENT                                        *
     816              ;*                                                             *
     817              ;* FUNCTION PROPERTIES                                         *
     818              ;*                            0 Parameter,  0 Auto, 12 SOE     *
     819              ;***************************************************************
     820              
     821 000000c1       _Int9SciTxIntA:
     822 000000c1 761B          ASP
     823 000000c2 0005          PUSH      AR1H:AR0H
     824 000000c3 FF69          SPM       0
     825 000000c4 A8BD          MOVL      *SP++,XAR4
     826 000000c5 A0BD          MOVL      *SP++,XAR5
     827 000000c6 C2BD          MOVL      *SP++,XAR6
     828 000000c7 C3BD          MOVL      *SP++,XAR7
     829 000000c8 ABBD          MOVL      *SP++,XT
     830 000000c9 2942          CLRC      PAGE0,OVM
     831 000000ca 5616          CLRC      AMODE
     832 000000cb 7623          OR        IER,#0x0100           ; |281| 
         000000cc 0100 
     833 000000cd 7640!         LCR       #_PerformSciTxIntA    ; |282| 
         000000ce 0000 
     834                      ; call occurs [#_PerformSciTxIntA] ; |282| 
     835 000000cf F5A9          MOV       AL,*(0:0x0ce1)        ; |283| 
         000000d0 0CE1 
     836 000000d1 1AA9          OR        AL,#0x0100            ; |283| 
         000000d2 0100 
     837 000000d3 F4A9          MOV       *(0:0x0ce1),AL        ; |283| 
         000000d4 0CE1 
     838 000000d5 87BE          MOVL      XT,*--SP
     839 000000d6 C5BE          MOVL      XAR7,*--SP
     840 000000d7 C4BE          MOVL      XAR6,*--SP
     841 000000d8 83BE          MOVL      XAR5,*--SP
     842 000000d9 8ABE          MOVL      XAR4,*--SP
     843 000000da 0003          POP       AR1H:AR0H
     844 000000db 7617          NASP
     845                      .dwpsn  "setup.c",284,1
TMS320C2000 COFF Assembler PC v4.1.3 Thu Aug 18 12:16:30 2016

Tools Copyright (c) 1996-2006 Texas Instruments Incorporated
setup.asm                                                            PAGE   19

     846 000000dc 7602          IRET
     847                      ; return occurs
     848                      .dwattr DW$74, DW_AT_end_file("setup.c")
     849                      .dwattr DW$74, DW_AT_end_line(0x11c)
     850                      .dwattr DW$74, DW_AT_end_column(0x01)
     851                      .dwendtag DW$74
     852              
     853 000000dd               .sect   ".text"
     854                      .global _Int9SciRxIntB
     855              
     856              DW$75   .dwtag  DW_TAG_subprogram, DW_AT_name("Int9SciRxIntB"), DW_AT_symbol_name("_Int9SciRxIntB")
     857                      .dwattr DW$75, DW_AT_low_pc(_Int9SciRxIntB)
     858                      .dwattr DW$75, DW_AT_high_pc(0x00)
     859                      .dwattr DW$75, DW_AT_begin_file("setup.c")
     860                      .dwattr DW$75, DW_AT_begin_line(0x121)
     861                      .dwattr DW$75, DW_AT_begin_column(0x10)
     862                      .dwattr DW$75, DW_AT_TI_interrupt(0x01)
     863                      .dwattr DW$75, DW_AT_frame_base[DW_OP_breg20 -14]
     864                      .dwattr DW$75, DW_AT_skeletal(0x01)
     865                      .dwpsn  "setup.c",290,1
     866              
     867              ;***************************************************************
     868              ;* FNAME: _Int9SciRxIntB                FR SIZE:  12           *
     869              ;*                                                             *
     870              ;* FUNCTION ENVIRONMENT                                        *
     871              ;*                                                             *
     872              ;* FUNCTION PROPERTIES                                         *
     873              ;*                            0 Parameter,  0 Auto, 12 SOE     *
     874              ;***************************************************************
     875              
     876 000000dd       _Int9SciRxIntB:
     877 000000dd 761B          ASP
     878 000000de 0005          PUSH      AR1H:AR0H
     879 000000df FF69          SPM       0
     880 000000e0 A8BD          MOVL      *SP++,XAR4
     881 000000e1 A0BD          MOVL      *SP++,XAR5
     882 000000e2 C2BD          MOVL      *SP++,XAR6
     883 000000e3 C3BD          MOVL      *SP++,XAR7
     884 000000e4 ABBD          MOVL      *SP++,XT
     885 000000e5 2942          CLRC      PAGE0,OVM
     886 000000e6 5616          CLRC      AMODE
     887 000000e7 7623          OR        IER,#0x0100           ; |292| 
         000000e8 0100 
     888 000000e9 7640!         LCR       #_PerformSciRxIntB    ; |293| 
         000000ea 0000 
     889                      ; call occurs [#_PerformSciRxIntB] ; |293| 
     890 000000eb F5A9          MOV       AL,*(0:0x0ce1)        ; |294| 
         000000ec 0CE1 
     891 000000ed 1AA9          OR        AL,#0x0100            ; |294| 
         000000ee 0100 
     892 000000ef F4A9          MOV       *(0:0x0ce1),AL        ; |294| 
         000000f0 0CE1 
     893 000000f1 87BE          MOVL      XT,*--SP
     894 000000f2 C5BE          MOVL      XAR7,*--SP
     895 000000f3 C4BE          MOVL      XAR6,*--SP
TMS320C2000 COFF Assembler PC v4.1.3 Thu Aug 18 12:16:30 2016

Tools Copyright (c) 1996-2006 Texas Instruments Incorporated
setup.asm                                                            PAGE   20

     896 000000f4 83BE          MOVL      XAR5,*--SP
     897 000000f5 8ABE          MOVL      XAR4,*--SP
     898 000000f6 0003          POP       AR1H:AR0H
     899 000000f7 7617          NASP
     900                      .dwpsn  "setup.c",295,1
     901 000000f8 7602          IRET
     902                      ; return occurs
     903                      .dwattr DW$75, DW_AT_end_file("setup.c")
     904                      .dwattr DW$75, DW_AT_end_line(0x127)
     905                      .dwattr DW$75, DW_AT_end_column(0x01)
     906                      .dwendtag DW$75
     907              
     908 000000f9               .sect   ".text"
     909                      .global _Int9SciTxIntB
     910              
     911              DW$76   .dwtag  DW_TAG_subprogram, DW_AT_name("Int9SciTxIntB"), DW_AT_symbol_name("_Int9SciTxIntB")
     912                      .dwattr DW$76, DW_AT_low_pc(_Int9SciTxIntB)
     913                      .dwattr DW$76, DW_AT_high_pc(0x00)
     914                      .dwattr DW$76, DW_AT_begin_file("setup.c")
     915                      .dwattr DW$76, DW_AT_begin_line(0x12c)
     916                      .dwattr DW$76, DW_AT_begin_column(0x10)
     917                      .dwattr DW$76, DW_AT_TI_interrupt(0x01)
     918                      .dwattr DW$76, DW_AT_frame_base[DW_OP_breg20 -14]
     919                      .dwattr DW$76, DW_AT_skeletal(0x01)
     920                      .dwpsn  "setup.c",301,1
     921              
     922              ;***************************************************************
     923              ;* FNAME: _Int9SciTxIntB                FR SIZE:  12           *
     924              ;*                                                             *
     925              ;* FUNCTION ENVIRONMENT                                        *
     926              ;*                                                             *
     927              ;* FUNCTION PROPERTIES                                         *
     928              ;*                            0 Parameter,  0 Auto, 12 SOE     *
     929              ;***************************************************************
     930              
     931 000000f9       _Int9SciTxIntB:
     932 000000f9 761B          ASP
     933 000000fa 0005          PUSH      AR1H:AR0H
     934 000000fb FF69          SPM       0
     935 000000fc A8BD          MOVL      *SP++,XAR4
     936 000000fd A0BD          MOVL      *SP++,XAR5
     937 000000fe C2BD          MOVL      *SP++,XAR6
     938 000000ff C3BD          MOVL      *SP++,XAR7
     939 00000100 ABBD          MOVL      *SP++,XT
     940 00000101 2942          CLRC      PAGE0,OVM
     941 00000102 5616          CLRC      AMODE
     942 00000103 7623          OR        IER,#0x0100           ; |304| 
         00000104 0100 
     943 00000105 7640!         LCR       #_PerformSciTxIntB    ; |305| 
         00000106 0000 
     944                      ; call occurs [#_PerformSciTxIntB] ; |305| 
     945 00000107 F5A9          MOV       AL,*(0:0x0ce1)        ; |306| 
         00000108 0CE1 
     946 00000109 1AA9          OR        AL,#0x0100            ; |306| 
         0000010a 0100 
TMS320C2000 COFF Assembler PC v4.1.3 Thu Aug 18 12:16:30 2016

Tools Copyright (c) 1996-2006 Texas Instruments Incorporated
setup.asm                                                            PAGE   21

     947 0000010b F4A9          MOV       *(0:0x0ce1),AL        ; |306| 
         0000010c 0CE1 
     948 0000010d 87BE          MOVL      XT,*--SP
     949 0000010e C5BE          MOVL      XAR7,*--SP
     950 0000010f C4BE          MOVL      XAR6,*--SP
     951 00000110 83BE          MOVL      XAR5,*--SP
     952 00000111 8ABE          MOVL      XAR4,*--SP
     953 00000112 0003          POP       AR1H:AR0H
     954 00000113 7617          NASP
     955                      .dwpsn  "setup.c",307,1
     956 00000114 7602          IRET
     957                      ; return occurs
     958                      .dwattr DW$76, DW_AT_end_file("setup.c")
     959                      .dwattr DW$76, DW_AT_end_line(0x133)
     960                      .dwattr DW$76, DW_AT_end_column(0x01)
     961                      .dwendtag DW$76
     962              
     963 00000115               .sect   ".text"
     964                      .global _SetupInterruptsandTimers
     965              
     966              DW$77   .dwtag  DW_TAG_subprogram, DW_AT_name("SetupInterruptsandTimers"), DW_AT_symbol_name("_SetupInterrupt
     967                      .dwattr DW$77, DW_AT_low_pc(_SetupInterruptsandTimers)
     968                      .dwattr DW$77, DW_AT_high_pc(0x00)
     969                      .dwattr DW$77, DW_AT_begin_file("setup.c")
     970                      .dwattr DW$77, DW_AT_begin_line(0x13e)
     971                      .dwattr DW$77, DW_AT_begin_column(0x06)
     972                      .dwattr DW$77, DW_AT_frame_base[DW_OP_breg20 -2]
     973                      .dwattr DW$77, DW_AT_skeletal(0x01)
     974                      .dwpsn  "setup.c",319,1
     975              
     976              ;***************************************************************
     977              ;* FNAME: _SetupInterruptsandTimers     FR SIZE:   0           *
     978              ;*                                                             *
     979              ;* FUNCTION ENVIRONMENT                                        *
     980              ;*                                                             *
     981              ;* FUNCTION PROPERTIES                                         *
     982              ;*                            0 Parameter,  0 Auto,  0 SOE     *
     983              ;***************************************************************
     984              
     985 00000115       _SetupInterruptsandTimers:
     986 00000115 761F!         MOVW      DP,#_settings
         00000116 0000 
     987 00000117 2800!         MOV       @_settings,#1         ; |329| 
         00000118 0001 
     988 00000119 7622   eallow             ; Enable accesses to PIE control registers
     989 0000011a 9A2F          MOVB      AL,#47                ; |333| 
     990 0000011b FF69          SPM       #0
     991 0000011c F4A9          MOV       *(0:0x7029),AL        ; |333| 
         0000011d 7029 
     992 0000011e 7640!         LCR       #_WatchdogKick        ; |338| 
         0000011f 0000 
     993                      ; call occurs [#_WatchdogKick] ; |338| 
     994 00000120 8F4B          MOVL      XAR5,#750000          ; |347| 
         00000121 71B0 
     995 00000122 8F00          MOVL      XAR4,#3072            ; |347| 
TMS320C2000 COFF Assembler PC v4.1.3 Thu Aug 18 12:16:30 2016

Tools Copyright (c) 1996-2006 Texas Instruments Incorporated
setup.asm                                                            PAGE   22

         00000123 0C00 
     996 00000124 A0C4          MOVL      *+XAR4[0],XAR5        ; |347| 
     997 00000125 0200          MOVB      ACC,#0
     998 00000126 A0D4          MOVL      *+XAR4[2],XAR5        ; |348| 
     999 00000127 1EF4          MOVL      *+XAR4[6],ACC         ; |349| 
    1000 00000128 28E4          MOV       *+XAR4[4],#18464      ; |350| 
         00000129 4820 
    1001 0000012a 8F00          MOVL      XAR4,#3080            ; |352| 
         0000012b 0C08 
    1002 0000012c A0C4          MOVL      *+XAR4[0],XAR5        ; |352| 
    1003 0000012d A0D4          MOVL      *+XAR4[2],XAR5        ; |353| 
    1004 0000012e 1EF4          MOVL      *+XAR4[6],ACC         ; |354| 
    1005 0000012f 28E4          MOV       *+XAR4[4],#2080       ; |355| 
         00000130 0820 
    1006 00000131 8F00          MOVL      XAR4,#3088            ; |357| 
         00000132 0C10 
    1007 00000133 A0C4          MOVL      *+XAR4[0],XAR5        ; |357| 
    1008 00000134 A0D4          MOVL      *+XAR4[2],XAR5        ; |358| 
    1009 00000135 1EF4          MOVL      *+XAR4[6],ACC         ; |359| 
    1010 00000136 9A05          MOVB      AL,#5                 ; |363| 
    1011 00000137 28E4          MOV       *+XAR4[4],#2080       ; |360| 
         00000138 0820 
    1012 00000139 F4A9          MOV       *(0:0x7071),AL        ; |363| 
         0000013a 7071 
    1013 0000013b 9AFF          MOVB      AL,#255               ; |364| 
    1014 0000013c F4A9          MOV       *(0:0x70d2),AL        ; |364| 
         0000013d 70D2 
    1015 0000013e 9A01          MOVB      AL,#1                 ; |368| 
    1016 0000013f F4A9          MOV       *(0:0x7077),AL        ; |368| 
         00000140 7077 
    1017 00000141 9A70          MOVB      AL,#112               ; |371| 
    1018 00000142 F4A9          MOV       *(0:0x0ce2),AL        ; |371| 
         00000143 0CE2 
    1019 00000144 9A0F          MOVB      AL,#15                ; |372| 
    1020 00000145 F4A9          MOV       *(0:0x0cf2),AL        ; |372| 
         00000146 0CF2 
    1021 00000147 7700          NOP
    1022 00000148 7700          NOP
    1023 00000149 F5A9          MOV       AL,*(0:0x0ce0)        ; |373| 
         0000014a 0CE0 
    1024 0000014b 5001          ORB       AL,#0x01              ; |373| 
    1025 0000014c F4A9          MOV       *(0:0x0ce0),AL        ; |373| 
         0000014d 0CE0 
    1026 0000014e 761A   edis               ; Disable accesses to PIE control registers
    1027 0000014f 7623          OR        IER,#0x0101           ; |382| 
         00000150 0101 
    1028 00000151 2910   clrc INTM                   ; Enable global interrupts
    1029 00000152 8F00!         MOVL      XAR4,#_timers         ; |397| 
         00000153 0000 
    1030                      .dwpsn  "setup.c",395,0
    1031 00000154 D000          MOVB      XAR0,#0
    1032              L4:    
    1033              DW$L$_SetupInterruptsandTimers$2$B:
    1034                      .dwpsn  "setup.c",396,0
    1035 00000155 2B94          MOV       *+XAR4[AR0],#0        ; |397| 
TMS320C2000 COFF Assembler PC v4.1.3 Thu Aug 18 12:16:30 2016

Tools Copyright (c) 1996-2006 Texas Instruments Incorporated
setup.asm                                                            PAGE   23

    1036 00000156 D801          ADDB      XAR0,#1               ; |395| 
    1037 00000157 92A0          MOV       AL,AR0                ; |395| 
    1038 00000158 524C          CMPB      AL,#76                ; |395| 
    1039                      .dwpsn  "setup.c",398,0
    1040 00000159 56C8          BF        L4,LO                 ; |395| 
         0000015a FFFC 
    1041                      ; branchcc occurs ; |395| 
    1042 0000015b       DW$L$_SetupInterruptsandTimers$2$E:
    1043 0000015b FF69          SPM       #0
    1044 0000015c 761F!         MOVW      DP,#_timers+42
         0000015d 0000 
    1045 0000015e 282A!         MOV       @_timers+42,#200      ; |400| 
         0000015f 00C8 
    1046 00000160 761F!         MOVW      DP,#_timers+66
         00000161 0001 
    1047 00000162 2802!         MOV       @_timers+66,#1000     ; |402| 
         00000163 03E8 
    1048 00000164 761F!         MOVW      DP,#_settings
         00000165 0000 
    1049 00000166 2800!         MOV       @_settings,#1         ; |404| 
         00000167 0001 
    1050                      .dwpsn  "setup.c",406,1
    1051 00000168 0006          LRETR
    1052                      ; return occurs
    1053              
    1054              DW$78   .dwtag  DW_TAG_loop
    1055                      .dwattr DW$78, DW_AT_name("D:\DEV\Amot\BearingWear\XTSW_V6_20\setup.asm:L4:1:1471518990")
    1056                      .dwattr DW$78, DW_AT_begin_file("setup.c")
    1057                      .dwattr DW$78, DW_AT_begin_line(0x18b)
    1058                      .dwattr DW$78, DW_AT_end_line(0x18e)
    1059              DW$79   .dwtag  DW_TAG_loop_range
    1060                      .dwattr DW$79, DW_AT_low_pc(DW$L$_SetupInterruptsandTimers$2$B)
    1061                      .dwattr DW$79, DW_AT_high_pc(DW$L$_SetupInterruptsandTimers$2$E)
    1062                      .dwendtag DW$78
    1063              
    1064                      .dwattr DW$77, DW_AT_end_file("setup.c")
    1065                      .dwattr DW$77, DW_AT_end_line(0x196)
    1066                      .dwattr DW$77, DW_AT_end_column(0x01)
    1067                      .dwendtag DW$77
    1068              
    1069 00000169               .sect   ".text"
    1070                      .global _SetupPIEVectors
    1071              
    1072              DW$80   .dwtag  DW_TAG_subprogram, DW_AT_name("SetupPIEVectors"), DW_AT_symbol_name("_SetupPIEVectors")
    1073                      .dwattr DW$80, DW_AT_low_pc(_SetupPIEVectors)
    1074                      .dwattr DW$80, DW_AT_high_pc(0x00)
    1075                      .dwattr DW$80, DW_AT_begin_file("setup.c")
    1076                      .dwattr DW$80, DW_AT_begin_line(0x199)
    1077                      .dwattr DW$80, DW_AT_begin_column(0x06)
    1078                      .dwattr DW$80, DW_AT_frame_base[DW_OP_breg20 -4]
    1079                      .dwattr DW$80, DW_AT_skeletal(0x01)
    1080                      .dwpsn  "setup.c",410,1
    1081              
    1082              ;***************************************************************
    1083              ;* FNAME: _SetupPIEVectors              FR SIZE:   2           *
TMS320C2000 COFF Assembler PC v4.1.3 Thu Aug 18 12:16:30 2016

Tools Copyright (c) 1996-2006 Texas Instruments Incorporated
setup.asm                                                            PAGE   24

    1084              ;*                                                             *
    1085              ;* FUNCTION ENVIRONMENT                                        *
    1086              ;*                                                             *
    1087              ;* FUNCTION PROPERTIES                                         *
    1088              ;*                            0 Parameter,  1 Auto,  0 SOE     *
    1089              ;***************************************************************
    1090              
    1091 00000169       _SetupPIEVectors:
    1092 00000169 FE02          ADDB      SP,#2
    1093 0000016a 8F00          MOVL      XAR4,#3330            ; |413| 
         0000016b 0D02 
    1094 0000016c 8F40+         MOVL      XAR5,#_vec            ; |412| 
         0000016d 0000 
    1095 0000016e 7622   eallow             ; Enable accesses to PIE control registers
    1096 0000016f 2B41          MOV       *-SP[1],#0            ; |416| 
    1097 00000170 9241          MOV       AL,*-SP[1]            ; |416| 
    1098 00000171 52D2          CMPB      AL,#210               ; |416| 
    1099 00000172 56C7          BF        L6,HIS                ; |416| 
         00000173 0009 
    1100                      ; branchcc occurs ; |416| 
    1101              L5:    
    1102              DW$L$_SetupPIEVectors$2$B:
    1103                      .dwpsn  "setup.c",417,0
    1104 00000174 0685          MOVL      ACC,*XAR5++           ; |417| 
    1105 00000175 1E84          MOVL      *XAR4++,ACC           ; |417| 
    1106 00000176 0A41          INC       *-SP[1]               ; |416| 
    1107 00000177 9241          MOV       AL,*-SP[1]            ; |416| 
    1108 00000178 52D2          CMPB      AL,#210               ; |416| 
    1109 00000179 56C8          BF        L5,LO                 ; |416| 
         0000017a FFFB 
    1110                      ; branchcc occurs ; |416| 
    1111 0000017b       DW$L$_SetupPIEVectors$2$E:
    1112 0000017b       L6:    
    1113 0000017b 761A   edis               ; Disable accesses to PIE control registers
    1114 0000017c FF69          SPM       #0
    1115 0000017d FE82          SUBB      SP,#2
    1116                      .dwpsn  "setup.c",419,1
    1117 0000017e 0006          LRETR
    1118                      ; return occurs
    1119              
    1120              DW$81   .dwtag  DW_TAG_loop
    1121                      .dwattr DW$81, DW_AT_name("D:\DEV\Amot\BearingWear\XTSW_V6_20\setup.asm:L5:1:1471518990")
    1122                      .dwattr DW$81, DW_AT_begin_file("setup.c")
    1123                      .dwattr DW$81, DW_AT_begin_line(0x1a0)
    1124                      .dwattr DW$81, DW_AT_end_line(0x1a1)
    1125              DW$82   .dwtag  DW_TAG_loop_range
    1126                      .dwattr DW$82, DW_AT_low_pc(DW$L$_SetupPIEVectors$2$B)
    1127                      .dwattr DW$82, DW_AT_high_pc(DW$L$_SetupPIEVectors$2$E)
    1128                      .dwendtag DW$81
    1129              
    1130                      .dwattr DW$80, DW_AT_end_file("setup.c")
    1131                      .dwattr DW$80, DW_AT_end_line(0x1a3)
    1132                      .dwattr DW$80, DW_AT_end_column(0x01)
    1133                      .dwendtag DW$80
    1134              
TMS320C2000 COFF Assembler PC v4.1.3 Thu Aug 18 12:16:30 2016

Tools Copyright (c) 1996-2006 Texas Instruments Incorporated
setup.asm                                                            PAGE   25

    1135 0000017f               .sect   ".text"
    1136                      .global _TimingSetup
    1137              
    1138              DW$83   .dwtag  DW_TAG_subprogram, DW_AT_name("TimingSetup"), DW_AT_symbol_name("_TimingSetup")
    1139                      .dwattr DW$83, DW_AT_low_pc(_TimingSetup)
    1140                      .dwattr DW$83, DW_AT_high_pc(0x00)
    1141                      .dwattr DW$83, DW_AT_begin_file("setup.c")
    1142                      .dwattr DW$83, DW_AT_begin_line(0x1a6)
    1143                      .dwattr DW$83, DW_AT_begin_column(0x06)
    1144                      .dwattr DW$83, DW_AT_frame_base[DW_OP_breg20 -2]
    1145                      .dwattr DW$83, DW_AT_skeletal(0x01)
    1146                      .dwpsn  "setup.c",423,1
    1147              
    1148              ;***************************************************************
    1149              ;* FNAME: _TimingSetup                  FR SIZE:   0           *
    1150              ;*                                                             *
    1151              ;* FUNCTION ENVIRONMENT                                        *
    1152              ;*                                                             *
    1153              ;* FUNCTION PROPERTIES                                         *
    1154              ;*                            0 Parameter,  0 Auto,  0 SOE     *
    1155              ;***************************************************************
    1156              
    1157 0000017f       _TimingSetup:
    1158 0000017f 7622   eallow             ; Enable accesses to PIE control registers
    1159 00000180 F5A9          MOV       AL,*(0:0x0b34)        ; |432| 
         00000181 0B34 
    1160 00000182 5008          ORB       AL,#0x08              ; |432| 
    1161 00000183 BE00          MOVB      XAR6,#0
    1162 00000184 F4A9          MOV       *(0:0x0b34),AL        ; |432| 
         00000185 0B34 
    1163 00000186 9A0A          MOVB      AL,#10                ; |433| 
    1164                      .dwpsn  "setup.c",440,0
    1165 00000187 F4A9          MOV       *(0:0x7021),AL        ; |433| 
         00000188 7021 
    1166              L7:    
    1167              DW$L$_TimingSetup$2$B:
    1168                      .dwpsn  "setup.c",441,0
    1169 00000189 9A55          MOVB      AL,#85                ; |442| 
    1170 0000018a F4A9          MOV       *(0:0x7025),AL        ; |442| 
         0000018b 7025 
    1171 0000018c 9AAA          MOVB      AL,#170               ; |443| 
    1172 0000018d F4A9          MOV       *(0:0x7025),AL        ; |443| 
         0000018e 7025 
    1173 0000018f 06A6          MOVL      ACC,XAR6              ; |443| 
    1174 00000190 0901          ADDB      ACC,#1                ; |440| 
    1175 00000191 1EA6          MOVL      XAR6,ACC              ; |440| 
    1176 00000192 FF20          MOV       ACC,#9362             ; |440| 
         00000193 2492 
    1177 00000194 0FA6          CMPL      ACC,XAR6              ; |440| 
    1178                      .dwpsn  "setup.c",444,0
    1179 00000195 56C2          BF        L7,GT                 ; |440| 
         00000196 FFF4 
    1180                      ; branchcc occurs ; |440| 
    1181 00000197       DW$L$_TimingSetup$2$E:
    1182 00000197 8F00          MOVL      XAR4,#2848            ; |447| 
TMS320C2000 COFF Assembler PC v4.1.3 Thu Aug 18 12:16:30 2016

Tools Copyright (c) 1996-2006 Texas Instruments Incorporated
setup.asm                                                            PAGE   26

         00000198 0B20 
    1183 00000199 18C4          AND       *+XAR4[0],#49151      ; |447| 
         0000019a BFFF 
    1184 0000019b 8F00          MOVL      XAR4,#2850            ; |448| 
         0000019c 0B22 
    1185 0000019d 18C4          AND       *+XAR4[0],#49151      ; |448| 
         0000019e BFFF 
    1186 0000019f 8F00          MOVL      XAR4,#2852            ; |457| 
         000001a0 0B24 
    1187 000001a1 8F43          MOVL      XAR5,#201252          ; |457| 
         000001a2 1224 
    1188 000001a3 A0C4          MOVL      *+XAR4[0],XAR5        ; |457| 
    1189 000001a4 8F00          MOVL      XAR4,#2860            ; |459| 
         000001a5 0B2C 
    1190 000001a6 18C4          AND       *+XAR4[0],#49151      ; |459| 
         000001a7 BFFF 
    1191 000001a8 8F00          MOVL      XAR4,#2862            ; |460| 
         000001a9 0B2E 
    1192 000001aa 18C4          AND       *+XAR4[0],#49151      ; |460| 
         000001ab BFFF 
    1193 000001ac 9A3E          MOVB      AL,#62                ; |461| 
    1194 000001ad F4A9          MOV       *(0:0x0b38),AL        ; |461| 
         000001ae 0B38 
    1195 000001af 7700          NOP
    1196 000001b0 761A   edis               ; Disable accesses to PIE control registers
    1197 000001b1 FF69          SPM       #0
    1198                      .dwpsn  "setup.c",463,1
    1199 000001b2 0006          LRETR
    1200                      ; return occurs
    1201              
    1202              DW$84   .dwtag  DW_TAG_loop
    1203                      .dwattr DW$84, DW_AT_name("D:\DEV\Amot\BearingWear\XTSW_V6_20\setup.asm:L7:1:1471518990")
    1204                      .dwattr DW$84, DW_AT_begin_file("setup.c")
    1205                      .dwattr DW$84, DW_AT_begin_line(0x1b8)
    1206                      .dwattr DW$84, DW_AT_end_line(0x1bc)
    1207              DW$85   .dwtag  DW_TAG_loop_range
    1208                      .dwattr DW$85, DW_AT_low_pc(DW$L$_TimingSetup$2$B)
    1209                      .dwattr DW$85, DW_AT_high_pc(DW$L$_TimingSetup$2$E)
    1210                      .dwendtag DW$84
    1211              
    1212                      .dwattr DW$83, DW_AT_end_file("setup.c")
    1213                      .dwattr DW$83, DW_AT_end_line(0x1cf)
    1214                      .dwattr DW$83, DW_AT_end_column(0x01)
    1215                      .dwendtag DW$83
    1216              
    1217 000001b3               .sect   ".text"
    1218                      .global _FlashSetup
    1219              
    1220              DW$86   .dwtag  DW_TAG_subprogram, DW_AT_name("FlashSetup"), DW_AT_symbol_name("_FlashSetup")
    1221                      .dwattr DW$86, DW_AT_low_pc(_FlashSetup)
    1222                      .dwattr DW$86, DW_AT_high_pc(0x00)
    1223                      .dwattr DW$86, DW_AT_begin_file("setup.c")
    1224                      .dwattr DW$86, DW_AT_begin_line(0x1d3)
    1225                      .dwattr DW$86, DW_AT_begin_column(0x06)
    1226                      .dwattr DW$86, DW_AT_frame_base[DW_OP_breg20 -2]
TMS320C2000 COFF Assembler PC v4.1.3 Thu Aug 18 12:16:30 2016

Tools Copyright (c) 1996-2006 Texas Instruments Incorporated
setup.asm                                                            PAGE   27

    1227                      .dwattr DW$86, DW_AT_skeletal(0x01)
    1228                      .dwpsn  "setup.c",468,1
    1229              
    1230              ;***************************************************************
    1231              ;* FNAME: _FlashSetup                   FR SIZE:   0           *
    1232              ;*                                                             *
    1233              ;* FUNCTION ENVIRONMENT                                        *
    1234              ;*                                                             *
    1235              ;* FUNCTION PROPERTIES                                         *
    1236              ;*                            0 Parameter,  0 Auto,  0 SOE     *
    1237              ;***************************************************************
    1238              
    1239 000001b3       _FlashSetup:
    1240 000001b3 7622   eallow             ; Enable accesses to PIE control registers
    1241 000001b4 F5A9          MOV       AL,*(0:0x0a80)        ; |470| 
         000001b5 0A80 
    1242 000001b6 5001          ORB       AL,#0x01              ; |470| 
    1243 000001b7 F4A9          MOV       *(0:0x0a80),AL        ; |470| 
         000001b8 0A80 
    1244 000001b9 7700          NOP
    1245 000001ba 761A   edis               ; Disable accesses to PIE control registers
    1246 000001bb FF69          SPM       #0
    1247                      .dwpsn  "setup.c",472,1
    1248 000001bc 0006          LRETR
    1249                      ; return occurs
    1250                      .dwattr DW$86, DW_AT_end_file("setup.c")
    1251                      .dwattr DW$86, DW_AT_end_line(0x1d8)
    1252                      .dwattr DW$86, DW_AT_end_column(0x01)
    1253                      .dwendtag DW$86
    1254              
    1255 000001bd               .sect   ".text"
    1256                      .global _InternalRamSetup
    1257              
    1258              DW$87   .dwtag  DW_TAG_subprogram, DW_AT_name("InternalRamSetup"), DW_AT_symbol_name("_InternalRamSetup")
    1259                      .dwattr DW$87, DW_AT_low_pc(_InternalRamSetup)
    1260                      .dwattr DW$87, DW_AT_high_pc(0x00)
    1261                      .dwattr DW$87, DW_AT_begin_file("setup.c")
    1262                      .dwattr DW$87, DW_AT_begin_line(0x1da)
    1263                      .dwattr DW$87, DW_AT_begin_column(0x06)
    1264                      .dwattr DW$87, DW_AT_frame_base[DW_OP_breg20 -2]
    1265                      .dwattr DW$87, DW_AT_skeletal(0x01)
    1266                      .dwpsn  "setup.c",475,1
    1267              
    1268              ;***************************************************************
    1269              ;* FNAME: _InternalRamSetup             FR SIZE:   0           *
    1270              ;*                                                             *
    1271              ;* FUNCTION ENVIRONMENT                                        *
    1272              ;*                                                             *
    1273              ;* FUNCTION PROPERTIES                                         *
    1274              ;*                            0 Parameter,  0 Auto,  0 SOE     *
    1275              ;***************************************************************
    1276              
    1277 000001bd       _InternalRamSetup:
    1278 000001bd 7622   eallow             ; Enable accesses to PIE control registers
    1279 000001be 28A9          MOV       AL,#768               ; |477| 
TMS320C2000 COFF Assembler PC v4.1.3 Thu Aug 18 12:16:30 2016

Tools Copyright (c) 1996-2006 Texas Instruments Incorporated
setup.asm                                                            PAGE   28

         000001bf 0300 
    1280 000001c0 F4A9          MOV       *(0:0x0950),AL        ; |477| 
         000001c1 0950 
    1281 000001c2 F4A9          MOV       *(0:0x0951),AL        ; |478| 
         000001c3 0951 
    1282 000001c4 F4A9          MOV       *(0:0x0952),AL        ; |479| 
         000001c5 0952 
    1283 000001c6 F4A9          MOV       *(0:0x0953),AL        ; |480| 
         000001c7 0953 
    1284 000001c8 F4A9          MOV       *(0:0x0954),AL        ; |481| 
         000001c9 0954 
    1285 000001ca 7700          NOP
    1286 000001cb 761A   edis               ; Disable accesses to PIE control registers
    1287 000001cc FF69          SPM       #0
    1288                      .dwpsn  "setup.c",483,1
    1289 000001cd 0006          LRETR
    1290                      ; return occurs
    1291                      .dwattr DW$87, DW_AT_end_file("setup.c")
    1292                      .dwattr DW$87, DW_AT_end_line(0x1e3)
    1293                      .dwattr DW$87, DW_AT_end_column(0x01)
    1294                      .dwendtag DW$87
    1295              
    1296 000001ce               .sect   ".text"
    1297                      .global _AllSensorInit
    1298              
    1299              DW$88   .dwtag  DW_TAG_subprogram, DW_AT_name("AllSensorInit"), DW_AT_symbol_name("_AllSensorInit")
    1300                      .dwattr DW$88, DW_AT_low_pc(_AllSensorInit)
    1301                      .dwattr DW$88, DW_AT_high_pc(0x00)
    1302                      .dwattr DW$88, DW_AT_begin_file("setup.c")
    1303                      .dwattr DW$88, DW_AT_begin_line(0x1e6)
    1304                      .dwattr DW$88, DW_AT_begin_column(0x06)
    1305                      .dwattr DW$88, DW_AT_frame_base[DW_OP_breg20 -2]
    1306                      .dwattr DW$88, DW_AT_skeletal(0x01)
    1307                      .dwpsn  "setup.c",487,1
    1308              
    1309              ;***************************************************************
    1310              ;* FNAME: _AllSensorInit                FR SIZE:   0           *
    1311              ;*                                                             *
    1312              ;* FUNCTION ENVIRONMENT                                        *
    1313              ;*                                                             *
    1314              ;* FUNCTION PROPERTIES                                         *
    1315              ;*                            0 Parameter,  0 Auto,  0 SOE     *
    1316              ;***************************************************************
    1317              
    1318 000001ce       _AllSensorInit:
    1319 000001ce 761F!         MOVW      DP,#_allsensors+16
         000001cf 0000 
    1320 000001d0 1810!         AND       @_allsensors+16,#0xfffe ; |488| 
         000001d1 FFFE 
    1321 000001d2 761F!         MOVW      DP,#_allsensors+17
         000001d3 0000 
    1322 000001d4 2B11!         MOV       @_allsensors+17,#0    ; |489| 
    1323 000001d5 761F!         MOVW      DP,#_allsensors+18
         000001d6 0000 
    1324 000001d7 2B12!         MOV       @_allsensors+18,#0    ; |490| 
TMS320C2000 COFF Assembler PC v4.1.3 Thu Aug 18 12:16:30 2016

Tools Copyright (c) 1996-2006 Texas Instruments Incorporated
setup.asm                                                            PAGE   29

    1325 000001d8 761F!         MOVW      DP,#_allsensors+19
         000001d9 0000 
    1326 000001da 2813!         MOV       @_allsensors+19,#60   ; |491| 
         000001db 003C 
    1327                      .dwpsn  "setup.c",492,1
    1328 000001dc 0006          LRETR
    1329                      ; return occurs
    1330                      .dwattr DW$88, DW_AT_end_file("setup.c")
    1331                      .dwattr DW$88, DW_AT_end_line(0x1ec)
    1332                      .dwattr DW$88, DW_AT_end_column(0x01)
    1333                      .dwendtag DW$88
    1334              
    1335 000001dd               .sect   ".text"
    1336                      .global _SetupDefaultSettings
    1337              
    1338              DW$89   .dwtag  DW_TAG_subprogram, DW_AT_name("SetupDefaultSettings"), DW_AT_symbol_name("_SetupDefaultSettin
    1339                      .dwattr DW$89, DW_AT_low_pc(_SetupDefaultSettings)
    1340                      .dwattr DW$89, DW_AT_high_pc(0x00)
    1341                      .dwattr DW$89, DW_AT_begin_file("setup.c")
    1342                      .dwattr DW$89, DW_AT_begin_line(0x203)
    1343                      .dwattr DW$89, DW_AT_begin_column(0x06)
    1344                      .dwattr DW$89, DW_AT_frame_base[DW_OP_breg20 -2]
    1345                      .dwattr DW$89, DW_AT_skeletal(0x01)
    1346                      .dwpsn  "setup.c",516,1
    1347              
    1348              ;***************************************************************
    1349              ;* FNAME: _SetupDefaultSettings         FR SIZE:   0           *
    1350              ;*                                                             *
    1351              ;* FUNCTION ENVIRONMENT                                        *
    1352              ;*                                                             *
    1353              ;* FUNCTION PROPERTIES                                         *
    1354              ;*                            0 Parameter,  0 Auto,  0 SOE     *
    1355              ;***************************************************************
    1356              
    1357 000001dd       _SetupDefaultSettings:
    1358 000001dd 761F!         MOVW      DP,#_allsensors
         000001de 0000 
    1359 000001df 2B00!         MOV       @_allsensors,#0       ; |520| 
    1360 000001e0 761F!         MOVW      DP,#_allsensors+1
         000001e1 0000 
    1361 000001e2 2B01!         MOV       @_allsensors+1,#0     ; |522| 
    1362 000001e3 9A32          MOVB      AL,#50                ; |528| 
    1363 000001e4 761F!         MOVW      DP,#_allsensors+2
         000001e5 0000 
    1364 000001e6 2B02!         MOV       @_allsensors+2,#0     ; |523| 
    1365 000001e7 761F!         MOVW      DP,#_allsensors+3
         000001e8 0000 
    1366 000001e9 8F40!         MOVL      XAR5,#_allsensors     ; |543| 
         000001ea 0000 
    1367 000001eb 2803!         MOV       @_allsensors+3,#100   ; |524| 
         000001ec 0064 
    1368 000001ed 761F!         MOVW      DP,#_allsensors+4
         000001ee 0000 
    1369 000001ef 2804!         MOV       @_allsensors+4,#20    ; |525| 
         000001f0 0014 
TMS320C2000 COFF Assembler PC v4.1.3 Thu Aug 18 12:16:30 2016

Tools Copyright (c) 1996-2006 Texas Instruments Incorporated
setup.asm                                                            PAGE   30

    1370 000001f1 761F!         MOVW      DP,#_allsensors+5
         000001f2 0000 
    1371 000001f3 2805!         MOV       @_allsensors+5,#110   ; |526| 
         000001f4 006E 
    1372 000001f5 761F!         MOVW      DP,#_allsensors+6
         000001f6 0000 
    1373 000001f7 2806!         MOV       @_allsensors+6,#10    ; |527| 
         000001f8 000A 
    1374 000001f9 761F!         MOVW      DP,#_allsensors+7
         000001fa 0000 
    1375 000001fb 9607!         MOV       @_allsensors+7,AL     ; |528| 
    1376 000001fc 761F!         MOVW      DP,#_allsensors+8
         000001fd 0000 
    1377 000001fe 9608!         MOV       @_allsensors+8,AL     ; |529| 
    1378 000001ff 761F!         MOVW      DP,#_allsensors+10
         00000200 0000 
    1379 00000201 280A!         MOV       @_allsensors+10,#500  ; |531| 
         00000202 01F4 
    1380 00000203 761F!         MOVW      DP,#_allsensors+14
         00000204 0000 
    1381 00000205 280E!         MOV       @_allsensors+14,#400  ; |532| 
         00000206 0190 
    1382 00000207 761F!         MOVW      DP,#_allsensors+15
         00000208 0000 
    1383 00000209 280F!         MOV       @_allsensors+15,#300  ; |533| 
         0000020a 012C 
    1384 0000020b 761F!         MOVW      DP,#_allsensors+9
         0000020c 0000 
    1385 0000020d 2809!         MOV       @_allsensors+9,#700   ; |534| 
         0000020e 02BC 
    1386 0000020f 761F!         MOVW      DP,#_allsensors+13
         00000210 0000 
    1387 00000211 280D!         MOV       @_allsensors+13,#500  ; |535| 
         00000212 01F4 
    1388 00000213 761F!         MOVW      DP,#_allsensors+40
         00000214 0000 
    1389 00000215 2828!         MOV       @_allsensors+40,#800  ; |537| 
         00000216 0320 
    1390 00000217 761F!         MOVW      DP,#_allsensors+12
         00000218 0000 
    1391 00000219 280C!         MOV       @_allsensors+12,#500  ; |538| 
         0000021a 01F4 
    1392 0000021b 0210          MOVB      ACC,#16
    1393 0000021c 761F!         MOVW      DP,#_allsensors+41
         0000021d 0000 
    1394 0000021e 2829!         MOV       @_allsensors+41,#400  ; |539| 
         0000021f 0190 
    1395 00000220 07A5          ADDL      ACC,XAR5
    1396 00000221 761F!         MOVW      DP,#_allsensors+39
         00000222 0000 
    1397 00000223 2827!         MOV       @_allsensors+39,#900  ; |540| 
         00000224 0384 
    1398 00000225 8AA9          MOVL      XAR4,ACC              ; |543| 
    1399 00000226 761F!         MOVW      DP,#_allsensors+11
         00000227 0000 
TMS320C2000 COFF Assembler PC v4.1.3 Thu Aug 18 12:16:30 2016

Tools Copyright (c) 1996-2006 Texas Instruments Incorporated
setup.asm                                                            PAGE   31

    1400 00000228 280B!         MOV       @_allsensors+11,#700  ; |541| 
         00000229 02BC 
    1401 0000022a 761F!         MOVW      DP,#_allsensors+19
         0000022b 0000 
    1402 0000022c 18C4          AND       *+XAR4[0],#0xfff9     ; |543| 
         0000022d FFF9 
    1403 0000022e 2813!         MOV       @_allsensors+19,#60   ; |545| 
         0000022f 003C 
    1404 00000230 761F!         MOVW      DP,#_allsensors+17
         00000231 0000 
    1405 00000232 2B11!         MOV       @_allsensors+17,#0    ; |546| 
    1406 00000233 9A12          MOVB      AL,#18                ; |548| 
    1407 00000234 761F!         MOVW      DP,#_allsensors+18
         00000235 0000 
    1408 00000236 2B12!         MOV       @_allsensors+18,#0    ; |547| 
    1409 00000237 761F!         MOVW      DP,#_allsensors+37
         00000238 0000 
    1410 00000239 9625!         MOV       @_allsensors+37,AL    ; |548| 
    1411 0000023a 761F!         MOVW      DP,#_allsensors+38
         0000023b 0000 
    1412 0000023c 9626!         MOV       @_allsensors+38,AL    ; |549| 
    1413 0000023d 761F!         MOVW      DP,#_allsensors+20
         0000023e 0000 
    1414 0000023f 2B14!         MOV       @_allsensors+20,#0    ; |550| 
    1415 00000240 761F!         MOVW      DP,#_allsensors+36
         00000241 0000 
    1416 00000242 2824!         MOV       @_allsensors+36,#250  ; |551| 
         00000243 00FA 
    1417 00000244 761F!         MOVW      DP,#_allsensors+35
         00000245 0000 
    1418 00000246 2823!         MOV       @_allsensors+35,#360  ; |552| 
         00000247 0168 
    1419 00000248 022A          MOVB      ACC,#42
    1420 00000249 761F!         MOVW      DP,#_allsensors+43
         0000024a 0000 
    1421 0000024b 07A5          ADDL      ACC,XAR5
    1422 0000024c 2B2B!         MOV       @_allsensors+43,#0    ; |554| 
    1423 0000024d 8AA9          MOVL      XAR4,ACC              ; |558| 
    1424 0000024e 761F!         MOVW      DP,#_allsensors+44
         0000024f 0000 
    1425 00000250 2B2C!         MOV       @_allsensors+44,#0    ; |555| 
    1426 00000251 761F!         MOVW      DP,#_prewarn+168
         00000252 0002 
    1427 00000253 18C4          AND       *+XAR4[0],#0xfffe     ; |558| 
         00000254 FFFE 
    1428 00000255 2B28!         MOV       @_prewarn+168,#0      ; |560| 
    1429 00000256 9A00          MOVB      AL,#0
    1430                      .dwpsn  "setup.c",562,0
    1431 00000257 3B01          SETC      SXM
    1432 00000258       L8:    
    1433 00000258       DW$L$_SetupDefaultSettings$2$B:
    1434 00000258 85A9          MOV       ACC,AL                ; |562| 
    1435 00000259 8F00!         MOVL      XAR4,#_allsensors+21  ; |562| 
         0000025a 0015 
    1436 0000025b 5601          ADDL      XAR4,ACC
TMS320C2000 COFF Assembler PC v4.1.3 Thu Aug 18 12:16:30 2016

Tools Copyright (c) 1996-2006 Texas Instruments Incorporated
setup.asm                                                            PAGE   32

         0000025c 00A4 
    1437 0000025d 9C01          ADDB      AL,#1                 ; |562| 
    1438 0000025e 520E          CMPB      AL,#14                ; |562| 
    1439 0000025f 2BC4          MOV       *+XAR4[0],#0          ; |562| 
    1440 00000260 56C4          BF        L8,LT                 ; |562| 
         00000261 FFF8 
    1441                      ; branchcc occurs ; |562| 
    1442 00000262       DW$L$_SetupDefaultSettings$2$E:
    1443 00000262 761F!         MOVW      DP,#_config+5
         00000263 0000 
    1444 00000264 2805!         MOV       @_config+5,#3300      ; |564| 
         00000265 0CE4 
    1445 00000266 761F!         MOVW      DP,#_safe2+8
         00000267 0000 
    1446 00000268 2808!         MOV       @_safe2+8,#3300       ; |565| 
         00000269 0CE4 
    1447 0000026a 28A9          MOV       AL,#1000              ; |569| 
         0000026b 03E8 
    1448 0000026c 761F!         MOVW      DP,#_config+1
         0000026d 0000 
    1449 0000026e 2801!         MOV       @_config+1,#7         ; |566| 
         0000026f 0007 
    1450 00000270 761F!         MOVW      DP,#_config+2
         00000271 0000 
    1451 00000272 8F00!         MOVL      XAR4,#_speedcompcoeffs+2 ; |576| 
         00000273 0002 
    1452 00000274 2802!         MOV       @_config+2,#110       ; |567| 
         00000275 006E 
    1453 00000276 761F!         MOVW      DP,#_config
         00000277 0000 
    1454 00000278 2800!         MOV       @_config,#500         ; |568| 
         00000279 01F4 
    1455 0000027a 761F!         MOVW      DP,#_config+3
         0000027b 0000 
    1456 0000027c 9603!         MOV       @_config+3,AL         ; |569| 
    1457 0000027d 761F!         MOVW      DP,#_safe1
         0000027e 0000 
    1458 0000027f 9600!         MOV       @_safe1,AL            ; |569| 
    1459 00000280 761F!         MOVW      DP,#_config+4
         00000281 0000 
    1460 00000282 28A9          MOV       AL,#500               ; |570| 
         00000283 01F4 
    1461 00000284 9604!         MOV       @_config+4,AL         ; |570| 
    1462 00000285 761F!         MOVW      DP,#_safe1+1
         00000286 0000 
    1463 00000287 9601!         MOV       @_safe1+1,AL          ; |570| 
    1464 00000288 761F!         MOVW      DP,#_config+6
         00000289 0000 
    1465 0000028a 2806!         MOV       @_config+6,#10        ; |571| 
         0000028b 000A 
    1466 0000028c 761F!         MOVW      DP,#_config+7
         0000028d 0000 
    1467 0000028e 2807!         MOV       @_config+7,#60        ; |572| 
         0000028f 003C 
    1468 00000290 761F!         MOVW      DP,#_speedcompcoeffs
TMS320C2000 COFF Assembler PC v4.1.3 Thu Aug 18 12:16:30 2016

Tools Copyright (c) 1996-2006 Texas Instruments Incorporated
setup.asm                                                            PAGE   33

         00000291 0000 
    1469 00000292 2B00!         MOV       @_speedcompcoeffs,#0  ; |574| 
    1470 00000293 761F!         MOVW      DP,#_speedcompcoeffs+1
         00000294 0000 
    1471 00000295 2B01!         MOV       @_speedcompcoeffs+1,#0 ; |575| 
    1472 00000296 28C4          MOV       *+XAR4[0],#20         ; |576| 
         00000297 0014 
    1473 00000298 28CC          MOV       *+XAR4[1],#34         ; |577| 
         00000299 0022 
    1474 0000029a 28D4          MOV       *+XAR4[2],#54         ; |578| 
         0000029b 0036 
    1475 0000029c 28DC          MOV       *+XAR4[3],#67         ; |579| 
         0000029d 0043 
    1476 0000029e 761F!         MOVW      DP,#_speedcompcoeffs+8
         0000029f 0000 
    1477 000002a0 28E4          MOV       *+XAR4[4],#87         ; |580| 
         000002a1 0057 
    1478 000002a2 28EC          MOV       *+XAR4[5],#100        ; |581| 
         000002a3 0064 
    1479 000002a4 2808!         MOV       @_speedcompcoeffs+8,#150 ; |583| 
         000002a5 0096 
    1480 000002a6 761F!         MOVW      DP,#_speedcompcoeffs+9
         000002a7 0000 
    1481 000002a8 2809!         MOV       @_speedcompcoeffs+9,#10 ; |584| 
         000002a9 000A 
    1482 000002aa 761F!         MOVW      DP,#_speedcompcoeffs+10
         000002ab 0000 
    1483 000002ac 280A!         MOV       @_speedcompcoeffs+10,#30000 ; |585| 
         000002ad 7530 
    1484 000002ae 761F!         MOVW      DP,#_speedcompcoeffs+11
         000002af 0000 
    1485 000002b0 280B!         MOV       @_speedcompcoeffs+11,#3000 ; |586| 
         000002b1 0BB8 
    1486 000002b2 761F!         MOVW      DP,#_speedcompcoeffs+12
         000002b3 0000 
    1487 000002b4 280C!         MOV       @_speedcompcoeffs+12,#1000 ; |587| 
         000002b5 03E8 
    1488 000002b6 761F!         MOVW      DP,#_speedcompcoeffs+13
         000002b7 0000 
    1489 000002b8 280D!         MOV       @_speedcompcoeffs+13,#30000 ; |588| 
         000002b9 7530 
    1490 000002ba 761F!         MOVW      DP,#_speedcompcoeffs+14
         000002bb 0000 
    1491 000002bc 280E!         MOV       @_speedcompcoeffs+14,#3000 ; |589| 
         000002bd 0BB8 
    1492 000002be 761F!         MOVW      DP,#_speedcompcoeffs+15
         000002bf 0000 
    1493 000002c0 280F!         MOV       @_speedcompcoeffs+15,#100 ; |590| 
         000002c1 0064 
    1494 000002c2 761F!         MOVW      DP,#_wiosettings
         000002c3 0000 
    1495 000002c4 2B00!         MOV       @_wiosettings,#0      ; |592| 
    1496 000002c5 761F!         MOVW      DP,#_wiosettings+1
         000002c6 0000 
    1497 000002c7 2B01!         MOV       @_wiosettings+1,#0    ; |593| 
TMS320C2000 COFF Assembler PC v4.1.3 Thu Aug 18 12:16:30 2016

Tools Copyright (c) 1996-2006 Texas Instruments Incorporated
setup.asm                                                            PAGE   34

    1498 000002c8 761F!         MOVW      DP,#_wiosettings+2
         000002c9 0000 
    1499 000002ca 2802!         MOV       @_wiosettings+2,#9000 ; |595| 
         000002cb 2328 
    1500 000002cc 761F!         MOVW      DP,#_wiosettings+3
         000002cd 0000 
    1501 000002ce 2803!         MOV       @_wiosettings+3,#5000 ; |596| 
         000002cf 1388 
    1502 000002d0 761F!         MOVW      DP,#_wiosettings+4
         000002d1 0000 
    1503 000002d2 2804!         MOV       @_wiosettings+4,#500  ; |597| 
         000002d3 01F4 
    1504 000002d4 7640!         LCR       #_LoadDamagemonDefaults ; |600| 
         000002d5 0000 
    1505                      ; call occurs [#_LoadDamagemonDefaults] ; |600| 
    1506 000002d6 7640!         LCR       #_LoadSLEMDefaults    ; |601| 
         000002d7 0000 
    1507                      ; call occurs [#_LoadSLEMDefaults] ; |601| 
    1508 000002d8 7640!         LCR       #_LoadCPPDefaults     ; |602| 
         000002d9 0000 
    1509                      ; call occurs [#_LoadCPPDefaults] ; |602| 
    1510 000002da 7640!         LCR       #_LoadSensorDefaults  ; |603| 
         000002db 0000 
    1511                      ; call occurs [#_LoadSensorDefaults] ; |603| 
    1512 000002dc 7640!         LCR       #_BuildTimeStamp      ; |604| 
         000002dd 0000 
    1513                      ; call occurs [#_BuildTimeStamp] ; |604| 
    1514 000002de 761F!         MOVW      DP,#_clocktime+10
         000002df 0000 
    1515 000002e0 1E0A!         MOVL      @_clocktime+10,ACC    ; |605| 
    1516 000002e1 7640!         LCR       #_SaveTimetoFram      ; |606| 
         000002e2 0000 
    1517                      ; call occurs [#_SaveTimetoFram] ; |606| 
    1518 000002e3 761F!         MOVW      DP,#_sdsettings
         000002e4 0000 
    1519 000002e5 2800!         MOV       @_sdsettings,#1       ; |609| 
         000002e6 0001 
    1520 000002e7 7640!         LCR       #_SDCardInitialise    ; |612| 
         000002e8 0000 
    1521                      ; call occurs [#_SDCardInitialise] ; |612| 
    1522 000002e9 7640!         LCR       #_SaveSDSettings      ; |613| 
         000002ea 0000 
    1523                      ; call occurs [#_SaveSDSettings] ; |613| 
    1524 000002eb 7640!         LCR       #_ClearAlarmListandEventLog ; |615| 
         000002ec 0000 
    1525                      ; call occurs [#_ClearAlarmListandEventLog] ; |615| 
    1526 000002ed 7640!         LCR       #_SaveSafeStruct1     ; |617| 
         000002ee 0000 
    1527                      ; call occurs [#_SaveSafeStruct1] ; |617| 
    1528 000002ef 7640!         LCR       #_GeneralSettingstoSDCardFile ; |618| 
         000002f0 0000 
    1529                      ; call occurs [#_GeneralSettingstoSDCardFile] ; |618| 
    1530 000002f1 7640!         LCR       #_WriteConfigStructtoNVMEM ; |619| 
         000002f2 0000 
    1531                      ; call occurs [#_WriteConfigStructtoNVMEM] ; |619| 
TMS320C2000 COFF Assembler PC v4.1.3 Thu Aug 18 12:16:30 2016

Tools Copyright (c) 1996-2006 Texas Instruments Incorporated
setup.asm                                                            PAGE   35

    1532 000002f3 7640!         LCR       #_WriteSpeedCompStructtoNVMEM ; |620| 
         000002f4 0000 
    1533                      ; call occurs [#_WriteSpeedCompStructtoNVMEM] ; |620| 
    1534 000002f5 7640!         LCR       #_WriteAllSensorStructtoNVMEM ; |621| 
         000002f6 0000 
    1535                      ; call occurs [#_WriteAllSensorStructtoNVMEM] ; |621| 
    1536 000002f7 7640!         LCR       #_WriteWIOSettingstoNVMEM ; |622| 
         000002f8 0000 
    1537                      ; call occurs [#_WriteWIOSettingstoNVMEM] ; |622| 
    1538 000002f9 7640!         LCR       #_WriteDamagemontoNVMEM ; |623| 
         000002fa 0000 
    1539                      ; call occurs [#_WriteDamagemontoNVMEM] ; |623| 
    1540 000002fb 7640!         LCR       #_WriteSLEMSettingstoNVMEM ; |624| 
         000002fc 0000 
    1541                      ; call occurs [#_WriteSLEMSettingstoNVMEM] ; |624| 
    1542 000002fd 7640!         LCR       #_WriteCPPSettingstoNVMEM ; |625| 
         000002fe 0000 
    1543                      ; call occurs [#_WriteCPPSettingstoNVMEM] ; |625| 
    1544 000002ff 7640!         LCR       #_WriteSensorSettingstoNVMEM ; |626| 
         00000300 0000 
    1545                      ; call occurs [#_WriteSensorSettingstoNVMEM] ; |626| 
    1546 00000301 7640!         LCR       #_PrewarnReset        ; |628| 
         00000302 0000 
    1547                      ; call occurs [#_PrewarnReset] ; |628| 
    1548 00000303 7640!         LCR       #_ClearEventCodeListArea ; |630| 
         00000304 0000 
    1549                      ; call occurs [#_ClearEventCodeListArea] ; |630| 
    1550                      .dwpsn  "setup.c",631,1
    1551 00000305 0006          LRETR
    1552                      ; return occurs
    1553              
    1554              DW$90   .dwtag  DW_TAG_loop
    1555                      .dwattr DW$90, DW_AT_name("D:\DEV\Amot\BearingWear\XTSW_V6_20\setup.asm:L8:1:1471518990")
    1556                      .dwattr DW$90, DW_AT_begin_file("setup.c")
    1557                      .dwattr DW$90, DW_AT_begin_line(0x232)
    1558                      .dwattr DW$90, DW_AT_end_line(0x232)
    1559              DW$91   .dwtag  DW_TAG_loop_range
    1560                      .dwattr DW$91, DW_AT_low_pc(DW$L$_SetupDefaultSettings$2$B)
    1561                      .dwattr DW$91, DW_AT_high_pc(DW$L$_SetupDefaultSettings$2$E)
    1562                      .dwendtag DW$90
    1563              
    1564                      .dwattr DW$89, DW_AT_end_file("setup.c")
    1565                      .dwattr DW$89, DW_AT_end_line(0x277)
    1566                      .dwattr DW$89, DW_AT_end_column(0x01)
    1567                      .dwendtag DW$89
    1568              
    1569 00000306               .sect   ".text"
    1570                      .global _SetupSensorStatusDefaults
    1571              
    1572              DW$92   .dwtag  DW_TAG_subprogram, DW_AT_name("SetupSensorStatusDefaults"), DW_AT_symbol_name("_SetupSensorSt
    1573                      .dwattr DW$92, DW_AT_low_pc(_SetupSensorStatusDefaults)
    1574                      .dwattr DW$92, DW_AT_high_pc(0x00)
    1575                      .dwattr DW$92, DW_AT_begin_file("setup.c")
    1576                      .dwattr DW$92, DW_AT_begin_line(0x27a)
    1577                      .dwattr DW$92, DW_AT_begin_column(0x06)
TMS320C2000 COFF Assembler PC v4.1.3 Thu Aug 18 12:16:30 2016

Tools Copyright (c) 1996-2006 Texas Instruments Incorporated
setup.asm                                                            PAGE   36

    1578                      .dwattr DW$92, DW_AT_frame_base[DW_OP_breg20 -4]
    1579                      .dwattr DW$92, DW_AT_skeletal(0x01)
    1580                      .dwpsn  "setup.c",635,1
    1581              
    1582              ;***************************************************************
    1583              ;* FNAME: _SetupSensorStatusDefaults    FR SIZE:   2           *
    1584              ;*                                                             *
    1585              ;* FUNCTION ENVIRONMENT                                        *
    1586              ;*                                                             *
    1587              ;* FUNCTION PROPERTIES                                         *
    1588              ;*                            0 Parameter,  0 Auto,  2 SOE     *
    1589              ;***************************************************************
    1590              
    1591 00000306       _SetupSensorStatusDefaults:
    1592 00000306 B2BD          MOVL      *SP++,XAR1
    1593 00000307 7640!         LCR       #_InitStatus1Flags    ; |638| 
         00000308 0000 
    1594                      ; call occurs [#_InitStatus1Flags] ; |638| 
    1595                      .dwpsn  "setup.c",640,0
    1596 00000309 D100          MOVB      XAR1,#0
    1597              L9:    
    1598              DW$L$_SetupSensorStatusDefaults$2$B:
    1599                      .dwpsn  "setup.c",641,0
    1600 0000030a 92A1          MOV       AL,AR1
    1601 0000030b 520E          CMPB      AL,#14                ; |642| 
    1602 0000030c 56C4          BF        L10,LT                ; |642| 
         0000030d 0005 
    1603                      ; branchcc occurs ; |642| 
    1604 0000030e       DW$L$_SetupSensorStatusDefaults$2$E:
    1605 0000030e       DW$L$_SetupSensorStatusDefaults$3$B:
    1606 0000030e 9B00          MOVB      AH,#0
    1607 0000030f 56CF          BF        L11,UNC               ; |643| 
         00000310 0003 
    1608                      ; branch occurs ; |643| 
    1609 00000311       DW$L$_SetupSensorStatusDefaults$3$E:
    1610 00000311       L10:    
    1611 00000311       DW$L$_SetupSensorStatusDefaults$4$B:
    1612 00000311 9B01          MOVB      AH,#1                 ; |642| 
    1613 00000312       DW$L$_SetupSensorStatusDefaults$4$E:
    1614 00000312       L11:    
    1615 00000312       DW$L$_SetupSensorStatusDefaults$5$B:
    1616 00000312 7640!         LCR       #_SetSensorEnabled    ; |642| 
         00000313 0000 
    1617                      ; call occurs [#_SetSensorEnabled] ; |642| 
    1618 00000314 92A1          MOV       AL,AR1
    1619 00000315 9B00          MOVB      AH,#0
    1620 00000316 7640!         LCR       #_SetCalMode          ; |644| 
         00000317 0000 
    1621                      ; call occurs [#_SetCalMode] ; |644| 
    1622 00000318 92A1          MOV       AL,AR1                ; |644| 
    1623 00000319 9B00          MOVB      AH,#0
    1624 0000031a 7640!         LCR       #_SetAlarmMask        ; |645| 
         0000031b 0000 
    1625                      ; call occurs [#_SetAlarmMask] ; |645| 
    1626 0000031c 92A1          MOV       AL,AR1                ; |645| 
TMS320C2000 COFF Assembler PC v4.1.3 Thu Aug 18 12:16:30 2016

Tools Copyright (c) 1996-2006 Texas Instruments Incorporated
setup.asm                                                            PAGE   37

    1627 0000031d 7640!         LCR       #_WriteSensorStatustoNVMEM ; |646| 
         0000031e 0000 
    1628                      ; call occurs [#_WriteSensorStatustoNVMEM] ; |646| 
    1629 0000031f 92A1          MOV       AL,AR1                ; |646| 
    1630 00000320 9C01          ADDB      AL,#1                 ; |640| 
    1631 00000321 59A9          MOVZ      AR1,AL                ; |640| 
    1632 00000322 521C          CMPB      AL,#28                ; |640| 
    1633                      .dwpsn  "setup.c",647,0
    1634 00000323 56C4          BF        L9,LT                 ; |640| 
         00000324 FFE7 
    1635                      ; branchcc occurs ; |640| 
    1636 00000325       DW$L$_SetupSensorStatusDefaults$5$E:
    1637 00000325 7640!         LCR       #_SensorStatustoSDCardFile ; |648| 
         00000326 0000 
    1638                      ; call occurs [#_SensorStatustoSDCardFile] ; |648| 
    1639 00000327 8BBE          MOVL      XAR1,*--SP
    1640                      .dwpsn  "setup.c",649,1
    1641 00000328 0006          LRETR
    1642                      ; return occurs
    1643              
    1644              DW$93   .dwtag  DW_TAG_loop
    1645                      .dwattr DW$93, DW_AT_name("D:\DEV\Amot\BearingWear\XTSW_V6_20\setup.asm:L9:1:1471518990")
    1646                      .dwattr DW$93, DW_AT_begin_file("setup.c")
    1647                      .dwattr DW$93, DW_AT_begin_line(0x280)
    1648                      .dwattr DW$93, DW_AT_end_line(0x287)
    1649              DW$94   .dwtag  DW_TAG_loop_range
    1650                      .dwattr DW$94, DW_AT_low_pc(DW$L$_SetupSensorStatusDefaults$2$B)
    1651                      .dwattr DW$94, DW_AT_high_pc(DW$L$_SetupSensorStatusDefaults$2$E)
    1652              DW$95   .dwtag  DW_TAG_loop_range
    1653                      .dwattr DW$95, DW_AT_low_pc(DW$L$_SetupSensorStatusDefaults$3$B)
    1654                      .dwattr DW$95, DW_AT_high_pc(DW$L$_SetupSensorStatusDefaults$3$E)
    1655              DW$96   .dwtag  DW_TAG_loop_range
    1656                      .dwattr DW$96, DW_AT_low_pc(DW$L$_SetupSensorStatusDefaults$4$B)
    1657                      .dwattr DW$96, DW_AT_high_pc(DW$L$_SetupSensorStatusDefaults$4$E)
    1658              DW$97   .dwtag  DW_TAG_loop_range
    1659                      .dwattr DW$97, DW_AT_low_pc(DW$L$_SetupSensorStatusDefaults$5$B)
    1660                      .dwattr DW$97, DW_AT_high_pc(DW$L$_SetupSensorStatusDefaults$5$E)
    1661                      .dwendtag DW$93
    1662              
    1663                      .dwattr DW$92, DW_AT_end_file("setup.c")
    1664                      .dwattr DW$92, DW_AT_end_line(0x289)
    1665                      .dwattr DW$92, DW_AT_end_column(0x01)
    1666                      .dwendtag DW$92
    1667              
    1668 00000329               .sect   ".text"
    1669                      .global _SetupOffsetDefaults
    1670              
    1671              DW$98   .dwtag  DW_TAG_subprogram, DW_AT_name("SetupOffsetDefaults"), DW_AT_symbol_name("_SetupOffsetDefaults
    1672                      .dwattr DW$98, DW_AT_low_pc(_SetupOffsetDefaults)
    1673                      .dwattr DW$98, DW_AT_high_pc(0x00)
    1674                      .dwattr DW$98, DW_AT_begin_file("setup.c")
    1675                      .dwattr DW$98, DW_AT_begin_line(0x28c)
    1676                      .dwattr DW$98, DW_AT_begin_column(0x06)
    1677                      .dwattr DW$98, DW_AT_frame_base[DW_OP_breg20 -4]
    1678                      .dwattr DW$98, DW_AT_skeletal(0x01)
TMS320C2000 COFF Assembler PC v4.1.3 Thu Aug 18 12:16:30 2016

Tools Copyright (c) 1996-2006 Texas Instruments Incorporated
setup.asm                                                            PAGE   38

    1679                      .dwpsn  "setup.c",653,1
    1680              
    1681              ;***************************************************************
    1682              ;* FNAME: _SetupOffsetDefaults          FR SIZE:   2           *
    1683              ;*                                                             *
    1684              ;* FUNCTION ENVIRONMENT                                        *
    1685              ;*                                                             *
    1686              ;* FUNCTION PROPERTIES                                         *
    1687              ;*                            0 Parameter,  0 Auto,  2 SOE     *
    1688              ;***************************************************************
    1689              
    1690 00000329       _SetupOffsetDefaults:
    1691 00000329 3B01          SETC      SXM
    1692 0000032a B2BD          MOVL      *SP++,XAR1
    1693                      .dwpsn  "setup.c",656,0
    1694 0000032b D100          MOVB      XAR1,#0
    1695              L12:    
    1696              DW$L$_SetupOffsetDefaults$2$B:
    1697                      .dwpsn  "setup.c",657,0
    1698 0000032c 92A1          MOV       AL,AR1
    1699 0000032d 8F00!         MOVL      XAR4,#_offsetA        ; |658| 
         0000032e 0000 
    1700 0000032f 85A9          MOV       ACC,AL                ; |658| 
    1701 00000330 5601          ADDL      XAR4,ACC
         00000331 00A4 
    1702 00000332 92A1          MOV       AL,AR1                ; |658| 
    1703 00000333 2BC4          MOV       *+XAR4[0],#0          ; |658| 
    1704 00000334 85A9          MOV       ACC,AL                ; |659| 
    1705 00000335 8F00!         MOVL      XAR4,#_offsetB        ; |659| 
         00000336 0000 
    1706 00000337 5601          ADDL      XAR4,ACC
         00000338 00A4 
    1707 00000339 92A1          MOV       AL,AR1                ; |659| 
    1708 0000033a 9C01          ADDB      AL,#1                 ; |656| 
    1709 0000033b 59A9          MOVZ      AR1,AL                ; |656| 
    1710 0000033c 521C          CMPB      AL,#28                ; |656| 
    1711 0000033d 2BC4          MOV       *+XAR4[0],#0          ; |659| 
    1712                      .dwpsn  "setup.c",660,0
    1713 0000033e 56C4          BF        L12,LT                ; |656| 
         0000033f FFEE 
    1714                      ; branchcc occurs ; |656| 
    1715 00000340       DW$L$_SetupOffsetDefaults$2$E:
    1716 00000340 7640!         LCR       #_OffsetstoSDCardFile ; |661| 
         00000341 0000 
    1717                      ; call occurs [#_OffsetstoSDCardFile] ; |661| 
    1718                      .dwpsn  "setup.c",662,0
    1719 00000342 D100          MOVB      XAR1,#0
    1720 00000343       L13:    
    1721 00000343       DW$L$_SetupOffsetDefaults$4$B:
    1722 00000343 92A1          MOV       AL,AR1
    1723 00000344 7640!         LCR       #_WriteOffsetAtoNVMEM ; |662| 
         00000345 0000 
    1724                      ; call occurs [#_WriteOffsetAtoNVMEM] ; |662| 
    1725 00000346 92A1          MOV       AL,AR1                ; |662| 
    1726 00000347 9C01          ADDB      AL,#1                 ; |662| 
TMS320C2000 COFF Assembler PC v4.1.3 Thu Aug 18 12:16:30 2016

Tools Copyright (c) 1996-2006 Texas Instruments Incorporated
setup.asm                                                            PAGE   39

    1727 00000348 59A9          MOVZ      AR1,AL                ; |662| 
    1728 00000349 521C          CMPB      AL,#28                ; |662| 
    1729 0000034a 56C4          BF        L13,LT                ; |662| 
         0000034b FFF9 
    1730                      ; branchcc occurs ; |662| 
    1731              DW$L$_SetupOffsetDefaults$4$E:
    1732                      .dwpsn  "setup.c",663,0
    1733 0000034c D100          MOVB      XAR1,#0
    1734 0000034d       L14:    
    1735 0000034d       DW$L$_SetupOffsetDefaults$6$B:
    1736 0000034d 92A1          MOV       AL,AR1
    1737 0000034e 7640!         LCR       #_WriteOffsetBtoNVMEM ; |663| 
         0000034f 0000 
    1738                      ; call occurs [#_WriteOffsetBtoNVMEM] ; |663| 
    1739 00000350 92A1          MOV       AL,AR1                ; |663| 
    1740 00000351 9C01          ADDB      AL,#1                 ; |663| 
    1741 00000352 59A9          MOVZ      AR1,AL                ; |663| 
    1742 00000353 521C          CMPB      AL,#28                ; |663| 
    1743 00000354 56C4          BF        L14,LT                ; |663| 
         00000355 FFF9 
    1744                      ; branchcc occurs ; |663| 
    1745 00000356       DW$L$_SetupOffsetDefaults$6$E:
    1746 00000356 8BBE          MOVL      XAR1,*--SP
    1747                      .dwpsn  "setup.c",664,1
    1748 00000357 0006          LRETR
    1749                      ; return occurs
    1750              
    1751              DW$99   .dwtag  DW_TAG_loop
    1752                      .dwattr DW$99, DW_AT_name("D:\DEV\Amot\BearingWear\XTSW_V6_20\setup.asm:L14:1:1471518990")
    1753                      .dwattr DW$99, DW_AT_begin_file("setup.c")
    1754                      .dwattr DW$99, DW_AT_begin_line(0x297)
    1755                      .dwattr DW$99, DW_AT_end_line(0x297)
    1756              DW$100  .dwtag  DW_TAG_loop_range
    1757                      .dwattr DW$100, DW_AT_low_pc(DW$L$_SetupOffsetDefaults$6$B)
    1758                      .dwattr DW$100, DW_AT_high_pc(DW$L$_SetupOffsetDefaults$6$E)
    1759                      .dwendtag DW$99
    1760              
    1761              
    1762              DW$101  .dwtag  DW_TAG_loop
    1763                      .dwattr DW$101, DW_AT_name("D:\DEV\Amot\BearingWear\XTSW_V6_20\setup.asm:L13:1:1471518990")
    1764                      .dwattr DW$101, DW_AT_begin_file("setup.c")
    1765                      .dwattr DW$101, DW_AT_begin_line(0x296)
    1766                      .dwattr DW$101, DW_AT_end_line(0x296)
    1767              DW$102  .dwtag  DW_TAG_loop_range
    1768                      .dwattr DW$102, DW_AT_low_pc(DW$L$_SetupOffsetDefaults$4$B)
    1769                      .dwattr DW$102, DW_AT_high_pc(DW$L$_SetupOffsetDefaults$4$E)
    1770                      .dwendtag DW$101
    1771              
    1772              
    1773              DW$103  .dwtag  DW_TAG_loop
    1774                      .dwattr DW$103, DW_AT_name("D:\DEV\Amot\BearingWear\XTSW_V6_20\setup.asm:L12:1:1471518990")
    1775                      .dwattr DW$103, DW_AT_begin_file("setup.c")
    1776                      .dwattr DW$103, DW_AT_begin_line(0x290)
    1777                      .dwattr DW$103, DW_AT_end_line(0x294)
    1778              DW$104  .dwtag  DW_TAG_loop_range
TMS320C2000 COFF Assembler PC v4.1.3 Thu Aug 18 12:16:30 2016

Tools Copyright (c) 1996-2006 Texas Instruments Incorporated
setup.asm                                                            PAGE   40

    1779                      .dwattr DW$104, DW_AT_low_pc(DW$L$_SetupOffsetDefaults$2$B)
    1780                      .dwattr DW$104, DW_AT_high_pc(DW$L$_SetupOffsetDefaults$2$E)
    1781                      .dwendtag DW$103
    1782              
    1783                      .dwattr DW$98, DW_AT_end_file("setup.c")
    1784                      .dwattr DW$98, DW_AT_end_line(0x298)
    1785                      .dwattr DW$98, DW_AT_end_column(0x01)
    1786                      .dwendtag DW$98
    1787              
    1788              ;***************************************************************
    1789              ;* UNDEFINED EXTERNAL REFERENCES                               *
    1790              ;***************************************************************
    1791                      .global _PerformIsr1
    1792                      .global _PerformIsr13
    1793                      .global _PerformIsr14
    1794                      .global _WatchdogKick
    1795                      .global _PerformSciTxIntA
    1796                      .global _PerformSciRxIntA
    1797                      .global _PerformSciTxIntB
    1798                      .global _PerformSciRxIntB
    1799                      .global _PerformSciRxIntC
    1800                      .global _IntADCIsr
    1801                      .global _WriteSLEMSettingstoNVMEM
    1802                      .global _LoadSLEMDefaults
    1803                      .global _WriteCPPSettingstoNVMEM
    1804                      .global _LoadCPPDefaults
    1805                      .global _WriteSensorSettingstoNVMEM
    1806                      .global _LoadSensorDefaults
    1807                      .global _SaveTimetoFram
    1808                      .global _WriteConfigStructtoNVMEM
    1809                      .global _ClearAlarmListandEventLog
    1810                      .global _InitStatus1Flags
    1811                      .global _WriteDamagemontoNVMEM
    1812                      .global _SetSensorEnabled
    1813                      .global _SetCalMode
    1814                      .global _SetAlarmMask
    1815                      .global _WriteSensorStatustoNVMEM
    1816                      .global _WriteOffsetAtoNVMEM
    1817                      .global _WriteOffsetBtoNVMEM
    1818                      .global _WriteWIOSettingstoNVMEM
    1819                      .global _SDCardInitialise
    1820                      .global _SaveSDSettings
    1821                      .global _OffsetstoSDCardFile
    1822                      .global _SensorStatustoSDCardFile
    1823                      .global _GeneralSettingstoSDCardFile
    1824                      .global _BuildTimeStamp
    1825                      .global _LoadDamagemonDefaults
    1826                      .global _SaveSafeStruct1
    1827                      .global _WriteSpeedCompStructtoNVMEM
    1828                      .global _WriteAllSensorStructtoNVMEM
    1829                      .global _PrewarnReset
    1830                      .global _ClearEventCodeListArea
    1831                      .global _settings
    1832                      .global _safe1
    1833                      .global _safe2
TMS320C2000 COFF Assembler PC v4.1.3 Thu Aug 18 12:16:30 2016

Tools Copyright (c) 1996-2006 Texas Instruments Incorporated
setup.asm                                                            PAGE   41

    1834                      .global _clocktime
    1835                      .global _timers
    1836                      .global _allsensors
    1837                      .global _config
    1838                      .global _receiveC
    1839                      .global _rpmdata
    1840                      .global _speedcompcoeffs
    1841                      .global _prewarn
    1842                      .global _offsetA
    1843                      .global _offsetB
    1844                      .global _wiosettings
    1845                      .global _sdsettings
    1846              
    1847              ;***************************************************************
    1848              ;* TYPE INFORMATION                                            *
    1849              ;***************************************************************
    1850              
    1851              DW$T$68 .dwtag  DW_TAG_subroutine_type
    1852                      .dwattr DW$T$68, DW_AT_language(DW_LANG_C)
    1853              
    1854              DW$T$70 .dwtag  DW_TAG_subroutine_type
    1855                      .dwattr DW$T$70, DW_AT_language(DW_LANG_C)
    1856              DW$105  .dwtag  DW_TAG_formal_parameter, DW_AT_type(*DW$T$11)
    1857              DW$106  .dwtag  DW_TAG_formal_parameter, DW_AT_type(*DW$T$10)
    1858                      .dwendtag DW$T$70
    1859              
    1860              
    1861              DW$T$72 .dwtag  DW_TAG_subroutine_type
    1862                      .dwattr DW$T$72, DW_AT_language(DW_LANG_C)
    1863              DW$107  .dwtag  DW_TAG_formal_parameter, DW_AT_type(*DW$T$11)
    1864                      .dwendtag DW$T$72
    1865              
    1866              
    1867              DW$T$78 .dwtag  DW_TAG_array_type, DW_AT_type(*DW$T$77)
    1868                      .dwattr DW$T$78, DW_AT_language(DW_LANG_C)
    1869                      .dwattr DW$T$78, DW_AT_byte_size(0xd2)
    1870              DW$108  .dwtag  DW_TAG_subrange_type
    1871                      .dwattr DW$108, DW_AT_upper_bound(0x68)
    1872                      .dwendtag DW$T$78
    1873              
    1874              DW$T$10 .dwtag  DW_TAG_base_type, DW_AT_name("int")
    1875                      .dwattr DW$T$10, DW_AT_encoding(DW_ATE_signed)
    1876                      .dwattr DW$T$10, DW_AT_byte_size(0x01)
    1877              
    1878              DW$T$83 .dwtag  DW_TAG_subroutine_type, DW_AT_type(*DW$T$10)
    1879                      .dwattr DW$T$83, DW_AT_language(DW_LANG_C)
    1880              
    1881              DW$T$85 .dwtag  DW_TAG_subroutine_type, DW_AT_type(*DW$T$10)
    1882                      .dwattr DW$T$85, DW_AT_language(DW_LANG_C)
    1883              DW$T$11 .dwtag  DW_TAG_base_type, DW_AT_name("unsigned int")
    1884                      .dwattr DW$T$11, DW_AT_encoding(DW_ATE_unsigned)
    1885                      .dwattr DW$T$11, DW_AT_byte_size(0x01)
    1886              DW$109  .dwtag  DW_TAG_far_type
    1887                      .dwattr DW$109, DW_AT_type(*DW$T$89)
    1888              DW$T$90 .dwtag  DW_TAG_volatile_type
TMS320C2000 COFF Assembler PC v4.1.3 Thu Aug 18 12:16:30 2016

Tools Copyright (c) 1996-2006 Texas Instruments Incorporated
setup.asm                                                            PAGE   42

    1889                      .dwattr DW$T$90, DW_AT_type(*DW$109)
    1890              DW$T$13 .dwtag  DW_TAG_base_type, DW_AT_name("unsigned long")
    1891                      .dwattr DW$T$13, DW_AT_encoding(DW_ATE_unsigned)
    1892                      .dwattr DW$T$13, DW_AT_byte_size(0x02)
    1893              
    1894              DW$T$93 .dwtag  DW_TAG_subroutine_type, DW_AT_type(*DW$T$13)
    1895                      .dwattr DW$T$93, DW_AT_language(DW_LANG_C)
    1896              DW$T$97 .dwtag  DW_TAG_typedef, DW_AT_name("settingsstruct"), DW_AT_type(*DW$T$20)
    1897                      .dwattr DW$T$97, DW_AT_language(DW_LANG_C)
    1898              DW$T$98 .dwtag  DW_TAG_typedef, DW_AT_name("safestruct1struct"), DW_AT_type(*DW$T$24)
    1899                      .dwattr DW$T$98, DW_AT_language(DW_LANG_C)
    1900              DW$T$99 .dwtag  DW_TAG_typedef, DW_AT_name("safestruct2struct"), DW_AT_type(*DW$T$37)
    1901                      .dwattr DW$T$99, DW_AT_language(DW_LANG_C)
    1902              DW$T$100        .dwtag  DW_TAG_typedef, DW_AT_name("clockstruct"), DW_AT_type(*DW$T$38)
    1903                      .dwattr DW$T$100, DW_AT_language(DW_LANG_C)
    1904              DW$110  .dwtag  DW_TAG_far_type
    1905                      .dwattr DW$110, DW_AT_type(*DW$T$101)
    1906              DW$T$102        .dwtag  DW_TAG_volatile_type
    1907                      .dwattr DW$T$102, DW_AT_type(*DW$110)
    1908              DW$T$105        .dwtag  DW_TAG_typedef, DW_AT_name("allsensorstruct"), DW_AT_type(*DW$T$42)
    1909                      .dwattr DW$T$105, DW_AT_language(DW_LANG_C)
    1910              DW$T$107        .dwtag  DW_TAG_typedef, DW_AT_name("configstruct"), DW_AT_type(*DW$T$49)
    1911                      .dwattr DW$T$107, DW_AT_language(DW_LANG_C)
    1912              DW$T$108        .dwtag  DW_TAG_typedef, DW_AT_name("uartreadC"), DW_AT_type(*DW$T$52)
    1913                      .dwattr DW$T$108, DW_AT_language(DW_LANG_C)
    1914              DW$T$109        .dwtag  DW_TAG_typedef, DW_AT_name("rpmstruct"), DW_AT_type(*DW$T$54)
    1915                      .dwattr DW$T$109, DW_AT_language(DW_LANG_C)
    1916              DW$T$110        .dwtag  DW_TAG_typedef, DW_AT_name("speedcompstruct"), DW_AT_type(*DW$T$57)
    1917                      .dwattr DW$T$110, DW_AT_language(DW_LANG_C)
    1918              DW$T$112        .dwtag  DW_TAG_typedef, DW_AT_name("prewarnstruct"), DW_AT_type(*DW$T$60)
    1919                      .dwattr DW$T$112, DW_AT_language(DW_LANG_C)
    1920              DW$T$113        .dwtag  DW_TAG_typedef, DW_AT_name("offsetstruct"), DW_AT_type(*DW$T$61)
    1921                      .dwattr DW$T$113, DW_AT_language(DW_LANG_C)
    1922              DW$T$115        .dwtag  DW_TAG_typedef, DW_AT_name("wiosettingsstruct"), DW_AT_type(*DW$T$62)
    1923                      .dwattr DW$T$115, DW_AT_language(DW_LANG_C)
    1924              DW$T$116        .dwtag  DW_TAG_typedef, DW_AT_name("sdsettingsstruct"), DW_AT_type(*DW$T$64)
    1925                      .dwattr DW$T$116, DW_AT_language(DW_LANG_C)
    1926              DW$111  .dwtag  DW_TAG_far_type
    1927                      .dwattr DW$111, DW_AT_type(*DW$T$76)
    1928              DW$T$77 .dwtag  DW_TAG_const_type
    1929                      .dwattr DW$T$77, DW_AT_type(*DW$111)
    1930              DW$T$89 .dwtag  DW_TAG_typedef, DW_AT_name("uint"), DW_AT_type(*DW$T$11)
    1931                      .dwattr DW$T$89, DW_AT_language(DW_LANG_C)
    1932              
    1933              DW$T$20 .dwtag  DW_TAG_structure_type
    1934                      .dwattr DW$T$20, DW_AT_name("tag_settingsstruct")
    1935                      .dwattr DW$T$20, DW_AT_byte_size(0x24)
    1936              DW$112  .dwtag  DW_TAG_member, DW_AT_type(*DW$T$11)
    1937                      .dwattr DW$112, DW_AT_name("watchdog"), DW_AT_symbol_name("_watchdog")
    1938                      .dwattr DW$112, DW_AT_data_member_location[DW_OP_plus_uconst 0x0]
    1939                      .dwattr DW$112, DW_AT_accessibility(DW_ACCESS_public)
    1940              DW$113  .dwtag  DW_TAG_member, DW_AT_type(*DW$T$11)
    1941                      .dwattr DW$113, DW_AT_name("ledflashflag"), DW_AT_symbol_name("_ledflashflag")
    1942                      .dwattr DW$113, DW_AT_data_member_location[DW_OP_plus_uconst 0x1]
    1943                      .dwattr DW$113, DW_AT_accessibility(DW_ACCESS_public)
TMS320C2000 COFF Assembler PC v4.1.3 Thu Aug 18 12:16:30 2016

Tools Copyright (c) 1996-2006 Texas Instruments Incorporated
setup.asm                                                            PAGE   43

    1944              DW$114  .dwtag  DW_TAG_member, DW_AT_type(*DW$T$11)
    1945                      .dwattr DW$114, DW_AT_name("updatesafe"), DW_AT_symbol_name("_updatesafe")
    1946                      .dwattr DW$114, DW_AT_data_member_location[DW_OP_plus_uconst 0x2]
    1947                      .dwattr DW$114, DW_AT_accessibility(DW_ACCESS_public)
    1948              DW$115  .dwtag  DW_TAG_member, DW_AT_type(*DW$T$11)
    1949                      .dwattr DW$115, DW_AT_name("tableconfigtype"), DW_AT_symbol_name("_tableconfigtype")
    1950                      .dwattr DW$115, DW_AT_data_member_location[DW_OP_plus_uconst 0x3]
    1951                      .dwattr DW$115, DW_AT_accessibility(DW_ACCESS_public)
    1952              DW$116  .dwtag  DW_TAG_member, DW_AT_type(*DW$T$11)
    1953                      .dwattr DW$116, DW_AT_name("caltableconfigtype"), DW_AT_symbol_name("_caltableconfigtype")
    1954                      .dwattr DW$116, DW_AT_data_member_location[DW_OP_plus_uconst 0x4]
    1955                      .dwattr DW$116, DW_AT_accessibility(DW_ACCESS_public)
    1956              DW$117  .dwtag  DW_TAG_member, DW_AT_type(*DW$T$11)
    1957                      .dwattr DW$117, DW_AT_name("eventmsgid"), DW_AT_symbol_name("_eventmsgid")
    1958                      .dwattr DW$117, DW_AT_data_member_location[DW_OP_plus_uconst 0x5]
    1959                      .dwattr DW$117, DW_AT_accessibility(DW_ACCESS_public)
    1960              DW$118  .dwtag  DW_TAG_member, DW_AT_type(*DW$T$11)
    1961                      .dwattr DW$118, DW_AT_name("configoperationcomplete"), DW_AT_symbol_name("_configoperationcomplete")
    1962                      .dwattr DW$118, DW_AT_data_member_location[DW_OP_plus_uconst 0x6]
    1963                      .dwattr DW$118, DW_AT_accessibility(DW_ACCESS_public)
    1964              DW$119  .dwtag  DW_TAG_member, DW_AT_type(*DW$T$11)
    1965                      .dwattr DW$119, DW_AT_name("sdcarderr"), DW_AT_symbol_name("_sdcarderr")
    1966                      .dwattr DW$119, DW_AT_data_member_location[DW_OP_plus_uconst 0x7]
    1967                      .dwattr DW$119, DW_AT_accessibility(DW_ACCESS_public)
    1968              DW$120  .dwtag  DW_TAG_member, DW_AT_type(*DW$T$11)
    1969                      .dwattr DW$120, DW_AT_name("sderase"), DW_AT_symbol_name("_sderase")
    1970                      .dwattr DW$120, DW_AT_data_member_location[DW_OP_plus_uconst 0x8]
    1971                      .dwattr DW$120, DW_AT_accessibility(DW_ACCESS_public)
    1972              DW$121  .dwtag  DW_TAG_member, DW_AT_type(*DW$T$11)
    1973                      .dwattr DW$121, DW_AT_name("sdreinit"), DW_AT_symbol_name("_sdreinit")
    1974                      .dwattr DW$121, DW_AT_data_member_location[DW_OP_plus_uconst 0x9]
    1975                      .dwattr DW$121, DW_AT_accessibility(DW_ACCESS_public)
    1976              DW$122  .dwtag  DW_TAG_member, DW_AT_type(*DW$T$11)
    1977                      .dwattr DW$122, DW_AT_name("sdcardupdate"), DW_AT_symbol_name("_sdcardupdate")
    1978                      .dwattr DW$122, DW_AT_data_member_location[DW_OP_plus_uconst 0xa]
    1979                      .dwattr DW$122, DW_AT_accessibility(DW_ACCESS_public)
    1980              DW$123  .dwtag  DW_TAG_member, DW_AT_type(*DW$T$11)
    1981                      .dwattr DW$123, DW_AT_name("cardreadflag"), DW_AT_symbol_name("_cardreadflag")
    1982                      .dwattr DW$123, DW_AT_data_member_location[DW_OP_plus_uconst 0xb]
    1983                      .dwattr DW$123, DW_AT_accessibility(DW_ACCESS_public)
    1984              DW$124  .dwtag  DW_TAG_member, DW_AT_type(*DW$T$11)
    1985                      .dwattr DW$124, DW_AT_name("ignore"), DW_AT_symbol_name("_ignore")
    1986                      .dwattr DW$124, DW_AT_data_member_location[DW_OP_plus_uconst 0xc]
    1987                      .dwattr DW$124, DW_AT_accessibility(DW_ACCESS_public)
    1988              DW$125  .dwtag  DW_TAG_member, DW_AT_type(*DW$T$11)
    1989                      .dwattr DW$125, DW_AT_name("dcmode"), DW_AT_symbol_name("_dcmode")
    1990                      .dwattr DW$125, DW_AT_data_member_location[DW_OP_plus_uconst 0xd]
    1991                      .dwattr DW$125, DW_AT_accessibility(DW_ACCESS_public)
    1992              DW$126  .dwtag  DW_TAG_member, DW_AT_type(*DW$T$11)
    1993                      .dwattr DW$126, DW_AT_name("spiinuse"), DW_AT_symbol_name("_spiinuse")
    1994                      .dwattr DW$126, DW_AT_data_member_location[DW_OP_plus_uconst 0xe]
    1995                      .dwattr DW$126, DW_AT_accessibility(DW_ACCESS_public)
    1996              DW$127  .dwtag  DW_TAG_member, DW_AT_type(*DW$T$11)
    1997                      .dwattr DW$127, DW_AT_name("dcpeakhold"), DW_AT_symbol_name("_dcpeakhold")
    1998                      .dwattr DW$127, DW_AT_data_member_location[DW_OP_plus_uconst 0xf]
TMS320C2000 COFF Assembler PC v4.1.3 Thu Aug 18 12:16:30 2016

Tools Copyright (c) 1996-2006 Texas Instruments Incorporated
setup.asm                                                            PAGE   44

    1999                      .dwattr DW$127, DW_AT_accessibility(DW_ACCESS_public)
    2000              DW$128  .dwtag  DW_TAG_member, DW_AT_type(*DW$T$11)
    2001                      .dwattr DW$128, DW_AT_name("dcpause"), DW_AT_symbol_name("_dcpause")
    2002                      .dwattr DW$128, DW_AT_data_member_location[DW_OP_plus_uconst 0x10]
    2003                      .dwattr DW$128, DW_AT_accessibility(DW_ACCESS_public)
    2004              DW$129  .dwtag  DW_TAG_member, DW_AT_type(*DW$T$11)
    2005                      .dwattr DW$129, DW_AT_name("mastermode"), DW_AT_symbol_name("_mastermode")
    2006                      .dwattr DW$129, DW_AT_data_member_location[DW_OP_plus_uconst 0x11]
    2007                      .dwattr DW$129, DW_AT_accessibility(DW_ACCESS_public)
    2008              DW$130  .dwtag  DW_TAG_member, DW_AT_type(*DW$T$11)
    2009                      .dwattr DW$130, DW_AT_name("updatescaling"), DW_AT_symbol_name("_updatescaling")
    2010                      .dwattr DW$130, DW_AT_data_member_location[DW_OP_plus_uconst 0x12]
    2011                      .dwattr DW$130, DW_AT_accessibility(DW_ACCESS_public)
    2012              DW$131  .dwtag  DW_TAG_member, DW_AT_type(*DW$T$11)
    2013                      .dwattr DW$131, DW_AT_name("forwardasternflag"), DW_AT_symbol_name("_forwardasternflag")
    2014                      .dwattr DW$131, DW_AT_data_member_location[DW_OP_plus_uconst 0x13]
    2015                      .dwattr DW$131, DW_AT_accessibility(DW_ACCESS_public)
    2016              DW$132  .dwtag  DW_TAG_member, DW_AT_type(*DW$T$11)
    2017                      .dwattr DW$132, DW_AT_name("initprogress"), DW_AT_symbol_name("_initprogress")
    2018                      .dwattr DW$132, DW_AT_data_member_location[DW_OP_plus_uconst 0x14]
    2019                      .dwattr DW$132, DW_AT_accessibility(DW_ACCESS_public)
    2020              DW$133  .dwtag  DW_TAG_member, DW_AT_type(*DW$T$11)
    2021                      .dwattr DW$133, DW_AT_name("dircountdown"), DW_AT_symbol_name("_dircountdown")
    2022                      .dwattr DW$133, DW_AT_data_member_location[DW_OP_plus_uconst 0x15]
    2023                      .dwattr DW$133, DW_AT_accessibility(DW_ACCESS_public)
    2024              DW$134  .dwtag  DW_TAG_member, DW_AT_type(*DW$T$11)
    2025                      .dwattr DW$134, DW_AT_name("slowdowncounter"), DW_AT_symbol_name("_slowdowncounter")
    2026                      .dwattr DW$134, DW_AT_data_member_location[DW_OP_plus_uconst 0x16]
    2027                      .dwattr DW$134, DW_AT_accessibility(DW_ACCESS_public)
    2028              DW$135  .dwtag  DW_TAG_member, DW_AT_type(*DW$T$11)
    2029                      .dwattr DW$135, DW_AT_name("slowdowncondition"), DW_AT_symbol_name("_slowdowncondition")
    2030                      .dwattr DW$135, DW_AT_data_member_location[DW_OP_plus_uconst 0x17]
    2031                      .dwattr DW$135, DW_AT_accessibility(DW_ACCESS_public)
    2032              DW$136  .dwtag  DW_TAG_member, DW_AT_type(*DW$T$11)
    2033                      .dwattr DW$136, DW_AT_name("slowdownlevel"), DW_AT_symbol_name("_slowdownlevel")
    2034                      .dwattr DW$136, DW_AT_data_member_location[DW_OP_plus_uconst 0x18]
    2035                      .dwattr DW$136, DW_AT_accessibility(DW_ACCESS_public)
    2036              DW$137  .dwtag  DW_TAG_member, DW_AT_type(*DW$T$11)
    2037                      .dwattr DW$137, DW_AT_name("alarmlevel"), DW_AT_symbol_name("_alarmlevel")
    2038                      .dwattr DW$137, DW_AT_data_member_location[DW_OP_plus_uconst 0x19]
    2039                      .dwattr DW$137, DW_AT_accessibility(DW_ACCESS_public)
    2040              DW$138  .dwtag  DW_TAG_member, DW_AT_type(*DW$T$11)
    2041                      .dwattr DW$138, DW_AT_name("slowdowndevlevel"), DW_AT_symbol_name("_slowdowndevlevel")
    2042                      .dwattr DW$138, DW_AT_data_member_location[DW_OP_plus_uconst 0x1a]
    2043                      .dwattr DW$138, DW_AT_accessibility(DW_ACCESS_public)
    2044              DW$139  .dwtag  DW_TAG_member, DW_AT_type(*DW$T$11)
    2045                      .dwattr DW$139, DW_AT_name("alarmdevlevel"), DW_AT_symbol_name("_alarmdevlevel")
    2046                      .dwattr DW$139, DW_AT_data_member_location[DW_OP_plus_uconst 0x1b]
    2047                      .dwattr DW$139, DW_AT_accessibility(DW_ACCESS_public)
    2048              DW$140  .dwtag  DW_TAG_member, DW_AT_type(*DW$T$11)
    2049                      .dwattr DW$140, DW_AT_name("cylinderalarmlevel"), DW_AT_symbol_name("_cylinderalarmlevel")
    2050                      .dwattr DW$140, DW_AT_data_member_location[DW_OP_plus_uconst 0x1c]
    2051                      .dwattr DW$140, DW_AT_accessibility(DW_ACCESS_public)
    2052              DW$141  .dwtag  DW_TAG_member, DW_AT_type(*DW$T$11)
    2053                      .dwattr DW$141, DW_AT_name("temperaturealarm"), DW_AT_symbol_name("_temperaturealarm")
TMS320C2000 COFF Assembler PC v4.1.3 Thu Aug 18 12:16:30 2016

Tools Copyright (c) 1996-2006 Texas Instruments Incorporated
setup.asm                                                            PAGE   45

    2054                      .dwattr DW$141, DW_AT_data_member_location[DW_OP_plus_uconst 0x1d]
    2055                      .dwattr DW$141, DW_AT_accessibility(DW_ACCESS_public)
    2056              DW$142  .dwtag  DW_TAG_member, DW_AT_type(*DW$T$11)
    2057                      .dwattr DW$142, DW_AT_name("temperatureslowdown"), DW_AT_symbol_name("_temperatureslowdown")
    2058                      .dwattr DW$142, DW_AT_data_member_location[DW_OP_plus_uconst 0x1e]
    2059                      .dwattr DW$142, DW_AT_accessibility(DW_ACCESS_public)
    2060              DW$143  .dwtag  DW_TAG_member, DW_AT_type(*DW$T$19)
    2061                      .dwattr DW$143, DW_AT_name("anadebug"), DW_AT_symbol_name("_anadebug")
    2062                      .dwattr DW$143, DW_AT_data_member_location[DW_OP_plus_uconst 0x1f]
    2063                      .dwattr DW$143, DW_AT_accessibility(DW_ACCESS_public)
    2064              DW$144  .dwtag  DW_TAG_member, DW_AT_type(*DW$T$11)
    2065                      .dwattr DW$144, DW_AT_name("serialdebug"), DW_AT_symbol_name("_serialdebug")
    2066                      .dwattr DW$144, DW_AT_data_member_location[DW_OP_plus_uconst 0x21]
    2067                      .dwattr DW$144, DW_AT_accessibility(DW_ACCESS_public)
    2068              DW$145  .dwtag  DW_TAG_member, DW_AT_type(*DW$T$11)
    2069                      .dwattr DW$145, DW_AT_name("timerrunning"), DW_AT_symbol_name("_timerrunning")
    2070                      .dwattr DW$145, DW_AT_data_member_location[DW_OP_plus_uconst 0x22]
    2071                      .dwattr DW$145, DW_AT_accessibility(DW_ACCESS_public)
    2072              DW$146  .dwtag  DW_TAG_member, DW_AT_type(*DW$T$11)
    2073                      .dwattr DW$146, DW_AT_name("rpm"), DW_AT_symbol_name("_rpm")
    2074                      .dwattr DW$146, DW_AT_data_member_location[DW_OP_plus_uconst 0x23]
    2075                      .dwattr DW$146, DW_AT_accessibility(DW_ACCESS_public)
    2076                      .dwendtag DW$T$20
    2077              
    2078              
    2079              DW$T$24 .dwtag  DW_TAG_structure_type
    2080                      .dwattr DW$T$24, DW_AT_name("tag_safestruct1struct")
    2081                      .dwattr DW$T$24, DW_AT_byte_size(0x1f)
    2082              DW$147  .dwtag  DW_TAG_member, DW_AT_type(*DW$T$22)
    2083                      .dwattr DW$147, DW_AT_name("inputs"), DW_AT_symbol_name("_inputs")
    2084                      .dwattr DW$147, DW_AT_data_member_location[DW_OP_plus_uconst 0x0]
    2085                      .dwattr DW$147, DW_AT_accessibility(DW_ACCESS_public)
    2086              DW$148  .dwtag  DW_TAG_member, DW_AT_type(*DW$T$23)
    2087                      .dwattr DW$148, DW_AT_name("watchdog"), DW_AT_symbol_name("_watchdog")
    2088                      .dwattr DW$148, DW_AT_data_member_location[DW_OP_plus_uconst 0x1e]
    2089                      .dwattr DW$148, DW_AT_accessibility(DW_ACCESS_public)
    2090                      .dwendtag DW$T$24
    2091              
    2092              
    2093              DW$T$37 .dwtag  DW_TAG_structure_type
    2094                      .dwattr DW$T$37, DW_AT_name("tag_safestruct2struct")
    2095                      .dwattr DW$T$37, DW_AT_byte_size(0x1e)
    2096              DW$149  .dwtag  DW_TAG_member, DW_AT_type(*DW$T$26)
    2097                      .dwattr DW$149, DW_AT_name("inputs"), DW_AT_symbol_name("_inputs")
    2098                      .dwattr DW$149, DW_AT_data_member_location[DW_OP_plus_uconst 0x0]
    2099                      .dwattr DW$149, DW_AT_accessibility(DW_ACCESS_public)
    2100              DW$150  .dwtag  DW_TAG_member, DW_AT_type(*DW$T$27)
    2101                      .dwattr DW$150, DW_AT_name("log"), DW_AT_symbol_name("_log")
    2102                      .dwattr DW$150, DW_AT_data_member_location[DW_OP_plus_uconst 0xb]
    2103                      .dwattr DW$150, DW_AT_accessibility(DW_ACCESS_public)
    2104              DW$151  .dwtag  DW_TAG_member, DW_AT_type(*DW$T$28)
    2105                      .dwattr DW$151, DW_AT_name("modbus"), DW_AT_symbol_name("_modbus")
    2106                      .dwattr DW$151, DW_AT_data_member_location[DW_OP_plus_uconst 0xe]
    2107                      .dwattr DW$151, DW_AT_accessibility(DW_ACCESS_public)
    2108              DW$152  .dwtag  DW_TAG_member, DW_AT_type(*DW$T$29)
TMS320C2000 COFF Assembler PC v4.1.3 Thu Aug 18 12:16:30 2016

Tools Copyright (c) 1996-2006 Texas Instruments Incorporated
setup.asm                                                            PAGE   46

    2109                      .dwattr DW$152, DW_AT_name("filter"), DW_AT_symbol_name("_filter")
    2110                      .dwattr DW$152, DW_AT_data_member_location[DW_OP_plus_uconst 0xf]
    2111                      .dwattr DW$152, DW_AT_accessibility(DW_ACCESS_public)
    2112              DW$153  .dwtag  DW_TAG_member, DW_AT_type(*DW$T$30)
    2113                      .dwattr DW$153, DW_AT_name("alarms"), DW_AT_symbol_name("_alarms")
    2114                      .dwattr DW$153, DW_AT_data_member_location[DW_OP_plus_uconst 0x11]
    2115                      .dwattr DW$153, DW_AT_accessibility(DW_ACCESS_public)
    2116              DW$154  .dwtag  DW_TAG_member, DW_AT_type(*DW$T$31)
    2117                      .dwattr DW$154, DW_AT_name("modbusbaud"), DW_AT_symbol_name("_modbusbaud")
    2118                      .dwattr DW$154, DW_AT_data_member_location[DW_OP_plus_uconst 0x14]
    2119                      .dwattr DW$154, DW_AT_accessibility(DW_ACCESS_public)
    2120              DW$155  .dwtag  DW_TAG_member, DW_AT_type(*DW$T$32)
    2121                      .dwattr DW$155, DW_AT_name("modbus2"), DW_AT_symbol_name("_modbus2")
    2122                      .dwattr DW$155, DW_AT_data_member_location[DW_OP_plus_uconst 0x15]
    2123                      .dwattr DW$155, DW_AT_accessibility(DW_ACCESS_public)
    2124              DW$156  .dwtag  DW_TAG_member, DW_AT_type(*DW$T$33)
    2125                      .dwattr DW$156, DW_AT_name("sync"), DW_AT_symbol_name("_sync")
    2126                      .dwattr DW$156, DW_AT_data_member_location[DW_OP_plus_uconst 0x17]
    2127                      .dwattr DW$156, DW_AT_accessibility(DW_ACCESS_public)
    2128              DW$157  .dwtag  DW_TAG_member, DW_AT_type(*DW$T$34)
    2129                      .dwattr DW$157, DW_AT_name("alarmenable"), DW_AT_symbol_name("_alarmenable")
    2130                      .dwattr DW$157, DW_AT_data_member_location[DW_OP_plus_uconst 0x1b]
    2131                      .dwattr DW$157, DW_AT_accessibility(DW_ACCESS_public)
    2132              DW$158  .dwtag  DW_TAG_member, DW_AT_type(*DW$T$35)
    2133                      .dwattr DW$158, DW_AT_name("trendmax"), DW_AT_symbol_name("_trendmax")
    2134                      .dwattr DW$158, DW_AT_data_member_location[DW_OP_plus_uconst 0x1c]
    2135                      .dwattr DW$158, DW_AT_accessibility(DW_ACCESS_public)
    2136              DW$159  .dwtag  DW_TAG_member, DW_AT_type(*DW$T$36)
    2137                      .dwattr DW$159, DW_AT_name("tempcomp"), DW_AT_symbol_name("_tempcomp")
    2138                      .dwattr DW$159, DW_AT_data_member_location[DW_OP_plus_uconst 0x1d]
    2139                      .dwattr DW$159, DW_AT_accessibility(DW_ACCESS_public)
    2140                      .dwendtag DW$T$37
    2141              
    2142              
    2143              DW$T$38 .dwtag  DW_TAG_structure_type
    2144                      .dwattr DW$T$38, DW_AT_name("tag_clockstruct")
    2145                      .dwattr DW$T$38, DW_AT_byte_size(0x0e)
    2146              DW$160  .dwtag  DW_TAG_member, DW_AT_type(*DW$T$11)
    2147                      .dwattr DW$160, DW_AT_name("WPstate"), DW_AT_symbol_name("_WPstate")
    2148                      .dwattr DW$160, DW_AT_data_member_location[DW_OP_plus_uconst 0x0]
    2149                      .dwattr DW$160, DW_AT_accessibility(DW_ACCESS_public)
    2150              DW$161  .dwtag  DW_TAG_member, DW_AT_type(*DW$T$11)
    2151                      .dwattr DW$161, DW_AT_name("seconds"), DW_AT_symbol_name("_seconds")
    2152                      .dwattr DW$161, DW_AT_data_member_location[DW_OP_plus_uconst 0x1]
    2153                      .dwattr DW$161, DW_AT_accessibility(DW_ACCESS_public)
    2154              DW$162  .dwtag  DW_TAG_member, DW_AT_type(*DW$T$11)
    2155                      .dwattr DW$162, DW_AT_name("minutes"), DW_AT_symbol_name("_minutes")
    2156                      .dwattr DW$162, DW_AT_data_member_location[DW_OP_plus_uconst 0x2]
    2157                      .dwattr DW$162, DW_AT_accessibility(DW_ACCESS_public)
    2158              DW$163  .dwtag  DW_TAG_member, DW_AT_type(*DW$T$11)
    2159                      .dwattr DW$163, DW_AT_name("hours"), DW_AT_symbol_name("_hours")
    2160                      .dwattr DW$163, DW_AT_data_member_location[DW_OP_plus_uconst 0x3]
    2161                      .dwattr DW$163, DW_AT_accessibility(DW_ACCESS_public)
    2162              DW$164  .dwtag  DW_TAG_member, DW_AT_type(*DW$T$11)
    2163                      .dwattr DW$164, DW_AT_name("day"), DW_AT_symbol_name("_day")
TMS320C2000 COFF Assembler PC v4.1.3 Thu Aug 18 12:16:30 2016

Tools Copyright (c) 1996-2006 Texas Instruments Incorporated
setup.asm                                                            PAGE   47

    2164                      .dwattr DW$164, DW_AT_data_member_location[DW_OP_plus_uconst 0x4]
    2165                      .dwattr DW$164, DW_AT_accessibility(DW_ACCESS_public)
    2166              DW$165  .dwtag  DW_TAG_member, DW_AT_type(*DW$T$11)
    2167                      .dwattr DW$165, DW_AT_name("date"), DW_AT_symbol_name("_date")
    2168                      .dwattr DW$165, DW_AT_data_member_location[DW_OP_plus_uconst 0x5]
    2169                      .dwattr DW$165, DW_AT_accessibility(DW_ACCESS_public)
    2170              DW$166  .dwtag  DW_TAG_member, DW_AT_type(*DW$T$11)
    2171                      .dwattr DW$166, DW_AT_name("month"), DW_AT_symbol_name("_month")
    2172                      .dwattr DW$166, DW_AT_data_member_location[DW_OP_plus_uconst 0x6]
    2173                      .dwattr DW$166, DW_AT_accessibility(DW_ACCESS_public)
    2174              DW$167  .dwtag  DW_TAG_member, DW_AT_type(*DW$T$11)
    2175                      .dwattr DW$167, DW_AT_name("year"), DW_AT_symbol_name("_year")
    2176                      .dwattr DW$167, DW_AT_data_member_location[DW_OP_plus_uconst 0x7]
    2177                      .dwattr DW$167, DW_AT_accessibility(DW_ACCESS_public)
    2178              DW$168  .dwtag  DW_TAG_member, DW_AT_type(*DW$T$11)
    2179                      .dwattr DW$168, DW_AT_name("control"), DW_AT_symbol_name("_control")
    2180                      .dwattr DW$168, DW_AT_data_member_location[DW_OP_plus_uconst 0x8]
    2181                      .dwattr DW$168, DW_AT_accessibility(DW_ACCESS_public)
    2182              DW$169  .dwtag  DW_TAG_member, DW_AT_type(*DW$T$13)
    2183                      .dwattr DW$169, DW_AT_name("framstamp"), DW_AT_symbol_name("_framstamp")
    2184                      .dwattr DW$169, DW_AT_data_member_location[DW_OP_plus_uconst 0xa]
    2185                      .dwattr DW$169, DW_AT_accessibility(DW_ACCESS_public)
    2186              DW$170  .dwtag  DW_TAG_member, DW_AT_type(*DW$T$11)
    2187                      .dwattr DW$170, DW_AT_name("clockerr"), DW_AT_symbol_name("_clockerr")
    2188                      .dwattr DW$170, DW_AT_data_member_location[DW_OP_plus_uconst 0xc]
    2189                      .dwattr DW$170, DW_AT_accessibility(DW_ACCESS_public)
    2190                      .dwendtag DW$T$38
    2191              
    2192              DW$T$101        .dwtag  DW_TAG_typedef, DW_AT_name("timersstruct"), DW_AT_type(*DW$T$39)
    2193                      .dwattr DW$T$101, DW_AT_language(DW_LANG_C)
    2194              
    2195              DW$T$42 .dwtag  DW_TAG_structure_type
    2196                      .dwattr DW$T$42, DW_AT_name("tag_allsensorstruct")
    2197                      .dwattr DW$T$42, DW_AT_byte_size(0x2d)
    2198              DW$171  .dwtag  DW_TAG_member, DW_AT_type(*DW$T$11)
    2199                      .dwattr DW$171, DW_AT_name("numsensors"), DW_AT_symbol_name("_numsensors")
    2200                      .dwattr DW$171, DW_AT_data_member_location[DW_OP_plus_uconst 0x0]
    2201                      .dwattr DW$171, DW_AT_accessibility(DW_ACCESS_public)
    2202              DW$172  .dwtag  DW_TAG_member, DW_AT_type(*DW$T$11)
    2203                      .dwattr DW$172, DW_AT_name("numsensorsspu1"), DW_AT_symbol_name("_numsensorsspu1")
    2204                      .dwattr DW$172, DW_AT_data_member_location[DW_OP_plus_uconst 0x1]
    2205                      .dwattr DW$172, DW_AT_accessibility(DW_ACCESS_public)
    2206              DW$173  .dwtag  DW_TAG_member, DW_AT_type(*DW$T$11)
    2207                      .dwattr DW$173, DW_AT_name("numsensorsspu2"), DW_AT_symbol_name("_numsensorsspu2")
    2208                      .dwattr DW$173, DW_AT_data_member_location[DW_OP_plus_uconst 0x2]
    2209                      .dwattr DW$173, DW_AT_accessibility(DW_ACCESS_public)
    2210              DW$174  .dwtag  DW_TAG_member, DW_AT_type(*DW$T$11)
    2211                      .dwattr DW$174, DW_AT_name("nominalspeed"), DW_AT_symbol_name("_nominalspeed")
    2212                      .dwattr DW$174, DW_AT_data_member_location[DW_OP_plus_uconst 0x3]
    2213                      .dwattr DW$174, DW_AT_accessibility(DW_ACCESS_public)
    2214              DW$175  .dwtag  DW_TAG_member, DW_AT_type(*DW$T$11)
    2215                      .dwattr DW$175, DW_AT_name("rpmmin"), DW_AT_symbol_name("_rpmmin")
    2216                      .dwattr DW$175, DW_AT_data_member_location[DW_OP_plus_uconst 0x4]
    2217                      .dwattr DW$175, DW_AT_accessibility(DW_ACCESS_public)
    2218              DW$176  .dwtag  DW_TAG_member, DW_AT_type(*DW$T$11)
TMS320C2000 COFF Assembler PC v4.1.3 Thu Aug 18 12:16:30 2016

Tools Copyright (c) 1996-2006 Texas Instruments Incorporated
setup.asm                                                            PAGE   48

    2219                      .dwattr DW$176, DW_AT_name("rpmmax"), DW_AT_symbol_name("_rpmmax")
    2220                      .dwattr DW$176, DW_AT_data_member_location[DW_OP_plus_uconst 0x5]
    2221                      .dwattr DW$176, DW_AT_accessibility(DW_ACCESS_public)
    2222              DW$177  .dwtag  DW_TAG_member, DW_AT_type(*DW$T$11)
    2223                      .dwattr DW$177, DW_AT_name("reflash"), DW_AT_symbol_name("_reflash")
    2224                      .dwattr DW$177, DW_AT_data_member_location[DW_OP_plus_uconst 0x6]
    2225                      .dwattr DW$177, DW_AT_accessibility(DW_ACCESS_public)
    2226              DW$178  .dwtag  DW_TAG_member, DW_AT_type(*DW$T$10)
    2227                      .dwattr DW$178, DW_AT_name("sensorhysteresis"), DW_AT_symbol_name("_sensorhysteresis")
    2228                      .dwattr DW$178, DW_AT_data_member_location[DW_OP_plus_uconst 0x7]
    2229                      .dwattr DW$178, DW_AT_accessibility(DW_ACCESS_public)
    2230              DW$179  .dwtag  DW_TAG_member, DW_AT_type(*DW$T$10)
    2231                      .dwattr DW$179, DW_AT_name("cylinderhysteresis"), DW_AT_symbol_name("_cylinderhysteresis")
    2232                      .dwattr DW$179, DW_AT_data_member_location[DW_OP_plus_uconst 0x8]
    2233                      .dwattr DW$179, DW_AT_accessibility(DW_ACCESS_public)
    2234              DW$180  .dwtag  DW_TAG_member, DW_AT_type(*DW$T$11)
    2235                      .dwattr DW$180, DW_AT_name("slowdownlevel"), DW_AT_symbol_name("_slowdownlevel")
    2236                      .dwattr DW$180, DW_AT_data_member_location[DW_OP_plus_uconst 0x9]
    2237                      .dwattr DW$180, DW_AT_accessibility(DW_ACCESS_public)
    2238              DW$181  .dwtag  DW_TAG_member, DW_AT_type(*DW$T$11)
    2239                      .dwattr DW$181, DW_AT_name("alarmlevel"), DW_AT_symbol_name("_alarmlevel")
    2240                      .dwattr DW$181, DW_AT_data_member_location[DW_OP_plus_uconst 0xa]
    2241                      .dwattr DW$181, DW_AT_accessibility(DW_ACCESS_public)
    2242              DW$182  .dwtag  DW_TAG_member, DW_AT_type(*DW$T$11)
    2243                      .dwattr DW$182, DW_AT_name("slowdowndevcallevel"), DW_AT_symbol_name("_slowdowndevcallevel")
    2244                      .dwattr DW$182, DW_AT_data_member_location[DW_OP_plus_uconst 0xb]
    2245                      .dwattr DW$182, DW_AT_accessibility(DW_ACCESS_public)
    2246              DW$183  .dwtag  DW_TAG_member, DW_AT_type(*DW$T$11)
    2247                      .dwattr DW$183, DW_AT_name("alarmdevcallevel"), DW_AT_symbol_name("_alarmdevcallevel")
    2248                      .dwattr DW$183, DW_AT_data_member_location[DW_OP_plus_uconst 0xc]
    2249                      .dwattr DW$183, DW_AT_accessibility(DW_ACCESS_public)
    2250              DW$184  .dwtag  DW_TAG_member, DW_AT_type(*DW$T$11)
    2251                      .dwattr DW$184, DW_AT_name("slowdowndevlevel"), DW_AT_symbol_name("_slowdowndevlevel")
    2252                      .dwattr DW$184, DW_AT_data_member_location[DW_OP_plus_uconst 0xd]
    2253                      .dwattr DW$184, DW_AT_accessibility(DW_ACCESS_public)
    2254              DW$185  .dwtag  DW_TAG_member, DW_AT_type(*DW$T$11)
    2255                      .dwattr DW$185, DW_AT_name("alarmdevlevel"), DW_AT_symbol_name("_alarmdevlevel")
    2256                      .dwattr DW$185, DW_AT_data_member_location[DW_OP_plus_uconst 0xe]
    2257                      .dwattr DW$185, DW_AT_accessibility(DW_ACCESS_public)
    2258              DW$186  .dwtag  DW_TAG_member, DW_AT_type(*DW$T$11)
    2259                      .dwattr DW$186, DW_AT_name("cylinderalarmlevel"), DW_AT_symbol_name("_cylinderalarmlevel")
    2260                      .dwattr DW$186, DW_AT_data_member_location[DW_OP_plus_uconst 0xf]
    2261                      .dwattr DW$186, DW_AT_accessibility(DW_ACCESS_public)
    2262              DW$187  .dwtag  DW_TAG_member, DW_AT_type(*DW$T$40)
    2263                      .dwattr DW$187, DW_AT_name("flags"), DW_AT_symbol_name("_flags")
    2264                      .dwattr DW$187, DW_AT_data_member_location[DW_OP_plus_uconst 0x10]
    2265                      .dwattr DW$187, DW_AT_accessibility(DW_ACCESS_public)
    2266              DW$188  .dwtag  DW_TAG_member, DW_AT_type(*DW$T$11)
    2267                      .dwattr DW$188, DW_AT_name("slowdownack"), DW_AT_symbol_name("_slowdownack")
    2268                      .dwattr DW$188, DW_AT_data_member_location[DW_OP_plus_uconst 0x11]
    2269                      .dwattr DW$188, DW_AT_accessibility(DW_ACCESS_public)
    2270              DW$189  .dwtag  DW_TAG_member, DW_AT_type(*DW$T$11)
    2271                      .dwattr DW$189, DW_AT_name("alarmack"), DW_AT_symbol_name("_alarmack")
    2272                      .dwattr DW$189, DW_AT_data_member_location[DW_OP_plus_uconst 0x12]
    2273                      .dwattr DW$189, DW_AT_accessibility(DW_ACCESS_public)
TMS320C2000 COFF Assembler PC v4.1.3 Thu Aug 18 12:16:30 2016

Tools Copyright (c) 1996-2006 Texas Instruments Incorporated
setup.asm                                                            PAGE   49

    2274              DW$190  .dwtag  DW_TAG_member, DW_AT_type(*DW$T$11)
    2275                      .dwattr DW$190, DW_AT_name("maxmintimer"), DW_AT_symbol_name("_maxmintimer")
    2276                      .dwattr DW$190, DW_AT_data_member_location[DW_OP_plus_uconst 0x13]
    2277                      .dwattr DW$190, DW_AT_accessibility(DW_ACCESS_public)
    2278              DW$191  .dwtag  DW_TAG_member, DW_AT_type(*DW$T$11)
    2279                      .dwattr DW$191, DW_AT_name("enginedircal"), DW_AT_symbol_name("_enginedircal")
    2280                      .dwattr DW$191, DW_AT_data_member_location[DW_OP_plus_uconst 0x14]
    2281                      .dwattr DW$191, DW_AT_accessibility(DW_ACCESS_public)
    2282              DW$192  .dwtag  DW_TAG_member, DW_AT_type(*DW$T$21)
    2283                      .dwattr DW$192, DW_AT_name("dirorder"), DW_AT_symbol_name("_dirorder")
    2284                      .dwattr DW$192, DW_AT_data_member_location[DW_OP_plus_uconst 0x15]
    2285                      .dwattr DW$192, DW_AT_accessibility(DW_ACCESS_public)
    2286              DW$193  .dwtag  DW_TAG_member, DW_AT_type(*DW$T$11)
    2287                      .dwattr DW$193, DW_AT_name("prewarningtimer"), DW_AT_symbol_name("_prewarningtimer")
    2288                      .dwattr DW$193, DW_AT_data_member_location[DW_OP_plus_uconst 0x23]
    2289                      .dwattr DW$193, DW_AT_accessibility(DW_ACCESS_public)
    2290              DW$194  .dwtag  DW_TAG_member, DW_AT_type(*DW$T$11)
    2291                      .dwattr DW$194, DW_AT_name("prewarninglevel"), DW_AT_symbol_name("_prewarninglevel")
    2292                      .dwattr DW$194, DW_AT_data_member_location[DW_OP_plus_uconst 0x24]
    2293                      .dwattr DW$194, DW_AT_accessibility(DW_ACCESS_public)
    2294              DW$195  .dwtag  DW_TAG_member, DW_AT_type(*DW$T$11)
    2295                      .dwattr DW$195, DW_AT_name("rpmlimit"), DW_AT_symbol_name("_rpmlimit")
    2296                      .dwattr DW$195, DW_AT_data_member_location[DW_OP_plus_uconst 0x25]
    2297                      .dwattr DW$195, DW_AT_accessibility(DW_ACCESS_public)
    2298              DW$196  .dwtag  DW_TAG_member, DW_AT_type(*DW$T$11)
    2299                      .dwattr DW$196, DW_AT_name("dsss"), DW_AT_symbol_name("_dsss")
    2300                      .dwattr DW$196, DW_AT_data_member_location[DW_OP_plus_uconst 0x26]
    2301                      .dwattr DW$196, DW_AT_accessibility(DW_ACCESS_public)
    2302              DW$197  .dwtag  DW_TAG_member, DW_AT_type(*DW$T$11)
    2303                      .dwattr DW$197, DW_AT_name("slowdowncallevel"), DW_AT_symbol_name("_slowdowncallevel")
    2304                      .dwattr DW$197, DW_AT_data_member_location[DW_OP_plus_uconst 0x27]
    2305                      .dwattr DW$197, DW_AT_accessibility(DW_ACCESS_public)
    2306              DW$198  .dwtag  DW_TAG_member, DW_AT_type(*DW$T$11)
    2307                      .dwattr DW$198, DW_AT_name("alarmcallevel"), DW_AT_symbol_name("_alarmcallevel")
    2308                      .dwattr DW$198, DW_AT_data_member_location[DW_OP_plus_uconst 0x28]
    2309                      .dwattr DW$198, DW_AT_accessibility(DW_ACCESS_public)
    2310              DW$199  .dwtag  DW_TAG_member, DW_AT_type(*DW$T$11)
    2311                      .dwattr DW$199, DW_AT_name("cylinderalarmcallevel"), DW_AT_symbol_name("_cylinderalarmcallevel")
    2312                      .dwattr DW$199, DW_AT_data_member_location[DW_OP_plus_uconst 0x29]
    2313                      .dwattr DW$199, DW_AT_accessibility(DW_ACCESS_public)
    2314              DW$200  .dwtag  DW_TAG_member, DW_AT_type(*DW$T$41)
    2315                      .dwattr DW$200, DW_AT_name("bits"), DW_AT_symbol_name("_bits")
    2316                      .dwattr DW$200, DW_AT_data_member_location[DW_OP_plus_uconst 0x2a]
    2317                      .dwattr DW$200, DW_AT_accessibility(DW_ACCESS_public)
    2318              DW$201  .dwtag  DW_TAG_member, DW_AT_type(*DW$T$11)
    2319                      .dwattr DW$201, DW_AT_name("iBarredVibrationSpeedLow"), DW_AT_symbol_name("_iBarredVibrationSpeedLow"
    2320                      .dwattr DW$201, DW_AT_data_member_location[DW_OP_plus_uconst 0x2b]
    2321                      .dwattr DW$201, DW_AT_accessibility(DW_ACCESS_public)
    2322              DW$202  .dwtag  DW_TAG_member, DW_AT_type(*DW$T$11)
    2323                      .dwattr DW$202, DW_AT_name("iBarredVibrationSpeedHigh"), DW_AT_symbol_name("_iBarredVibrationSpeedHig
    2324                      .dwattr DW$202, DW_AT_data_member_location[DW_OP_plus_uconst 0x2c]
    2325                      .dwattr DW$202, DW_AT_accessibility(DW_ACCESS_public)
    2326                      .dwendtag DW$T$42
    2327              
    2328              
TMS320C2000 COFF Assembler PC v4.1.3 Thu Aug 18 12:16:30 2016

Tools Copyright (c) 1996-2006 Texas Instruments Incorporated
setup.asm                                                            PAGE   50

    2329              DW$T$49 .dwtag  DW_TAG_structure_type
    2330                      .dwattr DW$T$49, DW_AT_name("tag_configstruct")
    2331                      .dwattr DW$T$49, DW_AT_byte_size(0x18)
    2332              DW$203  .dwtag  DW_TAG_member, DW_AT_type(*DW$T$43)
    2333                      .dwattr DW$203, DW_AT_name("filter"), DW_AT_symbol_name("_filter")
    2334                      .dwattr DW$203, DW_AT_data_member_location[DW_OP_plus_uconst 0x0]
    2335                      .dwattr DW$203, DW_AT_accessibility(DW_ACCESS_public)
    2336              DW$204  .dwtag  DW_TAG_member, DW_AT_type(*DW$T$44)
    2337                      .dwattr DW$204, DW_AT_name("alarmenable"), DW_AT_symbol_name("_alarmenable")
    2338                      .dwattr DW$204, DW_AT_data_member_location[DW_OP_plus_uconst 0x1]
    2339                      .dwattr DW$204, DW_AT_accessibility(DW_ACCESS_public)
    2340              DW$205  .dwtag  DW_TAG_member, DW_AT_type(*DW$T$45)
    2341                      .dwattr DW$205, DW_AT_name("trendmax"), DW_AT_symbol_name("_trendmax")
    2342                      .dwattr DW$205, DW_AT_data_member_location[DW_OP_plus_uconst 0x2]
    2343                      .dwattr DW$205, DW_AT_accessibility(DW_ACCESS_public)
    2344              DW$206  .dwtag  DW_TAG_member, DW_AT_type(*DW$T$46)
    2345                      .dwattr DW$206, DW_AT_name("inputs"), DW_AT_symbol_name("_inputs")
    2346                      .dwattr DW$206, DW_AT_data_member_location[DW_OP_plus_uconst 0x3]
    2347                      .dwattr DW$206, DW_AT_accessibility(DW_ACCESS_public)
    2348              DW$207  .dwtag  DW_TAG_member, DW_AT_type(*DW$T$47)
    2349                      .dwattr DW$207, DW_AT_name("sdsettings"), DW_AT_symbol_name("_sdsettings")
    2350                      .dwattr DW$207, DW_AT_data_member_location[DW_OP_plus_uconst 0x6]
    2351                      .dwattr DW$207, DW_AT_accessibility(DW_ACCESS_public)
    2352              DW$208  .dwtag  DW_TAG_member, DW_AT_type(*DW$T$48)
    2353                      .dwattr DW$208, DW_AT_name("comms"), DW_AT_symbol_name("_comms")
    2354                      .dwattr DW$208, DW_AT_data_member_location[DW_OP_plus_uconst 0x8]
    2355                      .dwattr DW$208, DW_AT_accessibility(DW_ACCESS_public)
    2356                      .dwendtag DW$T$49
    2357              
    2358              
    2359              DW$T$52 .dwtag  DW_TAG_structure_type
    2360                      .dwattr DW$T$52, DW_AT_name("tag_uartreadC")
    2361                      .dwattr DW$T$52, DW_AT_byte_size(0x68)
    2362              DW$209  .dwtag  DW_TAG_member, DW_AT_type(*DW$T$11)
    2363                      .dwattr DW$209, DW_AT_name("receiveINTR"), DW_AT_symbol_name("_receiveINTR")
    2364                      .dwattr DW$209, DW_AT_data_member_location[DW_OP_plus_uconst 0x0]
    2365                      .dwattr DW$209, DW_AT_accessibility(DW_ACCESS_public)
    2366              DW$210  .dwtag  DW_TAG_member, DW_AT_type(*DW$T$11)
    2367                      .dwattr DW$210, DW_AT_name("currentcharcount"), DW_AT_symbol_name("_currentcharcount")
    2368                      .dwattr DW$210, DW_AT_data_member_location[DW_OP_plus_uconst 0x1]
    2369                      .dwattr DW$210, DW_AT_accessibility(DW_ACCESS_public)
    2370              DW$211  .dwtag  DW_TAG_member, DW_AT_type(*DW$T$11)
    2371                      .dwattr DW$211, DW_AT_name("previouscharcount"), DW_AT_symbol_name("_previouscharcount")
    2372                      .dwattr DW$211, DW_AT_data_member_location[DW_OP_plus_uconst 0x2]
    2373                      .dwattr DW$211, DW_AT_accessibility(DW_ACCESS_public)
    2374              DW$212  .dwtag  DW_TAG_member, DW_AT_type(*DW$T$50)
    2375                      .dwattr DW$212, DW_AT_name("buf"), DW_AT_symbol_name("_buf")
    2376                      .dwattr DW$212, DW_AT_data_member_location[DW_OP_plus_uconst 0x3]
    2377                      .dwattr DW$212, DW_AT_accessibility(DW_ACCESS_public)
    2378              DW$213  .dwtag  DW_TAG_member, DW_AT_type(*DW$T$51)
    2379                      .dwattr DW$213, DW_AT_name("uartcharrx"), DW_AT_symbol_name("_uartcharrx")
    2380                      .dwattr DW$213, DW_AT_data_member_location[DW_OP_plus_uconst 0x67]
    2381                      .dwattr DW$213, DW_AT_accessibility(DW_ACCESS_public)
    2382                      .dwendtag DW$T$52
    2383              
TMS320C2000 COFF Assembler PC v4.1.3 Thu Aug 18 12:16:30 2016

Tools Copyright (c) 1996-2006 Texas Instruments Incorporated
setup.asm                                                            PAGE   51

    2384              
    2385              DW$T$54 .dwtag  DW_TAG_structure_type
    2386                      .dwattr DW$T$54, DW_AT_byte_size(0x13)
    2387              DW$214  .dwtag  DW_TAG_member, DW_AT_type(*DW$T$10)
    2388                      .dwattr DW$214, DW_AT_name("count"), DW_AT_symbol_name("_count")
    2389                      .dwattr DW$214, DW_AT_data_member_location[DW_OP_plus_uconst 0x0]
    2390                      .dwattr DW$214, DW_AT_accessibility(DW_ACCESS_public)
    2391              DW$215  .dwtag  DW_TAG_member, DW_AT_type(*DW$T$10)
    2392                      .dwattr DW$215, DW_AT_name("ready"), DW_AT_symbol_name("_ready")
    2393                      .dwattr DW$215, DW_AT_data_member_location[DW_OP_plus_uconst 0x1]
    2394                      .dwattr DW$215, DW_AT_accessibility(DW_ACCESS_public)
    2395              DW$216  .dwtag  DW_TAG_member, DW_AT_type(*DW$T$10)
    2396                      .dwattr DW$216, DW_AT_name("previouscount"), DW_AT_symbol_name("_previouscount")
    2397                      .dwattr DW$216, DW_AT_data_member_location[DW_OP_plus_uconst 0x2]
    2398                      .dwattr DW$216, DW_AT_accessibility(DW_ACCESS_public)
    2399              DW$217  .dwtag  DW_TAG_member, DW_AT_type(*DW$T$10)
    2400                      .dwattr DW$217, DW_AT_name("sampleperiod"), DW_AT_symbol_name("_sampleperiod")
    2401                      .dwattr DW$217, DW_AT_data_member_location[DW_OP_plus_uconst 0x3]
    2402                      .dwattr DW$217, DW_AT_accessibility(DW_ACCESS_public)
    2403              DW$218  .dwtag  DW_TAG_member, DW_AT_type(*DW$T$10)
    2404                      .dwattr DW$218, DW_AT_name("period"), DW_AT_symbol_name("_period")
    2405                      .dwattr DW$218, DW_AT_data_member_location[DW_OP_plus_uconst 0x4]
    2406                      .dwattr DW$218, DW_AT_accessibility(DW_ACCESS_public)
    2407              DW$219  .dwtag  DW_TAG_member, DW_AT_type(*DW$T$53)
    2408                      .dwattr DW$219, DW_AT_name("stable"), DW_AT_symbol_name("_stable")
    2409                      .dwattr DW$219, DW_AT_data_member_location[DW_OP_plus_uconst 0x5]
    2410                      .dwattr DW$219, DW_AT_accessibility(DW_ACCESS_public)
    2411                      .dwendtag DW$T$54
    2412              
    2413              
    2414              DW$T$57 .dwtag  DW_TAG_structure_type
    2415                      .dwattr DW$T$57, DW_AT_name("tag_speedcompstruct")
    2416                      .dwattr DW$T$57, DW_AT_byte_size(0x19)
    2417              DW$220  .dwtag  DW_TAG_member, DW_AT_type(*DW$T$11)
    2418                      .dwattr DW$220, DW_AT_name("stageflag"), DW_AT_symbol_name("_stageflag")
    2419                      .dwattr DW$220, DW_AT_data_member_location[DW_OP_plus_uconst 0x0]
    2420                      .dwattr DW$220, DW_AT_accessibility(DW_ACCESS_public)
    2421              DW$221  .dwtag  DW_TAG_member, DW_AT_type(*DW$T$11)
    2422                      .dwattr DW$221, DW_AT_name("status"), DW_AT_symbol_name("_status")
    2423                      .dwattr DW$221, DW_AT_data_member_location[DW_OP_plus_uconst 0x1]
    2424                      .dwattr DW$221, DW_AT_accessibility(DW_ACCESS_public)
    2425              DW$222  .dwtag  DW_TAG_member, DW_AT_type(*DW$T$56)
    2426                      .dwattr DW$222, DW_AT_name("speedbands"), DW_AT_symbol_name("_speedbands")
    2427                      .dwattr DW$222, DW_AT_data_member_location[DW_OP_plus_uconst 0x2]
    2428                      .dwattr DW$222, DW_AT_accessibility(DW_ACCESS_public)
    2429              DW$223  .dwtag  DW_TAG_member, DW_AT_type(*DW$T$11)
    2430                      .dwattr DW$223, DW_AT_name("slopecoeff"), DW_AT_symbol_name("_slopecoeff")
    2431                      .dwattr DW$223, DW_AT_data_member_location[DW_OP_plus_uconst 0x8]
    2432                      .dwattr DW$223, DW_AT_accessibility(DW_ACCESS_public)
    2433              DW$224  .dwtag  DW_TAG_member, DW_AT_type(*DW$T$11)
    2434                      .dwattr DW$224, DW_AT_name("initialtimer"), DW_AT_symbol_name("_initialtimer")
    2435                      .dwattr DW$224, DW_AT_data_member_location[DW_OP_plus_uconst 0x9]
    2436                      .dwattr DW$224, DW_AT_accessibility(DW_ACCESS_public)
    2437              DW$225  .dwtag  DW_TAG_member, DW_AT_type(*DW$T$11)
    2438                      .dwattr DW$225, DW_AT_name("learningmodetimer"), DW_AT_symbol_name("_learningmodetimer")
TMS320C2000 COFF Assembler PC v4.1.3 Thu Aug 18 12:16:30 2016

Tools Copyright (c) 1996-2006 Texas Instruments Incorporated
setup.asm                                                            PAGE   52

    2439                      .dwattr DW$225, DW_AT_data_member_location[DW_OP_plus_uconst 0xa]
    2440                      .dwattr DW$225, DW_AT_accessibility(DW_ACCESS_public)
    2441              DW$226  .dwtag  DW_TAG_member, DW_AT_type(*DW$T$11)
    2442                      .dwattr DW$226, DW_AT_name("intervaltimer"), DW_AT_symbol_name("_intervaltimer")
    2443                      .dwattr DW$226, DW_AT_data_member_location[DW_OP_plus_uconst 0xb]
    2444                      .dwattr DW$226, DW_AT_accessibility(DW_ACCESS_public)
    2445              DW$227  .dwtag  DW_TAG_member, DW_AT_type(*DW$T$11)
    2446                      .dwattr DW$227, DW_AT_name("numsamples"), DW_AT_symbol_name("_numsamples")
    2447                      .dwattr DW$227, DW_AT_data_member_location[DW_OP_plus_uconst 0xc]
    2448                      .dwattr DW$227, DW_AT_accessibility(DW_ACCESS_public)
    2449              DW$228  .dwtag  DW_TAG_member, DW_AT_type(*DW$T$11)
    2450                      .dwattr DW$228, DW_AT_name("learningleft"), DW_AT_symbol_name("_learningleft")
    2451                      .dwattr DW$228, DW_AT_data_member_location[DW_OP_plus_uconst 0xd]
    2452                      .dwattr DW$228, DW_AT_accessibility(DW_ACCESS_public)
    2453              DW$229  .dwtag  DW_TAG_member, DW_AT_type(*DW$T$11)
    2454                      .dwattr DW$229, DW_AT_name("intervalleft"), DW_AT_symbol_name("_intervalleft")
    2455                      .dwattr DW$229, DW_AT_data_member_location[DW_OP_plus_uconst 0xe]
    2456                      .dwattr DW$229, DW_AT_accessibility(DW_ACCESS_public)
    2457              DW$230  .dwtag  DW_TAG_member, DW_AT_type(*DW$T$11)
    2458                      .dwattr DW$230, DW_AT_name("manappliedminsamples"), DW_AT_symbol_name("_manappliedminsamples")
    2459                      .dwattr DW$230, DW_AT_data_member_location[DW_OP_plus_uconst 0xf]
    2460                      .dwattr DW$230, DW_AT_accessibility(DW_ACCESS_public)
    2461              DW$231  .dwtag  DW_TAG_member, DW_AT_type(*DW$T$11)
    2462                      .dwattr DW$231, DW_AT_name("unused1"), DW_AT_symbol_name("_unused1")
    2463                      .dwattr DW$231, DW_AT_data_member_location[DW_OP_plus_uconst 0x10]
    2464                      .dwattr DW$231, DW_AT_accessibility(DW_ACCESS_public)
    2465              DW$232  .dwtag  DW_TAG_member, DW_AT_type(*DW$T$11)
    2466                      .dwattr DW$232, DW_AT_name("unused2"), DW_AT_symbol_name("_unused2")
    2467                      .dwattr DW$232, DW_AT_data_member_location[DW_OP_plus_uconst 0x11]
    2468                      .dwattr DW$232, DW_AT_accessibility(DW_ACCESS_public)
    2469              DW$233  .dwtag  DW_TAG_member, DW_AT_type(*DW$T$11)
    2470                      .dwattr DW$233, DW_AT_name("unused3"), DW_AT_symbol_name("_unused3")
    2471                      .dwattr DW$233, DW_AT_data_member_location[DW_OP_plus_uconst 0x12]
    2472                      .dwattr DW$233, DW_AT_accessibility(DW_ACCESS_public)
    2473              DW$234  .dwtag  DW_TAG_member, DW_AT_type(*DW$T$11)
    2474                      .dwattr DW$234, DW_AT_name("unused4"), DW_AT_symbol_name("_unused4")
    2475                      .dwattr DW$234, DW_AT_data_member_location[DW_OP_plus_uconst 0x13]
    2476                      .dwattr DW$234, DW_AT_accessibility(DW_ACCESS_public)
    2477              DW$235  .dwtag  DW_TAG_member, DW_AT_type(*DW$T$11)
    2478                      .dwattr DW$235, DW_AT_name("unused5"), DW_AT_symbol_name("_unused5")
    2479                      .dwattr DW$235, DW_AT_data_member_location[DW_OP_plus_uconst 0x14]
    2480                      .dwattr DW$235, DW_AT_accessibility(DW_ACCESS_public)
    2481              DW$236  .dwtag  DW_TAG_member, DW_AT_type(*DW$T$11)
    2482                      .dwattr DW$236, DW_AT_name("unused6"), DW_AT_symbol_name("_unused6")
    2483                      .dwattr DW$236, DW_AT_data_member_location[DW_OP_plus_uconst 0x15]
    2484                      .dwattr DW$236, DW_AT_accessibility(DW_ACCESS_public)
    2485              DW$237  .dwtag  DW_TAG_member, DW_AT_type(*DW$T$11)
    2486                      .dwattr DW$237, DW_AT_name("unused7"), DW_AT_symbol_name("_unused7")
    2487                      .dwattr DW$237, DW_AT_data_member_location[DW_OP_plus_uconst 0x16]
    2488                      .dwattr DW$237, DW_AT_accessibility(DW_ACCESS_public)
    2489              DW$238  .dwtag  DW_TAG_member, DW_AT_type(*DW$T$11)
    2490                      .dwattr DW$238, DW_AT_name("unused8"), DW_AT_symbol_name("_unused8")
    2491                      .dwattr DW$238, DW_AT_data_member_location[DW_OP_plus_uconst 0x17]
    2492                      .dwattr DW$238, DW_AT_accessibility(DW_ACCESS_public)
    2493              DW$239  .dwtag  DW_TAG_member, DW_AT_type(*DW$T$11)
TMS320C2000 COFF Assembler PC v4.1.3 Thu Aug 18 12:16:30 2016

Tools Copyright (c) 1996-2006 Texas Instruments Incorporated
setup.asm                                                            PAGE   53

    2494                      .dwattr DW$239, DW_AT_name("unused9"), DW_AT_symbol_name("_unused9")
    2495                      .dwattr DW$239, DW_AT_data_member_location[DW_OP_plus_uconst 0x18]
    2496                      .dwattr DW$239, DW_AT_accessibility(DW_ACCESS_public)
    2497                      .dwendtag DW$T$57
    2498              
    2499              
    2500              DW$T$60 .dwtag  DW_TAG_structure_type
    2501                      .dwattr DW$T$60, DW_AT_name("tag_prewarnstruct")
    2502                      .dwattr DW$T$60, DW_AT_byte_size(0xaa)
    2503              DW$240  .dwtag  DW_TAG_member, DW_AT_type(*DW$T$58)
    2504                      .dwattr DW$240, DW_AT_name("prelevel"), DW_AT_symbol_name("_prelevel")
    2505                      .dwattr DW$240, DW_AT_data_member_location[DW_OP_plus_uconst 0x0]
    2506                      .dwattr DW$240, DW_AT_accessibility(DW_ACCESS_public)
    2507              DW$241  .dwtag  DW_TAG_member, DW_AT_type(*DW$T$58)
    2508                      .dwattr DW$241, DW_AT_name("average"), DW_AT_symbol_name("_average")
    2509                      .dwattr DW$241, DW_AT_data_member_location[DW_OP_plus_uconst 0x1c]
    2510                      .dwattr DW$241, DW_AT_accessibility(DW_ACCESS_public)
    2511              DW$242  .dwtag  DW_TAG_member, DW_AT_type(*DW$T$59)
    2512                      .dwattr DW$242, DW_AT_name("calcacc"), DW_AT_symbol_name("_calcacc")
    2513                      .dwattr DW$242, DW_AT_data_member_location[DW_OP_plus_uconst 0x38]
    2514                      .dwattr DW$242, DW_AT_accessibility(DW_ACCESS_public)
    2515              DW$243  .dwtag  DW_TAG_member, DW_AT_type(*DW$T$59)
    2516                      .dwattr DW$243, DW_AT_name("points"), DW_AT_symbol_name("_points")
    2517                      .dwattr DW$243, DW_AT_data_member_location[DW_OP_plus_uconst 0x70]
    2518                      .dwattr DW$243, DW_AT_accessibility(DW_ACCESS_public)
    2519              DW$244  .dwtag  DW_TAG_member, DW_AT_type(*DW$T$10)
    2520                      .dwattr DW$244, DW_AT_name("prewarncompleteflag"), DW_AT_symbol_name("_prewarncompleteflag")
    2521                      .dwattr DW$244, DW_AT_data_member_location[DW_OP_plus_uconst 0xa8]
    2522                      .dwattr DW$244, DW_AT_accessibility(DW_ACCESS_public)
    2523              DW$245  .dwtag  DW_TAG_member, DW_AT_type(*DW$T$10)
    2524                      .dwattr DW$245, DW_AT_name("init"), DW_AT_symbol_name("_init")
    2525                      .dwattr DW$245, DW_AT_data_member_location[DW_OP_plus_uconst 0xa9]
    2526                      .dwattr DW$245, DW_AT_accessibility(DW_ACCESS_public)
    2527                      .dwendtag DW$T$60
    2528              
    2529              
    2530              DW$T$61 .dwtag  DW_TAG_structure_type
    2531                      .dwattr DW$T$61, DW_AT_name("tag_offsetstruct")
    2532                      .dwattr DW$T$61, DW_AT_byte_size(0x1c)
    2533              DW$246  .dwtag  DW_TAG_member, DW_AT_type(*DW$T$58)
    2534                      .dwattr DW$246, DW_AT_name("val"), DW_AT_symbol_name("_val")
    2535                      .dwattr DW$246, DW_AT_data_member_location[DW_OP_plus_uconst 0x0]
    2536                      .dwattr DW$246, DW_AT_accessibility(DW_ACCESS_public)
    2537                      .dwendtag DW$T$61
    2538              
    2539              
    2540              DW$T$62 .dwtag  DW_TAG_structure_type
    2541                      .dwattr DW$T$62, DW_AT_name("tag_wiosettingsstruct")
    2542                      .dwattr DW$T$62, DW_AT_byte_size(0x0a)
    2543              DW$247  .dwtag  DW_TAG_member, DW_AT_type(*DW$T$11)
    2544                      .dwattr DW$247, DW_AT_name("enabled"), DW_AT_symbol_name("_enabled")
    2545                      .dwattr DW$247, DW_AT_data_member_location[DW_OP_plus_uconst 0x0]
    2546                      .dwattr DW$247, DW_AT_accessibility(DW_ACCESS_public)
    2547              DW$248  .dwtag  DW_TAG_member, DW_AT_type(*DW$T$11)
    2548                      .dwattr DW$248, DW_AT_name("alarmmask"), DW_AT_symbol_name("_alarmmask")
TMS320C2000 COFF Assembler PC v4.1.3 Thu Aug 18 12:16:30 2016

Tools Copyright (c) 1996-2006 Texas Instruments Incorporated
setup.asm                                                            PAGE   54

    2549                      .dwattr DW$248, DW_AT_data_member_location[DW_OP_plus_uconst 0x1]
    2550                      .dwattr DW$248, DW_AT_accessibility(DW_ACCESS_public)
    2551              DW$249  .dwtag  DW_TAG_member, DW_AT_type(*DW$T$11)
    2552                      .dwattr DW$249, DW_AT_name("alarmupperlevel"), DW_AT_symbol_name("_alarmupperlevel")
    2553                      .dwattr DW$249, DW_AT_data_member_location[DW_OP_plus_uconst 0x2]
    2554                      .dwattr DW$249, DW_AT_accessibility(DW_ACCESS_public)
    2555              DW$250  .dwtag  DW_TAG_member, DW_AT_type(*DW$T$11)
    2556                      .dwattr DW$250, DW_AT_name("alarmlevel"), DW_AT_symbol_name("_alarmlevel")
    2557                      .dwattr DW$250, DW_AT_data_member_location[DW_OP_plus_uconst 0x3]
    2558                      .dwattr DW$250, DW_AT_accessibility(DW_ACCESS_public)
    2559              DW$251  .dwtag  DW_TAG_member, DW_AT_type(*DW$T$11)
    2560                      .dwattr DW$251, DW_AT_name("hysteresis"), DW_AT_symbol_name("_hysteresis")
    2561                      .dwattr DW$251, DW_AT_data_member_location[DW_OP_plus_uconst 0x4]
    2562                      .dwattr DW$251, DW_AT_accessibility(DW_ACCESS_public)
    2563              DW$252  .dwtag  DW_TAG_member, DW_AT_type(*DW$T$11)
    2564                      .dwattr DW$252, DW_AT_name("scaledmin"), DW_AT_symbol_name("_scaledmin")
    2565                      .dwattr DW$252, DW_AT_data_member_location[DW_OP_plus_uconst 0x5]
    2566                      .dwattr DW$252, DW_AT_accessibility(DW_ACCESS_public)
    2567              DW$253  .dwtag  DW_TAG_member, DW_AT_type(*DW$T$11)
    2568                      .dwattr DW$253, DW_AT_name("scaledmax"), DW_AT_symbol_name("_scaledmax")
    2569                      .dwattr DW$253, DW_AT_data_member_location[DW_OP_plus_uconst 0x6]
    2570                      .dwattr DW$253, DW_AT_accessibility(DW_ACCESS_public)
    2571              DW$254  .dwtag  DW_TAG_member, DW_AT_type(*DW$T$11)
    2572                      .dwattr DW$254, DW_AT_name("units"), DW_AT_symbol_name("_units")
    2573                      .dwattr DW$254, DW_AT_data_member_location[DW_OP_plus_uconst 0x7]
    2574                      .dwattr DW$254, DW_AT_accessibility(DW_ACCESS_public)
    2575              DW$255  .dwtag  DW_TAG_member, DW_AT_type(*DW$T$11)
    2576                      .dwattr DW$255, DW_AT_name("unused1"), DW_AT_symbol_name("_unused1")
    2577                      .dwattr DW$255, DW_AT_data_member_location[DW_OP_plus_uconst 0x8]
    2578                      .dwattr DW$255, DW_AT_accessibility(DW_ACCESS_public)
    2579              DW$256  .dwtag  DW_TAG_member, DW_AT_type(*DW$T$11)
    2580                      .dwattr DW$256, DW_AT_name("unused2"), DW_AT_symbol_name("_unused2")
    2581                      .dwattr DW$256, DW_AT_data_member_location[DW_OP_plus_uconst 0x9]
    2582                      .dwattr DW$256, DW_AT_accessibility(DW_ACCESS_public)
    2583                      .dwendtag DW$T$62
    2584              
    2585              
    2586              DW$T$64 .dwtag  DW_TAG_structure_type
    2587                      .dwattr DW$T$64, DW_AT_name("tag_sdsettingsstruct")
    2588                      .dwattr DW$T$64, DW_AT_byte_size(0x04)
    2589              DW$257  .dwtag  DW_TAG_member, DW_AT_type(*DW$T$11)
    2590                      .dwattr DW$257, DW_AT_name("present"), DW_AT_symbol_name("_present")
    2591                      .dwattr DW$257, DW_AT_data_member_location[DW_OP_plus_uconst 0x0]
    2592                      .dwattr DW$257, DW_AT_accessibility(DW_ACCESS_public)
    2593              DW$258  .dwtag  DW_TAG_member, DW_AT_type(*DW$T$11)
    2594                      .dwattr DW$258, DW_AT_name("sequence"), DW_AT_symbol_name("_sequence")
    2595                      .dwattr DW$258, DW_AT_data_member_location[DW_OP_plus_uconst 0x1]
    2596                      .dwattr DW$258, DW_AT_accessibility(DW_ACCESS_public)
    2597              DW$259  .dwtag  DW_TAG_member, DW_AT_type(*DW$T$11)
    2598                      .dwattr DW$259, DW_AT_name("errornum"), DW_AT_symbol_name("_errornum")
    2599                      .dwattr DW$259, DW_AT_data_member_location[DW_OP_plus_uconst 0x2]
    2600                      .dwattr DW$259, DW_AT_accessibility(DW_ACCESS_public)
    2601              DW$260  .dwtag  DW_TAG_member, DW_AT_type(*DW$T$63)
    2602                      .dwattr DW$260, DW_AT_name("readstatus"), DW_AT_symbol_name("_readstatus")
    2603                      .dwattr DW$260, DW_AT_data_member_location[DW_OP_plus_uconst 0x3]
TMS320C2000 COFF Assembler PC v4.1.3 Thu Aug 18 12:16:30 2016

Tools Copyright (c) 1996-2006 Texas Instruments Incorporated
setup.asm                                                            PAGE   55

    2604                      .dwattr DW$260, DW_AT_accessibility(DW_ACCESS_public)
    2605                      .dwendtag DW$T$64
    2606              
    2607              DW$T$76 .dwtag  DW_TAG_typedef, DW_AT_name("VECTORS"), DW_AT_type(*DW$T$75)
    2608                      .dwattr DW$T$76, DW_AT_language(DW_LANG_C)
    2609              
    2610              DW$T$53 .dwtag  DW_TAG_array_type, DW_AT_type(*DW$T$10)
    2611                      .dwattr DW$T$53, DW_AT_language(DW_LANG_C)
    2612                      .dwattr DW$T$53, DW_AT_byte_size(0x0e)
    2613              DW$261  .dwtag  DW_TAG_subrange_type
    2614                      .dwattr DW$261, DW_AT_upper_bound(0x0d)
    2615                      .dwendtag DW$T$53
    2616              
    2617              
    2618              DW$T$58 .dwtag  DW_TAG_array_type, DW_AT_type(*DW$T$10)
    2619                      .dwattr DW$T$58, DW_AT_language(DW_LANG_C)
    2620                      .dwattr DW$T$58, DW_AT_byte_size(0x1c)
    2621              DW$262  .dwtag  DW_TAG_subrange_type
    2622                      .dwattr DW$262, DW_AT_upper_bound(0x1b)
    2623                      .dwendtag DW$T$58
    2624              
    2625              
    2626              DW$T$21 .dwtag  DW_TAG_array_type, DW_AT_type(*DW$T$11)
    2627                      .dwattr DW$T$21, DW_AT_language(DW_LANG_C)
    2628                      .dwattr DW$T$21, DW_AT_byte_size(0x0e)
    2629              DW$263  .dwtag  DW_TAG_subrange_type
    2630                      .dwattr DW$263, DW_AT_upper_bound(0x0d)
    2631                      .dwendtag DW$T$21
    2632              
    2633              
    2634              DW$T$50 .dwtag  DW_TAG_array_type, DW_AT_type(*DW$T$11)
    2635                      .dwattr DW$T$50, DW_AT_language(DW_LANG_C)
    2636                      .dwattr DW$T$50, DW_AT_byte_size(0x64)
    2637              DW$264  .dwtag  DW_TAG_subrange_type
    2638                      .dwattr DW$264, DW_AT_upper_bound(0x63)
    2639                      .dwendtag DW$T$50
    2640              
    2641              
    2642              DW$T$56 .dwtag  DW_TAG_array_type, DW_AT_type(*DW$T$11)
    2643                      .dwattr DW$T$56, DW_AT_language(DW_LANG_C)
    2644                      .dwattr DW$T$56, DW_AT_byte_size(0x06)
    2645              DW$265  .dwtag  DW_TAG_subrange_type
    2646                      .dwattr DW$265, DW_AT_upper_bound(0x02)
    2647              DW$266  .dwtag  DW_TAG_subrange_type
    2648                      .dwattr DW$266, DW_AT_upper_bound(0x01)
    2649                      .dwendtag DW$T$56
    2650              
    2651              
    2652              DW$T$59 .dwtag  DW_TAG_array_type, DW_AT_type(*DW$T$12)
    2653                      .dwattr DW$T$59, DW_AT_language(DW_LANG_C)
    2654                      .dwattr DW$T$59, DW_AT_byte_size(0x38)
    2655              DW$267  .dwtag  DW_TAG_subrange_type
    2656                      .dwattr DW$267, DW_AT_upper_bound(0x1b)
    2657                      .dwendtag DW$T$59
    2658              
TMS320C2000 COFF Assembler PC v4.1.3 Thu Aug 18 12:16:30 2016

Tools Copyright (c) 1996-2006 Texas Instruments Incorporated
setup.asm                                                            PAGE   56

    2659              
    2660              DW$T$19 .dwtag  DW_TAG_structure_type
    2661                      .dwattr DW$T$19, DW_AT_byte_size(0x02)
    2662              DW$268  .dwtag  DW_TAG_member, DW_AT_type(*DW$T$11)
    2663                      .dwattr DW$268, DW_AT_name("enb"), DW_AT_symbol_name("_enb")
    2664                      .dwattr DW$268, DW_AT_data_member_location[DW_OP_plus_uconst 0x0]
    2665                      .dwattr DW$268, DW_AT_accessibility(DW_ACCESS_public)
    2666              DW$269  .dwtag  DW_TAG_member, DW_AT_type(*DW$T$11)
    2667                      .dwattr DW$269, DW_AT_name("chan"), DW_AT_symbol_name("_chan")
    2668                      .dwattr DW$269, DW_AT_data_member_location[DW_OP_plus_uconst 0x1]
    2669                      .dwattr DW$269, DW_AT_accessibility(DW_ACCESS_public)
    2670                      .dwendtag DW$T$19
    2671              
    2672              
    2673              DW$T$22 .dwtag  DW_TAG_structure_type
    2674                      .dwattr DW$T$22, DW_AT_byte_size(0x1e)
    2675              DW$270  .dwtag  DW_TAG_member, DW_AT_type(*DW$T$11)
    2676                      .dwattr DW$270, DW_AT_name("chanlowthreshold"), DW_AT_symbol_name("_chanlowthreshold")
    2677                      .dwattr DW$270, DW_AT_data_member_location[DW_OP_plus_uconst 0x0]
    2678                      .dwattr DW$270, DW_AT_accessibility(DW_ACCESS_public)
    2679              DW$271  .dwtag  DW_TAG_member, DW_AT_type(*DW$T$11)
    2680                      .dwattr DW$271, DW_AT_name("chanhighthreshold"), DW_AT_symbol_name("_chanhighthreshold")
    2681                      .dwattr DW$271, DW_AT_data_member_location[DW_OP_plus_uconst 0x1]
    2682                      .dwattr DW$271, DW_AT_accessibility(DW_ACCESS_public)
    2683              DW$272  .dwtag  DW_TAG_member, DW_AT_type(*DW$T$21)
    2684                      .dwattr DW$272, DW_AT_name("chan18ma"), DW_AT_symbol_name("_chan18ma")
    2685                      .dwattr DW$272, DW_AT_data_member_location[DW_OP_plus_uconst 0x2]
    2686                      .dwattr DW$272, DW_AT_accessibility(DW_ACCESS_public)
    2687              DW$273  .dwtag  DW_TAG_member, DW_AT_type(*DW$T$21)
    2688                      .dwattr DW$273, DW_AT_name("notused"), DW_AT_symbol_name("_notused")
    2689                      .dwattr DW$273, DW_AT_data_member_location[DW_OP_plus_uconst 0x10]
    2690                      .dwattr DW$273, DW_AT_accessibility(DW_ACCESS_public)
    2691                      .dwendtag DW$T$22
    2692              
    2693              
    2694              DW$T$23 .dwtag  DW_TAG_structure_type
    2695                      .dwattr DW$T$23, DW_AT_byte_size(0x01)
    2696              DW$274  .dwtag  DW_TAG_member, DW_AT_type(*DW$T$11)
    2697                      .dwattr DW$274, DW_AT_name("enabled"), DW_AT_symbol_name("_enabled")
    2698                      .dwattr DW$274, DW_AT_data_member_location[DW_OP_plus_uconst 0x0]
    2699                      .dwattr DW$274, DW_AT_accessibility(DW_ACCESS_public)
    2700                      .dwendtag DW$T$23
    2701              
    2702              
    2703              DW$T$26 .dwtag  DW_TAG_structure_type
    2704                      .dwattr DW$T$26, DW_AT_byte_size(0x0b)
    2705              DW$275  .dwtag  DW_TAG_member, DW_AT_type(*DW$T$25)
    2706                      .dwattr DW$275, DW_AT_name("calprtzero"), DW_AT_symbol_name("_calprtzero")
    2707                      .dwattr DW$275, DW_AT_data_member_location[DW_OP_plus_uconst 0x0]
    2708                      .dwattr DW$275, DW_AT_accessibility(DW_ACCESS_public)
    2709              DW$276  .dwtag  DW_TAG_member, DW_AT_type(*DW$T$25)
    2710                      .dwattr DW$276, DW_AT_name("calprtfullscale"), DW_AT_symbol_name("_calprtfullscale")
    2711                      .dwattr DW$276, DW_AT_data_member_location[DW_OP_plus_uconst 0x4]
    2712                      .dwattr DW$276, DW_AT_accessibility(DW_ACCESS_public)
    2713              DW$277  .dwtag  DW_TAG_member, DW_AT_type(*DW$T$11)
TMS320C2000 COFF Assembler PC v4.1.3 Thu Aug 18 12:16:30 2016

Tools Copyright (c) 1996-2006 Texas Instruments Incorporated
setup.asm                                                            PAGE   57

    2714                      .dwattr DW$277, DW_AT_name("sensorscalingfactor"), DW_AT_symbol_name("_sensorscalingfactor")
    2715                      .dwattr DW$277, DW_AT_data_member_location[DW_OP_plus_uconst 0x8]
    2716                      .dwattr DW$277, DW_AT_accessibility(DW_ACCESS_public)
    2717              DW$278  .dwtag  DW_TAG_member, DW_AT_type(*DW$T$11)
    2718                      .dwattr DW$278, DW_AT_name("unused1"), DW_AT_symbol_name("_unused1")
    2719                      .dwattr DW$278, DW_AT_data_member_location[DW_OP_plus_uconst 0x9]
    2720                      .dwattr DW$278, DW_AT_accessibility(DW_ACCESS_public)
    2721              DW$279  .dwtag  DW_TAG_member, DW_AT_type(*DW$T$11)
    2722                      .dwattr DW$279, DW_AT_name("unused2"), DW_AT_symbol_name("_unused2")
    2723                      .dwattr DW$279, DW_AT_data_member_location[DW_OP_plus_uconst 0xa]
    2724                      .dwattr DW$279, DW_AT_accessibility(DW_ACCESS_public)
    2725                      .dwendtag DW$T$26
    2726              
    2727              
    2728              DW$T$27 .dwtag  DW_TAG_structure_type
    2729                      .dwattr DW$T$27, DW_AT_byte_size(0x03)
    2730              DW$280  .dwtag  DW_TAG_member, DW_AT_type(*DW$T$11)
    2731                      .dwattr DW$280, DW_AT_name("mainrate"), DW_AT_symbol_name("_mainrate")
    2732                      .dwattr DW$280, DW_AT_data_member_location[DW_OP_plus_uconst 0x0]
    2733                      .dwattr DW$280, DW_AT_accessibility(DW_ACCESS_public)
    2734              DW$281  .dwtag  DW_TAG_member, DW_AT_type(*DW$T$11)
    2735                      .dwattr DW$281, DW_AT_name("trendrate"), DW_AT_symbol_name("_trendrate")
    2736                      .dwattr DW$281, DW_AT_data_member_location[DW_OP_plus_uconst 0x1]
    2737                      .dwattr DW$281, DW_AT_accessibility(DW_ACCESS_public)
    2738              DW$282  .dwtag  DW_TAG_member, DW_AT_type(*DW$T$11)
    2739                      .dwattr DW$282, DW_AT_name("unused1"), DW_AT_symbol_name("_unused1")
    2740                      .dwattr DW$282, DW_AT_data_member_location[DW_OP_plus_uconst 0x2]
    2741                      .dwattr DW$282, DW_AT_accessibility(DW_ACCESS_public)
    2742                      .dwendtag DW$T$27
    2743              
    2744              
    2745              DW$T$28 .dwtag  DW_TAG_structure_type
    2746                      .dwattr DW$T$28, DW_AT_byte_size(0x01)
    2747              DW$283  .dwtag  DW_TAG_member, DW_AT_type(*DW$T$11)
    2748                      .dwattr DW$283, DW_AT_name("address"), DW_AT_symbol_name("_address")
    2749                      .dwattr DW$283, DW_AT_data_member_location[DW_OP_plus_uconst 0x0]
    2750                      .dwattr DW$283, DW_AT_accessibility(DW_ACCESS_public)
    2751                      .dwendtag DW$T$28
    2752              
    2753              
    2754              DW$T$29 .dwtag  DW_TAG_structure_type
    2755                      .dwattr DW$T$29, DW_AT_byte_size(0x02)
    2756              DW$284  .dwtag  DW_TAG_member, DW_AT_type(*DW$T$11)
    2757                      .dwattr DW$284, DW_AT_name("inputtap"), DW_AT_symbol_name("_inputtap")
    2758                      .dwattr DW$284, DW_AT_data_member_location[DW_OP_plus_uconst 0x0]
    2759                      .dwattr DW$284, DW_AT_accessibility(DW_ACCESS_public)
    2760              DW$285  .dwtag  DW_TAG_member, DW_AT_type(*DW$T$11)
    2761                      .dwattr DW$285, DW_AT_name("unused1"), DW_AT_symbol_name("_unused1")
    2762                      .dwattr DW$285, DW_AT_data_member_location[DW_OP_plus_uconst 0x1]
    2763                      .dwattr DW$285, DW_AT_accessibility(DW_ACCESS_public)
    2764                      .dwendtag DW$T$29
    2765              
    2766              
    2767              DW$T$30 .dwtag  DW_TAG_structure_type
    2768                      .dwattr DW$T$30, DW_AT_byte_size(0x03)
TMS320C2000 COFF Assembler PC v4.1.3 Thu Aug 18 12:16:30 2016

Tools Copyright (c) 1996-2006 Texas Instruments Incorporated
setup.asm                                                            PAGE   58

    2769              DW$286  .dwtag  DW_TAG_member, DW_AT_type(*DW$T$11)
    2770                      .dwattr DW$286, DW_AT_name("notused1"), DW_AT_symbol_name("_notused1")
    2771                      .dwattr DW$286, DW_AT_data_member_location[DW_OP_plus_uconst 0x0]
    2772                      .dwattr DW$286, DW_AT_accessibility(DW_ACCESS_public)
    2773              DW$287  .dwtag  DW_TAG_member, DW_AT_type(*DW$T$11)
    2774                      .dwattr DW$287, DW_AT_name("notused2"), DW_AT_symbol_name("_notused2")
    2775                      .dwattr DW$287, DW_AT_data_member_location[DW_OP_plus_uconst 0x1]
    2776                      .dwattr DW$287, DW_AT_accessibility(DW_ACCESS_public)
    2777              DW$288  .dwtag  DW_TAG_member, DW_AT_type(*DW$T$11)
    2778                      .dwattr DW$288, DW_AT_name("notused3"), DW_AT_symbol_name("_notused3")
    2779                      .dwattr DW$288, DW_AT_data_member_location[DW_OP_plus_uconst 0x2]
    2780                      .dwattr DW$288, DW_AT_accessibility(DW_ACCESS_public)
    2781                      .dwendtag DW$T$30
    2782              
    2783              
    2784              DW$T$31 .dwtag  DW_TAG_structure_type
    2785                      .dwattr DW$T$31, DW_AT_byte_size(0x01)
    2786              DW$289  .dwtag  DW_TAG_member, DW_AT_type(*DW$T$11)
    2787                      .dwattr DW$289, DW_AT_name("rate"), DW_AT_symbol_name("_rate")
    2788                      .dwattr DW$289, DW_AT_data_member_location[DW_OP_plus_uconst 0x0]
    2789                      .dwattr DW$289, DW_AT_accessibility(DW_ACCESS_public)
    2790                      .dwendtag DW$T$31
    2791              
    2792              
    2793              DW$T$32 .dwtag  DW_TAG_structure_type
    2794                      .dwattr DW$T$32, DW_AT_byte_size(0x02)
    2795              DW$290  .dwtag  DW_TAG_member, DW_AT_type(*DW$T$11)
    2796                      .dwattr DW$290, DW_AT_name("notused1"), DW_AT_symbol_name("_notused1")
    2797                      .dwattr DW$290, DW_AT_data_member_location[DW_OP_plus_uconst 0x0]
    2798                      .dwattr DW$290, DW_AT_accessibility(DW_ACCESS_public)
    2799              DW$291  .dwtag  DW_TAG_member, DW_AT_type(*DW$T$11)
    2800                      .dwattr DW$291, DW_AT_name("notused2"), DW_AT_symbol_name("_notused2")
    2801                      .dwattr DW$291, DW_AT_data_member_location[DW_OP_plus_uconst 0x1]
    2802                      .dwattr DW$291, DW_AT_accessibility(DW_ACCESS_public)
    2803                      .dwendtag DW$T$32
    2804              
    2805              
    2806              DW$T$33 .dwtag  DW_TAG_structure_type
    2807                      .dwattr DW$T$33, DW_AT_byte_size(0x04)
    2808              DW$292  .dwtag  DW_TAG_member, DW_AT_type(*DW$T$11)
    2809                      .dwattr DW$292, DW_AT_name("notused1"), DW_AT_symbol_name("_notused1")
    2810                      .dwattr DW$292, DW_AT_data_member_location[DW_OP_plus_uconst 0x0]
    2811                      .dwattr DW$292, DW_AT_accessibility(DW_ACCESS_public)
    2812              DW$293  .dwtag  DW_TAG_member, DW_AT_type(*DW$T$11)
    2813                      .dwattr DW$293, DW_AT_name("notused2"), DW_AT_symbol_name("_notused2")
    2814                      .dwattr DW$293, DW_AT_data_member_location[DW_OP_plus_uconst 0x1]
    2815                      .dwattr DW$293, DW_AT_accessibility(DW_ACCESS_public)
    2816              DW$294  .dwtag  DW_TAG_member, DW_AT_type(*DW$T$11)
    2817                      .dwattr DW$294, DW_AT_name("notused3"), DW_AT_symbol_name("_notused3")
    2818                      .dwattr DW$294, DW_AT_data_member_location[DW_OP_plus_uconst 0x2]
    2819                      .dwattr DW$294, DW_AT_accessibility(DW_ACCESS_public)
    2820              DW$295  .dwtag  DW_TAG_member, DW_AT_type(*DW$T$11)
    2821                      .dwattr DW$295, DW_AT_name("notused4"), DW_AT_symbol_name("_notused4")
    2822                      .dwattr DW$295, DW_AT_data_member_location[DW_OP_plus_uconst 0x3]
    2823                      .dwattr DW$295, DW_AT_accessibility(DW_ACCESS_public)
TMS320C2000 COFF Assembler PC v4.1.3 Thu Aug 18 12:16:30 2016

Tools Copyright (c) 1996-2006 Texas Instruments Incorporated
setup.asm                                                            PAGE   59

    2824                      .dwendtag DW$T$33
    2825              
    2826              
    2827              DW$T$34 .dwtag  DW_TAG_structure_type
    2828                      .dwattr DW$T$34, DW_AT_byte_size(0x01)
    2829              DW$296  .dwtag  DW_TAG_member, DW_AT_type(*DW$T$11)
    2830                      .dwattr DW$296, DW_AT_name("bitmap"), DW_AT_symbol_name("_bitmap")
    2831                      .dwattr DW$296, DW_AT_data_member_location[DW_OP_plus_uconst 0x0]
    2832                      .dwattr DW$296, DW_AT_accessibility(DW_ACCESS_public)
    2833                      .dwendtag DW$T$34
    2834              
    2835              
    2836              DW$T$35 .dwtag  DW_TAG_structure_type
    2837                      .dwattr DW$T$35, DW_AT_byte_size(0x01)
    2838              DW$297  .dwtag  DW_TAG_member, DW_AT_type(*DW$T$11)
    2839                      .dwattr DW$297, DW_AT_name("graphvalue"), DW_AT_symbol_name("_graphvalue")
    2840                      .dwattr DW$297, DW_AT_data_member_location[DW_OP_plus_uconst 0x0]
    2841                      .dwattr DW$297, DW_AT_accessibility(DW_ACCESS_public)
    2842                      .dwendtag DW$T$35
    2843              
    2844              
    2845              DW$T$36 .dwtag  DW_TAG_structure_type
    2846                      .dwattr DW$T$36, DW_AT_byte_size(0x01)
    2847              DW$298  .dwtag  DW_TAG_member, DW_AT_type(*DW$T$11)
    2848                      .dwattr DW$298, DW_AT_name("notused1"), DW_AT_symbol_name("_notused1")
    2849                      .dwattr DW$298, DW_AT_data_member_location[DW_OP_plus_uconst 0x0]
    2850                      .dwattr DW$298, DW_AT_accessibility(DW_ACCESS_public)
    2851                      .dwendtag DW$T$36
    2852              
    2853              
    2854              DW$T$39 .dwtag  DW_TAG_structure_type
    2855                      .dwattr DW$T$39, DW_AT_name("tag_timers")
    2856                      .dwattr DW$T$39, DW_AT_byte_size(0x4c)
    2857              DW$299  .dwtag  DW_TAG_member, DW_AT_type(*DW$T$11)
    2858                      .dwattr DW$299, DW_AT_name("update"), DW_AT_symbol_name("_update")
    2859                      .dwattr DW$299, DW_AT_data_member_location[DW_OP_plus_uconst 0x0]
    2860                      .dwattr DW$299, DW_AT_accessibility(DW_ACCESS_public)
    2861              DW$300  .dwtag  DW_TAG_member, DW_AT_type(*DW$T$11)
    2862                      .dwattr DW$300, DW_AT_name("general"), DW_AT_symbol_name("_general")
    2863                      .dwattr DW$300, DW_AT_data_member_location[DW_OP_plus_uconst 0x1]
    2864                      .dwattr DW$300, DW_AT_accessibility(DW_ACCESS_public)
    2865              DW$301  .dwtag  DW_TAG_member, DW_AT_type(*DW$T$11)
    2866                      .dwattr DW$301, DW_AT_name("rxcharTimeout"), DW_AT_symbol_name("_rxcharTimeout")
    2867                      .dwattr DW$301, DW_AT_data_member_location[DW_OP_plus_uconst 0x2]
    2868                      .dwattr DW$301, DW_AT_accessibility(DW_ACCESS_public)
    2869              DW$302  .dwtag  DW_TAG_member, DW_AT_type(*DW$T$11)
    2870                      .dwattr DW$302, DW_AT_name("wiorxtimeout"), DW_AT_symbol_name("_wiorxtimeout")
    2871                      .dwattr DW$302, DW_AT_data_member_location[DW_OP_plus_uconst 0x3]
    2872                      .dwattr DW$302, DW_AT_accessibility(DW_ACCESS_public)
    2873              DW$303  .dwtag  DW_TAG_member, DW_AT_type(*DW$T$11)
    2874                      .dwattr DW$303, DW_AT_name("wiomasterrxtimeout"), DW_AT_symbol_name("_wiomasterrxtimeout")
    2875                      .dwattr DW$303, DW_AT_data_member_location[DW_OP_plus_uconst 0x4]
    2876                      .dwattr DW$303, DW_AT_accessibility(DW_ACCESS_public)
    2877              DW$304  .dwtag  DW_TAG_member, DW_AT_type(*DW$T$11)
    2878                      .dwattr DW$304, DW_AT_name("masterrxtimeout"), DW_AT_symbol_name("_masterrxtimeout")
TMS320C2000 COFF Assembler PC v4.1.3 Thu Aug 18 12:16:30 2016

Tools Copyright (c) 1996-2006 Texas Instruments Incorporated
setup.asm                                                            PAGE   60

    2879                      .dwattr DW$304, DW_AT_data_member_location[DW_OP_plus_uconst 0x5]
    2880                      .dwattr DW$304, DW_AT_accessibility(DW_ACCESS_public)
    2881              DW$305  .dwtag  DW_TAG_member, DW_AT_type(*DW$T$11)
    2882                      .dwattr DW$305, DW_AT_name("slaverxtimeout"), DW_AT_symbol_name("_slaverxtimeout")
    2883                      .dwattr DW$305, DW_AT_data_member_location[DW_OP_plus_uconst 0x6]
    2884                      .dwattr DW$305, DW_AT_accessibility(DW_ACCESS_public)
    2885              DW$306  .dwtag  DW_TAG_member, DW_AT_type(*DW$T$11)
    2886                      .dwattr DW$306, DW_AT_name("sectick"), DW_AT_symbol_name("_sectick")
    2887                      .dwattr DW$306, DW_AT_data_member_location[DW_OP_plus_uconst 0x7]
    2888                      .dwattr DW$306, DW_AT_accessibility(DW_ACCESS_public)
    2889              DW$307  .dwtag  DW_TAG_member, DW_AT_type(*DW$T$11)
    2890                      .dwattr DW$307, DW_AT_name("ledflash"), DW_AT_symbol_name("_ledflash")
    2891                      .dwattr DW$307, DW_AT_data_member_location[DW_OP_plus_uconst 0x8]
    2892                      .dwattr DW$307, DW_AT_accessibility(DW_ACCESS_public)
    2893              DW$308  .dwtag  DW_TAG_member, DW_AT_type(*DW$T$11)
    2894                      .dwattr DW$308, DW_AT_name("prtsettle"), DW_AT_symbol_name("_prtsettle")
    2895                      .dwattr DW$308, DW_AT_data_member_location[DW_OP_plus_uconst 0x9]
    2896                      .dwattr DW$308, DW_AT_accessibility(DW_ACCESS_public)
    2897              DW$309  .dwtag  DW_TAG_member, DW_AT_type(*DW$T$21)
    2898                      .dwattr DW$309, DW_AT_name("chantimeout"), DW_AT_symbol_name("_chantimeout")
    2899                      .dwattr DW$309, DW_AT_data_member_location[DW_OP_plus_uconst 0xa]
    2900                      .dwattr DW$309, DW_AT_accessibility(DW_ACCESS_public)
    2901              DW$310  .dwtag  DW_TAG_member, DW_AT_type(*DW$T$21)
    2902                      .dwattr DW$310, DW_AT_name("chanwait"), DW_AT_symbol_name("_chanwait")
    2903                      .dwattr DW$310, DW_AT_data_member_location[DW_OP_plus_uconst 0x18]
    2904                      .dwattr DW$310, DW_AT_accessibility(DW_ACCESS_public)
    2905              DW$311  .dwtag  DW_TAG_member, DW_AT_type(*DW$T$11)
    2906                      .dwattr DW$311, DW_AT_name("pcrxtimeout"), DW_AT_symbol_name("_pcrxtimeout")
    2907                      .dwattr DW$311, DW_AT_data_member_location[DW_OP_plus_uconst 0x26]
    2908                      .dwattr DW$311, DW_AT_accessibility(DW_ACCESS_public)
    2909              DW$312  .dwtag  DW_TAG_member, DW_AT_type(*DW$T$11)
    2910                      .dwattr DW$312, DW_AT_name("pctxtimeout"), DW_AT_symbol_name("_pctxtimeout")
    2911                      .dwattr DW$312, DW_AT_data_member_location[DW_OP_plus_uconst 0x27]
    2912                      .dwattr DW$312, DW_AT_accessibility(DW_ACCESS_public)
    2913              DW$313  .dwtag  DW_TAG_member, DW_AT_type(*DW$T$11)
    2914                      .dwattr DW$313, DW_AT_name("spistatus"), DW_AT_symbol_name("_spistatus")
    2915                      .dwattr DW$313, DW_AT_data_member_location[DW_OP_plus_uconst 0x28]
    2916                      .dwattr DW$313, DW_AT_accessibility(DW_ACCESS_public)
    2917              DW$314  .dwtag  DW_TAG_member, DW_AT_type(*DW$T$11)
    2918                      .dwattr DW$314, DW_AT_name("rpm"), DW_AT_symbol_name("_rpm")
    2919                      .dwattr DW$314, DW_AT_data_member_location[DW_OP_plus_uconst 0x29]
    2920                      .dwattr DW$314, DW_AT_accessibility(DW_ACCESS_public)
    2921              DW$315  .dwtag  DW_TAG_member, DW_AT_type(*DW$T$11)
    2922                      .dwattr DW$315, DW_AT_name("slaverqst"), DW_AT_symbol_name("_slaverqst")
    2923                      .dwattr DW$315, DW_AT_data_member_location[DW_OP_plus_uconst 0x2a]
    2924                      .dwattr DW$315, DW_AT_accessibility(DW_ACCESS_public)
    2925              DW$316  .dwtag  DW_TAG_member, DW_AT_type(*DW$T$11)
    2926                      .dwattr DW$316, DW_AT_name("mastermodebutton"), DW_AT_symbol_name("_mastermodebutton")
    2927                      .dwattr DW$316, DW_AT_data_member_location[DW_OP_plus_uconst 0x2b]
    2928                      .dwattr DW$316, DW_AT_accessibility(DW_ACCESS_public)
    2929              DW$317  .dwtag  DW_TAG_member, DW_AT_type(*DW$T$11)
    2930                      .dwattr DW$317, DW_AT_name("dcmode"), DW_AT_symbol_name("_dcmode")
    2931                      .dwattr DW$317, DW_AT_data_member_location[DW_OP_plus_uconst 0x2c]
    2932                      .dwattr DW$317, DW_AT_accessibility(DW_ACCESS_public)
    2933              DW$318  .dwtag  DW_TAG_member, DW_AT_type(*DW$T$13)
TMS320C2000 COFF Assembler PC v4.1.3 Thu Aug 18 12:16:30 2016

Tools Copyright (c) 1996-2006 Texas Instruments Incorporated
setup.asm                                                            PAGE   61

    2934                      .dwattr DW$318, DW_AT_name("calibrate"), DW_AT_symbol_name("_calibrate")
    2935                      .dwattr DW$318, DW_AT_data_member_location[DW_OP_plus_uconst 0x2e]
    2936                      .dwattr DW$318, DW_AT_accessibility(DW_ACCESS_public)
    2937              DW$319  .dwtag  DW_TAG_member, DW_AT_type(*DW$T$13)
    2938                      .dwattr DW$319, DW_AT_name("calibrate2"), DW_AT_symbol_name("_calibrate2")
    2939                      .dwattr DW$319, DW_AT_data_member_location[DW_OP_plus_uconst 0x30]
    2940                      .dwattr DW$319, DW_AT_accessibility(DW_ACCESS_public)
    2941              DW$320  .dwtag  DW_TAG_member, DW_AT_type(*DW$T$11)
    2942                      .dwattr DW$320, DW_AT_name("alarmreflash"), DW_AT_symbol_name("_alarmreflash")
    2943                      .dwattr DW$320, DW_AT_data_member_location[DW_OP_plus_uconst 0x32]
    2944                      .dwattr DW$320, DW_AT_accessibility(DW_ACCESS_public)
    2945              DW$321  .dwtag  DW_TAG_member, DW_AT_type(*DW$T$11)
    2946                      .dwattr DW$321, DW_AT_name("slowdownreflash"), DW_AT_symbol_name("_slowdownreflash")
    2947                      .dwattr DW$321, DW_AT_data_member_location[DW_OP_plus_uconst 0x33]
    2948                      .dwattr DW$321, DW_AT_accessibility(DW_ACCESS_public)
    2949              DW$322  .dwtag  DW_TAG_member, DW_AT_type(*DW$T$11)
    2950                      .dwattr DW$322, DW_AT_name("wiorqst"), DW_AT_symbol_name("_wiorqst")
    2951                      .dwattr DW$322, DW_AT_data_member_location[DW_OP_plus_uconst 0x34]
    2952                      .dwattr DW$322, DW_AT_accessibility(DW_ACCESS_public)
    2953              DW$323  .dwtag  DW_TAG_member, DW_AT_type(*DW$T$11)
    2954                      .dwattr DW$323, DW_AT_name("rpmtimeout"), DW_AT_symbol_name("_rpmtimeout")
    2955                      .dwattr DW$323, DW_AT_data_member_location[DW_OP_plus_uconst 0x35]
    2956                      .dwattr DW$323, DW_AT_accessibility(DW_ACCESS_public)
    2957              DW$324  .dwtag  DW_TAG_member, DW_AT_type(*DW$T$11)
    2958                      .dwattr DW$324, DW_AT_name("analogoor"), DW_AT_symbol_name("_analogoor")
    2959                      .dwattr DW$324, DW_AT_data_member_location[DW_OP_plus_uconst 0x36]
    2960                      .dwattr DW$324, DW_AT_accessibility(DW_ACCESS_public)
    2961              DW$325  .dwtag  DW_TAG_member, DW_AT_type(*DW$T$11)
    2962                      .dwattr DW$325, DW_AT_name("motioncal"), DW_AT_symbol_name("_motioncal")
    2963                      .dwattr DW$325, DW_AT_data_member_location[DW_OP_plus_uconst 0x37]
    2964                      .dwattr DW$325, DW_AT_accessibility(DW_ACCESS_public)
    2965              DW$326  .dwtag  DW_TAG_member, DW_AT_type(*DW$T$11)
    2966                      .dwattr DW$326, DW_AT_name("framcheck"), DW_AT_symbol_name("_framcheck")
    2967                      .dwattr DW$326, DW_AT_data_member_location[DW_OP_plus_uconst 0x38]
    2968                      .dwattr DW$326, DW_AT_accessibility(DW_ACCESS_public)
    2969              DW$327  .dwtag  DW_TAG_member, DW_AT_type(*DW$T$11)
    2970                      .dwattr DW$327, DW_AT_name("pcmodbus"), DW_AT_symbol_name("_pcmodbus")
    2971                      .dwattr DW$327, DW_AT_data_member_location[DW_OP_plus_uconst 0x39]
    2972                      .dwattr DW$327, DW_AT_accessibility(DW_ACCESS_public)
    2973              DW$328  .dwtag  DW_TAG_member, DW_AT_type(*DW$T$11)
    2974                      .dwattr DW$328, DW_AT_name("statusreflash"), DW_AT_symbol_name("_statusreflash")
    2975                      .dwattr DW$328, DW_AT_data_member_location[DW_OP_plus_uconst 0x3a]
    2976                      .dwattr DW$328, DW_AT_accessibility(DW_ACCESS_public)
    2977              DW$329  .dwtag  DW_TAG_member, DW_AT_type(*DW$T$13)
    2978                      .dwattr DW$329, DW_AT_name("prewarn"), DW_AT_symbol_name("_prewarn")
    2979                      .dwattr DW$329, DW_AT_data_member_location[DW_OP_plus_uconst 0x3c]
    2980                      .dwattr DW$329, DW_AT_accessibility(DW_ACCESS_public)
    2981              DW$330  .dwtag  DW_TAG_member, DW_AT_type(*DW$T$11)
    2982                      .dwattr DW$330, DW_AT_name("clocktofram"), DW_AT_symbol_name("_clocktofram")
    2983                      .dwattr DW$330, DW_AT_data_member_location[DW_OP_plus_uconst 0x3e]
    2984                      .dwattr DW$330, DW_AT_accessibility(DW_ACCESS_public)
    2985              DW$331  .dwtag  DW_TAG_member, DW_AT_type(*DW$T$11)
    2986                      .dwattr DW$331, DW_AT_name("debugrapidfast"), DW_AT_symbol_name("_debugrapidfast")
    2987                      .dwattr DW$331, DW_AT_data_member_location[DW_OP_plus_uconst 0x3f]
    2988                      .dwattr DW$331, DW_AT_accessibility(DW_ACCESS_public)
TMS320C2000 COFF Assembler PC v4.1.3 Thu Aug 18 12:16:30 2016

Tools Copyright (c) 1996-2006 Texas Instruments Incorporated
setup.asm                                                            PAGE   62

    2989              DW$332  .dwtag  DW_TAG_member, DW_AT_type(*DW$T$11)
    2990                      .dwattr DW$332, DW_AT_name("debugupdate"), DW_AT_symbol_name("_debugupdate")
    2991                      .dwattr DW$332, DW_AT_data_member_location[DW_OP_plus_uconst 0x40]
    2992                      .dwattr DW$332, DW_AT_accessibility(DW_ACCESS_public)
    2993              DW$333  .dwtag  DW_TAG_member, DW_AT_type(*DW$T$11)
    2994                      .dwattr DW$333, DW_AT_name("dircountdown"), DW_AT_symbol_name("_dircountdown")
    2995                      .dwattr DW$333, DW_AT_data_member_location[DW_OP_plus_uconst 0x41]
    2996                      .dwattr DW$333, DW_AT_accessibility(DW_ACCESS_public)
    2997              DW$334  .dwtag  DW_TAG_member, DW_AT_type(*DW$T$11)
    2998                      .dwattr DW$334, DW_AT_name("startup"), DW_AT_symbol_name("_startup")
    2999                      .dwattr DW$334, DW_AT_data_member_location[DW_OP_plus_uconst 0x42]
    3000                      .dwattr DW$334, DW_AT_accessibility(DW_ACCESS_public)
    3001              DW$335  .dwtag  DW_TAG_member, DW_AT_type(*DW$T$11)
    3002                      .dwattr DW$335, DW_AT_name("analogsettle"), DW_AT_symbol_name("_analogsettle")
    3003                      .dwattr DW$335, DW_AT_data_member_location[DW_OP_plus_uconst 0x43]
    3004                      .dwattr DW$335, DW_AT_accessibility(DW_ACCESS_public)
    3005              DW$336  .dwtag  DW_TAG_member, DW_AT_type(*DW$T$11)
    3006                      .dwattr DW$336, DW_AT_name("reprogram"), DW_AT_symbol_name("_reprogram")
    3007                      .dwattr DW$336, DW_AT_data_member_location[DW_OP_plus_uconst 0x44]
    3008                      .dwattr DW$336, DW_AT_accessibility(DW_ACCESS_public)
    3009              DW$337  .dwtag  DW_TAG_member, DW_AT_type(*DW$T$11)
    3010                      .dwattr DW$337, DW_AT_name("reprogramtimeout"), DW_AT_symbol_name("_reprogramtimeout")
    3011                      .dwattr DW$337, DW_AT_data_member_location[DW_OP_plus_uconst 0x45]
    3012                      .dwattr DW$337, DW_AT_accessibility(DW_ACCESS_public)
    3013              DW$338  .dwtag  DW_TAG_member, DW_AT_type(*DW$T$11)
    3014                      .dwattr DW$338, DW_AT_name("dcmodestayalive"), DW_AT_symbol_name("_dcmodestayalive")
    3015                      .dwattr DW$338, DW_AT_data_member_location[DW_OP_plus_uconst 0x46]
    3016                      .dwattr DW$338, DW_AT_accessibility(DW_ACCESS_public)
    3017              DW$339  .dwtag  DW_TAG_member, DW_AT_type(*DW$T$11)
    3018                      .dwattr DW$339, DW_AT_name("biteventchange"), DW_AT_symbol_name("_biteventchange")
    3019                      .dwattr DW$339, DW_AT_data_member_location[DW_OP_plus_uconst 0x47]
    3020                      .dwattr DW$339, DW_AT_accessibility(DW_ACCESS_public)
    3021              DW$340  .dwtag  DW_TAG_member, DW_AT_type(*DW$T$11)
    3022                      .dwattr DW$340, DW_AT_name("iSensorReplace"), DW_AT_symbol_name("_iSensorReplace")
    3023                      .dwattr DW$340, DW_AT_data_member_location[DW_OP_plus_uconst 0x48]
    3024                      .dwattr DW$340, DW_AT_accessibility(DW_ACCESS_public)
    3025              DW$341  .dwtag  DW_TAG_member, DW_AT_type(*DW$T$13)
    3026                      .dwattr DW$341, DW_AT_name("deltarpm15Delay"), DW_AT_symbol_name("_deltarpm15Delay")
    3027                      .dwattr DW$341, DW_AT_data_member_location[DW_OP_plus_uconst 0x4a]
    3028                      .dwattr DW$341, DW_AT_accessibility(DW_ACCESS_public)
    3029                      .dwendtag DW$T$39
    3030              
    3031              
    3032              DW$T$40 .dwtag  DW_TAG_structure_type
    3033                      .dwattr DW$T$40, DW_AT_byte_size(0x01)
    3034              DW$342  .dwtag  DW_TAG_member, DW_AT_type(*DW$T$11)
    3035                      .dwattr DW$342, DW_AT_name("newval"), DW_AT_symbol_name("_newval")
    3036                      .dwattr DW$342, DW_AT_bit_offset(0x0f), DW_AT_bit_size(0x01)
    3037                      .dwattr DW$342, DW_AT_data_member_location[DW_OP_plus_uconst 0x0]
    3038                      .dwattr DW$342, DW_AT_accessibility(DW_ACCESS_public)
    3039              DW$343  .dwtag  DW_TAG_member, DW_AT_type(*DW$T$11)
    3040                      .dwattr DW$343, DW_AT_name("calmode"), DW_AT_symbol_name("_calmode")
    3041                      .dwattr DW$343, DW_AT_bit_offset(0x0e), DW_AT_bit_size(0x01)
    3042                      .dwattr DW$343, DW_AT_data_member_location[DW_OP_plus_uconst 0x0]
    3043                      .dwattr DW$343, DW_AT_accessibility(DW_ACCESS_public)
TMS320C2000 COFF Assembler PC v4.1.3 Thu Aug 18 12:16:30 2016

Tools Copyright (c) 1996-2006 Texas Instruments Incorporated
setup.asm                                                            PAGE   63

    3044              DW$344  .dwtag  DW_TAG_member, DW_AT_type(*DW$T$11)
    3045                      .dwattr DW$344, DW_AT_name("startcal"), DW_AT_symbol_name("_startcal")
    3046                      .dwattr DW$344, DW_AT_bit_offset(0x0d), DW_AT_bit_size(0x01)
    3047                      .dwattr DW$344, DW_AT_data_member_location[DW_OP_plus_uconst 0x0]
    3048                      .dwattr DW$344, DW_AT_accessibility(DW_ACCESS_public)
    3049              DW$345  .dwtag  DW_TAG_member, DW_AT_type(*DW$T$11)
    3050                      .dwattr DW$345, DW_AT_name("newvalspu2"), DW_AT_symbol_name("_newvalspu2")
    3051                      .dwattr DW$345, DW_AT_bit_offset(0x0c), DW_AT_bit_size(0x01)
    3052                      .dwattr DW$345, DW_AT_data_member_location[DW_OP_plus_uconst 0x0]
    3053                      .dwattr DW$345, DW_AT_accessibility(DW_ACCESS_public)
    3054              DW$346  .dwtag  DW_TAG_member, DW_AT_type(*DW$T$11)
    3055                      .dwattr DW$346, DW_AT_name("unused"), DW_AT_symbol_name("_unused")
    3056                      .dwattr DW$346, DW_AT_bit_offset(0x00), DW_AT_bit_size(0x0c)
    3057                      .dwattr DW$346, DW_AT_data_member_location[DW_OP_plus_uconst 0x0]
    3058                      .dwattr DW$346, DW_AT_accessibility(DW_ACCESS_public)
    3059                      .dwendtag DW$T$40
    3060              
    3061              
    3062              DW$T$41 .dwtag  DW_TAG_structure_type
    3063                      .dwattr DW$T$41, DW_AT_byte_size(0x01)
    3064              DW$347  .dwtag  DW_TAG_member, DW_AT_type(*DW$T$11)
    3065                      .dwattr DW$347, DW_AT_name("slowdowncntrl"), DW_AT_symbol_name("_slowdowncntrl")
    3066                      .dwattr DW$347, DW_AT_bit_offset(0x0f), DW_AT_bit_size(0x01)
    3067                      .dwattr DW$347, DW_AT_data_member_location[DW_OP_plus_uconst 0x0]
    3068                      .dwattr DW$347, DW_AT_accessibility(DW_ACCESS_public)
    3069              DW$348  .dwtag  DW_TAG_member, DW_AT_type(*DW$T$11)
    3070                      .dwattr DW$348, DW_AT_name("unused"), DW_AT_symbol_name("_unused")
    3071                      .dwattr DW$348, DW_AT_bit_offset(0x00), DW_AT_bit_size(0x0f)
    3072                      .dwattr DW$348, DW_AT_data_member_location[DW_OP_plus_uconst 0x0]
    3073                      .dwattr DW$348, DW_AT_accessibility(DW_ACCESS_public)
    3074                      .dwendtag DW$T$41
    3075              
    3076              
    3077              DW$T$43 .dwtag  DW_TAG_structure_type
    3078                      .dwattr DW$T$43, DW_AT_byte_size(0x01)
    3079              DW$349  .dwtag  DW_TAG_member, DW_AT_type(*DW$T$11)
    3080                      .dwattr DW$349, DW_AT_name("inputtap"), DW_AT_symbol_name("_inputtap")
    3081                      .dwattr DW$349, DW_AT_data_member_location[DW_OP_plus_uconst 0x0]
    3082                      .dwattr DW$349, DW_AT_accessibility(DW_ACCESS_public)
    3083                      .dwendtag DW$T$43
    3084              
    3085              
    3086              DW$T$44 .dwtag  DW_TAG_structure_type
    3087                      .dwattr DW$T$44, DW_AT_byte_size(0x01)
    3088              DW$350  .dwtag  DW_TAG_member, DW_AT_type(*DW$T$11)
    3089                      .dwattr DW$350, DW_AT_name("bitmap"), DW_AT_symbol_name("_bitmap")
    3090                      .dwattr DW$350, DW_AT_data_member_location[DW_OP_plus_uconst 0x0]
    3091                      .dwattr DW$350, DW_AT_accessibility(DW_ACCESS_public)
    3092                      .dwendtag DW$T$44
    3093              
    3094              
    3095              DW$T$45 .dwtag  DW_TAG_structure_type
    3096                      .dwattr DW$T$45, DW_AT_byte_size(0x01)
    3097              DW$351  .dwtag  DW_TAG_member, DW_AT_type(*DW$T$11)
    3098                      .dwattr DW$351, DW_AT_name("graphvalue"), DW_AT_symbol_name("_graphvalue")
TMS320C2000 COFF Assembler PC v4.1.3 Thu Aug 18 12:16:30 2016

Tools Copyright (c) 1996-2006 Texas Instruments Incorporated
setup.asm                                                            PAGE   64

    3099                      .dwattr DW$351, DW_AT_data_member_location[DW_OP_plus_uconst 0x0]
    3100                      .dwattr DW$351, DW_AT_accessibility(DW_ACCESS_public)
    3101                      .dwendtag DW$T$45
    3102              
    3103              
    3104              DW$T$46 .dwtag  DW_TAG_structure_type
    3105                      .dwattr DW$T$46, DW_AT_byte_size(0x03)
    3106              DW$352  .dwtag  DW_TAG_member, DW_AT_type(*DW$T$11)
    3107                      .dwattr DW$352, DW_AT_name("chanlowthreshold"), DW_AT_symbol_name("_chanlowthreshold")
    3108                      .dwattr DW$352, DW_AT_data_member_location[DW_OP_plus_uconst 0x0]
    3109                      .dwattr DW$352, DW_AT_accessibility(DW_ACCESS_public)
    3110              DW$353  .dwtag  DW_TAG_member, DW_AT_type(*DW$T$11)
    3111                      .dwattr DW$353, DW_AT_name("chanhighthreshold"), DW_AT_symbol_name("_chanhighthreshold")
    3112                      .dwattr DW$353, DW_AT_data_member_location[DW_OP_plus_uconst 0x1]
    3113                      .dwattr DW$353, DW_AT_accessibility(DW_ACCESS_public)
    3114              DW$354  .dwtag  DW_TAG_member, DW_AT_type(*DW$T$11)
    3115                      .dwattr DW$354, DW_AT_name("sensorscalingfactor"), DW_AT_symbol_name("_sensorscalingfactor")
    3116                      .dwattr DW$354, DW_AT_data_member_location[DW_OP_plus_uconst 0x2]
    3117                      .dwattr DW$354, DW_AT_accessibility(DW_ACCESS_public)
    3118                      .dwendtag DW$T$46
    3119              
    3120              
    3121              DW$T$47 .dwtag  DW_TAG_structure_type
    3122                      .dwattr DW$T$47, DW_AT_byte_size(0x02)
    3123              DW$355  .dwtag  DW_TAG_member, DW_AT_type(*DW$T$11)
    3124                      .dwattr DW$355, DW_AT_name("shortlrate"), DW_AT_symbol_name("_shortlrate")
    3125                      .dwattr DW$355, DW_AT_data_member_location[DW_OP_plus_uconst 0x0]
    3126                      .dwattr DW$355, DW_AT_accessibility(DW_ACCESS_public)
    3127              DW$356  .dwtag  DW_TAG_member, DW_AT_type(*DW$T$11)
    3128                      .dwattr DW$356, DW_AT_name("longlrate"), DW_AT_symbol_name("_longlrate")
    3129                      .dwattr DW$356, DW_AT_data_member_location[DW_OP_plus_uconst 0x1]
    3130                      .dwattr DW$356, DW_AT_accessibility(DW_ACCESS_public)
    3131                      .dwendtag DW$T$47
    3132              
    3133              
    3134              DW$T$48 .dwtag  DW_TAG_structure_type
    3135                      .dwattr DW$T$48, DW_AT_byte_size(0x10)
    3136              DW$357  .dwtag  DW_TAG_member, DW_AT_type(*DW$T$13)
    3137                      .dwattr DW$357, DW_AT_name("wiorequest"), DW_AT_symbol_name("_wiorequest")
    3138                      .dwattr DW$357, DW_AT_data_member_location[DW_OP_plus_uconst 0x0]
    3139                      .dwattr DW$357, DW_AT_accessibility(DW_ACCESS_public)
    3140              DW$358  .dwtag  DW_TAG_member, DW_AT_type(*DW$T$13)
    3141                      .dwattr DW$358, DW_AT_name("wiocancelled"), DW_AT_symbol_name("_wiocancelled")
    3142                      .dwattr DW$358, DW_AT_data_member_location[DW_OP_plus_uconst 0x2]
    3143                      .dwattr DW$358, DW_AT_accessibility(DW_ACCESS_public)
    3144              DW$359  .dwtag  DW_TAG_member, DW_AT_type(*DW$T$13)
    3145                      .dwattr DW$359, DW_AT_name("wioreceived"), DW_AT_symbol_name("_wioreceived")
    3146                      .dwattr DW$359, DW_AT_data_member_location[DW_OP_plus_uconst 0x4]
    3147                      .dwattr DW$359, DW_AT_accessibility(DW_ACCESS_public)
    3148              DW$360  .dwtag  DW_TAG_member, DW_AT_type(*DW$T$13)
    3149                      .dwattr DW$360, DW_AT_name("slaverequest"), DW_AT_symbol_name("_slaverequest")
    3150                      .dwattr DW$360, DW_AT_data_member_location[DW_OP_plus_uconst 0x6]
    3151                      .dwattr DW$360, DW_AT_accessibility(DW_ACCESS_public)
    3152              DW$361  .dwtag  DW_TAG_member, DW_AT_type(*DW$T$13)
    3153                      .dwattr DW$361, DW_AT_name("slavereceived"), DW_AT_symbol_name("_slavereceived")
TMS320C2000 COFF Assembler PC v4.1.3 Thu Aug 18 12:16:30 2016

Tools Copyright (c) 1996-2006 Texas Instruments Incorporated
setup.asm                                                            PAGE   65

    3154                      .dwattr DW$361, DW_AT_data_member_location[DW_OP_plus_uconst 0x8]
    3155                      .dwattr DW$361, DW_AT_accessibility(DW_ACCESS_public)
    3156              DW$362  .dwtag  DW_TAG_member, DW_AT_type(*DW$T$13)
    3157                      .dwattr DW$362, DW_AT_name("slaveretry"), DW_AT_symbol_name("_slaveretry")
    3158                      .dwattr DW$362, DW_AT_data_member_location[DW_OP_plus_uconst 0xa]
    3159                      .dwattr DW$362, DW_AT_accessibility(DW_ACCESS_public)
    3160              DW$363  .dwtag  DW_TAG_member, DW_AT_type(*DW$T$13)
    3161                      .dwattr DW$363, DW_AT_name("pcrequest"), DW_AT_symbol_name("_pcrequest")
    3162                      .dwattr DW$363, DW_AT_data_member_location[DW_OP_plus_uconst 0xc]
    3163                      .dwattr DW$363, DW_AT_accessibility(DW_ACCESS_public)
    3164              DW$364  .dwtag  DW_TAG_member, DW_AT_type(*DW$T$13)
    3165                      .dwattr DW$364, DW_AT_name("pcreqtimeout"), DW_AT_symbol_name("_pcreqtimeout")
    3166                      .dwattr DW$364, DW_AT_data_member_location[DW_OP_plus_uconst 0xe]
    3167                      .dwattr DW$364, DW_AT_accessibility(DW_ACCESS_public)
    3168                      .dwendtag DW$T$48
    3169              
    3170              DW$T$51 .dwtag  DW_TAG_base_type, DW_AT_name("signed char")
    3171                      .dwattr DW$T$51, DW_AT_encoding(DW_ATE_signed_char)
    3172                      .dwattr DW$T$51, DW_AT_byte_size(0x01)
    3173              
    3174              DW$T$63 .dwtag  DW_TAG_structure_type
    3175                      .dwattr DW$T$63, DW_AT_byte_size(0x01)
    3176              DW$365  .dwtag  DW_TAG_member, DW_AT_type(*DW$T$10)
    3177                      .dwattr DW$365, DW_AT_name("settings"), DW_AT_symbol_name("_settings")
    3178                      .dwattr DW$365, DW_AT_bit_offset(0x0f), DW_AT_bit_size(0x01)
    3179                      .dwattr DW$365, DW_AT_data_member_location[DW_OP_plus_uconst 0x0]
    3180                      .dwattr DW$365, DW_AT_accessibility(DW_ACCESS_public)
    3181              DW$366  .dwtag  DW_TAG_member, DW_AT_type(*DW$T$10)
    3182                      .dwattr DW$366, DW_AT_name("sensorstatus"), DW_AT_symbol_name("_sensorstatus")
    3183                      .dwattr DW$366, DW_AT_bit_offset(0x0e), DW_AT_bit_size(0x01)
    3184                      .dwattr DW$366, DW_AT_data_member_location[DW_OP_plus_uconst 0x0]
    3185                      .dwattr DW$366, DW_AT_accessibility(DW_ACCESS_public)
    3186              DW$367  .dwtag  DW_TAG_member, DW_AT_type(*DW$T$10)
    3187                      .dwattr DW$367, DW_AT_name("offsets"), DW_AT_symbol_name("_offsets")
    3188                      .dwattr DW$367, DW_AT_bit_offset(0x0d), DW_AT_bit_size(0x01)
    3189                      .dwattr DW$367, DW_AT_data_member_location[DW_OP_plus_uconst 0x0]
    3190                      .dwattr DW$367, DW_AT_accessibility(DW_ACCESS_public)
    3191              DW$368  .dwtag  DW_TAG_member, DW_AT_type(*DW$T$10)
    3192                      .dwattr DW$368, DW_AT_name("mantable"), DW_AT_symbol_name("_mantable")
    3193                      .dwattr DW$368, DW_AT_bit_offset(0x0c), DW_AT_bit_size(0x01)
    3194                      .dwattr DW$368, DW_AT_data_member_location[DW_OP_plus_uconst 0x0]
    3195                      .dwattr DW$368, DW_AT_accessibility(DW_ACCESS_public)
    3196              DW$369  .dwtag  DW_TAG_member, DW_AT_type(*DW$T$10)
    3197                      .dwattr DW$369, DW_AT_name("calibtd"), DW_AT_symbol_name("_calibtd")
    3198                      .dwattr DW$369, DW_AT_bit_offset(0x0b), DW_AT_bit_size(0x01)
    3199                      .dwattr DW$369, DW_AT_data_member_location[DW_OP_plus_uconst 0x0]
    3200                      .dwattr DW$369, DW_AT_accessibility(DW_ACCESS_public)
    3201              DW$370  .dwtag  DW_TAG_member, DW_AT_type(*DW$T$10)
    3202                      .dwattr DW$370, DW_AT_name("unused6"), DW_AT_symbol_name("_unused6")
    3203                      .dwattr DW$370, DW_AT_bit_offset(0x0a), DW_AT_bit_size(0x01)
    3204                      .dwattr DW$370, DW_AT_data_member_location[DW_OP_plus_uconst 0x0]
    3205                      .dwattr DW$370, DW_AT_accessibility(DW_ACCESS_public)
    3206              DW$371  .dwtag  DW_TAG_member, DW_AT_type(*DW$T$10)
    3207                      .dwattr DW$371, DW_AT_name("unused7"), DW_AT_symbol_name("_unused7")
    3208                      .dwattr DW$371, DW_AT_bit_offset(0x09), DW_AT_bit_size(0x01)
TMS320C2000 COFF Assembler PC v4.1.3 Thu Aug 18 12:16:30 2016

Tools Copyright (c) 1996-2006 Texas Instruments Incorporated
setup.asm                                                            PAGE   66

    3209                      .dwattr DW$371, DW_AT_data_member_location[DW_OP_plus_uconst 0x0]
    3210                      .dwattr DW$371, DW_AT_accessibility(DW_ACCESS_public)
    3211              DW$372  .dwtag  DW_TAG_member, DW_AT_type(*DW$T$10)
    3212                      .dwattr DW$372, DW_AT_name("unused8"), DW_AT_symbol_name("_unused8")
    3213                      .dwattr DW$372, DW_AT_bit_offset(0x08), DW_AT_bit_size(0x01)
    3214                      .dwattr DW$372, DW_AT_data_member_location[DW_OP_plus_uconst 0x0]
    3215                      .dwattr DW$372, DW_AT_accessibility(DW_ACCESS_public)
    3216              DW$373  .dwtag  DW_TAG_member, DW_AT_type(*DW$T$10)
    3217                      .dwattr DW$373, DW_AT_name("unused9"), DW_AT_symbol_name("_unused9")
    3218                      .dwattr DW$373, DW_AT_bit_offset(0x07), DW_AT_bit_size(0x01)
    3219                      .dwattr DW$373, DW_AT_data_member_location[DW_OP_plus_uconst 0x0]
    3220                      .dwattr DW$373, DW_AT_accessibility(DW_ACCESS_public)
    3221              DW$374  .dwtag  DW_TAG_member, DW_AT_type(*DW$T$10)
    3222                      .dwattr DW$374, DW_AT_name("unused10"), DW_AT_symbol_name("_unused10")
    3223                      .dwattr DW$374, DW_AT_bit_offset(0x06), DW_AT_bit_size(0x01)
    3224                      .dwattr DW$374, DW_AT_data_member_location[DW_OP_plus_uconst 0x0]
    3225                      .dwattr DW$374, DW_AT_accessibility(DW_ACCESS_public)
    3226              DW$375  .dwtag  DW_TAG_member, DW_AT_type(*DW$T$10)
    3227                      .dwattr DW$375, DW_AT_name("unused11"), DW_AT_symbol_name("_unused11")
    3228                      .dwattr DW$375, DW_AT_bit_offset(0x05), DW_AT_bit_size(0x01)
    3229                      .dwattr DW$375, DW_AT_data_member_location[DW_OP_plus_uconst 0x0]
    3230                      .dwattr DW$375, DW_AT_accessibility(DW_ACCESS_public)
    3231              DW$376  .dwtag  DW_TAG_member, DW_AT_type(*DW$T$10)
    3232                      .dwattr DW$376, DW_AT_name("unused12"), DW_AT_symbol_name("_unused12")
    3233                      .dwattr DW$376, DW_AT_bit_offset(0x04), DW_AT_bit_size(0x01)
    3234                      .dwattr DW$376, DW_AT_data_member_location[DW_OP_plus_uconst 0x0]
    3235                      .dwattr DW$376, DW_AT_accessibility(DW_ACCESS_public)
    3236              DW$377  .dwtag  DW_TAG_member, DW_AT_type(*DW$T$10)
    3237                      .dwattr DW$377, DW_AT_name("unused13"), DW_AT_symbol_name("_unused13")
    3238                      .dwattr DW$377, DW_AT_bit_offset(0x03), DW_AT_bit_size(0x01)
    3239                      .dwattr DW$377, DW_AT_data_member_location[DW_OP_plus_uconst 0x0]
    3240                      .dwattr DW$377, DW_AT_accessibility(DW_ACCESS_public)
    3241              DW$378  .dwtag  DW_TAG_member, DW_AT_type(*DW$T$10)
    3242                      .dwattr DW$378, DW_AT_name("unused14"), DW_AT_symbol_name("_unused14")
    3243                      .dwattr DW$378, DW_AT_bit_offset(0x02), DW_AT_bit_size(0x01)
    3244                      .dwattr DW$378, DW_AT_data_member_location[DW_OP_plus_uconst 0x0]
    3245                      .dwattr DW$378, DW_AT_accessibility(DW_ACCESS_public)
    3246              DW$379  .dwtag  DW_TAG_member, DW_AT_type(*DW$T$10)
    3247                      .dwattr DW$379, DW_AT_name("unused15"), DW_AT_symbol_name("_unused15")
    3248                      .dwattr DW$379, DW_AT_bit_offset(0x01), DW_AT_bit_size(0x01)
    3249                      .dwattr DW$379, DW_AT_data_member_location[DW_OP_plus_uconst 0x0]
    3250                      .dwattr DW$379, DW_AT_accessibility(DW_ACCESS_public)
    3251              DW$380  .dwtag  DW_TAG_member, DW_AT_type(*DW$T$10)
    3252                      .dwattr DW$380, DW_AT_name("unused16"), DW_AT_symbol_name("_unused16")
    3253                      .dwattr DW$380, DW_AT_bit_offset(0x00), DW_AT_bit_size(0x01)
    3254                      .dwattr DW$380, DW_AT_data_member_location[DW_OP_plus_uconst 0x0]
    3255                      .dwattr DW$380, DW_AT_accessibility(DW_ACCESS_public)
    3256                      .dwendtag DW$T$63
    3257              
    3258              DW$T$75 .dwtag  DW_TAG_pointer_type, DW_AT_type(*DW$T$74)
    3259                      .dwattr DW$T$75, DW_AT_address_class(0x16)
    3260              
    3261              DW$T$25 .dwtag  DW_TAG_array_type, DW_AT_type(*DW$T$11)
    3262                      .dwattr DW$T$25, DW_AT_language(DW_LANG_C)
    3263                      .dwattr DW$T$25, DW_AT_byte_size(0x04)
TMS320C2000 COFF Assembler PC v4.1.3 Thu Aug 18 12:16:30 2016

Tools Copyright (c) 1996-2006 Texas Instruments Incorporated
setup.asm                                                            PAGE   67

    3264              DW$381  .dwtag  DW_TAG_subrange_type
    3265                      .dwattr DW$381, DW_AT_upper_bound(0x03)
    3266                      .dwendtag DW$T$25
    3267              
    3268              DW$T$12 .dwtag  DW_TAG_base_type, DW_AT_name("long")
    3269                      .dwattr DW$T$12, DW_AT_encoding(DW_ATE_signed)
    3270                      .dwattr DW$T$12, DW_AT_byte_size(0x02)
    3271              
    3272              DW$T$74 .dwtag  DW_TAG_subroutine_type
    3273                      .dwattr DW$T$74, DW_AT_language(DW_LANG_C)
    3274              
    3275                      .dwattr DW$88, DW_AT_external(0x01)
    3276                      .dwattr DW$86, DW_AT_external(0x01)
    3277                      .dwattr DW$71, DW_AT_external(0x01)
    3278                      .dwattr DW$72, DW_AT_external(0x01)
    3279                      .dwattr DW$70, DW_AT_external(0x01)
    3280                      .dwattr DW$67, DW_AT_external(0x01)
    3281                      .dwattr DW$69, DW_AT_external(0x01)
    3282                      .dwattr DW$73, DW_AT_external(0x01)
    3283                      .dwattr DW$75, DW_AT_external(0x01)
    3284                      .dwattr DW$74, DW_AT_external(0x01)
    3285                      .dwattr DW$76, DW_AT_external(0x01)
    3286                      .dwattr DW$87, DW_AT_external(0x01)
    3287                      .dwattr DW$68, DW_AT_external(0x01)
    3288                      .dwattr DW$89, DW_AT_external(0x01)
    3289                      .dwattr DW$77, DW_AT_external(0x01)
    3290                      .dwattr DW$98, DW_AT_external(0x01)
    3291                      .dwattr DW$80, DW_AT_external(0x01)
    3292                      .dwattr DW$92, DW_AT_external(0x01)
    3293                      .dwattr DW$83, DW_AT_external(0x01)
    3294                      .dwattr DW$66, DW_AT_external(0x01)
    3295                      .dwattr DW$CU, DW_AT_language(DW_LANG_C)
    3296              
    3297              ;***************************************************************
    3298              ;* DWARF REGISTER MAP                                          *
    3299              ;***************************************************************
    3300              
    3301              DW$382  .dwtag  DW_TAG_assign_register, DW_AT_name("AL")
    3302                      .dwattr DW$382, DW_AT_location[DW_OP_reg0]
    3303              DW$383  .dwtag  DW_TAG_assign_register, DW_AT_name("AH")
    3304                      .dwattr DW$383, DW_AT_location[DW_OP_reg1]
    3305              DW$384  .dwtag  DW_TAG_assign_register, DW_AT_name("PL")
    3306                      .dwattr DW$384, DW_AT_location[DW_OP_reg2]
    3307              DW$385  .dwtag  DW_TAG_assign_register, DW_AT_name("PH")
    3308                      .dwattr DW$385, DW_AT_location[DW_OP_reg3]
    3309              DW$386  .dwtag  DW_TAG_assign_register, DW_AT_name("AR0")
    3310                      .dwattr DW$386, DW_AT_location[DW_OP_reg4]
    3311              DW$387  .dwtag  DW_TAG_assign_register, DW_AT_name("XAR0")
    3312                      .dwattr DW$387, DW_AT_location[DW_OP_reg5]
    3313              DW$388  .dwtag  DW_TAG_assign_register, DW_AT_name("AR1")
    3314                      .dwattr DW$388, DW_AT_location[DW_OP_reg6]
    3315              DW$389  .dwtag  DW_TAG_assign_register, DW_AT_name("XAR1")
    3316                      .dwattr DW$389, DW_AT_location[DW_OP_reg7]
    3317              DW$390  .dwtag  DW_TAG_assign_register, DW_AT_name("AR2")
    3318                      .dwattr DW$390, DW_AT_location[DW_OP_reg8]
TMS320C2000 COFF Assembler PC v4.1.3 Thu Aug 18 12:16:30 2016

Tools Copyright (c) 1996-2006 Texas Instruments Incorporated
setup.asm                                                            PAGE   68

    3319              DW$391  .dwtag  DW_TAG_assign_register, DW_AT_name("XAR2")
    3320                      .dwattr DW$391, DW_AT_location[DW_OP_reg9]
    3321              DW$392  .dwtag  DW_TAG_assign_register, DW_AT_name("AR3")
    3322                      .dwattr DW$392, DW_AT_location[DW_OP_reg10]
    3323              DW$393  .dwtag  DW_TAG_assign_register, DW_AT_name("XAR3")
    3324                      .dwattr DW$393, DW_AT_location[DW_OP_reg11]
    3325              DW$394  .dwtag  DW_TAG_assign_register, DW_AT_name("AR4")
    3326                      .dwattr DW$394, DW_AT_location[DW_OP_reg12]
    3327              DW$395  .dwtag  DW_TAG_assign_register, DW_AT_name("XAR4")
    3328                      .dwattr DW$395, DW_AT_location[DW_OP_reg13]
    3329              DW$396  .dwtag  DW_TAG_assign_register, DW_AT_name("AR5")
    3330                      .dwattr DW$396, DW_AT_location[DW_OP_reg14]
    3331              DW$397  .dwtag  DW_TAG_assign_register, DW_AT_name("XAR5")
    3332                      .dwattr DW$397, DW_AT_location[DW_OP_reg15]
    3333              DW$398  .dwtag  DW_TAG_assign_register, DW_AT_name("AR6")
    3334                      .dwattr DW$398, DW_AT_location[DW_OP_reg16]
    3335              DW$399  .dwtag  DW_TAG_assign_register, DW_AT_name("XAR6")
    3336                      .dwattr DW$399, DW_AT_location[DW_OP_reg17]
    3337              DW$400  .dwtag  DW_TAG_assign_register, DW_AT_name("AR7")
    3338                      .dwattr DW$400, DW_AT_location[DW_OP_reg18]
    3339              DW$401  .dwtag  DW_TAG_assign_register, DW_AT_name("XAR7")
    3340                      .dwattr DW$401, DW_AT_location[DW_OP_reg19]
    3341              DW$402  .dwtag  DW_TAG_assign_register, DW_AT_name("SP")
    3342                      .dwattr DW$402, DW_AT_location[DW_OP_reg20]
    3343              DW$403  .dwtag  DW_TAG_assign_register, DW_AT_name("XT")
    3344                      .dwattr DW$403, DW_AT_location[DW_OP_reg21]
    3345              DW$404  .dwtag  DW_TAG_assign_register, DW_AT_name("T")
    3346                      .dwattr DW$404, DW_AT_location[DW_OP_reg22]
    3347              DW$405  .dwtag  DW_TAG_assign_register, DW_AT_name("ST0")
    3348                      .dwattr DW$405, DW_AT_location[DW_OP_reg23]
    3349              DW$406  .dwtag  DW_TAG_assign_register, DW_AT_name("ST1")
    3350                      .dwattr DW$406, DW_AT_location[DW_OP_reg24]
    3351              DW$407  .dwtag  DW_TAG_assign_register, DW_AT_name("PC")
    3352                      .dwattr DW$407, DW_AT_location[DW_OP_reg25]
    3353              DW$408  .dwtag  DW_TAG_assign_register, DW_AT_name("RPC")
    3354                      .dwattr DW$408, DW_AT_location[DW_OP_reg26]
    3355              DW$409  .dwtag  DW_TAG_assign_register, DW_AT_name("FP")
    3356                      .dwattr DW$409, DW_AT_location[DW_OP_reg27]
    3357              DW$410  .dwtag  DW_TAG_assign_register, DW_AT_name("DP")
    3358                      .dwattr DW$410, DW_AT_location[DW_OP_reg28]
    3359              DW$411  .dwtag  DW_TAG_assign_register, DW_AT_name("SXM")
    3360                      .dwattr DW$411, DW_AT_location[DW_OP_reg29]
    3361              DW$412  .dwtag  DW_TAG_assign_register, DW_AT_name("PM")
    3362                      .dwattr DW$412, DW_AT_location[DW_OP_reg30]
    3363              DW$413  .dwtag  DW_TAG_assign_register, DW_AT_name("OVM")
    3364                      .dwattr DW$413, DW_AT_location[DW_OP_reg31]
    3365              DW$414  .dwtag  DW_TAG_assign_register, DW_AT_name("PAGE0")
    3366                      .dwattr DW$414, DW_AT_location[DW_OP_regx 0x20]
    3367              DW$415  .dwtag  DW_TAG_assign_register, DW_AT_name("AMODE")
    3368                      .dwattr DW$415, DW_AT_location[DW_OP_regx 0x21]
    3369              DW$416  .dwtag  DW_TAG_assign_register, DW_AT_name("IFR")
    3370                      .dwattr DW$416, DW_AT_location[DW_OP_regx 0x22]
    3371              DW$417  .dwtag  DW_TAG_assign_register, DW_AT_name("IER")
    3372                      .dwattr DW$417, DW_AT_location[DW_OP_regx 0x23]
    3373              DW$418  .dwtag  DW_TAG_assign_register, DW_AT_name("IER")
TMS320C2000 COFF Assembler PC v4.1.3 Thu Aug 18 12:16:30 2016

Tools Copyright (c) 1996-2006 Texas Instruments Incorporated
setup.asm                                                            PAGE   69

    3374                      .dwattr DW$418, DW_AT_location[DW_OP_regx 0x24]
    3375              DW$419  .dwtag  DW_TAG_assign_register, DW_AT_name("PSEUDO")
    3376                      .dwattr DW$419, DW_AT_location[DW_OP_regx 0x25]
    3377              DW$420  .dwtag  DW_TAG_assign_register, DW_AT_name("PSEUDOH")
    3378                      .dwattr DW$420, DW_AT_location[DW_OP_regx 0x26]
    3379              DW$421  .dwtag  DW_TAG_assign_register, DW_AT_name("VOL")
    3380                      .dwattr DW$421, DW_AT_location[DW_OP_regx 0x27]
    3381              DW$422  .dwtag  DW_TAG_assign_register, DW_AT_name("CIE_RETA")
    3382                      .dwattr DW$422, DW_AT_location[DW_OP_regx 0x28]
    3383                      .dwendtag DW$CU
    3384              

No Assembly Errors, No Assembly Warnings
