TMS320C2000 COFF Assembler PC v4.1.3 Thu Aug 18 12:16:31 2016

Tools Copyright (c) 1996-2006 Texas Instruments Incorporated
slave485.asm                                                         PAGE    1

       1              ;***************************************************************
       2              ;* TMS320C2000 C/C++ Codegen                         PC v4.1.3 *
       3              ;* Date/Time created: Thu Aug 18 12:16:31 2016                 *
       4              ;***************************************************************
       5                      .compiler_opts --mem_model:code=flat --mem_model:data=large --quiet --silicon_version=28 
       6        0002  FP      .set    XAR2
       7              
       8              DW$CU   .dwtag  DW_TAG_compile_unit
       9                      .dwattr DW$CU, DW_AT_name("slave485.c")
      10                      .dwattr DW$CU, DW_AT_producer("TMS320C2000 C/C++ Codegen PC v4.1.3 Copyright (c) 1996-2006 Texas Inst
      11                      .dwattr DW$CU, DW_AT_stmt_list(0x00)
      12                      .dwattr DW$CU, DW_AT_TI_VERSION(0x01)
      13              
      14              DW$1    .dwtag  DW_TAG_subprogram, DW_AT_name("memset"), DW_AT_symbol_name("_memset")
      15                      .dwattr DW$1, DW_AT_type(*DW$T$3)
      16                      .dwattr DW$1, DW_AT_declaration(0x01)
      17                      .dwattr DW$1, DW_AT_external(0x01)
      18              DW$2    .dwtag  DW_TAG_formal_parameter, DW_AT_type(*DW$T$3)
      19              DW$3    .dwtag  DW_TAG_formal_parameter, DW_AT_type(*DW$T$10)
      20              DW$4    .dwtag  DW_TAG_formal_parameter, DW_AT_type(*DW$T$63)
      21                      .dwendtag DW$1
      22              
      23              
      24              DW$5    .dwtag  DW_TAG_subprogram, DW_AT_name("MastertoSlaveSendBuffer"), DW_AT_symbol_name("_MastertoSlaveSe
      25                      .dwattr DW$5, DW_AT_declaration(0x01)
      26                      .dwattr DW$5, DW_AT_external(0x01)
      27              DW$6    .dwtag  DW_TAG_formal_parameter, DW_AT_type(*DW$T$50)
      28              DW$7    .dwtag  DW_TAG_formal_parameter, DW_AT_type(*DW$T$11)
      29                      .dwendtag DW$5
      30              
      31              
      32              DW$8    .dwtag  DW_TAG_subprogram, DW_AT_name("CalcCRC"), DW_AT_symbol_name("_CalcCRC")
      33                      .dwattr DW$8, DW_AT_declaration(0x01)
      34                      .dwattr DW$8, DW_AT_external(0x01)
      35              DW$9    .dwtag  DW_TAG_formal_parameter, DW_AT_type(*DW$T$50)
      36              DW$10   .dwtag  DW_TAG_formal_parameter, DW_AT_type(*DW$T$11)
      37              DW$11   .dwtag  DW_TAG_formal_parameter, DW_AT_type(*DW$T$50)
      38                      .dwendtag DW$8
      39              
      40              
      41              DW$12   .dwtag  DW_TAG_subprogram, DW_AT_name("SetSlaveVersion"), DW_AT_symbol_name("_SetSlaveVersion")
      42                      .dwattr DW$12, DW_AT_declaration(0x01)
      43                      .dwattr DW$12, DW_AT_external(0x01)
      44              DW$13   .dwtag  DW_TAG_formal_parameter, DW_AT_type(*DW$T$11)
      45                      .dwendtag DW$12
      46              
      47              
      48              DW$14   .dwtag  DW_TAG_subprogram, DW_AT_name("SetRPMChan"), DW_AT_symbol_name("_SetRPMChan")
      49                      .dwattr DW$14, DW_AT_declaration(0x01)
      50                      .dwattr DW$14, DW_AT_external(0x01)
      51              DW$15   .dwtag  DW_TAG_formal_parameter, DW_AT_type(*DW$T$11)
      52              DW$16   .dwtag  DW_TAG_formal_parameter, DW_AT_type(*DW$T$11)
      53                      .dwendtag DW$14
      54              
      55              
TMS320C2000 COFF Assembler PC v4.1.3 Thu Aug 18 12:16:31 2016

Tools Copyright (c) 1996-2006 Texas Instruments Incorporated
slave485.asm                                                         PAGE    2

      56              DW$17   .dwtag  DW_TAG_subprogram, DW_AT_name("GetRPM"), DW_AT_symbol_name("_GetRPM")
      57                      .dwattr DW$17, DW_AT_type(*DW$T$11)
      58                      .dwattr DW$17, DW_AT_declaration(0x01)
      59                      .dwattr DW$17, DW_AT_external(0x01)
      60              DW$18   .dwtag  DW_TAG_formal_parameter, DW_AT_type(*DW$T$11)
      61                      .dwendtag DW$17
      62              
      63              
      64              DW$19   .dwtag  DW_TAG_subprogram, DW_AT_name("SetImmScaledValue"), DW_AT_symbol_name("_SetImmScaledValue")
      65                      .dwattr DW$19, DW_AT_declaration(0x01)
      66                      .dwattr DW$19, DW_AT_external(0x01)
      67              DW$20   .dwtag  DW_TAG_formal_parameter, DW_AT_type(*DW$T$11)
      68              DW$21   .dwtag  DW_TAG_formal_parameter, DW_AT_type(*DW$T$10)
      69                      .dwendtag DW$19
      70              
      71              
      72              DW$22   .dwtag  DW_TAG_subprogram, DW_AT_name("SetScaledValue"), DW_AT_symbol_name("_SetScaledValue")
      73                      .dwattr DW$22, DW_AT_declaration(0x01)
      74                      .dwattr DW$22, DW_AT_external(0x01)
      75              DW$23   .dwtag  DW_TAG_formal_parameter, DW_AT_type(*DW$T$11)
      76              DW$24   .dwtag  DW_TAG_formal_parameter, DW_AT_type(*DW$T$10)
      77                      .dwendtag DW$22
      78              
      79              
      80              DW$25   .dwtag  DW_TAG_subprogram, DW_AT_name("GetScaledValue"), DW_AT_symbol_name("_GetScaledValue")
      81                      .dwattr DW$25, DW_AT_type(*DW$T$10)
      82                      .dwattr DW$25, DW_AT_declaration(0x01)
      83                      .dwattr DW$25, DW_AT_external(0x01)
      84              DW$26   .dwtag  DW_TAG_formal_parameter, DW_AT_type(*DW$T$11)
      85                      .dwendtag DW$25
      86              
      87              
      88              DW$27   .dwtag  DW_TAG_subprogram, DW_AT_name("DCModeInit"), DW_AT_symbol_name("_DCModeInit")
      89                      .dwattr DW$27, DW_AT_declaration(0x01)
      90                      .dwattr DW$27, DW_AT_external(0x01)
      91              
      92              DW$28   .dwtag  DW_TAG_subprogram, DW_AT_name("DCModeClear"), DW_AT_symbol_name("_DCModeClear")
      93                      .dwattr DW$28, DW_AT_declaration(0x01)
      94                      .dwattr DW$28, DW_AT_external(0x01)
      95              
      96              DW$29   .dwtag  DW_TAG_subprogram, DW_AT_name("Status3Flags"), DW_AT_symbol_name("_Status3Flags")
      97                      .dwattr DW$29, DW_AT_type(*DW$T$93)
      98                      .dwattr DW$29, DW_AT_declaration(0x01)
      99                      .dwattr DW$29, DW_AT_external(0x01)
     100              DW$30   .dwtag  DW_TAG_formal_parameter, DW_AT_type(*DW$T$11)
     101                      .dwendtag DW$29
     102              
     103              
     104              DW$31   .dwtag  DW_TAG_subprogram, DW_AT_name("TxRegtoSlave"), DW_AT_symbol_name("_TxRegtoSlave")
     105                      .dwattr DW$31, DW_AT_declaration(0x01)
     106                      .dwattr DW$31, DW_AT_external(0x01)
     107              
     108              DW$32   .dwtag  DW_TAG_subprogram, DW_AT_name("RxStatusfromSlave"), DW_AT_symbol_name("_RxStatusfromSlave")
     109                      .dwattr DW$32, DW_AT_declaration(0x01)
     110                      .dwattr DW$32, DW_AT_external(0x01)
TMS320C2000 COFF Assembler PC v4.1.3 Thu Aug 18 12:16:31 2016

Tools Copyright (c) 1996-2006 Texas Instruments Incorporated
slave485.asm                                                         PAGE    3

     111              
     112              DW$33   .dwtag  DW_TAG_subprogram, DW_AT_name("ProcessReprogrammingTransferral"), DW_AT_symbol_name("_Process
     113                      .dwattr DW$33, DW_AT_declaration(0x01)
     114                      .dwattr DW$33, DW_AT_external(0x01)
     115              DW$34   .dwtag  DW_TAG_formal_parameter, DW_AT_type(*DW$T$11)
     116              DW$35   .dwtag  DW_TAG_formal_parameter, DW_AT_type(*DW$T$11)
     117              DW$36   .dwtag  DW_TAG_formal_parameter, DW_AT_type(*DW$T$11)
     118              DW$37   .dwtag  DW_TAG_formal_parameter, DW_AT_type(*DW$T$50)
     119                      .dwendtag DW$33
     120              
     121              
     122              DW$38   .dwtag  DW_TAG_subprogram, DW_AT_name("SaveSafeStruct1"), DW_AT_symbol_name("_SaveSafeStruct1")
     123                      .dwattr DW$38, DW_AT_type(*DW$T$10)
     124                      .dwattr DW$38, DW_AT_declaration(0x01)
     125                      .dwattr DW$38, DW_AT_external(0x01)
     126              
     127              DW$39   .dwtag  DW_TAG_subprogram, DW_AT_name("SaveSafeStruct2"), DW_AT_symbol_name("_SaveSafeStruct2")
     128                      .dwattr DW$39, DW_AT_type(*DW$T$10)
     129                      .dwattr DW$39, DW_AT_declaration(0x01)
     130                      .dwattr DW$39, DW_AT_external(0x01)
     131              
     132              DW$40   .dwtag  DW_TAG_subprogram, DW_AT_name("NOPDelay"), DW_AT_symbol_name("_NOPDelay")
     133                      .dwattr DW$40, DW_AT_type(*DW$T$10)
     134                      .dwattr DW$40, DW_AT_declaration(0x01)
     135                      .dwattr DW$40, DW_AT_external(0x01)
     136              DW$41   .dwtag  DW_TAG_variable, DW_AT_name("settings"), DW_AT_symbol_name("_settings")
     137                      .dwattr DW$41, DW_AT_type(*DW$T$100)
     138                      .dwattr DW$41, DW_AT_declaration(0x01)
     139                      .dwattr DW$41, DW_AT_external(0x01)
     140              DW$42   .dwtag  DW_TAG_variable, DW_AT_name("safe1"), DW_AT_symbol_name("_safe1")
     141                      .dwattr DW$42, DW_AT_type(*DW$T$101)
     142                      .dwattr DW$42, DW_AT_declaration(0x01)
     143                      .dwattr DW$42, DW_AT_external(0x01)
     144              DW$43   .dwtag  DW_TAG_variable, DW_AT_name("safe2"), DW_AT_symbol_name("_safe2")
     145                      .dwattr DW$43, DW_AT_type(*DW$T$102)
     146                      .dwattr DW$43, DW_AT_declaration(0x01)
     147                      .dwattr DW$43, DW_AT_external(0x01)
     148              DW$44   .dwtag  DW_TAG_variable, DW_AT_name("timers"), DW_AT_symbol_name("_timers")
     149                      .dwattr DW$44, DW_AT_type(*DW$T$104)
     150                      .dwattr DW$44, DW_AT_declaration(0x01)
     151                      .dwattr DW$44, DW_AT_external(0x01)
     152              DW$45   .dwtag  DW_TAG_variable, DW_AT_name("allsensors"), DW_AT_symbol_name("_allsensors")
     153                      .dwattr DW$45, DW_AT_type(*DW$T$106)
     154                      .dwattr DW$45, DW_AT_declaration(0x01)
     155                      .dwattr DW$45, DW_AT_external(0x01)
     156              DW$46   .dwtag  DW_TAG_variable, DW_AT_name("config"), DW_AT_symbol_name("_config")
     157                      .dwattr DW$46, DW_AT_type(*DW$T$108)
     158                      .dwattr DW$46, DW_AT_declaration(0x01)
     159                      .dwattr DW$46, DW_AT_external(0x01)
     160              DW$47   .dwtag  DW_TAG_variable, DW_AT_name("receiveA"), DW_AT_symbol_name("_receiveA")
     161                      .dwattr DW$47, DW_AT_type(*DW$T$109)
     162                      .dwattr DW$47, DW_AT_declaration(0x01)
     163                      .dwattr DW$47, DW_AT_external(0x01)
     164              DW$48   .dwtag  DW_TAG_variable, DW_AT_name("versionreg"), DW_AT_symbol_name("_versionreg")
     165                      .dwattr DW$48, DW_AT_type(*DW$T$88)
TMS320C2000 COFF Assembler PC v4.1.3 Thu Aug 18 12:16:31 2016

Tools Copyright (c) 1996-2006 Texas Instruments Incorporated
slave485.asm                                                         PAGE    4

     166                      .dwattr DW$48, DW_AT_declaration(0x01)
     167                      .dwattr DW$48, DW_AT_external(0x01)
     168              DW$49   .dwtag  DW_TAG_variable, DW_AT_name("sensor"), DW_AT_symbol_name("_sensor")
     169                      .dwattr DW$49, DW_AT_type(*DW$T$112)
     170                      .dwattr DW$49, DW_AT_declaration(0x01)
     171                      .dwattr DW$49, DW_AT_external(0x01)
     172              DW$50   .dwtag  DW_TAG_variable, DW_AT_name("status3"), DW_AT_symbol_name("_status3")
     173                      .dwattr DW$50, DW_AT_type(*DW$T$95)
     174                      .dwattr DW$50, DW_AT_declaration(0x01)
     175                      .dwattr DW$50, DW_AT_external(0x01)
     176              DW$51   .dwtag  DW_TAG_variable, DW_AT_name("reprogram"), DW_AT_symbol_name("_reprogram")
     177                      .dwattr DW$51, DW_AT_type(*DW$T$115)
     178                      .dwattr DW$51, DW_AT_declaration(0x01)
     179                      .dwattr DW$51, DW_AT_external(0x01)
     180                      .global _slaveresponsemsg
     181 00000000       _slaveresponsemsg:      .usect  ".ebss",100,1,0
     182              DW$52   .dwtag  DW_TAG_variable, DW_AT_name("slaveresponsemsg"), DW_AT_symbol_name("_slaveresponsemsg")
     183                      .dwattr DW$52, DW_AT_location[DW_OP_addr _slaveresponsemsg]
     184                      .dwattr DW$52, DW_AT_type(*DW$T$89)
     185                      .dwattr DW$52, DW_AT_external(0x01)
     186                      .global _receivingmode
     187 00000064       _receivingmode: .usect  ".ebss",1,1,0
     188              DW$53   .dwtag  DW_TAG_variable, DW_AT_name("receivingmode"), DW_AT_symbol_name("_receivingmode")
     189                      .dwattr DW$53, DW_AT_location[DW_OP_addr _receivingmode]
     190                      .dwattr DW$53, DW_AT_type(*DW$T$11)
     191                      .dwattr DW$53, DW_AT_external(0x01)
     192                      .global _slave485mb
     193 00000080       _slave485mb:    .usect  ".ebss",72,1,0
     194              DW$54   .dwtag  DW_TAG_variable, DW_AT_name("slave485mb"), DW_AT_symbol_name("_slave485mb")
     195                      .dwattr DW$54, DW_AT_location[DW_OP_addr _slave485mb]
     196                      .dwattr DW$54, DW_AT_type(*DW$T$116)
     197                      .dwattr DW$54, DW_AT_external(0x01)
     198              ;       C:\CCStudio_v3.3\C2000\cgtools\bin\opt2000.exe C:\Users\Andrew\AppData\Local\Temp\TI7842 C:\Users\And
     199              ;       C:\CCStudio_v3.3\C2000\cgtools\bin\ac2000.exe -q -D_INLINE -DLARGE_MODEL -IC:/CCStudio_v3.3/C2000/xda
     200 00000000               .sect   ".text"
     201                      .global _Slave485Init
     202              
     203              DW$55   .dwtag  DW_TAG_subprogram, DW_AT_name("Slave485Init"), DW_AT_symbol_name("_Slave485Init")
     204                      .dwattr DW$55, DW_AT_low_pc(_Slave485Init)
     205                      .dwattr DW$55, DW_AT_high_pc(0x00)
     206                      .dwattr DW$55, DW_AT_begin_file("slave485.c")
     207                      .dwattr DW$55, DW_AT_begin_line(0x3e)
     208                      .dwattr DW$55, DW_AT_begin_column(0x06)
     209                      .dwattr DW$55, DW_AT_frame_base[DW_OP_breg20 -2]
     210                      .dwattr DW$55, DW_AT_skeletal(0x01)
     211                      .dwpsn  "slave485.c",63,1
     212              
     213              ;***************************************************************
     214              ;* FNAME: _Slave485Init                 FR SIZE:   0           *
     215              ;*                                                             *
     216              ;* FUNCTION ENVIRONMENT                                        *
     217              ;*                                                             *
     218              ;* FUNCTION PROPERTIES                                         *
     219              ;*                            0 Parameter,  0 Auto,  0 SOE     *
     220              ;***************************************************************
TMS320C2000 COFF Assembler PC v4.1.3 Thu Aug 18 12:16:31 2016

Tools Copyright (c) 1996-2006 Texas Instruments Incorporated
slave485.asm                                                         PAGE    5

     221              
     222 00000000       _Slave485Init:
     223 00000000 761F-         MOVW      DP,#_slave485mb+69
         00000001 0003 
     224 00000002 2B05-         MOV       @_slave485mb+69,#0    ; |64| 
     225 00000003 761F!         MOVW      DP,#_timers+5
         00000004 0000 
     226 00000005 028C          MOVB      ACC,#140
     227 00000006 2B05!         MOV       @_timers+5,#0         ; |65| 
     228 00000007 D500          MOVB      XAR5,#0
     229 00000008 761F!         MOVW      DP,#_timers+42
         00000009 0000 
     230 0000000a 8F00!         MOVL      XAR4,#_receiveA+9     ; |71| 
         0000000b 0009 
     231 0000000c 2B2A!         MOV       @_timers+42,#0        ; |66| 
     232 0000000d 761F!         MOVW      DP,#_receiveA+8
         0000000e 0000 
     233 0000000f 2B08!         MOV       @_receiveA+8,#0       ; |67| 
     234 00000010 761F!         MOVW      DP,#_receiveA+7
         00000011 0000 
     235 00000012 2B07!         MOV       @_receiveA+7,#0       ; |68| 
     236 00000013 761F-         MOVW      DP,#_slave485mb+70
         00000014 0003 
     237 00000015 2B06-         MOV       @_slave485mb+70,#0    ; |69| 
     238 00000016 761F-         MOVW      DP,#_slave485mb+71
         00000017 0003 
     239 00000018 2807-         MOV       @_slave485mb+71,#1    ; |70| 
         00000019 0001 
     240 0000001a 7640!         LCR       #_memset              ; |71| 
         0000001b 0000 
     241                      ; call occurs [#_memset] ; |71| 
     242 0000001c 761F-         MOVW      DP,#_receivingmode
         0000001d 0001 
     243 0000001e 9A00          MOVB      AL,#0
     244 0000001f 2824-         MOV       @_receivingmode,#1    ; |72| 
         00000020 0001 
     245 00000021 7640!         LCR       #_SetSlaveVersion     ; |73| 
         00000022 0000 
     246                      ; call occurs [#_SetSlaveVersion] ; |73| 
     247                      .dwpsn  "slave485.c",74,1
     248 00000023 0006          LRETR
     249                      ; return occurs
     250                      .dwattr DW$55, DW_AT_end_file("slave485.c")
     251                      .dwattr DW$55, DW_AT_end_line(0x4a)
     252                      .dwattr DW$55, DW_AT_end_column(0x01)
     253                      .dwendtag DW$55
     254              
     255 00000024               .sect   ".text"
     256                      .global _Slave485Modbus
     257              
     258              DW$56   .dwtag  DW_TAG_subprogram, DW_AT_name("Slave485Modbus"), DW_AT_symbol_name("_Slave485Modbus")
     259                      .dwattr DW$56, DW_AT_low_pc(_Slave485Modbus)
     260                      .dwattr DW$56, DW_AT_high_pc(0x00)
     261                      .dwattr DW$56, DW_AT_begin_file("slave485.c")
     262                      .dwattr DW$56, DW_AT_begin_line(0x4d)
TMS320C2000 COFF Assembler PC v4.1.3 Thu Aug 18 12:16:31 2016

Tools Copyright (c) 1996-2006 Texas Instruments Incorporated
slave485.asm                                                         PAGE    6

     263                      .dwattr DW$56, DW_AT_begin_column(0x06)
     264                      .dwattr DW$56, DW_AT_frame_base[DW_OP_breg20 -2]
     265                      .dwattr DW$56, DW_AT_skeletal(0x01)
     266                      .dwpsn  "slave485.c",78,1
     267              
     268              ;***************************************************************
     269              ;* FNAME: _Slave485Modbus               FR SIZE:   0           *
     270              ;*                                                             *
     271              ;* FUNCTION ENVIRONMENT                                        *
     272              ;*                                                             *
     273              ;* FUNCTION PROPERTIES                                         *
     274              ;*                            0 Parameter,  0 Auto,  0 SOE     *
     275              ;***************************************************************
     276              
     277 00000024       _Slave485Modbus:
     278 00000024 761F!         MOVW      DP,#_reprogram+15
         00000025 0000 
     279 00000026 920F!         MOV       AL,@_reprogram+15     ; |82| 
     280 00000027 5201          CMPB      AL,#1                 ; |82| 
     281 00000028 EC7F          BF        L11,EQ                ; |82| 
     282                      ; branchcc occurs ; |82| 
     283 00000029 761F!         MOVW      DP,#_settings+17
         0000002a 0000 
     284 0000002b 9211!         MOV       AL,@_settings+17      ; |85| 
     285 0000002c 5201          CMPB      AL,#1                 ; |85| 
     286 0000002d ED44          BF        L7,NEQ                ; |85| 
     287                      ; branchcc occurs ; |85| 
     288 0000002e 761F!         MOVW      DP,#_allsensors+2
         0000002f 0000 
     289 00000030 9202!         MOV       AL,@_allsensors+2     ; |85| 
     290 00000031 EC40          BF        L7,EQ                 ; |85| 
     291                      ; branchcc occurs ; |85| 
     292 00000032 761F!         MOVW      DP,#_settings+31
         00000033 0000 
     293 00000034 921F!         MOV       AL,@_settings+31      ; |85| 
     294 00000035 ED3C          BF        L7,NEQ                ; |85| 
     295                      ; branchcc occurs ; |85| 
     296 00000036 761F-         MOVW      DP,#_slave485mb+69
         00000037 0003 
     297 00000038 9205-         MOV       AL,@_slave485mb+69    ; |87| 
     298 00000039 ED34          BF        L6,NEQ                ; |87| 
     299                      ; branchcc occurs ; |87| 
     300 0000003a 761F!         MOVW      DP,#_timers+42
         0000003b 0000 
     301 0000003c 922A!         MOV       AL,@_timers+42        ; |87| 
     302 0000003d ED30          BF        L6,NEQ                ; |87| 
     303                      ; branchcc occurs ; |87| 
     304 0000003e 761F!         MOVW      DP,#_reprogram+13
         0000003f 0000 
     305 00000040 920D!         MOV       AL,@_reprogram+13     ; |90| 
     306 00000041 5201          CMPB      AL,#1                 ; |90| 
     307 00000042 EC1A          BF        L3,EQ                 ; |90| 
     308                      ; branchcc occurs ; |90| 
     309 00000043 761F!         MOVW      DP,#_reprogram+14
         00000044 0000 
TMS320C2000 COFF Assembler PC v4.1.3 Thu Aug 18 12:16:31 2016

Tools Copyright (c) 1996-2006 Texas Instruments Incorporated
slave485.asm                                                         PAGE    7

     310 00000045 920E!         MOV       AL,@_reprogram+14     ; |91| 
     311 00000046 5201          CMPB      AL,#1                 ; |91| 
     312 00000047 EC11          BF        L2,EQ                 ; |91| 
     313                      ; branchcc occurs ; |91| 
     314 00000048 761F!         MOVW      DP,#_settings+18
         00000049 0000 
     315 0000004a 9212!         MOV       AL,@_settings+18      ; |92| 
     316 0000004b 5201          CMPB      AL,#1                 ; |92| 
     317 0000004c EC05          BF        L1,EQ                 ; |92| 
     318                      ; branchcc occurs ; |92| 
     319 0000004d 7640'         LCR       #_ReadChannelResults  ; |98| 
         0000004e 03DF 
     320                      ; call occurs [#_ReadChannelResults] ; |98| 
     321 0000004f 56CF          BF        L4,UNC                ; |98| 
         00000050 000F 
     322                      ; branch occurs ; |98| 
     323 00000051       L1:    
     324 00000051 7640'         LCR       #_SendScalingCommand  ; |95| 
         00000052 0394 
     325                      ; call occurs [#_SendScalingCommand] ; |95| 
     326 00000053 761F!         MOVW      DP,#_settings+18
         00000054 0000 
     327 00000055 2B12!         MOV       @_settings+18,#0      ; |96| 
     328 00000056 56CF          BF        L4,UNC                ; |97| 
         00000057 0008 
     329                      ; branch occurs ; |97| 
     330 00000058       L2:    
     331 00000058 7640!         LCR       #_RxStatusfromSlave   ; |91| 
         00000059 0000 
     332                      ; call occurs [#_RxStatusfromSlave] ; |91| 
     333 0000005a 56CF          BF        L4,UNC                ; |91| 
         0000005b 0004 
     334                      ; branch occurs ; |91| 
     335 0000005c       L3:    
     336 0000005c 7640!         LCR       #_TxRegtoSlave        ; |90| 
         0000005d 0000 
     337                      ; call occurs [#_TxRegtoSlave] ; |90| 
     338 0000005e       L4:    
     339 0000005e 761F!         MOVW      DP,#_settings+13
         0000005f 0000 
     340 00000060 920D!         MOV       AL,@_settings+13      ; |103| 
     341 00000061 5201          CMPB      AL,#1                 ; |103| 
     342 00000062 EC07          BF        L5,EQ                 ; |103| 
     343                      ; branchcc occurs ; |103| 
     344 00000063 761F!         MOVW      DP,#_timers+42
         00000064 0000 
     345 00000065 282A!         MOV       @_timers+42,#60       ; |106| 
         00000066 003C 
     346 00000067 56CF          BF        L6,UNC                ; |106| 
         00000068 0006 
     347                      ; branch occurs ; |106| 
     348 00000069       L5:    
     349 00000069 761F!         MOVW      DP,#_timers+42
         0000006a 0000 
     350 0000006b 282A!         MOV       @_timers+42,#20       ; |104| 
TMS320C2000 COFF Assembler PC v4.1.3 Thu Aug 18 12:16:31 2016

Tools Copyright (c) 1996-2006 Texas Instruments Incorporated
slave485.asm                                                         PAGE    8

         0000006c 0014 
     351 0000006d       L6:    
     352 0000006d 7640'         LCR       #_MasterModeReceive   ; |111| 
         0000006e 0277 
     353                      ; call occurs [#_MasterModeReceive] ; |111| 
     354 0000006f 56CF          BF        L11,UNC               ; |112| 
         00000070 0038 
     355                      ; branch occurs ; |112| 
     356 00000071       L7:    
     357 00000071 761F!         MOVW      DP,#_settings+17
         00000072 0000 
     358 00000073 9211!         MOV       AL,@_settings+17      ; |113| 
     359 00000074 ED33          BF        L11,NEQ               ; |113| 
     360                      ; branchcc occurs ; |113| 
     361 00000075 761F!         MOVW      DP,#_receiveA+7
         00000076 0000 
     362 00000077 9207!         MOV       AL,@_receiveA+7       ; |115| 
     363 00000078 EC05          BF        L8,EQ                 ; |115| 
     364                      ; branchcc occurs ; |115| 
     365 00000079 761F!         MOVW      DP,#_receiveA+8
         0000007a 0000 
     366 0000007b 5408!         CMP       AL,@_receiveA+8       ; |115| 
     367 0000007c ED22          BF        L10,NEQ               ; |115| 
     368                      ; branchcc occurs ; |115| 
     369 0000007d       L8:    
     370 0000007d 761F!         MOVW      DP,#_timers+6
         0000007e 0000 
     371 0000007f 9206!         MOV       AL,@_timers+6         ; |120| 
     372 00000080 ED27          BF        L11,NEQ               ; |120| 
     373                      ; branchcc occurs ; |120| 
     374 00000081 761F!         MOVW      DP,#_receiveA+7
         00000082 0000 
     375 00000083 9207!         MOV       AL,@_receiveA+7       ; |120| 
     376 00000084 EC23          BF        L11,EQ                ; |120| 
     377                      ; branchcc occurs ; |120| 
     378 00000085 7640'         LCR       #_ParseSlaveCmd       ; |122| 
         00000086 00A8 
     379                      ; call occurs [#_ParseSlaveCmd] ; |122| 
     380 00000087 5201          CMPB      AL,#1                 ; |122| 
     381 00000088 ED08          BF        L9,NEQ                ; |122| 
     382                      ; branchcc occurs ; |122| 
     383 00000089 0201          MOVB      ACC,#1
     384 0000008a 761F!         MOVW      DP,#_config+16
         0000008b 0000 
     385 0000008c 5601!         ADDL      @_config+16,ACC       ; |124| 
         0000008d 0010 
     386 0000008e 7640'         LCR       #_SendSlaveResponse   ; |125| 
         0000008f 012F 
     387                      ; call occurs [#_SendSlaveResponse] ; |125| 
     388 00000090       L9:    
     389 00000090 028C          MOVB      ACC,#140
     390 00000091 D500          MOVB      XAR5,#0
     391 00000092 8F00!         MOVL      XAR4,#_receiveA+9     ; |127| 
         00000093 0009 
     392 00000094 7640!         LCR       #_memset              ; |127| 
TMS320C2000 COFF Assembler PC v4.1.3 Thu Aug 18 12:16:31 2016

Tools Copyright (c) 1996-2006 Texas Instruments Incorporated
slave485.asm                                                         PAGE    9

         00000095 0000 
     393                      ; call occurs [#_memset] ; |127| 
     394 00000096 761F!         MOVW      DP,#_receiveA+8
         00000097 0000 
     395 00000098 2B08!         MOV       @_receiveA+8,#0       ; |128| 
     396 00000099 761F!         MOVW      DP,#_receiveA+7
         0000009a 0000 
     397 0000009b 2B07!         MOV       @_receiveA+7,#0       ; |129| 
     398 0000009c 56CF          BF        L11,UNC               ; |129| 
         0000009d 000B 
     399                      ; branch occurs ; |129| 
     400 0000009e       L10:    
     401 0000009e 761F!         MOVW      DP,#_receiveA+8
         0000009f 0000 
     402 000000a0 9608!         MOV       @_receiveA+8,AL       ; |117| 
     403 000000a1 761F!         MOVW      DP,#_timers+6
         000000a2 0000 
     404 000000a3 2806!         MOV       @_timers+6,#2         ; |118| 
         000000a4 0002 
     405 000000a5 7700          NOP
     406 000000a6 7700          NOP
     407              L11:    
     408                      .dwpsn  "slave485.c",132,1
     409 000000a7 0006          LRETR
     410                      ; return occurs
     411                      .dwattr DW$56, DW_AT_end_file("slave485.c")
     412                      .dwattr DW$56, DW_AT_end_line(0x84)
     413                      .dwattr DW$56, DW_AT_end_column(0x01)
     414                      .dwendtag DW$56
     415              
     416 000000a8               .sect   ".text"
     417                      .global _ParseSlaveCmd
     418              
     419              DW$57   .dwtag  DW_TAG_subprogram, DW_AT_name("ParseSlaveCmd"), DW_AT_symbol_name("_ParseSlaveCmd")
     420                      .dwattr DW$57, DW_AT_low_pc(_ParseSlaveCmd)
     421                      .dwattr DW$57, DW_AT_high_pc(0x00)
     422                      .dwattr DW$57, DW_AT_begin_file("slave485.c")
     423                      .dwattr DW$57, DW_AT_begin_line(0x89)
     424                      .dwattr DW$57, DW_AT_begin_column(0x05)
     425                      .dwattr DW$57, DW_AT_frame_base[DW_OP_breg20 -8]
     426                      .dwattr DW$57, DW_AT_skeletal(0x01)
     427                      .dwpsn  "slave485.c",138,1
     428              
     429              ;***************************************************************
     430              ;* FNAME: _ParseSlaveCmd                FR SIZE:   6           *
     431              ;*                                                             *
     432              ;* FUNCTION ENVIRONMENT                                        *
     433              ;*                                                             *
     434              ;* FUNCTION PROPERTIES                                         *
     435              ;*                            0 Parameter,  2 Auto,  4 SOE     *
     436              ;***************************************************************
     437              
     438 000000a8       _ParseSlaveCmd:
     439 000000a8 B2BD          MOVL      *SP++,XAR1
     440 000000a9 761F!         MOVW      DP,#_receiveA+7
TMS320C2000 COFF Assembler PC v4.1.3 Thu Aug 18 12:16:31 2016

Tools Copyright (c) 1996-2006 Texas Instruments Incorporated
slave485.asm                                                         PAGE   10

         000000aa 0000 
     441 000000ab A2BD          MOVL      *SP++,XAR3
     442 000000ac FE02          ADDB      SP,#2
     443 000000ad 5DAD          MOVZ      AR5,SP                ; |144| 
     444 000000ae 8DC0!         MOVL      XAR3,#_receiveA+9     ; |144| 
         000000af 0009 
     445 000000b0 9207!         MOV       AL,@_receiveA+7       ; |144| 
     446 000000b1 8AA3          MOVL      XAR4,XAR3             ; |144| 
     447 000000b2 DD82          SUBB      XAR5,#2               ; |144| 
     448 000000b3 9CFE          ADDB      AL,#-2
     449 000000b4 7640!         LCR       #_CalcCRC             ; |144| 
         000000b5 0000 
     450                      ; call occurs [#_CalcCRC] ; |144| 
     451 000000b6 761F!         MOVW      DP,#_receiveA+7
         000000b7 0000 
     452 000000b8 5807!         MOVZ      AR0,@_receiveA+7      ; |145| 
     453 000000b9 93A0          MOV       AH,AR0                ; |145| 
     454 000000ba 9DFE          ADDB      AH,#-2
     455 000000bb 59A8          MOVZ      AR1,AH                ; |145| 
     456 000000bc 9342          MOV       AH,*-SP[2]            ; |145| 
     457 000000bd 559B          CMP       AH,*+XAR3[AR1]        ; |145| 
     458 000000be ED07          BF        L12,NEQ               ; |145| 
     459                      ; branchcc occurs ; |145| 
     460 000000bf 92A0          MOV       AL,AR0                ; |145| 
     461 000000c0 9CFF          ADDB      AL,#-1
     462 000000c1 58A9          MOVZ      AR0,AL                ; |145| 
     463 000000c2 9241          MOV       AL,*-SP[1]            ; |145| 
     464 000000c3 5493          CMP       AL,*+XAR3[AR0]        ; |145| 
     465 000000c4 EC05          BF        L13,EQ                ; |145| 
     466                      ; branchcc occurs ; |145| 
     467 000000c5       L12:    
     468 000000c5 28A9          MOV       AL,#-3                ; |148| 
         000000c6 FFFD 
     469 000000c7 56CF          BF        L19,UNC               ; |148| 
         000000c8 0064 
     470                      ; branch occurs ; |148| 
     471 000000c9       L13:    
     472 000000c9 92C3          MOV       AL,*+XAR3[0]          ; |150| 
     473 000000ca 5201          CMPB      AL,#1                 ; |150| 
     474 000000cb EC05          BF        L14,EQ                ; |150| 
     475                      ; branchcc occurs ; |150| 
     476 000000cc 28A9          MOV       AL,#-1                ; |203| 
         000000cd FFFF 
     477 000000ce 56CF          BF        L19,UNC               ; |203| 
         000000cf 005D 
     478                      ; branch occurs ; |203| 
     479 000000d0       L14:    
     480 000000d0 761F-         MOVW      DP,#_slave485mb
         000000d1 0002 
     481 000000d2 9600-         MOV       @_slave485mb,AL       ; |153| 
     482 000000d3 92CB          MOV       AL,*+XAR3[1]          ; |154| 
     483 000000d4 761F-         MOVW      DP,#_slave485mb+1
         000000d5 0002 
     484 000000d6 9601-         MOV       @_slave485mb+1,AL     ; |154| 
     485 000000d7 93DB          MOV       AH,*+XAR3[3]          ; |157| 
TMS320C2000 COFF Assembler PC v4.1.3 Thu Aug 18 12:16:31 2016

Tools Copyright (c) 1996-2006 Texas Instruments Incorporated
slave485.asm                                                         PAGE   11

     486 000000d8 92D3          MOV       AL,*+XAR3[2]          ; |155| 
     487 000000d9 91FF          ANDB      AH,#0xff              ; |157| 
     488 000000da FF87          LSL       AL,8                  ; |156| 
     489 000000db 761F-         MOVW      DP,#_slave485mb+2
         000000dc 0002 
     490 000000dd 94A8          ADD       AL,AH                 ; |157| 
     491 000000de 9602-         MOV       @_slave485mb+2,AL     ; |158| 
     492 000000df 93EB          MOV       AH,*+XAR3[5]          ; |161| 
     493 000000e0 92E3          MOV       AL,*+XAR3[4]          ; |159| 
     494 000000e1 91FF          ANDB      AH,#0xff              ; |161| 
     495 000000e2 FF87          LSL       AL,8                  ; |160| 
     496 000000e3 761F-         MOVW      DP,#_slave485mb+3
         000000e4 0002 
     497 000000e5 94A8          ADD       AL,AH                 ; |161| 
     498 000000e6 9603-         MOV       @_slave485mb+3,AL     ; |162| 
     499 000000e7 761F-         MOVW      DP,#_slave485mb+1
         000000e8 0002 
     500 000000e9 9201-         MOV       AL,@_slave485mb+1     ; |163| 
     501 000000ea 52F3          CMPB      AL,#243               ; |163| 
     502 000000eb EC0A          BF        L15,EQ                ; |163| 
     503                      ; branchcc occurs ; |163| 
     504 000000ec 761F!         MOVW      DP,#_settings+13
         000000ed 0000 
     505 000000ee 920D!         MOV       AL,@_settings+13      ; |176| 
     506 000000ef 5201          CMPB      AL,#1                 ; |176| 
     507 000000f0 ED0B          BF        L16,NEQ               ; |176| 
     508                      ; branchcc occurs ; |176| 
     509 000000f1 7640!         LCR       #_DCModeClear         ; |179| 
         000000f2 0000 
     510                      ; call occurs [#_DCModeClear] ; |179| 
     511 000000f3 56CF          BF        L16,UNC               ; |179| 
         000000f4 0008 
     512                      ; branch occurs ; |179| 
     513 000000f5       L15:    
     514 000000f5 761F!         MOVW      DP,#_settings+13
         000000f6 0000 
     515 000000f7 920D!         MOV       AL,@_settings+13      ; |165| 
     516 000000f8 ED03          BF        L16,NEQ               ; |165| 
     517                      ; branchcc occurs ; |165| 
     518 000000f9 7640!         LCR       #_DCModeInit          ; |167| 
         000000fa 0000 
     519                      ; call occurs [#_DCModeInit] ; |167| 
     520 000000fb       L16:    
     521 000000fb 761F-         MOVW      DP,#_slave485mb+1
         000000fc 0002 
     522 000000fd 9201-         MOV       AL,@_slave485mb+1     ; |185| 
     523 000000fe 5210          CMPB      AL,#16                ; |185| 
     524 000000ff ED2B          BF        L18,NEQ               ; |185| 
     525                      ; branchcc occurs ; |185| 
     526 00000100 8F00!         MOVL      XAR4,#_receiveA+9     ; |187| 
         00000101 0009 
     527 00000102 761F-         MOVW      DP,#_slave485mb+3
         00000103 0002 
     528 00000104 93EC          MOV       AH,*+XAR4[5]          ; |189| 
     529 00000105 92E4          MOV       AL,*+XAR4[4]          ; |187| 
TMS320C2000 COFF Assembler PC v4.1.3 Thu Aug 18 12:16:31 2016

Tools Copyright (c) 1996-2006 Texas Instruments Incorporated
slave485.asm                                                         PAGE   12

     530 00000106 91FF          ANDB      AH,#0xff              ; |189| 
     531 00000107 FF87          LSL       AL,8                  ; |188| 
     532 00000108 94A8          ADD       AL,AH                 ; |189| 
     533 00000109 9603-         MOV       @_slave485mb+3,AL     ; |190| 
     534 0000010a 761F-         MOVW      DP,#_slave485mb+4
         0000010b 0002 
     535 0000010c 92F4          MOV       AL,*+XAR4[6]          ; |191| 
     536 0000010d 9604-         MOV       @_slave485mb+4,AL     ; |191| 
     537 0000010e 761F-         MOVW      DP,#_slave485mb+3
         0000010f 0002 
     538 00000110 9203-         MOV       AL,@_slave485mb+3     ; |193| 
     539 00000111 D107          MOVB      XAR1,#7               ; |192| 
     540 00000112 D400          MOVB      XAR4,#0
     541 00000113 EC17          BF        L18,EQ                ; |193| 
     542                      ; branchcc occurs ; |193| 
     543              L17:    
     544              DW$L$_ParseSlaveCmd$13$B:
     545                      .dwpsn  "slave485.c",194,0
     546 00000114 93A1          MOV       AH,AR1
     547 00000115 D001          MOVB      XAR0,#1               ; |197| 
     548 00000116 73A0          ADD       AR0,AH
     549 00000117 8F40!         MOVL      XAR5,#_receiveA+9     ; |195| 
         00000118 0009 
     550 00000119 929D          MOV       AL,*+XAR5[AR1]        ; |195| 
     551 0000011a 761F-         MOVW      DP,#_slave485mb+3
         0000011b 0002 
     552 0000011c 9395          MOV       AH,*+XAR5[AR0]        ; |197| 
     553 0000011d FF87          LSL       AL,8                  ; |196| 
     554 0000011e 91FF          ANDB      AH,#0xff              ; |197| 
     555 0000011f D902          ADDB      XAR1,#2               ; |199| 
     556 00000120 58A4          MOVZ      AR0,AR4               ; |198| 
     557 00000121 94A8          ADD       AL,AH                 ; |197| 
     558 00000122 8F40-         MOVL      XAR5,#_slave485mb+5   ; |198| 
         00000123 0085 
     559 00000124 DC01          ADDB      XAR4,#1               ; |193| 
     560 00000125 9695          MOV       *+XAR5[AR0],AL        ; |198| 
     561 00000126 92A4          MOV       AL,AR4                ; |193| 
     562 00000127 5403-         CMP       AL,@_slave485mb+3     ; |193| 
     563                      .dwpsn  "slave485.c",200,0
     564 00000128 56C8          BF        L17,LO                ; |193| 
         00000129 FFEC 
     565                      ; branchcc occurs ; |193| 
     566 0000012a       DW$L$_ParseSlaveCmd$13$E:
     567 0000012a       L18:    
     568 0000012a 9A01          MOVB      AL,#1                 ; |205| 
     569 0000012b       L19:    
     570 0000012b FE82          SUBB      SP,#2                 ; |205| 
     571 0000012c 82BE          MOVL      XAR3,*--SP            ; |205| 
     572 0000012d 8BBE          MOVL      XAR1,*--SP            ; |205| 
     573                      .dwpsn  "slave485.c",206,1
     574 0000012e 0006          LRETR
     575                      ; return occurs
     576              
     577              DW$58   .dwtag  DW_TAG_loop
     578                      .dwattr DW$58, DW_AT_name("D:\DEV\Amot\BearingWear\XTSW_V6_20\slave485.asm:L17:1:1471518991")
TMS320C2000 COFF Assembler PC v4.1.3 Thu Aug 18 12:16:31 2016

Tools Copyright (c) 1996-2006 Texas Instruments Incorporated
slave485.asm                                                         PAGE   13

     579                      .dwattr DW$58, DW_AT_begin_file("slave485.c")
     580                      .dwattr DW$58, DW_AT_begin_line(0xc1)
     581                      .dwattr DW$58, DW_AT_end_line(0xc8)
     582              DW$59   .dwtag  DW_TAG_loop_range
     583                      .dwattr DW$59, DW_AT_low_pc(DW$L$_ParseSlaveCmd$13$B)
     584                      .dwattr DW$59, DW_AT_high_pc(DW$L$_ParseSlaveCmd$13$E)
     585                      .dwendtag DW$58
     586              
     587                      .dwattr DW$57, DW_AT_end_file("slave485.c")
     588                      .dwattr DW$57, DW_AT_end_line(0xce)
     589                      .dwattr DW$57, DW_AT_end_column(0x01)
     590                      .dwendtag DW$57
     591              
     592 0000012f               .sect   ".text"
     593                      .global _SendSlaveResponse
     594              
     595              DW$60   .dwtag  DW_TAG_subprogram, DW_AT_name("SendSlaveResponse"), DW_AT_symbol_name("_SendSlaveResponse")
     596                      .dwattr DW$60, DW_AT_low_pc(_SendSlaveResponse)
     597                      .dwattr DW$60, DW_AT_high_pc(0x00)
     598                      .dwattr DW$60, DW_AT_begin_file("slave485.c")
     599                      .dwattr DW$60, DW_AT_begin_line(0xd4)
     600                      .dwattr DW$60, DW_AT_begin_column(0x06)
     601                      .dwattr DW$60, DW_AT_frame_base[DW_OP_breg20 -8]
     602                      .dwattr DW$60, DW_AT_skeletal(0x01)
     603                      .dwpsn  "slave485.c",213,1
     604              
     605              ;***************************************************************
     606              ;* FNAME: _SendSlaveResponse            FR SIZE:   6           *
     607              ;*                                                             *
     608              ;* FUNCTION ENVIRONMENT                                        *
     609              ;*                                                             *
     610              ;* FUNCTION PROPERTIES                                         *
     611              ;*                            0 Parameter,  2 Auto,  4 SOE     *
     612              ;***************************************************************
     613              
     614 0000012f       _SendSlaveResponse:
     615 0000012f B2BD          MOVL      *SP++,XAR1
     616 00000130 A2BD          MOVL      *SP++,XAR3
     617 00000131 FE02          ADDB      SP,#2
     618 00000132 7640'         LCR       #_SlaveRegisters      ; |219| 
         00000133 01A3 
     619                      ; call occurs [#_SlaveRegisters] ; |219| 
     620 00000134 D100          MOVB      XAR1,#0
     621 00000135 761F-         MOVW      DP,#_slave485mb+1
         00000136 0002 
     622 00000137 9201-         MOV       AL,@_slave485mb+1     ; |220| 
     623 00000138 5203          CMPB      AL,#3                 ; |220| 
     624 00000139 EC1F          BF        L20,EQ                ; |220| 
     625                      ; branchcc occurs ; |220| 
     626 0000013a 52F3          CMPB      AL,#243               ; |220| 
     627 0000013b EC1D          BF        L20,EQ                ; |220| 
     628                      ; branchcc occurs ; |220| 
     629 0000013c 5210          CMPB      AL,#16                ; |246| 
     630 0000013d ED4E          BF        L24,NEQ               ; |246| 
     631                      ; branchcc occurs ; |246| 
TMS320C2000 COFF Assembler PC v4.1.3 Thu Aug 18 12:16:31 2016

Tools Copyright (c) 1996-2006 Texas Instruments Incorporated
slave485.asm                                                         PAGE   14

     632 0000013e 761F-         MOVW      DP,#_slave485mb
         0000013f 0002 
     633 00000140 8F00-         MOVL      XAR4,#_slaveresponsemsg ; |248| 
         00000141 0000 
     634 00000142 9300-         MOV       AH,@_slave485mb       ; |248| 
     635 00000143 761F-         MOVW      DP,#_slave485mb+2
         00000144 0002 
     636 00000145 97C4          MOV       *+XAR4[0],AH          ; |248| 
     637 00000146 D106          MOVB      XAR1,#6               ; |254| 
     638 00000147 96CC          MOV       *+XAR4[1],AL          ; |249| 
     639 00000148 9202-         MOV       AL,@_slave485mb+2     ; |250| 
     640 00000149 93A9          MOV       AH,AL                 ; |250| 
     641 0000014a FFD7          LSR       AH,8                  ; |250| 
     642 0000014b 90FF          ANDB      AL,#255               ; |251| 
     643 0000014c 97D4          MOV       *+XAR4[2],AH          ; |250| 
     644 0000014d 761F-         MOVW      DP,#_slave485mb+3
         0000014e 0002 
     645 0000014f 96DC          MOV       *+XAR4[3],AL          ; |251| 
     646 00000150 9203-         MOV       AL,@_slave485mb+3     ; |252| 
     647 00000151 93A9          MOV       AH,AL                 ; |252| 
     648 00000152 FFD7          LSR       AH,8                  ; |252| 
     649 00000153 90FF          ANDB      AL,#255               ; |253| 
     650 00000154 97E4          MOV       *+XAR4[4],AH          ; |252| 
     651 00000155 96EC          MOV       *+XAR4[5],AL          ; |253| 
     652 00000156 56CF          BF        L24,UNC               ; |254| 
         00000157 0035 
     653                      ; branch occurs ; |254| 
     654 00000158       L20:    
     655 00000158 8F00-         MOVL      XAR4,#_slaveresponsemsg ; |222| 
         00000159 0000 
     656 0000015a 761F-         MOVW      DP,#_slave485mb+2
         0000015b 0002 
     657 0000015c 28C4          MOV       *+XAR4[0],#1          ; |222| 
         0000015d 0001 
     658 0000015e 28CC          MOV       *+XAR4[1],#3          ; |223| 
         0000015f 0003 
     659 00000160 9202-         MOV       AL,@_slave485mb+2     ; |226| 
     660 00000161 1BA9          CMP       AL,#8400              ; |226| 
         00000162 20D0 
     661 00000163 56C8          BF        L21,LO                ; |226| 
         00000164 000E 
     662                      ; branchcc occurs ; |226| 
     663 00000165 1BA9          CMP       AL,#8535              ; |226| 
         00000166 2157 
     664 00000167 56C6          BF        L21,HI                ; |226| 
         00000168 000A 
     665                      ; branchcc occurs ; |226| 
     666 00000169 761F-         MOVW      DP,#_slave485mb+3
         0000016a 0002 
     667 0000016b 8803-         MOVZ      AR6,@_slave485mb+3    ; |228| 
     668 0000016c 5603          MOV       ACC,AR6 << #1         ; |229| 
         0000016d 01A6 
     669 0000016e 96D4          MOV       *+XAR4[2],AL          ; |229| 
     670 0000016f 56CF          BF        L22,UNC               ; |230| 
         00000170 0007 
TMS320C2000 COFF Assembler PC v4.1.3 Thu Aug 18 12:16:31 2016

Tools Copyright (c) 1996-2006 Texas Instruments Incorporated
slave485.asm                                                         PAGE   15

     671                      ; branch occurs ; |230| 
     672 00000171       L21:    
     673 00000171 761F-         MOVW      DP,#_slaveresponsemsg+2
         00000172 0000 
     674 00000173 BE3D          MOVB      XAR6,#61              ; |233| 
     675 00000174 2802-         MOV       @_slaveresponsemsg+2,#122 ; |234| 
         00000175 007A 
     676 00000176       L22:    
     677 00000176 92A6          MOV       AL,AR6                ; |238| 
     678 00000177 D000          MOVB      XAR0,#0
     679 00000178 D103          MOVB      XAR1,#3               ; |237| 
     680 00000179 EC12          BF        L24,EQ                ; |238| 
     681                      ; branchcc occurs ; |238| 
     682              L23:    
     683              DW$L$_SendSlaveResponse$10$B:
     684                      .dwpsn  "slave485.c",239,0
     685 0000017a 8F00-         MOVL      XAR4,#_slave485mb+5   ; |240| 
         0000017b 0085 
     686 0000017c 9394          MOV       AH,*+XAR4[AR0]        ; |240| 
     687 0000017d 92A8          MOV       AL,AH                 ; |240| 
     688 0000017e FFC7          LSR       AL,8                  ; |240| 
     689 0000017f 8F00-         MOVL      XAR4,#_slaveresponsemsg ; |240| 
         00000180 0000 
     690 00000181 91FF          ANDB      AH,#255               ; |242| 
     691 00000182 969C          MOV       *+XAR4[AR1],AL        ; |240| 
     692 00000183 D801          ADDB      XAR0,#1               ; |238| 
     693 00000184 D901          ADDB      XAR1,#1               ; |242| 
     694 00000185 92A6          MOV       AL,AR6                ; |238| 
     695 00000186 979C          MOV       *+XAR4[AR1],AH        ; |242| 
     696 00000187 54A0          CMP       AL,AR0                ; |238| 
     697 00000188 D901          ADDB      XAR1,#1               ; |243| 
     698                      .dwpsn  "slave485.c",244,0
     699 00000189 56C6          BF        L23,HI                ; |238| 
         0000018a FFF1 
     700                      ; branchcc occurs ; |238| 
     701 0000018b       DW$L$_SendSlaveResponse$10$E:
     702 0000018b       L24:    
     703 0000018b 5DAD          MOVZ      AR5,SP                ; |256| 
     704 0000018c 8DC0-         MOVL      XAR3,#_slaveresponsemsg ; |256| 
         0000018d 0000 
     705 0000018e 8AA3          MOVL      XAR4,XAR3             ; |256| 
     706 0000018f 92A1          MOV       AL,AR1                ; |256| 
     707 00000190 DD82          SUBB      XAR5,#2               ; |256| 
     708 00000191 7640!         LCR       #_CalcCRC             ; |256| 
         00000192 0000 
     709                      ; call occurs [#_CalcCRC] ; |256| 
     710 00000193 9242          MOV       AL,*-SP[2]            ; |257| 
     711 00000194 969B          MOV       *+XAR3[AR1],AL        ; |257| 
     712 00000195 D001          MOVB      XAR0,#1               ; |258| 
     713 00000196 92A1          MOV       AL,AR1
     714 00000197 72A0          ADD       AR0,AL
     715 00000198 9241          MOV       AL,*-SP[1]            ; |258| 
     716 00000199 D902          ADDB      XAR1,#2               ; |260| 
     717 0000019a 8AA3          MOVL      XAR4,XAR3             ; |260| 
     718 0000019b 9693          MOV       *+XAR3[AR0],AL        ; |258| 
TMS320C2000 COFF Assembler PC v4.1.3 Thu Aug 18 12:16:31 2016

Tools Copyright (c) 1996-2006 Texas Instruments Incorporated
slave485.asm                                                         PAGE   16

     719 0000019c 92A1          MOV       AL,AR1                ; |260| 
     720 0000019d 7640!         LCR       #_MastertoSlaveSendBuffer ; |260| 
         0000019e 0000 
     721                      ; call occurs [#_MastertoSlaveSendBuffer] ; |260| 
     722 0000019f FE82          SUBB      SP,#2
     723 000001a0 82BE          MOVL      XAR3,*--SP
     724 000001a1 8BBE          MOVL      XAR1,*--SP
     725                      .dwpsn  "slave485.c",261,1
     726 000001a2 0006          LRETR
     727                      ; return occurs
     728              
     729              DW$61   .dwtag  DW_TAG_loop
     730                      .dwattr DW$61, DW_AT_name("D:\DEV\Amot\BearingWear\XTSW_V6_20\slave485.asm:L23:1:1471518991")
     731                      .dwattr DW$61, DW_AT_begin_file("slave485.c")
     732                      .dwattr DW$61, DW_AT_begin_line(0xee)
     733                      .dwattr DW$61, DW_AT_end_line(0xf4)
     734              DW$62   .dwtag  DW_TAG_loop_range
     735                      .dwattr DW$62, DW_AT_low_pc(DW$L$_SendSlaveResponse$10$B)
     736                      .dwattr DW$62, DW_AT_high_pc(DW$L$_SendSlaveResponse$10$E)
     737                      .dwendtag DW$61
     738              
     739                      .dwattr DW$60, DW_AT_end_file("slave485.c")
     740                      .dwattr DW$60, DW_AT_end_line(0x105)
     741                      .dwattr DW$60, DW_AT_end_column(0x01)
     742                      .dwendtag DW$60
     743              
     744 000001a3               .sect   ".text"
     745                      .global _SlaveRegisters
     746              
     747              DW$63   .dwtag  DW_TAG_subprogram, DW_AT_name("SlaveRegisters"), DW_AT_symbol_name("_SlaveRegisters")
     748                      .dwattr DW$63, DW_AT_low_pc(_SlaveRegisters)
     749                      .dwattr DW$63, DW_AT_high_pc(0x00)
     750                      .dwattr DW$63, DW_AT_begin_file("slave485.c")
     751                      .dwattr DW$63, DW_AT_begin_line(0x109)
     752                      .dwattr DW$63, DW_AT_begin_column(0x06)
     753                      .dwattr DW$63, DW_AT_frame_base[DW_OP_breg20 -6]
     754                      .dwattr DW$63, DW_AT_skeletal(0x01)
     755                      .dwpsn  "slave485.c",266,1
     756              
     757              ;***************************************************************
     758              ;* FNAME: _SlaveRegisters               FR SIZE:   4           *
     759              ;*                                                             *
     760              ;* FUNCTION ENVIRONMENT                                        *
     761              ;*                                                             *
     762              ;* FUNCTION PROPERTIES                                         *
     763              ;*                            0 Parameter,  0 Auto,  4 SOE     *
     764              ;***************************************************************
     765              
     766 000001a3       _SlaveRegisters:
     767 000001a3 B2BD          MOVL      *SP++,XAR1
     768 000001a4 761F-         MOVW      DP,#_slave485mb+2
         000001a5 0002 
     769 000001a6 AABD          MOVL      *SP++,XAR2
     770 000001a7 5A02-         MOVZ      AR2,@_slave485mb+2    ; |271| 
     771 000001a8 761F-         MOVW      DP,#_slave485mb+3
TMS320C2000 COFF Assembler PC v4.1.3 Thu Aug 18 12:16:31 2016

Tools Copyright (c) 1996-2006 Texas Instruments Incorporated
slave485.asm                                                         PAGE   17

         000001a9 0002 
     772 000001aa 9203-         MOV       AL,@_slave485mb+3     ; |273| 
     773 000001ab D100          MOVB      XAR1,#0
     774 000001ac 56C1          BF        L44,EQ                ; |273| 
         000001ad 00C8 
     775                      ; branchcc occurs ; |273| 
     776              L25:    
     777              DW$L$_SlaveRegisters$2$B:
     778                      .dwpsn  "slave485.c",274,0
     779 000001ae 92A2          MOV       AL,AR2
     780 000001af 520E          CMPB      AL,#14                ; |275| 
     781 000001b0 56C8          BF        L41,LO                ; |275| 
         000001b1 00B7 
     782                      ; branchcc occurs ; |275| 
     783 000001b2       DW$L$_SlaveRegisters$2$E:
     784 000001b2       DW$L$_SlaveRegisters$3$B:
     785 000001b2 520E          CMPB      AL,#14                ; |280| 
     786 000001b3 56C8          BF        L43,LO                ; |280| 
         000001b4 00B9 
     787                      ; branchcc occurs ; |280| 
     788 000001b5       DW$L$_SlaveRegisters$3$E:
     789 000001b5       DW$L$_SlaveRegisters$4$B:
     790 000001b5 521C          CMPB      AL,#28                ; |280| 
     791 000001b6 56C8          BF        L40,LO                ; |280| 
         000001b7 00AC 
     792                      ; branchcc occurs ; |280| 
     793 000001b8       DW$L$_SlaveRegisters$4$E:
     794 000001b8       DW$L$_SlaveRegisters$5$B:
     795 000001b8 521C          CMPB      AL,#28                ; |284| 
     796 000001b9 56C8          BF        L43,LO                ; |284| 
         000001ba 00B3 
     797                      ; branchcc occurs ; |284| 
     798 000001bb       DW$L$_SlaveRegisters$5$E:
     799 000001bb       DW$L$_SlaveRegisters$6$B:
     800 000001bb 5220          CMPB      AL,#32                ; |284| 
     801 000001bc 56C8          BF        L37,LO                ; |284| 
         000001bd 009B 
     802                      ; branchcc occurs ; |284| 
     803 000001be       DW$L$_SlaveRegisters$6$E:
     804 000001be       DW$L$_SlaveRegisters$7$B:
     805 000001be 5220          CMPB      AL,#32                ; |288| 
     806 000001bf 56C8          BF        L43,LO                ; |288| 
         000001c0 00AD 
     807                      ; branchcc occurs ; |288| 
     808 000001c1       DW$L$_SlaveRegisters$7$E:
     809 000001c1       DW$L$_SlaveRegisters$8$B:
     810 000001c1 522E          CMPB      AL,#46                ; |288| 
     811 000001c2 56C8          BF        L35,LO                ; |288| 
         000001c3 007F 
     812                      ; branchcc occurs ; |288| 
     813 000001c4       DW$L$_SlaveRegisters$8$E:
     814 000001c4       DW$L$_SlaveRegisters$9$B:
     815 000001c4 522E          CMPB      AL,#46                ; |304| 
     816 000001c5 EC77          BF        L34,EQ                ; |304| 
     817                      ; branchcc occurs ; |304| 
TMS320C2000 COFF Assembler PC v4.1.3 Thu Aug 18 12:16:31 2016

Tools Copyright (c) 1996-2006 Texas Instruments Incorporated
slave485.asm                                                         PAGE   18

     818 000001c6       DW$L$_SlaveRegisters$9$E:
     819 000001c6       DW$L$_SlaveRegisters$10$B:
     820 000001c6 522F          CMPB      AL,#47                ; |309| 
     821 000001c7 56C8          BF        L43,LO                ; |309| 
         000001c8 00A5 
     822                      ; branchcc occurs ; |309| 
     823 000001c9       DW$L$_SlaveRegisters$10$E:
     824 000001c9       DW$L$_SlaveRegisters$11$B:
     825 000001c9 523D          CMPB      AL,#61                ; |309| 
     826 000001ca 56C8          BF        L33,LO                ; |309| 
         000001cb 006D 
     827                      ; branchcc occurs ; |309| 
     828 000001cc       DW$L$_SlaveRegisters$11$E:
     829 000001cc       DW$L$_SlaveRegisters$12$B:
     830 000001cc 1BA2          CMP       AR2,#1028             ; |314| 
         000001cd 0404 
     831 000001ce EC50          BF        L30,EQ                ; |314| 
     832                      ; branchcc occurs ; |314| 
     833 000001cf       DW$L$_SlaveRegisters$12$E:
     834 000001cf       DW$L$_SlaveRegisters$13$B:
     835 000001cf 1BA2          CMP       AR2,#1029             ; |323| 
         000001d0 0405 
     836 000001d1 EC36          BF        L28,EQ                ; |323| 
     837                      ; branchcc occurs ; |323| 
     838 000001d2       DW$L$_SlaveRegisters$13$E:
     839 000001d2       DW$L$_SlaveRegisters$14$B:
     840 000001d2 1BA2          CMP       AR2,#1030             ; |332| 
         000001d3 0406 
     841 000001d4 EC1A          BF        L26,EQ                ; |332| 
     842                      ; branchcc occurs ; |332| 
     843 000001d5       DW$L$_SlaveRegisters$14$E:
     844 000001d5       DW$L$_SlaveRegisters$15$B:
     845 000001d5 1BA2          CMP       AR2,#8400             ; |343| 
         000001d6 20D0 
     846 000001d7 56C8          BF        L43,LO                ; |343| 
         000001d8 0095 
     847                      ; branchcc occurs ; |343| 
     848 000001d9       DW$L$_SlaveRegisters$15$E:
     849 000001d9       DW$L$_SlaveRegisters$16$B:
     850 000001d9 1BA2          CMP       AR2,#8535             ; |343| 
         000001da 2157 
     851 000001db 56C6          BF        L43,HI                ; |343| 
         000001dc 0091 
     852                      ; branchcc occurs ; |343| 
     853 000001dd       DW$L$_SlaveRegisters$16$E:
     854 000001dd       DW$L$_SlaveRegisters$17$B:
     855 000001dd 8F00-         MOVL      XAR4,#_slave485mb+5   ; |345| 
         000001de 0085 
     856 000001df 761F-         MOVW      DP,#_slave485mb+1
         000001e0 0002 
     857 000001e1 A8A9          MOVL      ACC,XAR4              ; |345| 
     858 000001e2 0DA1          ADDU      ACC,AR1               ; |345| 
     859 000001e3 5D01-         MOVZ      AR5,@_slave485mb+1    ; |345| 
     860 000001e4 8AA9          MOVL      XAR4,ACC              ; |345| 
     861 000001e5 92A2          MOV       AL,AR2                ; |345| 
TMS320C2000 COFF Assembler PC v4.1.3 Thu Aug 18 12:16:31 2016

Tools Copyright (c) 1996-2006 Texas Instruments Incorporated
slave485.asm                                                         PAGE   19

     862 000001e6 93A1          MOV       AH,AR1                ; |345| 
     863 000001e7 7640!         LCR       #_ProcessReprogrammingTransferral ; |345| 
         000001e8 0000 
     864                      ; call occurs [#_ProcessReprogrammingTransferral] ; |345| 
     865 000001e9 9A14          MOVB      AL,#20                ; |346| 
     866 000001ea 7640!         LCR       #_NOPDelay            ; |346| 
         000001eb 0000 
     867                      ; call occurs [#_NOPDelay] ; |346| 
     868 000001ec 56CF          BF        L43,UNC               ; |346| 
         000001ed 0080 
     869                      ; branch occurs ; |346| 
     870 000001ee       DW$L$_SlaveRegisters$17$E:
     871 000001ee       L26:    
     872 000001ee       DW$L$_SlaveRegisters$18$B:
     873 000001ee 761F-         MOVW      DP,#_slave485mb+1
         000001ef 0002 
     874 000001f0 9201-         MOV       AL,@_slave485mb+1     ; |334| 
     875 000001f1 5210          CMPB      AL,#16                ; |334| 
     876 000001f2 EC08          BF        L27,EQ                ; |334| 
     877                      ; branchcc occurs ; |334| 
     878 000001f3       DW$L$_SlaveRegisters$18$E:
     879 000001f3       DW$L$_SlaveRegisters$19$B:
     880 000001f3 5206          CMPB      AL,#6                 ; |334| 
     881 000001f4 EC06          BF        L27,EQ                ; |334| 
     882                      ; branchcc occurs ; |334| 
     883 000001f5       DW$L$_SlaveRegisters$19$E:
     884 000001f5       DW$L$_SlaveRegisters$20$B:
     885 000001f5 761F!         MOVW      DP,#_safe2+8
         000001f6 0000 
     886 000001f7 9208!         MOV       AL,@_safe2+8          ; |340| 
     887 000001f8 56CF          BF        L42,UNC               ; |340| 
         000001f9 0071 
     888                      ; branch occurs ; |340| 
     889 000001fa       DW$L$_SlaveRegisters$20$E:
     890 000001fa       L27:    
     891 000001fa       DW$L$_SlaveRegisters$21$B:
     892 000001fa 8F00-         MOVL      XAR4,#_slave485mb+5   ; |337| 
         000001fb 0085 
     893 000001fc 761F!         MOVW      DP,#_safe2+8
         000001fd 0000 
     894 000001fe 929C          MOV       AL,*+XAR4[AR1]        ; |337| 
     895 000001ff 9608!         MOV       @_safe2+8,AL          ; |337| 
     896 00000200 761F!         MOVW      DP,#_config+5
         00000201 0000 
     897 00000202 9605!         MOV       @_config+5,AL         ; |337| 
     898 00000203 7640!         LCR       #_SaveSafeStruct2     ; |338| 
         00000204 0000 
     899                      ; call occurs [#_SaveSafeStruct2] ; |338| 
     900 00000205 56CF          BF        L43,UNC               ; |339| 
         00000206 0067 
     901                      ; branch occurs ; |339| 
     902 00000207       DW$L$_SlaveRegisters$21$E:
     903 00000207       L28:    
     904 00000207       DW$L$_SlaveRegisters$22$B:
     905 00000207 761F-         MOVW      DP,#_slave485mb+1
TMS320C2000 COFF Assembler PC v4.1.3 Thu Aug 18 12:16:31 2016

Tools Copyright (c) 1996-2006 Texas Instruments Incorporated
slave485.asm                                                         PAGE   20

         00000208 0002 
     906 00000209 9201-         MOV       AL,@_slave485mb+1     ; |325| 
     907 0000020a 5210          CMPB      AL,#16                ; |325| 
     908 0000020b EC08          BF        L29,EQ                ; |325| 
     909                      ; branchcc occurs ; |325| 
     910 0000020c       DW$L$_SlaveRegisters$22$E:
     911 0000020c       DW$L$_SlaveRegisters$23$B:
     912 0000020c 5206          CMPB      AL,#6                 ; |325| 
     913 0000020d EC06          BF        L29,EQ                ; |325| 
     914                      ; branchcc occurs ; |325| 
     915 0000020e       DW$L$_SlaveRegisters$23$E:
     916 0000020e       DW$L$_SlaveRegisters$24$B:
     917 0000020e 761F!         MOVW      DP,#_safe1+1
         0000020f 0000 
     918 00000210 9201!         MOV       AL,@_safe1+1          ; |330| 
     919 00000211 56CF          BF        L42,UNC               ; |330| 
         00000212 0058 
     920                      ; branch occurs ; |330| 
     921 00000213       DW$L$_SlaveRegisters$24$E:
     922 00000213       L29:    
     923 00000213       DW$L$_SlaveRegisters$25$B:
     924 00000213 8F00-         MOVL      XAR4,#_slave485mb+5   ; |327| 
         00000214 0085 
     925 00000215 761F!         MOVW      DP,#_safe1+1
         00000216 0000 
     926 00000217 929C          MOV       AL,*+XAR4[AR1]        ; |327| 
     927 00000218 9601!         MOV       @_safe1+1,AL          ; |327| 
     928 00000219 761F!         MOVW      DP,#_config+4
         0000021a 0000 
     929 0000021b 9604!         MOV       @_config+4,AL         ; |327| 
     930 0000021c 56CF          BF        L32,UNC               ; |329| 
         0000021d 0017 
     931                      ; branch occurs ; |329| 
     932 0000021e       DW$L$_SlaveRegisters$25$E:
     933 0000021e       L30:    
     934 0000021e       DW$L$_SlaveRegisters$26$B:
     935 0000021e 761F-         MOVW      DP,#_slave485mb+1
         0000021f 0002 
     936 00000220 9201-         MOV       AL,@_slave485mb+1     ; |316| 
     937 00000221 5210          CMPB      AL,#16                ; |316| 
     938 00000222 EC08          BF        L31,EQ                ; |316| 
     939                      ; branchcc occurs ; |316| 
     940 00000223       DW$L$_SlaveRegisters$26$E:
     941 00000223       DW$L$_SlaveRegisters$27$B:
     942 00000223 5206          CMPB      AL,#6                 ; |316| 
     943 00000224 EC06          BF        L31,EQ                ; |316| 
     944                      ; branchcc occurs ; |316| 
     945 00000225       DW$L$_SlaveRegisters$27$E:
     946 00000225       DW$L$_SlaveRegisters$28$B:
     947 00000225 761F!         MOVW      DP,#_safe1
         00000226 0000 
     948 00000227 9200!         MOV       AL,@_safe1            ; |321| 
     949 00000228 56CF          BF        L42,UNC               ; |321| 
         00000229 0041 
     950                      ; branch occurs ; |321| 
TMS320C2000 COFF Assembler PC v4.1.3 Thu Aug 18 12:16:31 2016

Tools Copyright (c) 1996-2006 Texas Instruments Incorporated
slave485.asm                                                         PAGE   21

     951 0000022a       DW$L$_SlaveRegisters$28$E:
     952 0000022a       L31:    
     953 0000022a       DW$L$_SlaveRegisters$29$B:
     954 0000022a 8F00-         MOVL      XAR4,#_slave485mb+5   ; |318| 
         0000022b 0085 
     955 0000022c 761F!         MOVW      DP,#_safe1
         0000022d 0000 
     956 0000022e 929C          MOV       AL,*+XAR4[AR1]        ; |318| 
     957 0000022f 9600!         MOV       @_safe1,AL            ; |318| 
     958 00000230 761F!         MOVW      DP,#_config+3
         00000231 0000 
     959 00000232 9603!         MOV       @_config+3,AL         ; |318| 
     960 00000233       DW$L$_SlaveRegisters$29$E:
     961 00000233       L32:    
     962 00000233       DW$L$_SlaveRegisters$30$B:
     963 00000233 7640!         LCR       #_SaveSafeStruct1     ; |319| 
         00000234 0000 
     964                      ; call occurs [#_SaveSafeStruct1] ; |319| 
     965 00000235 56CF          BF        L43,UNC               ; |320| 
         00000236 0037 
     966                      ; branch occurs ; |320| 
     967 00000237       DW$L$_SlaveRegisters$30$E:
     968 00000237       L33:    
     969 00000237       DW$L$_SlaveRegisters$31$B:
     970 00000237 8F00!         MOVL      XAR4,#_sensor+4       ; |311| 
         00000238 0004 
     971 00000239 9CD1          ADDB      AL,#-47
     972 0000023a 56CF          BF        L38,UNC               ; |312| 
         0000023b 0020 
     973                      ; branch occurs ; |312| 
     974 0000023c       DW$L$_SlaveRegisters$31$E:
     975 0000023c       L34:    
     976 0000023c       DW$L$_SlaveRegisters$32$B:
     977 0000023c 761F!         MOVW      DP,#_versionreg
         0000023d 0000 
     978 0000023e 9200!         MOV       AL,@_versionreg       ; |306| 
     979 0000023f 56CF          BF        L42,UNC               ; |307| 
         00000240 002A 
     980                      ; branch occurs ; |307| 
     981 00000241       DW$L$_SlaveRegisters$32$E:
     982 00000241       L35:    
     983 00000241       DW$L$_SlaveRegisters$33$B:
     984 00000241 5220          CMPB      AL,#32                ; |291| 
     985 00000242 ED0C          BF        L36,NEQ               ; |291| 
     986                      ; branchcc occurs ; |291| 
     987 00000243       DW$L$_SlaveRegisters$33$E:
     988 00000243       DW$L$_SlaveRegisters$34$B:
     989 00000243 9CE0          ADDB      AL,#-32
     990 00000244 7640!         LCR       #_GetRPM              ; |293| 
         00000245 0000 
     991                      ; call occurs [#_GetRPM] ; |293| 
     992 00000246 761F!         MOVW      DP,#_allsensors+16
         00000247 0000 
     993 00000248 4010!         TBIT      @_allsensors+16,#0    ; |294| 
     994 00000249 EF20          BF        L42,NTC               ; |294| 
TMS320C2000 COFF Assembler PC v4.1.3 Thu Aug 18 12:16:31 2016

Tools Copyright (c) 1996-2006 Texas Instruments Incorporated
slave485.asm                                                         PAGE   22

     995                      ; branchcc occurs ; |294| 
     996 0000024a       DW$L$_SlaveRegisters$34$E:
     997 0000024a       DW$L$_SlaveRegisters$35$B:
     998 0000024a 1AA9          OR        AL,#0x8000            ; |294| 
         0000024b 8000 
     999 0000024c 56CF          BF        L42,UNC               ; |296| 
         0000024d 001D 
    1000                      ; branch occurs ; |296| 
    1001 0000024e       DW$L$_SlaveRegisters$35$E:
    1002 0000024e       L36:    
    1003 0000024e       DW$L$_SlaveRegisters$36$B:
    1004 0000024e 761F!         MOVW      DP,#_allsensors+16
         0000024f 0000 
    1005 00000250 1810!         AND       @_allsensors+16,#0xfffe ; |299| 
         00000251 FFFE 
    1006 00000252 9CE0          ADDB      AL,#-32
    1007 00000253 7640!         LCR       #_GetRPM              ; |300| 
         00000254 0000 
    1008                      ; call occurs [#_GetRPM] ; |300| 
    1009 00000255 56CF          BF        L42,UNC               ; |301| 
         00000256 0014 
    1010                      ; branch occurs ; |301| 
    1011 00000257       DW$L$_SlaveRegisters$36$E:
    1012 00000257       L37:    
    1013 00000257       DW$L$_SlaveRegisters$37$B:
    1014 00000257 8F00!         MOVL      XAR4,#_sensor+17      ; |286| 
         00000258 0011 
    1015 00000259 9CE4          ADDB      AL,#-28
    1016 0000025a       DW$L$_SlaveRegisters$37$E:
    1017 0000025a       L38:    
    1018 0000025a       DW$L$_SlaveRegisters$38$B:
    1019 0000025a 28AC          MOV       T,#18                 ; |286| 
         0000025b 0012 
    1020 0000025c 30A9          MPYXU     ACC,T,AL              ; |286| 
    1021 0000025d 5601          ADDL      XAR4,ACC
         0000025e 00A4 
    1022 0000025f       DW$L$_SlaveRegisters$38$E:
    1023 0000025f       L39:    
    1024 0000025f       DW$L$_SlaveRegisters$39$B:
    1025 0000025f 92C4          MOV       AL,*+XAR4[0]          ; |286| 
    1026 00000260 56CF          BF        L42,UNC               ; |287| 
         00000261 0009 
    1027                      ; branch occurs ; |287| 
    1028 00000262       DW$L$_SlaveRegisters$39$E:
    1029 00000262       L40:    
    1030 00000262       DW$L$_SlaveRegisters$40$B:
    1031 00000262 9CF2          ADDB      AL,#-14
    1032 00000263 7640!         LCR       #_Status3Flags        ; |282| 
         00000264 0000 
    1033                      ; call occurs [#_Status3Flags] ; |282| 
    1034 00000265 56CF          BF        L39,UNC               ; |283| 
         00000266 FFFA 
    1035                      ; branch occurs ; |283| 
    1036 00000267       DW$L$_SlaveRegisters$40$E:
    1037 00000267       L41:    
TMS320C2000 COFF Assembler PC v4.1.3 Thu Aug 18 12:16:31 2016

Tools Copyright (c) 1996-2006 Texas Instruments Incorporated
slave485.asm                                                         PAGE   23

    1038 00000267       DW$L$_SlaveRegisters$41$B:
    1039 00000267 7640!         LCR       #_GetScaledValue      ; |278| 
         00000268 0000 
    1040                      ; call occurs [#_GetScaledValue] ; |278| 
    1041 00000269       DW$L$_SlaveRegisters$41$E:
    1042 00000269       L42:    
    1043 00000269       DW$L$_SlaveRegisters$42$B:
    1044 00000269 8F00-         MOVL      XAR4,#_slave485mb+5   ; |278| 
         0000026a 0085 
    1045 0000026b 969C          MOV       *+XAR4[AR1],AL        ; |278| 
    1046 0000026c       DW$L$_SlaveRegisters$42$E:
    1047 0000026c       L43:    
    1048 0000026c       DW$L$_SlaveRegisters$43$B:
    1049 0000026c D901          ADDB      XAR1,#1               ; |349| 
    1050 0000026d 761F-         MOVW      DP,#_slave485mb+3
         0000026e 0002 
    1051 0000026f 92A1          MOV       AL,AR1                ; |349| 
    1052 00000270 DA01          ADDB      XAR2,#1               ; |348| 
    1053 00000271 5403-         CMP       AL,@_slave485mb+3     ; |349| 
    1054                      .dwpsn  "slave485.c",350,0
    1055 00000272 56C8          BF        L25,LO                ; |349| 
         00000273 FF3C 
    1056                      ; branchcc occurs ; |349| 
    1057 00000274       DW$L$_SlaveRegisters$43$E:
    1058 00000274       L44:    
    1059 00000274 86BE          MOVL      XAR2,*--SP
    1060 00000275 8BBE          MOVL      XAR1,*--SP
    1061                      .dwpsn  "slave485.c",351,1
    1062 00000276 0006          LRETR
    1063                      ; return occurs
    1064              
    1065              DW$64   .dwtag  DW_TAG_loop
    1066                      .dwattr DW$64, DW_AT_name("D:\DEV\Amot\BearingWear\XTSW_V6_20\slave485.asm:L25:1:1471518991")
    1067                      .dwattr DW$64, DW_AT_begin_file("slave485.c")
    1068                      .dwattr DW$64, DW_AT_begin_line(0x111)
    1069                      .dwattr DW$64, DW_AT_end_line(0x15e)
    1070              DW$65   .dwtag  DW_TAG_loop_range
    1071                      .dwattr DW$65, DW_AT_low_pc(DW$L$_SlaveRegisters$2$B)
    1072                      .dwattr DW$65, DW_AT_high_pc(DW$L$_SlaveRegisters$2$E)
    1073              DW$66   .dwtag  DW_TAG_loop_range
    1074                      .dwattr DW$66, DW_AT_low_pc(DW$L$_SlaveRegisters$31$B)
    1075                      .dwattr DW$66, DW_AT_high_pc(DW$L$_SlaveRegisters$31$E)
    1076              DW$67   .dwtag  DW_TAG_loop_range
    1077                      .dwattr DW$67, DW_AT_low_pc(DW$L$_SlaveRegisters$37$B)
    1078                      .dwattr DW$67, DW_AT_high_pc(DW$L$_SlaveRegisters$37$E)
    1079              DW$68   .dwtag  DW_TAG_loop_range
    1080                      .dwattr DW$68, DW_AT_low_pc(DW$L$_SlaveRegisters$38$B)
    1081                      .dwattr DW$68, DW_AT_high_pc(DW$L$_SlaveRegisters$38$E)
    1082              DW$69   .dwtag  DW_TAG_loop_range
    1083                      .dwattr DW$69, DW_AT_low_pc(DW$L$_SlaveRegisters$40$B)
    1084                      .dwattr DW$69, DW_AT_high_pc(DW$L$_SlaveRegisters$40$E)
    1085              DW$70   .dwtag  DW_TAG_loop_range
    1086                      .dwattr DW$70, DW_AT_low_pc(DW$L$_SlaveRegisters$33$B)
    1087                      .dwattr DW$70, DW_AT_high_pc(DW$L$_SlaveRegisters$33$E)
    1088              DW$71   .dwtag  DW_TAG_loop_range
TMS320C2000 COFF Assembler PC v4.1.3 Thu Aug 18 12:16:31 2016

Tools Copyright (c) 1996-2006 Texas Instruments Incorporated
slave485.asm                                                         PAGE   24

    1089                      .dwattr DW$71, DW_AT_low_pc(DW$L$_SlaveRegisters$20$B)
    1090                      .dwattr DW$71, DW_AT_high_pc(DW$L$_SlaveRegisters$20$E)
    1091              DW$72   .dwtag  DW_TAG_loop_range
    1092                      .dwattr DW$72, DW_AT_low_pc(DW$L$_SlaveRegisters$24$B)
    1093                      .dwattr DW$72, DW_AT_high_pc(DW$L$_SlaveRegisters$24$E)
    1094              DW$73   .dwtag  DW_TAG_loop_range
    1095                      .dwattr DW$73, DW_AT_low_pc(DW$L$_SlaveRegisters$28$B)
    1096                      .dwattr DW$73, DW_AT_high_pc(DW$L$_SlaveRegisters$28$E)
    1097              DW$74   .dwtag  DW_TAG_loop_range
    1098                      .dwattr DW$74, DW_AT_low_pc(DW$L$_SlaveRegisters$32$B)
    1099                      .dwattr DW$74, DW_AT_high_pc(DW$L$_SlaveRegisters$32$E)
    1100              DW$75   .dwtag  DW_TAG_loop_range
    1101                      .dwattr DW$75, DW_AT_low_pc(DW$L$_SlaveRegisters$34$B)
    1102                      .dwattr DW$75, DW_AT_high_pc(DW$L$_SlaveRegisters$34$E)
    1103              DW$76   .dwtag  DW_TAG_loop_range
    1104                      .dwattr DW$76, DW_AT_low_pc(DW$L$_SlaveRegisters$35$B)
    1105                      .dwattr DW$76, DW_AT_high_pc(DW$L$_SlaveRegisters$35$E)
    1106              DW$77   .dwtag  DW_TAG_loop_range
    1107                      .dwattr DW$77, DW_AT_low_pc(DW$L$_SlaveRegisters$36$B)
    1108                      .dwattr DW$77, DW_AT_high_pc(DW$L$_SlaveRegisters$36$E)
    1109              DW$78   .dwtag  DW_TAG_loop_range
    1110                      .dwattr DW$78, DW_AT_low_pc(DW$L$_SlaveRegisters$39$B)
    1111                      .dwattr DW$78, DW_AT_high_pc(DW$L$_SlaveRegisters$39$E)
    1112              DW$79   .dwtag  DW_TAG_loop_range
    1113                      .dwattr DW$79, DW_AT_low_pc(DW$L$_SlaveRegisters$41$B)
    1114                      .dwattr DW$79, DW_AT_high_pc(DW$L$_SlaveRegisters$41$E)
    1115              DW$80   .dwtag  DW_TAG_loop_range
    1116                      .dwattr DW$80, DW_AT_low_pc(DW$L$_SlaveRegisters$26$B)
    1117                      .dwattr DW$80, DW_AT_high_pc(DW$L$_SlaveRegisters$26$E)
    1118              DW$81   .dwtag  DW_TAG_loop_range
    1119                      .dwattr DW$81, DW_AT_low_pc(DW$L$_SlaveRegisters$27$B)
    1120                      .dwattr DW$81, DW_AT_high_pc(DW$L$_SlaveRegisters$27$E)
    1121              DW$82   .dwtag  DW_TAG_loop_range
    1122                      .dwattr DW$82, DW_AT_low_pc(DW$L$_SlaveRegisters$22$B)
    1123                      .dwattr DW$82, DW_AT_high_pc(DW$L$_SlaveRegisters$22$E)
    1124              DW$83   .dwtag  DW_TAG_loop_range
    1125                      .dwattr DW$83, DW_AT_low_pc(DW$L$_SlaveRegisters$23$B)
    1126                      .dwattr DW$83, DW_AT_high_pc(DW$L$_SlaveRegisters$23$E)
    1127              DW$84   .dwtag  DW_TAG_loop_range
    1128                      .dwattr DW$84, DW_AT_low_pc(DW$L$_SlaveRegisters$25$B)
    1129                      .dwattr DW$84, DW_AT_high_pc(DW$L$_SlaveRegisters$25$E)
    1130              DW$85   .dwtag  DW_TAG_loop_range
    1131                      .dwattr DW$85, DW_AT_low_pc(DW$L$_SlaveRegisters$29$B)
    1132                      .dwattr DW$85, DW_AT_high_pc(DW$L$_SlaveRegisters$29$E)
    1133              DW$86   .dwtag  DW_TAG_loop_range
    1134                      .dwattr DW$86, DW_AT_low_pc(DW$L$_SlaveRegisters$18$B)
    1135                      .dwattr DW$86, DW_AT_high_pc(DW$L$_SlaveRegisters$18$E)
    1136              DW$87   .dwtag  DW_TAG_loop_range
    1137                      .dwattr DW$87, DW_AT_low_pc(DW$L$_SlaveRegisters$19$B)
    1138                      .dwattr DW$87, DW_AT_high_pc(DW$L$_SlaveRegisters$19$E)
    1139              DW$88   .dwtag  DW_TAG_loop_range
    1140                      .dwattr DW$88, DW_AT_low_pc(DW$L$_SlaveRegisters$11$B)
    1141                      .dwattr DW$88, DW_AT_high_pc(DW$L$_SlaveRegisters$11$E)
    1142              DW$89   .dwtag  DW_TAG_loop_range
    1143                      .dwattr DW$89, DW_AT_low_pc(DW$L$_SlaveRegisters$12$B)
TMS320C2000 COFF Assembler PC v4.1.3 Thu Aug 18 12:16:31 2016

Tools Copyright (c) 1996-2006 Texas Instruments Incorporated
slave485.asm                                                         PAGE   25

    1144                      .dwattr DW$89, DW_AT_high_pc(DW$L$_SlaveRegisters$12$E)
    1145              DW$90   .dwtag  DW_TAG_loop_range
    1146                      .dwattr DW$90, DW_AT_low_pc(DW$L$_SlaveRegisters$13$B)
    1147                      .dwattr DW$90, DW_AT_high_pc(DW$L$_SlaveRegisters$13$E)
    1148              DW$91   .dwtag  DW_TAG_loop_range
    1149                      .dwattr DW$91, DW_AT_low_pc(DW$L$_SlaveRegisters$14$B)
    1150                      .dwattr DW$91, DW_AT_high_pc(DW$L$_SlaveRegisters$14$E)
    1151              DW$92   .dwtag  DW_TAG_loop_range
    1152                      .dwattr DW$92, DW_AT_low_pc(DW$L$_SlaveRegisters$8$B)
    1153                      .dwattr DW$92, DW_AT_high_pc(DW$L$_SlaveRegisters$8$E)
    1154              DW$93   .dwtag  DW_TAG_loop_range
    1155                      .dwattr DW$93, DW_AT_low_pc(DW$L$_SlaveRegisters$9$B)
    1156                      .dwattr DW$93, DW_AT_high_pc(DW$L$_SlaveRegisters$9$E)
    1157              DW$94   .dwtag  DW_TAG_loop_range
    1158                      .dwattr DW$94, DW_AT_low_pc(DW$L$_SlaveRegisters$6$B)
    1159                      .dwattr DW$94, DW_AT_high_pc(DW$L$_SlaveRegisters$6$E)
    1160              DW$95   .dwtag  DW_TAG_loop_range
    1161                      .dwattr DW$95, DW_AT_low_pc(DW$L$_SlaveRegisters$4$B)
    1162                      .dwattr DW$95, DW_AT_high_pc(DW$L$_SlaveRegisters$4$E)
    1163              DW$96   .dwtag  DW_TAG_loop_range
    1164                      .dwattr DW$96, DW_AT_low_pc(DW$L$_SlaveRegisters$3$B)
    1165                      .dwattr DW$96, DW_AT_high_pc(DW$L$_SlaveRegisters$3$E)
    1166              DW$97   .dwtag  DW_TAG_loop_range
    1167                      .dwattr DW$97, DW_AT_low_pc(DW$L$_SlaveRegisters$5$B)
    1168                      .dwattr DW$97, DW_AT_high_pc(DW$L$_SlaveRegisters$5$E)
    1169              DW$98   .dwtag  DW_TAG_loop_range
    1170                      .dwattr DW$98, DW_AT_low_pc(DW$L$_SlaveRegisters$7$B)
    1171                      .dwattr DW$98, DW_AT_high_pc(DW$L$_SlaveRegisters$7$E)
    1172              DW$99   .dwtag  DW_TAG_loop_range
    1173                      .dwattr DW$99, DW_AT_low_pc(DW$L$_SlaveRegisters$10$B)
    1174                      .dwattr DW$99, DW_AT_high_pc(DW$L$_SlaveRegisters$10$E)
    1175              DW$100  .dwtag  DW_TAG_loop_range
    1176                      .dwattr DW$100, DW_AT_low_pc(DW$L$_SlaveRegisters$15$B)
    1177                      .dwattr DW$100, DW_AT_high_pc(DW$L$_SlaveRegisters$15$E)
    1178              DW$101  .dwtag  DW_TAG_loop_range
    1179                      .dwattr DW$101, DW_AT_low_pc(DW$L$_SlaveRegisters$16$B)
    1180                      .dwattr DW$101, DW_AT_high_pc(DW$L$_SlaveRegisters$16$E)
    1181              DW$102  .dwtag  DW_TAG_loop_range
    1182                      .dwattr DW$102, DW_AT_low_pc(DW$L$_SlaveRegisters$17$B)
    1183                      .dwattr DW$102, DW_AT_high_pc(DW$L$_SlaveRegisters$17$E)
    1184              DW$103  .dwtag  DW_TAG_loop_range
    1185                      .dwattr DW$103, DW_AT_low_pc(DW$L$_SlaveRegisters$21$B)
    1186                      .dwattr DW$103, DW_AT_high_pc(DW$L$_SlaveRegisters$21$E)
    1187              DW$104  .dwtag  DW_TAG_loop_range
    1188                      .dwattr DW$104, DW_AT_low_pc(DW$L$_SlaveRegisters$30$B)
    1189                      .dwattr DW$104, DW_AT_high_pc(DW$L$_SlaveRegisters$30$E)
    1190              DW$105  .dwtag  DW_TAG_loop_range
    1191                      .dwattr DW$105, DW_AT_low_pc(DW$L$_SlaveRegisters$42$B)
    1192                      .dwattr DW$105, DW_AT_high_pc(DW$L$_SlaveRegisters$42$E)
    1193              DW$106  .dwtag  DW_TAG_loop_range
    1194                      .dwattr DW$106, DW_AT_low_pc(DW$L$_SlaveRegisters$43$B)
    1195                      .dwattr DW$106, DW_AT_high_pc(DW$L$_SlaveRegisters$43$E)
    1196                      .dwendtag DW$64
    1197              
    1198                      .dwattr DW$63, DW_AT_end_file("slave485.c")
TMS320C2000 COFF Assembler PC v4.1.3 Thu Aug 18 12:16:31 2016

Tools Copyright (c) 1996-2006 Texas Instruments Incorporated
slave485.asm                                                         PAGE   26

    1199                      .dwattr DW$63, DW_AT_end_line(0x15f)
    1200                      .dwattr DW$63, DW_AT_end_column(0x01)
    1201                      .dwendtag DW$63
    1202              
    1203 00000277               .sect   ".text"
    1204                      .global _MasterModeReceive
    1205              
    1206              DW$107  .dwtag  DW_TAG_subprogram, DW_AT_name("MasterModeReceive"), DW_AT_symbol_name("_MasterModeReceive")
    1207                      .dwattr DW$107, DW_AT_low_pc(_MasterModeReceive)
    1208                      .dwattr DW$107, DW_AT_high_pc(0x00)
    1209                      .dwattr DW$107, DW_AT_begin_file("slave485.c")
    1210                      .dwattr DW$107, DW_AT_begin_line(0x161)
    1211                      .dwattr DW$107, DW_AT_begin_column(0x06)
    1212                      .dwattr DW$107, DW_AT_frame_base[DW_OP_breg20 -8]
    1213                      .dwattr DW$107, DW_AT_skeletal(0x01)
    1214                      .dwpsn  "slave485.c",354,1
    1215              
    1216              ;***************************************************************
    1217              ;* FNAME: _MasterModeReceive            FR SIZE:   6           *
    1218              ;*                                                             *
    1219              ;* FUNCTION ENVIRONMENT                                        *
    1220              ;*                                                             *
    1221              ;* FUNCTION PROPERTIES                                         *
    1222              ;*                            0 Parameter,  2 Auto,  4 SOE     *
    1223              ;***************************************************************
    1224              
    1225 00000277       _MasterModeReceive:
    1226 00000277 B2BD          MOVL      *SP++,XAR1
    1227 00000278 761F-         MOVW      DP,#_slave485mb+69
         00000279 0003 
    1228 0000027a A2BD          MOVL      *SP++,XAR3
    1229 0000027b 9205-         MOV       AL,@_slave485mb+69    ; |360| 
    1230 0000027c FE02          ADDB      SP,#2
    1231 0000027d 56C1          BF        L61,EQ                ; |360| 
         0000027e 010D 
    1232                      ; branchcc occurs ; |360| 
    1233 0000027f 761F!         MOVW      DP,#_timers+5
         00000280 0000 
    1234 00000281 9305!         MOV       AH,@_timers+5         ; |360| 
    1235 00000282 56C0          BF        L53,NEQ               ; |360| 
         00000283 0092 
    1236                      ; branchcc occurs ; |360| 
    1237 00000284 5200          CMPB      AL,#0                 ; |419| 
    1238 00000285 56C1          BF        L61,EQ                ; |419| 
         00000286 0105 
    1239                      ; branchcc occurs ; |419| 
    1240 00000287 520A          CMPB      AL,#10                ; |419| 
    1241 00000288 56C7          BF        L50,HIS               ; |419| 
         00000289 0039 
    1242                      ; branchcc occurs ; |419| 
    1243 0000028a 761F!         MOVW      DP,#_timers+5
         0000028b 0000 
    1244 0000028c 9205!         MOV       AL,@_timers+5         ; |419| 
    1245 0000028d ED34          BF        L50,NEQ               ; |419| 
    1246                      ; branchcc occurs ; |419| 
TMS320C2000 COFF Assembler PC v4.1.3 Thu Aug 18 12:16:31 2016

Tools Copyright (c) 1996-2006 Texas Instruments Incorporated
slave485.asm                                                         PAGE   27

    1247 0000028e 0201          MOVB      ACC,#1
    1248 0000028f 761F!         MOVW      DP,#_config+18
         00000290 0000 
    1249 00000291 5601!         ADDL      @_config+18,ACC       ; |421| 
         00000292 0012 
    1250 00000293 761F!         MOVW      DP,#_receiveA+8
         00000294 0000 
    1251 00000295 2B08!         MOV       @_receiveA+8,#0       ; |422| 
    1252 00000296 761F!         MOVW      DP,#_receiveA+7
         00000297 0000 
    1253 00000298 2B07!         MOV       @_receiveA+7,#0       ; |423| 
    1254 00000299 761F!         MOVW      DP,#_settings+13
         0000029a 0000 
    1255 0000029b 920D!         MOV       AL,@_settings+13      ; |428| 
    1256 0000029c 5201          CMPB      AL,#1                 ; |428| 
    1257 0000029d EC07          BF        L45,EQ                ; |428| 
    1258                      ; branchcc occurs ; |428| 
    1259 0000029e 761F!         MOVW      DP,#_timers+42
         0000029f 0000 
    1260 000002a0 282A!         MOV       @_timers+42,#60       ; |431| 
         000002a1 003C 
    1261 000002a2 56CF          BF        L46,UNC               ; |431| 
         000002a3 0006 
    1262                      ; branch occurs ; |431| 
    1263 000002a4       L45:    
    1264 000002a4 761F!         MOVW      DP,#_timers+42
         000002a5 0000 
    1265 000002a6 282A!         MOV       @_timers+42,#20       ; |429| 
         000002a7 0014 
    1266 000002a8       L46:    
    1267 000002a8 761F-         MOVW      DP,#_receivingmode
         000002a9 0001 
    1268 000002aa 9224-         MOV       AL,@_receivingmode    ; |430| 
    1269 000002ab 5201          CMPB      AL,#1                 ; |430| 
    1270 000002ac EC11          BF        L49,EQ                ; |430| 
    1271                      ; branchcc occurs ; |430| 
    1272 000002ad 5203          CMPB      AL,#3                 ; |437| 
    1273 000002ae EC0B          BF        L48,EQ                ; |437| 
    1274                      ; branchcc occurs ; |437| 
    1275 000002af 5204          CMPB      AL,#4                 ; |438| 
    1276 000002b0 EC05          BF        L47,EQ                ; |438| 
    1277                      ; branchcc occurs ; |438| 
    1278 000002b1 7640'         LCR       #_SendScalingCommand  ; |440| 
         000002b2 0394 
    1279                      ; call occurs [#_SendScalingCommand] ; |440| 
    1280 000002b3 56CF          BF        L63,UNC               ; |440| 
         000002b4 00DD 
    1281                      ; branch occurs ; |440| 
    1282 000002b5       L47:    
    1283 000002b5 7640!         LCR       #_RxStatusfromSlave   ; |438| 
         000002b6 0000 
    1284                      ; call occurs [#_RxStatusfromSlave] ; |438| 
    1285 000002b7 56CF          BF        L63,UNC               ; |438| 
         000002b8 00D9 
    1286                      ; branch occurs ; |438| 
TMS320C2000 COFF Assembler PC v4.1.3 Thu Aug 18 12:16:31 2016

Tools Copyright (c) 1996-2006 Texas Instruments Incorporated
slave485.asm                                                         PAGE   28

    1287 000002b9       L48:    
    1288 000002b9 7640!         LCR       #_TxRegtoSlave        ; |437| 
         000002ba 0000 
    1289                      ; call occurs [#_TxRegtoSlave] ; |437| 
    1290 000002bb 56CF          BF        L63,UNC               ; |437| 
         000002bc 00D5 
    1291                      ; branch occurs ; |437| 
    1292 000002bd       L49:    
    1293 000002bd 7640'         LCR       #_ReadChannelResults  ; |435| 
         000002be 03DF 
    1294                      ; call occurs [#_ReadChannelResults] ; |435| 
    1295 000002bf 56CF          BF        L63,UNC               ; |435| 
         000002c0 00D1 
    1296                      ; branch occurs ; |435| 
    1297 000002c1       L50:    
    1298 000002c1 761F-         MOVW      DP,#_slave485mb+69
         000002c2 0003 
    1299 000002c3 9205-         MOV       AL,@_slave485mb+69    ; |445| 
    1300 000002c4 520A          CMPB      AL,#10                ; |445| 
    1301 000002c5 56C8          BF        L61,LO                ; |445| 
         000002c6 00C5 
    1302                      ; branchcc occurs ; |445| 
    1303 000002c7 761F!         MOVW      DP,#_reprogram+11
         000002c8 0000 
    1304 000002c9 2B0B!         MOV       @_reprogram+11,#0     ; |448| 
    1305 000002ca 761F!         MOVW      DP,#_receiveA+8
         000002cb 0000 
    1306 000002cc 9A01          MOVB      AL,#1                 ; |452| 
    1307 000002cd 2B08!         MOV       @_receiveA+8,#0       ; |450| 
    1308 000002ce D100          MOVB      XAR1,#0
    1309 000002cf 761F!         MOVW      DP,#_receiveA+7
         000002d0 0000 
    1310 000002d1 2B07!         MOV       @_receiveA+7,#0       ; |451| 
    1311 000002d2 761F-         MOVW      DP,#_slave485mb+70
         000002d3 0003 
    1312 000002d4 9606-         MOV       @_slave485mb+70,AL    ; |452| 
    1313 000002d5 761F-         MOVW      DP,#_slave485mb+71
         000002d6 0003 
    1314 000002d7 9607-         MOV       @_slave485mb+71,AL    ; |453| 
    1315 000002d8 761F!         MOVW      DP,#_allsensors+2
         000002d9 0000 
    1316 000002da 9202!         MOV       AL,@_allsensors+2     ; |454| 
    1317 000002db 56C1          BF        L61,EQ                ; |454| 
         000002dc 00AF 
    1318                      ; branchcc occurs ; |454| 
    1319              L51:    
    1320              DW$L$_MasterModeReceive$18$B:
    1321                      .dwpsn  "slave485.c",455,0
    1322 000002dd 761F!         MOVW      DP,#_allsensors+1
         000002de 0000 
    1323 000002df 9201!         MOV       AL,@_allsensors+1     ; |457| 
    1324 000002e0 94A1          ADD       AL,AR1                ; |457| 
    1325 000002e1 9B00          MOVB      AH,#0
    1326 000002e2 7640!         LCR       #_SetScaledValue      ; |457| 
         000002e3 0000 
TMS320C2000 COFF Assembler PC v4.1.3 Thu Aug 18 12:16:31 2016

Tools Copyright (c) 1996-2006 Texas Instruments Incorporated
slave485.asm                                                         PAGE   29

    1327                      ; call occurs [#_SetScaledValue] ; |457| 
    1328 000002e4 761F!         MOVW      DP,#_allsensors+1
         000002e5 0000 
    1329 000002e6 9201!         MOV       AL,@_allsensors+1     ; |458| 
    1330 000002e7 94A1          ADD       AL,AR1                ; |458| 
    1331 000002e8 9B00          MOVB      AH,#0
    1332 000002e9 7640!         LCR       #_SetRPMChan          ; |458| 
         000002ea 0000 
    1333                      ; call occurs [#_SetRPMChan] ; |458| 
    1334 000002eb 761F!         MOVW      DP,#_allsensors+1
         000002ec 0000 
    1335 000002ed 9201!         MOV       AL,@_allsensors+1     ; |459| 
    1336 000002ee 94A1          ADD       AL,AR1                ; |459| 
    1337 000002ef 88A9          MOVZ      AR6,AL                ; |459| 
    1338 000002f0 28AC          MOV       T,#18                 ; |459| 
         000002f1 0012 
    1339 000002f2 8F00!         MOVL      XAR4,#_sensor         ; |459| 
         000002f3 0000 
    1340 000002f4 30A6          MPYXU     ACC,T,AR6             ; |459| 
    1341 000002f5 5601          ADDL      XAR4,ACC
         000002f6 00A4 
    1342 000002f7 D011          MOVB      XAR0,#17              ; |459| 
    1343 000002f8 2894          MOV       *+XAR4[AR0],#-32765   ; |459| 
         000002f9 8003 
    1344 000002fa 40C4          TBIT      *+XAR4[0],#0          ; |461| 
    1345 000002fb EF0F          BF        L52,NTC               ; |461| 
    1346                      ; branchcc occurs ; |461| 
    1347 000002fc       DW$L$_MasterModeReceive$18$E:
    1348 000002fc       DW$L$_MasterModeReceive$19$B:
    1349 000002fc 1ACC          OR        *+XAR4[1],#0x0003     ; |462| 
         000002fd 0003 
    1350 000002fe 8F00!         MOVL      XAR4,#_status3        ; |464| 
         000002ff 0000 
    1351 00000300 A8A9          MOVL      ACC,XAR4              ; |464| 
    1352 00000301 0DA6          ADDU      ACC,AR6               ; |464| 
    1353 00000302 8AA9          MOVL      XAR4,ACC              ; |464| 
    1354 00000303 92C4          MOV       AL,*+XAR4[0]          ; |464| 
    1355 00000304 5001          ORB       AL,#0x01              ; |464| 
    1356 00000305 28A8          MOV       AH,#256               ; |465| 
         00000306 0100 
    1357 00000307 96C4          MOV       *+XAR4[0],AL          ; |464| 
    1358 00000308 CBA9          OR        AH,AL                 ; |465| 
    1359 00000309 97C4          MOV       *+XAR4[0],AH          ; |465| 
    1360 0000030a       DW$L$_MasterModeReceive$19$E:
    1361 0000030a       L52:    
    1362 0000030a       DW$L$_MasterModeReceive$20$B:
    1363 0000030a 92A1          MOV       AL,AR1
    1364 0000030b 761F!         MOVW      DP,#_allsensors+2
         0000030c 0000 
    1365 0000030d 9C01          ADDB      AL,#1                 ; |454| 
    1366 0000030e 5402!         CMP       AL,@_allsensors+2     ; |454| 
    1367 0000030f 59A9          MOVZ      AR1,AL                ; |454| 
    1368                      .dwpsn  "slave485.c",468,0
    1369 00000310 56C8          BF        L51,LO                ; |454| 
         00000311 FFCD 
TMS320C2000 COFF Assembler PC v4.1.3 Thu Aug 18 12:16:31 2016

Tools Copyright (c) 1996-2006 Texas Instruments Incorporated
slave485.asm                                                         PAGE   30

    1370                      ; branchcc occurs ; |454| 
    1371 00000312       DW$L$_MasterModeReceive$20$E:
    1372 00000312 56CF          BF        L61,UNC               ; |454| 
         00000313 0078 
    1373                      ; branch occurs ; |454| 
    1374 00000314       L53:    
    1375 00000314 761F!         MOVW      DP,#_receiveA+7
         00000315 0000 
    1376 00000316 9207!         MOV       AL,@_receiveA+7       ; |362| 
    1377 00000317 EC05          BF        L54,EQ                ; |362| 
    1378                      ; branchcc occurs ; |362| 
    1379 00000318 761F!         MOVW      DP,#_receiveA+8
         00000319 0000 
    1380 0000031a 5408!         CMP       AL,@_receiveA+8       ; |362| 
    1381 0000031b ED66          BF        L60,NEQ               ; |362| 
    1382                      ; branchcc occurs ; |362| 
    1383 0000031c       L54:    
    1384 0000031c 761F!         MOVW      DP,#_timers+6
         0000031d 0000 
    1385 0000031e 9206!         MOV       AL,@_timers+6         ; |371| 
    1386 0000031f ED71          BF        L63,NEQ               ; |371| 
    1387                      ; branchcc occurs ; |371| 
    1388 00000320 761F!         MOVW      DP,#_receiveA+7
         00000321 0000 
    1389 00000322 8807!         MOVZ      AR6,@_receiveA+7      ; |371| 
    1390 00000323 92A6          MOV       AL,AR6                ; |371| 
    1391 00000324 5203          CMPB      AL,#3                 ; |371| 
    1392 00000325 56C9          BF        L63,LOS               ; |371| 
         00000326 006B 
    1393                      ; branchcc occurs ; |371| 
    1394 00000327 0201          MOVB      ACC,#1
    1395 00000328 761F!         MOVW      DP,#_config+16
         00000329 0000 
    1396 0000032a 8DC0!         MOVL      XAR3,#_receiveA+9     ; |374| 
         0000032b 0009 
    1397 0000032c 5DAD          MOVZ      AR5,SP                ; |374| 
    1398 0000032d 5601!         ADDL      @_config+16,ACC       ; |373| 
         0000032e 0010 
    1399 0000032f 8AA3          MOVL      XAR4,XAR3             ; |374| 
    1400 00000330 92A6          MOV       AL,AR6                ; |374| 
    1401 00000331 DD82          SUBB      XAR5,#2               ; |374| 
    1402 00000332 9CFE          ADDB      AL,#-2
    1403 00000333 7640!         LCR       #_CalcCRC             ; |374| 
         00000334 0000 
    1404                      ; call occurs [#_CalcCRC] ; |374| 
    1405 00000335 761F!         MOVW      DP,#_receiveA+7
         00000336 0000 
    1406 00000337 5807!         MOVZ      AR0,@_receiveA+7      ; |375| 
    1407 00000338 93A0          MOV       AH,AR0                ; |375| 
    1408 00000339 9DFE          ADDB      AH,#-2
    1409 0000033a 59A8          MOVZ      AR1,AH                ; |375| 
    1410 0000033b 9342          MOV       AH,*-SP[2]            ; |375| 
    1411 0000033c 559B          CMP       AH,*+XAR3[AR1]        ; |375| 
    1412 0000033d ED39          BF        L59,NEQ               ; |375| 
    1413                      ; branchcc occurs ; |375| 
TMS320C2000 COFF Assembler PC v4.1.3 Thu Aug 18 12:16:31 2016

Tools Copyright (c) 1996-2006 Texas Instruments Incorporated
slave485.asm                                                         PAGE   31

    1414 0000033e 92A0          MOV       AL,AR0                ; |375| 
    1415 0000033f 9CFF          ADDB      AL,#-1
    1416 00000340 58A9          MOVZ      AR0,AL                ; |375| 
    1417 00000341 9241          MOV       AL,*-SP[1]            ; |375| 
    1418 00000342 5493          CMP       AL,*+XAR3[AR0]        ; |375| 
    1419 00000343 ED33          BF        L59,NEQ               ; |375| 
    1420                      ; branchcc occurs ; |375| 
    1421 00000344 92C3          MOV       AL,*+XAR3[0]          ; |375| 
    1422 00000345 5201          CMPB      AL,#1                 ; |375| 
    1423 00000346 ED30          BF        L59,NEQ               ; |375| 
    1424                      ; branchcc occurs ; |375| 
    1425 00000347 761F-         MOVW      DP,#_receivingmode
         00000348 0001 
    1426 00000349 9224-         MOV       AL,@_receivingmode    ; |380| 
    1427 0000034a 5201          CMPB      AL,#1                 ; |380| 
    1428 0000034b ED10          BF        L57,NEQ               ; |380| 
    1429                      ; branchcc occurs ; |380| 
    1430 0000034c 92CB          MOV       AL,*+XAR3[1]          ; |382| 
    1431 0000034d 5203          CMPB      AL,#3                 ; |382| 
    1432 0000034e EC03          BF        L55,EQ                ; |382| 
    1433                      ; branchcc occurs ; |382| 
    1434 0000034f 52F3          CMPB      AL,#243               ; |382| 
    1435 00000350 ED08          BF        L56,NEQ               ; |382| 
    1436                      ; branchcc occurs ; |382| 
    1437 00000351       L55:    
    1438 00000351 761F!         MOVW      DP,#_receiveA+11
         00000352 0000 
    1439 00000353 920B!         MOV       AL,@_receiveA+11      ; |382| 
    1440 00000354 527A          CMPB      AL,#122               ; |382| 
    1441 00000355 ED03          BF        L56,NEQ               ; |382| 
    1442                      ; branchcc occurs ; |382| 
    1443 00000356 7640'         LCR       #_ProcessSlaveChanResponse ; |384| 
         00000357 0417 
    1444                      ; call occurs [#_ProcessSlaveChanResponse] ; |384| 
    1445 00000358       L56:    
    1446 00000358 761F-         MOVW      DP,#_slave485mb+70
         00000359 0003 
    1447 0000035a 2B06-         MOV       @_slave485mb+70,#0    ; |386| 
    1448 0000035b       L57:    
    1449 0000035b 761F-         MOVW      DP,#_receivingmode
         0000035c 0001 
    1450 0000035d 9224-         MOV       AL,@_receivingmode    ; |389| 
    1451 0000035e 5203          CMPB      AL,#3                 ; |389| 
    1452 0000035f ED08          BF        L58,NEQ               ; |389| 
    1453                      ; branchcc occurs ; |389| 
    1454 00000360 9A64          MOVB      AL,#100               ; |391| 
    1455 00000361 7640!         LCR       #_NOPDelay            ; |391| 
         00000362 0000 
    1456                      ; call occurs [#_NOPDelay] ; |391| 
    1457 00000363 761F!         MOVW      DP,#_reprogram+11
         00000364 0000 
    1458 00000365 280B!         MOV       @_reprogram+11,#1     ; |392| 
         00000366 0001 
    1459 00000367       L58:    
    1460 00000367 761F-         MOVW      DP,#_receivingmode
TMS320C2000 COFF Assembler PC v4.1.3 Thu Aug 18 12:16:31 2016

Tools Copyright (c) 1996-2006 Texas Instruments Incorporated
slave485.asm                                                         PAGE   32

         00000368 0001 
    1461 00000369 9224-         MOV       AL,@_receivingmode    ; |394| 
    1462 0000036a 5204          CMPB      AL,#4                 ; |394| 
    1463 0000036b ED0B          BF        L59,NEQ               ; |394| 
    1464                      ; branchcc occurs ; |394| 
    1465 0000036c 8F00!         MOVL      XAR4,#_receiveA+9     ; |398| 
         0000036d 0009 
    1466 0000036e 761F!         MOVW      DP,#_reprogram+12
         0000036f 0000 
    1467 00000370 5603          MOV       ACC,*+XAR4[3] << #8   ; |398| 
         00000371 08DC 
    1468 00000372 93E4          MOV       AH,*+XAR4[4]          ; |399| 
    1469 00000373 91FF          ANDB      AH,#0xff              ; |399| 
    1470 00000374 94A8          ADD       AL,AH                 ; |399| 
    1471 00000375 960C!         MOV       @_reprogram+12,AL     ; |402| 
    1472 00000376       L59:    
    1473 00000376 761F-         MOVW      DP,#_receivingmode
         00000377 0001 
    1474 00000378 2B24-         MOV       @_receivingmode,#0    ; |413| 
    1475 00000379 761F!         MOVW      DP,#_receiveA+8
         0000037a 0000 
    1476 0000037b 2B08!         MOV       @_receiveA+8,#0       ; |415| 
    1477 0000037c 761F!         MOVW      DP,#_receiveA+7
         0000037d 0000 
    1478 0000037e 2B07!         MOV       @_receiveA+7,#0       ; |416| 
    1479 0000037f 56CF          BF        L62,UNC               ; |416| 
         00000380 000E 
    1480                      ; branch occurs ; |416| 
    1481 00000381       L60:    
    1482 00000381 761F!         MOVW      DP,#_receiveA+8
         00000382 0000 
    1483 00000383 9608!         MOV       @_receiveA+8,AL       ; |364| 
    1484 00000384 761F!         MOVW      DP,#_timers+6
         00000385 0000 
    1485 00000386 2806!         MOV       @_timers+6,#2         ; |365| 
         00000387 0002 
    1486 00000388 56CF          BF        L63,UNC               ; |366| 
         00000389 0008 
    1487                      ; branch occurs ; |366| 
    1488 0000038a       L61:    
    1489 0000038a 761F!         MOVW      DP,#_timers+5
         0000038b 0000 
    1490 0000038c 2B05!         MOV       @_timers+5,#0         ; |471| 
    1491 0000038d       L62:    
    1492 0000038d 761F-         MOVW      DP,#_slave485mb+69
         0000038e 0003 
    1493 0000038f 2B05-         MOV       @_slave485mb+69,#0    ; |470| 
    1494 00000390       L63:    
    1495 00000390 FE82          SUBB      SP,#2
    1496 00000391 82BE          MOVL      XAR3,*--SP
    1497 00000392 8BBE          MOVL      XAR1,*--SP
    1498                      .dwpsn  "slave485.c",473,1
    1499 00000393 0006          LRETR
    1500                      ; return occurs
    1501              
TMS320C2000 COFF Assembler PC v4.1.3 Thu Aug 18 12:16:31 2016

Tools Copyright (c) 1996-2006 Texas Instruments Incorporated
slave485.asm                                                         PAGE   33

    1502              DW$108  .dwtag  DW_TAG_loop
    1503                      .dwattr DW$108, DW_AT_name("D:\DEV\Amot\BearingWear\XTSW_V6_20\slave485.asm:L51:1:1471518991")
    1504                      .dwattr DW$108, DW_AT_begin_file("slave485.c")
    1505                      .dwattr DW$108, DW_AT_begin_line(0x1c6)
    1506                      .dwattr DW$108, DW_AT_end_line(0x1d4)
    1507              DW$109  .dwtag  DW_TAG_loop_range
    1508                      .dwattr DW$109, DW_AT_low_pc(DW$L$_MasterModeReceive$18$B)
    1509                      .dwattr DW$109, DW_AT_high_pc(DW$L$_MasterModeReceive$18$E)
    1510              DW$110  .dwtag  DW_TAG_loop_range
    1511                      .dwattr DW$110, DW_AT_low_pc(DW$L$_MasterModeReceive$19$B)
    1512                      .dwattr DW$110, DW_AT_high_pc(DW$L$_MasterModeReceive$19$E)
    1513              DW$111  .dwtag  DW_TAG_loop_range
    1514                      .dwattr DW$111, DW_AT_low_pc(DW$L$_MasterModeReceive$20$B)
    1515                      .dwattr DW$111, DW_AT_high_pc(DW$L$_MasterModeReceive$20$E)
    1516                      .dwendtag DW$108
    1517              
    1518                      .dwattr DW$107, DW_AT_end_file("slave485.c")
    1519                      .dwattr DW$107, DW_AT_end_line(0x1d9)
    1520                      .dwattr DW$107, DW_AT_end_column(0x01)
    1521                      .dwendtag DW$107
    1522              
    1523 00000394               .sect   ".text"
    1524                      .global _SendScalingCommand
    1525              
    1526              DW$112  .dwtag  DW_TAG_subprogram, DW_AT_name("SendScalingCommand"), DW_AT_symbol_name("_SendScalingCommand")
    1527                      .dwattr DW$112, DW_AT_low_pc(_SendScalingCommand)
    1528                      .dwattr DW$112, DW_AT_high_pc(0x00)
    1529                      .dwattr DW$112, DW_AT_begin_file("slave485.c")
    1530                      .dwattr DW$112, DW_AT_begin_line(0x1de)
    1531                      .dwattr DW$112, DW_AT_begin_column(0x06)
    1532                      .dwattr DW$112, DW_AT_frame_base[DW_OP_breg20 -6]
    1533                      .dwattr DW$112, DW_AT_skeletal(0x01)
    1534                      .dwpsn  "slave485.c",479,1
    1535              
    1536              ;***************************************************************
    1537              ;* FNAME: _SendScalingCommand           FR SIZE:   4           *
    1538              ;*                                                             *
    1539              ;* FUNCTION ENVIRONMENT                                        *
    1540              ;*                                                             *
    1541              ;* FUNCTION PROPERTIES                                         *
    1542              ;*                            0 Parameter,  2 Auto,  2 SOE     *
    1543              ;***************************************************************
    1544              
    1545 00000394       _SendScalingCommand:
    1546 00000394 A2BD          MOVL      *SP++,XAR3
    1547 00000395 9A04          MOVB      AL,#4                 ; |484| 
    1548 00000396 8DC0-         MOVL      XAR3,#_slaveresponsemsg ; |482| 
         00000397 0000 
    1549 00000398 761F!         MOVW      DP,#_config+3
         00000399 0000 
    1550 0000039a FE02          ADDB      SP,#2
    1551 0000039b 28C3          MOV       *+XAR3[0],#1          ; |482| 
         0000039c 0001 
    1552 0000039d D008          MOVB      XAR0,#8               ; |491| 
    1553 0000039e 28CB          MOV       *+XAR3[1],#16         ; |483| 
TMS320C2000 COFF Assembler PC v4.1.3 Thu Aug 18 12:16:31 2016

Tools Copyright (c) 1996-2006 Texas Instruments Incorporated
slave485.asm                                                         PAGE   34

         0000039f 0010 
    1554 000003a0 96D3          MOV       *+XAR3[2],AL          ; |484| 
    1555 000003a1 96DB          MOV       *+XAR3[3],AL          ; |485| 
    1556 000003a2 5DAD          MOVZ      AR5,SP                ; |499| 
    1557 000003a3 2BE3          MOV       *+XAR3[4],#0          ; |486| 
    1558 000003a4 28EB          MOV       *+XAR3[5],#3          ; |487| 
         000003a5 0003 
    1559 000003a6 28F3          MOV       *+XAR3[6],#6          ; |488| 
         000003a7 0006 
    1560 000003a8 9203!         MOV       AL,@_config+3         ; |490| 
    1561 000003a9 93A9          MOV       AH,AL                 ; |490| 
    1562 000003aa 8AA3          MOVL      XAR4,XAR3             ; |499| 
    1563 000003ab FFD7          LSR       AH,8                  ; |490| 
    1564 000003ac 90FF          ANDB      AL,#255               ; |491| 
    1565 000003ad 97FB          MOV       *+XAR3[7],AH          ; |490| 
    1566 000003ae 761F!         MOVW      DP,#_config+4
         000003af 0000 
    1567 000003b0 9693          MOV       *+XAR3[AR0],AL        ; |491| 
    1568 000003b1 DD82          SUBB      XAR5,#2               ; |499| 
    1569 000003b2 9204!         MOV       AL,@_config+4         ; |493| 
    1570 000003b3 93A9          MOV       AH,AL                 ; |493| 
    1571 000003b4 D009          MOVB      XAR0,#9               ; |493| 
    1572 000003b5 FFD7          LSR       AH,8                  ; |493| 
    1573 000003b6 9793          MOV       *+XAR3[AR0],AH        ; |493| 
    1574 000003b7 90FF          ANDB      AL,#255               ; |494| 
    1575 000003b8 D00A          MOVB      XAR0,#10              ; |494| 
    1576 000003b9 761F!         MOVW      DP,#_config+5
         000003ba 0000 
    1577 000003bb 9693          MOV       *+XAR3[AR0],AL        ; |494| 
    1578 000003bc 9205!         MOV       AL,@_config+5         ; |496| 
    1579 000003bd 93A9          MOV       AH,AL                 ; |496| 
    1580 000003be D00B          MOVB      XAR0,#11              ; |496| 
    1581 000003bf FFD7          LSR       AH,8                  ; |496| 
    1582 000003c0 9793          MOV       *+XAR3[AR0],AH        ; |496| 
    1583 000003c1 90FF          ANDB      AL,#255               ; |497| 
    1584 000003c2 D00C          MOVB      XAR0,#12              ; |497| 
    1585 000003c3 9693          MOV       *+XAR3[AR0],AL        ; |497| 
    1586 000003c4 9A0D          MOVB      AL,#13                ; |499| 
    1587 000003c5 7640!         LCR       #_CalcCRC             ; |499| 
         000003c6 0000 
    1588                      ; call occurs [#_CalcCRC] ; |499| 
    1589 000003c7 D00D          MOVB      XAR0,#13              ; |500| 
    1590 000003c8 9242          MOV       AL,*-SP[2]            ; |500| 
    1591 000003c9 9693          MOV       *+XAR3[AR0],AL        ; |500| 
    1592 000003ca D00E          MOVB      XAR0,#14              ; |501| 
    1593 000003cb 9241          MOV       AL,*-SP[1]            ; |501| 
    1594 000003cc 8AA3          MOVL      XAR4,XAR3             ; |502| 
    1595 000003cd 9693          MOV       *+XAR3[AR0],AL        ; |501| 
    1596 000003ce 9A0F          MOVB      AL,#15                ; |502| 
    1597 000003cf 7640!         LCR       #_MastertoSlaveSendBuffer ; |502| 
         000003d0 0000 
    1598                      ; call occurs [#_MastertoSlaveSendBuffer] ; |502| 
    1599 000003d1 761F-         MOVW      DP,#_slave485mb+69
         000003d2 0003 
    1600 000003d3 0A05-         INC       @_slave485mb+69       ; |504| 
TMS320C2000 COFF Assembler PC v4.1.3 Thu Aug 18 12:16:31 2016

Tools Copyright (c) 1996-2006 Texas Instruments Incorporated
slave485.asm                                                         PAGE   35

    1601 000003d4 761F!         MOVW      DP,#_timers+5
         000003d5 0000 
    1602 000003d6 FE82          SUBB      SP,#2
    1603 000003d7 2805!         MOV       @_timers+5,#200       ; |505| 
         000003d8 00C8 
    1604 000003d9 761F-         MOVW      DP,#_receivingmode
         000003da 0001 
    1605 000003db 2824-         MOV       @_receivingmode,#2    ; |506| 
         000003dc 0002 
    1606 000003dd 82BE          MOVL      XAR3,*--SP
    1607                      .dwpsn  "slave485.c",507,1
    1608 000003de 0006          LRETR
    1609                      ; return occurs
    1610                      .dwattr DW$112, DW_AT_end_file("slave485.c")
    1611                      .dwattr DW$112, DW_AT_end_line(0x1fb)
    1612                      .dwattr DW$112, DW_AT_end_column(0x01)
    1613                      .dwendtag DW$112
    1614              
    1615 000003df               .sect   ".text"
    1616                      .global _ReadChannelResults
    1617              
    1618              DW$113  .dwtag  DW_TAG_subprogram, DW_AT_name("ReadChannelResults"), DW_AT_symbol_name("_ReadChannelResults")
    1619                      .dwattr DW$113, DW_AT_low_pc(_ReadChannelResults)
    1620                      .dwattr DW$113, DW_AT_high_pc(0x00)
    1621                      .dwattr DW$113, DW_AT_begin_file("slave485.c")
    1622                      .dwattr DW$113, DW_AT_begin_line(0x202)
    1623                      .dwattr DW$113, DW_AT_begin_column(0x06)
    1624                      .dwattr DW$113, DW_AT_frame_base[DW_OP_breg20 -6]
    1625                      .dwattr DW$113, DW_AT_skeletal(0x01)
    1626                      .dwpsn  "slave485.c",515,1
    1627              
    1628              ;***************************************************************
    1629              ;* FNAME: _ReadChannelResults           FR SIZE:   4           *
    1630              ;*                                                             *
    1631              ;* FUNCTION ENVIRONMENT                                        *
    1632              ;*                                                             *
    1633              ;* FUNCTION PROPERTIES                                         *
    1634              ;*                            0 Parameter,  2 Auto,  2 SOE     *
    1635              ;***************************************************************
    1636              
    1637 000003df       _ReadChannelResults:
    1638 000003df 0201          MOVB      ACC,#1
    1639 000003e0 761F!         MOVW      DP,#_config+14
         000003e1 0000 
    1640 000003e2 A2BD          MOVL      *SP++,XAR3
    1641 000003e3 5601!         ADDL      @_config+14,ACC       ; |518| 
         000003e4 000E 
    1642 000003e5 FE02          ADDB      SP,#2
    1643 000003e6 761F!         MOVW      DP,#_settings+13
         000003e7 0000 
    1644 000003e8 920D!         MOV       AL,@_settings+13      ; |520| 
    1645 000003e9 5201          CMPB      AL,#1                 ; |520| 
    1646 000003ea ED04          BF        L64,NEQ               ; |520| 
    1647                      ; branchcc occurs ; |520| 
    1648 000003eb 9AF3          MOVB      AL,#243               ; |520| 
TMS320C2000 COFF Assembler PC v4.1.3 Thu Aug 18 12:16:31 2016

Tools Copyright (c) 1996-2006 Texas Instruments Incorporated
slave485.asm                                                         PAGE   36

    1649 000003ec 56CF          BF        L65,UNC               ; |520| 
         000003ed 0003 
    1650                      ; branch occurs ; |520| 
    1651 000003ee       L64:    
    1652 000003ee 9A03          MOVB      AL,#3                 ; |520| 
    1653 000003ef       L65:    
    1654 000003ef 761F-         MOVW      DP,#_slaveresponsemsg+1
         000003f0 0000 
    1655 000003f1 8DC0-         MOVL      XAR3,#_slaveresponsemsg ; |524| 
         000003f2 0000 
    1656 000003f3 9601-         MOV       @_slaveresponsemsg+1,AL ; |520| 
    1657 000003f4 5DAD          MOVZ      AR5,SP                ; |541| 
    1658 000003f5 28C3          MOV       *+XAR3[0],#1          ; |531| 
         000003f6 0001 
    1659 000003f7 9A06          MOVB      AL,#6                 ; |541| 
    1660 000003f8 8AA3          MOVL      XAR4,XAR3             ; |541| 
    1661 000003f9 2BD3          MOV       *+XAR3[2],#0          ; |533| 
    1662 000003fa DD82          SUBB      XAR5,#2               ; |541| 
    1663 000003fb 2BDB          MOV       *+XAR3[3],#0          ; |534| 
    1664 000003fc 2BE3          MOV       *+XAR3[4],#0          ; |535| 
    1665 000003fd 28EB          MOV       *+XAR3[5],#61         ; |536| 
         000003fe 003D 
    1666 000003ff 7640!         LCR       #_CalcCRC             ; |541| 
         00000400 0000 
    1667                      ; call occurs [#_CalcCRC] ; |541| 
    1668 00000401 9242          MOV       AL,*-SP[2]            ; |542| 
    1669 00000402 96F3          MOV       *+XAR3[6],AL          ; |542| 
    1670 00000403 9241          MOV       AL,*-SP[1]            ; |543| 
    1671 00000404 8AA3          MOVL      XAR4,XAR3             ; |545| 
    1672 00000405 96FB          MOV       *+XAR3[7],AL          ; |543| 
    1673 00000406 9A08          MOVB      AL,#8                 ; |545| 
    1674 00000407 7640!         LCR       #_MastertoSlaveSendBuffer ; |545| 
         00000408 0000 
    1675                      ; call occurs [#_MastertoSlaveSendBuffer] ; |545| 
    1676 00000409 761F-         MOVW      DP,#_slave485mb+69
         0000040a 0003 
    1677 0000040b 0A05-         INC       @_slave485mb+69       ; |546| 
    1678 0000040c 761F!         MOVW      DP,#_timers+5
         0000040d 0000 
    1679 0000040e FE82          SUBB      SP,#2
    1680 0000040f 2805!         MOV       @_timers+5,#200       ; |547| 
         00000410 00C8 
    1681 00000411 761F-         MOVW      DP,#_receivingmode
         00000412 0001 
    1682 00000413 2824-         MOV       @_receivingmode,#1    ; |548| 
         00000414 0001 
    1683 00000415 82BE          MOVL      XAR3,*--SP
    1684                      .dwpsn  "slave485.c",549,1
    1685 00000416 0006          LRETR
    1686                      ; return occurs
    1687                      .dwattr DW$113, DW_AT_end_file("slave485.c")
    1688                      .dwattr DW$113, DW_AT_end_line(0x225)
    1689                      .dwattr DW$113, DW_AT_end_column(0x01)
    1690                      .dwendtag DW$113
    1691              
TMS320C2000 COFF Assembler PC v4.1.3 Thu Aug 18 12:16:31 2016

Tools Copyright (c) 1996-2006 Texas Instruments Incorporated
slave485.asm                                                         PAGE   37

    1692 00000417               .sect   ".text"
    1693                      .global _ProcessSlaveChanResponse
    1694              
    1695              DW$114  .dwtag  DW_TAG_subprogram, DW_AT_name("ProcessSlaveChanResponse"), DW_AT_symbol_name("_ProcessSlaveCh
    1696                      .dwattr DW$114, DW_AT_low_pc(_ProcessSlaveChanResponse)
    1697                      .dwattr DW$114, DW_AT_high_pc(0x00)
    1698                      .dwattr DW$114, DW_AT_begin_file("slave485.c")
    1699                      .dwattr DW$114, DW_AT_begin_line(0x22a)
    1700                      .dwattr DW$114, DW_AT_begin_column(0x06)
    1701                      .dwattr DW$114, DW_AT_frame_base[DW_OP_breg20 -8]
    1702                      .dwattr DW$114, DW_AT_skeletal(0x01)
    1703                      .dwpsn  "slave485.c",555,1
    1704              
    1705              ;***************************************************************
    1706              ;* FNAME: _ProcessSlaveChanResponse     FR SIZE:   6           *
    1707              ;*                                                             *
    1708              ;* FUNCTION ENVIRONMENT                                        *
    1709              ;*                                                             *
    1710              ;* FUNCTION PROPERTIES                                         *
    1711              ;*                            0 Parameter,  0 Auto,  6 SOE     *
    1712              ;***************************************************************
    1713              
    1714 00000417       _ProcessSlaveChanResponse:
    1715 00000417 B2BD          MOVL      *SP++,XAR1
    1716 00000418 AABD          MOVL      *SP++,XAR2
    1717 00000419 D103          MOVB      XAR1,#3               ; |562| 
    1718 0000041a A2BD          MOVL      *SP++,XAR3
    1719 0000041b D200          MOVB      XAR2,#0
    1720                      .dwpsn  "slave485.c",564,0
    1721 0000041c D300          MOVB      XAR3,#0
    1722              L66:    
    1723              DW$L$_ProcessSlaveChanResponse$2$B:
    1724                      .dwpsn  "slave485.c",565,0
    1725 0000041d 8F00!         MOVL      XAR4,#_receiveA+9     ; |566| 
         0000041e 0009 
    1726 0000041f 5603          MOV       ACC,*+XAR4[AR1] << #8 ; |566| 
         00000420 089C 
    1727 00000421 D901          ADDB      XAR1,#1               ; |568| 
    1728 00000422 88A9          MOVZ      AR6,AL                ; |566| 
    1729 00000423 761F!         MOVW      DP,#_allsensors+2
         00000424 0000 
    1730 00000425 929C          MOV       AL,*+XAR4[AR1]        ; |568| 
    1731 00000426 90FF          ANDB      AL,#0xff              ; |568| 
    1732 00000427 72A6          ADD       AR6,AL                ; |568| 
    1733 00000428 92A3          MOV       AL,AR3                ; |568| 
    1734 00000429 5402!         CMP       AL,@_allsensors+2     ; |569| 
    1735 0000042a 56C7          BF        L68,HIS               ; |569| 
         0000042b 000F 
    1736                      ; branchcc occurs ; |569| 
    1737 0000042c       DW$L$_ProcessSlaveChanResponse$2$E:
    1738 0000042c       DW$L$_ProcessSlaveChanResponse$3$B:
    1739 0000042c 93A6          MOV       AH,AR6
    1740 0000042d 1BA8          CMP       AH,#32767             ; |572| 
         0000042e 7FFF 
    1741 0000042f ED04          BF        L67,NEQ               ; |572| 
TMS320C2000 COFF Assembler PC v4.1.3 Thu Aug 18 12:16:31 2016

Tools Copyright (c) 1996-2006 Texas Instruments Incorporated
slave485.asm                                                         PAGE   38

    1742                      ; branchcc occurs ; |572| 
    1743 00000430       DW$L$_ProcessSlaveChanResponse$3$E:
    1744 00000430       DW$L$_ProcessSlaveChanResponse$4$B:
    1745 00000430 D201          MOVB      XAR2,#1               ; |576| 
    1746 00000431 56CF          BF        L68,UNC               ; |576| 
         00000432 0008 
    1747                      ; branch occurs ; |576| 
    1748 00000433       DW$L$_ProcessSlaveChanResponse$4$E:
    1749 00000433       L67:    
    1750 00000433       DW$L$_ProcessSlaveChanResponse$5$B:
    1751 00000433 761F!         MOVW      DP,#_allsensors+1
         00000434 0000 
    1752 00000435 9201!         MOV       AL,@_allsensors+1     ; |574| 
    1753 00000436 94A3          ADD       AL,AR3                ; |574| 
    1754 00000437 7640!         LCR       #_SetScaledValue      ; |574| 
         00000438 0000 
    1755                      ; call occurs [#_SetScaledValue] ; |574| 
    1756 00000439       DW$L$_ProcessSlaveChanResponse$5$E:
    1757 00000439       L68:    
    1758 00000439       DW$L$_ProcessSlaveChanResponse$6$B:
    1759 00000439 DB01          ADDB      XAR3,#1               ; |564| 
    1760 0000043a 92A3          MOV       AL,AR3                ; |564| 
    1761 0000043b D901          ADDB      XAR1,#1               ; |579| 
    1762 0000043c 520E          CMPB      AL,#14                ; |564| 
    1763                      .dwpsn  "slave485.c",580,0
    1764 0000043d 56C8          BF        L66,LO                ; |564| 
         0000043e FFE0 
    1765                      ; branchcc occurs ; |564| 
    1766              DW$L$_ProcessSlaveChanResponse$6$E:
    1767                      .dwpsn  "slave485.c",583,0
    1768 0000043f D300          MOVB      XAR3,#0
    1769              L69:    
    1770              DW$L$_ProcessSlaveChanResponse$8$B:
    1771                      .dwpsn  "slave485.c",584,0
    1772 00000440 8F00!         MOVL      XAR4,#_receiveA+9     ; |585| 
         00000441 0009 
    1773 00000442 5603          MOV       ACC,*+XAR4[AR1] << #8 ; |585| 
         00000443 089C 
    1774 00000444 D901          ADDB      XAR1,#1               ; |587| 
    1775 00000445 88A9          MOVZ      AR6,AL                ; |585| 
    1776 00000446 761F!         MOVW      DP,#_allsensors+2
         00000447 0000 
    1777 00000448 929C          MOV       AL,*+XAR4[AR1]        ; |587| 
    1778 00000449 90FF          ANDB      AL,#0xff              ; |587| 
    1779 0000044a 72A6          ADD       AR6,AL                ; |587| 
    1780 0000044b 92A3          MOV       AL,AR3                ; |588| 
    1781 0000044c D901          ADDB      XAR1,#1               ; |588| 
    1782 0000044d 5402!         CMP       AL,@_allsensors+2     ; |589| 
    1783 0000044e 56C7          BF        L70,HIS               ; |589| 
         0000044f 0009 
    1784                      ; branchcc occurs ; |589| 
    1785 00000450       DW$L$_ProcessSlaveChanResponse$8$E:
    1786 00000450       DW$L$_ProcessSlaveChanResponse$9$B:
    1787 00000450 761F!         MOVW      DP,#_allsensors+1
         00000451 0000 
TMS320C2000 COFF Assembler PC v4.1.3 Thu Aug 18 12:16:31 2016

Tools Copyright (c) 1996-2006 Texas Instruments Incorporated
slave485.asm                                                         PAGE   39

    1788 00000452 9201!         MOV       AL,@_allsensors+1     ; |593| 
    1789 00000453 94A3          ADD       AL,AR3                ; |593| 
    1790 00000454 93A6          MOV       AH,AR6                ; |593| 
    1791 00000455 7640'         LCR       #_StoreSPU2Status     ; |593| 
         00000456 04DB 
    1792                      ; call occurs [#_StoreSPU2Status] ; |593| 
    1793 00000457       DW$L$_ProcessSlaveChanResponse$9$E:
    1794 00000457       L70:    
    1795 00000457       DW$L$_ProcessSlaveChanResponse$10$B:
    1796 00000457 DB01          ADDB      XAR3,#1               ; |583| 
    1797 00000458 92A3          MOV       AL,AR3                ; |583| 
    1798 00000459 520E          CMPB      AL,#14                ; |583| 
    1799                      .dwpsn  "slave485.c",595,0
    1800 0000045a 56C8          BF        L69,LO                ; |583| 
         0000045b FFE6 
    1801                      ; branchcc occurs ; |583| 
    1802 0000045c       DW$L$_ProcessSlaveChanResponse$10$E:
    1803 0000045c 28AC          MOV       T,#18                 ; |602| 
         0000045d 0012 
    1804                      .dwpsn  "slave485.c",597,0
    1805 0000045e D300          MOVB      XAR3,#0
    1806              L71:    
    1807              DW$L$_ProcessSlaveChanResponse$12$B:
    1808                      .dwpsn  "slave485.c",598,0
    1809 0000045f 8F00!         MOVL      XAR4,#_receiveA+9     ; |599| 
         00000460 0009 
    1810 00000461 5603          MOV       ACC,*+XAR4[AR1] << #8 ; |599| 
         00000462 089C 
    1811 00000463 D901          ADDB      XAR1,#1               ; |601| 
    1812 00000464 88A9          MOVZ      AR6,AL                ; |599| 
    1813 00000465 761F!         MOVW      DP,#_allsensors+1
         00000466 0000 
    1814 00000467 929C          MOV       AL,*+XAR4[AR1]        ; |601| 
    1815 00000468 90FF          ANDB      AL,#0xff              ; |601| 
    1816 00000469 72A6          ADD       AR6,AL                ; |601| 
    1817 0000046a 9201!         MOV       AL,@_allsensors+1     ; |602| 
    1818 0000046b 94A3          ADD       AL,AR3                ; |602| 
    1819 0000046c 8F00!         MOVL      XAR4,#_sensor+17      ; |602| 
         0000046d 0011 
    1820 0000046e 30A9          MPYXU     ACC,T,AL              ; |602| 
    1821 0000046f DB01          ADDB      XAR3,#1               ; |597| 
    1822 00000470 5601          ADDL      XAR4,ACC
         00000471 00A4 
    1823 00000472 92A3          MOV       AL,AR3                ; |597| 
    1824 00000473 D901          ADDB      XAR1,#1               ; |603| 
    1825 00000474 5204          CMPB      AL,#4                 ; |597| 
    1826 00000475 7EC4          MOV       *+XAR4[0],AR6         ; |602| 
    1827                      .dwpsn  "slave485.c",604,0
    1828 00000476 56C8          BF        L71,LO                ; |597| 
         00000477 FFE9 
    1829                      ; branchcc occurs ; |597| 
    1830              DW$L$_ProcessSlaveChanResponse$12$E:
    1831                      .dwpsn  "slave485.c",607,0
    1832 00000478 D300          MOVB      XAR3,#0
    1833              L72:    
TMS320C2000 COFF Assembler PC v4.1.3 Thu Aug 18 12:16:31 2016

Tools Copyright (c) 1996-2006 Texas Instruments Incorporated
slave485.asm                                                         PAGE   40

    1834              DW$L$_ProcessSlaveChanResponse$14$B:
    1835                      .dwpsn  "slave485.c",608,0
    1836 00000479 8F00!         MOVL      XAR4,#_receiveA+9     ; |609| 
         0000047a 0009 
    1837 0000047b 5603          MOV       ACC,*+XAR4[AR1] << #8 ; |609| 
         0000047c 089C 
    1838 0000047d 88A9          MOVZ      AR6,AL                ; |609| 
    1839 0000047e D901          ADDB      XAR1,#1               ; |611| 
    1840 0000047f 929C          MOV       AL,*+XAR4[AR1]        ; |611| 
    1841 00000480 90FF          ANDB      AL,#0xff              ; |611| 
    1842 00000481 72A6          ADD       AR6,AL                ; |611| 
    1843 00000482 92A3          MOV       AL,AR3                ; |611| 
    1844 00000483 ED09          BF        L73,NEQ               ; |612| 
    1845                      ; branchcc occurs ; |612| 
    1846 00000484       DW$L$_ProcessSlaveChanResponse$14$E:
    1847 00000484       DW$L$_ProcessSlaveChanResponse$15$B:
    1848 00000484 93A6          MOV       AH,AR6
    1849 00000485 CDA8          AND       AH,AH,#0x8000         ; |612| 
         00000486 8000 
    1850 00000487 EC05          BF        L73,EQ                ; |612| 
    1851                      ; branchcc occurs ; |612| 
    1852 00000488       DW$L$_ProcessSlaveChanResponse$15$E:
    1853 00000488       DW$L$_ProcessSlaveChanResponse$16$B:
    1854 00000488 761F!         MOVW      DP,#_allsensors+16
         00000489 0000 
    1855 0000048a 1A10!         OR        @_allsensors+16,#0x0008 ; |614| 
         0000048b 0008 
    1856 0000048c       DW$L$_ProcessSlaveChanResponse$16$E:
    1857 0000048c       L73:    
    1858 0000048c       DW$L$_ProcessSlaveChanResponse$17$B:
    1859 0000048c 93A6          MOV       AH,AR6
    1860 0000048d 761F!         MOVW      DP,#_allsensors+2
         0000048e 0000 
    1861 0000048f 18A8          AND       AH,#0x7fff            ; |616| 
         00000490 7FFF 
    1862 00000491 5402!         CMP       AL,@_allsensors+2     ; |617| 
    1863 00000492 56C7          BF        L75,HIS               ; |617| 
         00000493 000C 
    1864                      ; branchcc occurs ; |617| 
    1865 00000494       DW$L$_ProcessSlaveChanResponse$17$E:
    1866 00000494       DW$L$_ProcessSlaveChanResponse$18$B:
    1867 00000494 92A2          MOV       AL,AR2
    1868 00000495 5201          CMPB      AL,#1                 ; |620| 
    1869 00000496 ED02          BF        L74,NEQ               ; |620| 
    1870                      ; branchcc occurs ; |620| 
    1871 00000497       DW$L$_ProcessSlaveChanResponse$18$E:
    1872 00000497       DW$L$_ProcessSlaveChanResponse$19$B:
    1873 00000497 9B00          MOVB      AH,#0
    1874 00000498       DW$L$_ProcessSlaveChanResponse$19$E:
    1875 00000498       L74:    
    1876 00000498       DW$L$_ProcessSlaveChanResponse$20$B:
    1877 00000498 761F!         MOVW      DP,#_allsensors+1
         00000499 0000 
    1878 0000049a 9201!         MOV       AL,@_allsensors+1     ; |621| 
    1879 0000049b 94A3          ADD       AL,AR3                ; |621| 
TMS320C2000 COFF Assembler PC v4.1.3 Thu Aug 18 12:16:31 2016

Tools Copyright (c) 1996-2006 Texas Instruments Incorporated
slave485.asm                                                         PAGE   41

    1880 0000049c 7640!         LCR       #_SetRPMChan          ; |621| 
         0000049d 0000 
    1881                      ; call occurs [#_SetRPMChan] ; |621| 
    1882 0000049e       DW$L$_ProcessSlaveChanResponse$20$E:
    1883 0000049e       L75:    
    1884 0000049e       DW$L$_ProcessSlaveChanResponse$21$B:
    1885 0000049e DB01          ADDB      XAR3,#1               ; |607| 
    1886 0000049f 92A3          MOV       AL,AR3                ; |607| 
    1887 000004a0 D901          ADDB      XAR1,#1               ; |623| 
    1888 000004a1 520E          CMPB      AL,#14                ; |607| 
    1889                      .dwpsn  "slave485.c",624,0
    1890 000004a2 56C8          BF        L72,LO                ; |607| 
         000004a3 FFD7 
    1891                      ; branchcc occurs ; |607| 
    1892 000004a4       DW$L$_ProcessSlaveChanResponse$21$E:
    1893 000004a4 8F00!         MOVL      XAR4,#_receiveA+9     ; |626| 
         000004a5 0009 
    1894 000004a6 5603          MOV       ACC,*+XAR4[AR1] << #8 ; |626| 
         000004a7 089C 
    1895 000004a8 88A9          MOVZ      AR6,AL                ; |626| 
    1896 000004a9 D901          ADDB      XAR1,#1               ; |628| 
    1897 000004aa 929C          MOV       AL,*+XAR4[AR1]        ; |628| 
    1898 000004ab 90FF          ANDB      AL,#0xff              ; |628| 
    1899 000004ac 94A6          ADD       AL,AR6                ; |628| 
    1900 000004ad 7640!         LCR       #_SetSlaveVersion     ; |630| 
         000004ae 0000 
    1901                      ; call occurs [#_SetSlaveVersion] ; |630| 
    1902 000004af D300          MOVB      XAR3,#0
    1903                      .dwpsn  "slave485.c",632,0
    1904 000004b0 D901          ADDB      XAR1,#1               ; |631| 
    1905              L76:    
    1906              DW$L$_ProcessSlaveChanResponse$23$B:
    1907                      .dwpsn  "slave485.c",633,0
    1908 000004b1 8F00!         MOVL      XAR4,#_receiveA+9     ; |634| 
         000004b2 0009 
    1909 000004b3 5603          MOV       ACC,*+XAR4[AR1] << #8 ; |634| 
         000004b4 089C 
    1910 000004b5 D901          ADDB      XAR1,#1               ; |636| 
    1911 000004b6 88A9          MOVZ      AR6,AL                ; |634| 
    1912 000004b7 761F!         MOVW      DP,#_allsensors+2
         000004b8 0000 
    1913 000004b9 929C          MOV       AL,*+XAR4[AR1]        ; |636| 
    1914 000004ba 90FF          ANDB      AL,#0xff              ; |636| 
    1915 000004bb 72A6          ADD       AR6,AL                ; |636| 
    1916 000004bc 92A3          MOV       AL,AR3                ; |636| 
    1917 000004bd 5402!         CMP       AL,@_allsensors+2     ; |637| 
    1918 000004be 56C7          BF        L77,HIS               ; |637| 
         000004bf 000C 
    1919                      ; branchcc occurs ; |637| 
    1920 000004c0       DW$L$_ProcessSlaveChanResponse$23$E:
    1921 000004c0       DW$L$_ProcessSlaveChanResponse$24$B:
    1922 000004c0 93A6          MOV       AH,AR6
    1923 000004c1 1BA8          CMP       AH,#32767             ; |637| 
         000004c2 7FFF 
    1924 000004c3 EC07          BF        L77,EQ                ; |637| 
TMS320C2000 COFF Assembler PC v4.1.3 Thu Aug 18 12:16:31 2016

Tools Copyright (c) 1996-2006 Texas Instruments Incorporated
slave485.asm                                                         PAGE   42

    1925                      ; branchcc occurs ; |637| 
    1926 000004c4       DW$L$_ProcessSlaveChanResponse$24$E:
    1927 000004c4       DW$L$_ProcessSlaveChanResponse$25$B:
    1928 000004c4 761F!         MOVW      DP,#_allsensors+1
         000004c5 0000 
    1929 000004c6 9201!         MOV       AL,@_allsensors+1     ; |642| 
    1930 000004c7 94A3          ADD       AL,AR3                ; |642| 
    1931 000004c8 7640!         LCR       #_SetImmScaledValue   ; |642| 
         000004c9 0000 
    1932                      ; call occurs [#_SetImmScaledValue] ; |642| 
    1933 000004ca       DW$L$_ProcessSlaveChanResponse$25$E:
    1934 000004ca       L77:    
    1935 000004ca       DW$L$_ProcessSlaveChanResponse$26$B:
    1936 000004ca DB01          ADDB      XAR3,#1               ; |632| 
    1937 000004cb 92A3          MOV       AL,AR3                ; |632| 
    1938 000004cc D901          ADDB      XAR1,#1               ; |646| 
    1939 000004cd 520E          CMPB      AL,#14                ; |632| 
    1940                      .dwpsn  "slave485.c",647,0
    1941 000004ce 56C8          BF        L76,LO                ; |632| 
         000004cf FFE3 
    1942                      ; branchcc occurs ; |632| 
    1943 000004d0       DW$L$_ProcessSlaveChanResponse$26$E:
    1944 000004d0 9B00          MOVB      AH,#0
    1945 000004d1 92A2          MOV       AL,AR2                ; |650| 
    1946 000004d2 EC02          BF        L78,EQ                ; |650| 
    1947                      ; branchcc occurs ; |650| 
    1948 000004d3 9B01          MOVB      AH,#1                 ; |650| 
    1949 000004d4       L78:    
    1950 000004d4 761F-         MOVW      DP,#_slave485mb+71
         000004d5 0003 
    1951 000004d6 9707-         MOV       @_slave485mb+71,AH    ; |650| 
    1952 000004d7 82BE          MOVL      XAR3,*--SP
    1953 000004d8 86BE          MOVL      XAR2,*--SP
    1954 000004d9 8BBE          MOVL      XAR1,*--SP
    1955                      .dwpsn  "slave485.c",658,1
    1956 000004da 0006          LRETR
    1957                      ; return occurs
    1958              
    1959              DW$115  .dwtag  DW_TAG_loop
    1960                      .dwattr DW$115, DW_AT_name("D:\DEV\Amot\BearingWear\XTSW_V6_20\slave485.asm:L76:1:1471518991")
    1961                      .dwattr DW$115, DW_AT_begin_file("slave485.c")
    1962                      .dwattr DW$115, DW_AT_begin_line(0x278)
    1963                      .dwattr DW$115, DW_AT_end_line(0x287)
    1964              DW$116  .dwtag  DW_TAG_loop_range
    1965                      .dwattr DW$116, DW_AT_low_pc(DW$L$_ProcessSlaveChanResponse$23$B)
    1966                      .dwattr DW$116, DW_AT_high_pc(DW$L$_ProcessSlaveChanResponse$23$E)
    1967              DW$117  .dwtag  DW_TAG_loop_range
    1968                      .dwattr DW$117, DW_AT_low_pc(DW$L$_ProcessSlaveChanResponse$24$B)
    1969                      .dwattr DW$117, DW_AT_high_pc(DW$L$_ProcessSlaveChanResponse$24$E)
    1970              DW$118  .dwtag  DW_TAG_loop_range
    1971                      .dwattr DW$118, DW_AT_low_pc(DW$L$_ProcessSlaveChanResponse$25$B)
    1972                      .dwattr DW$118, DW_AT_high_pc(DW$L$_ProcessSlaveChanResponse$25$E)
    1973              DW$119  .dwtag  DW_TAG_loop_range
    1974                      .dwattr DW$119, DW_AT_low_pc(DW$L$_ProcessSlaveChanResponse$26$B)
    1975                      .dwattr DW$119, DW_AT_high_pc(DW$L$_ProcessSlaveChanResponse$26$E)
TMS320C2000 COFF Assembler PC v4.1.3 Thu Aug 18 12:16:31 2016

Tools Copyright (c) 1996-2006 Texas Instruments Incorporated
slave485.asm                                                         PAGE   43

    1976                      .dwendtag DW$115
    1977              
    1978              
    1979              DW$120  .dwtag  DW_TAG_loop
    1980                      .dwattr DW$120, DW_AT_name("D:\DEV\Amot\BearingWear\XTSW_V6_20\slave485.asm:L72:1:1471518991")
    1981                      .dwattr DW$120, DW_AT_begin_file("slave485.c")
    1982                      .dwattr DW$120, DW_AT_begin_line(0x25f)
    1983                      .dwattr DW$120, DW_AT_end_line(0x270)
    1984              DW$121  .dwtag  DW_TAG_loop_range
    1985                      .dwattr DW$121, DW_AT_low_pc(DW$L$_ProcessSlaveChanResponse$14$B)
    1986                      .dwattr DW$121, DW_AT_high_pc(DW$L$_ProcessSlaveChanResponse$14$E)
    1987              DW$122  .dwtag  DW_TAG_loop_range
    1988                      .dwattr DW$122, DW_AT_low_pc(DW$L$_ProcessSlaveChanResponse$18$B)
    1989                      .dwattr DW$122, DW_AT_high_pc(DW$L$_ProcessSlaveChanResponse$18$E)
    1990              DW$123  .dwtag  DW_TAG_loop_range
    1991                      .dwattr DW$123, DW_AT_low_pc(DW$L$_ProcessSlaveChanResponse$19$B)
    1992                      .dwattr DW$123, DW_AT_high_pc(DW$L$_ProcessSlaveChanResponse$19$E)
    1993              DW$124  .dwtag  DW_TAG_loop_range
    1994                      .dwattr DW$124, DW_AT_low_pc(DW$L$_ProcessSlaveChanResponse$15$B)
    1995                      .dwattr DW$124, DW_AT_high_pc(DW$L$_ProcessSlaveChanResponse$15$E)
    1996              DW$125  .dwtag  DW_TAG_loop_range
    1997                      .dwattr DW$125, DW_AT_low_pc(DW$L$_ProcessSlaveChanResponse$16$B)
    1998                      .dwattr DW$125, DW_AT_high_pc(DW$L$_ProcessSlaveChanResponse$16$E)
    1999              DW$126  .dwtag  DW_TAG_loop_range
    2000                      .dwattr DW$126, DW_AT_low_pc(DW$L$_ProcessSlaveChanResponse$17$B)
    2001                      .dwattr DW$126, DW_AT_high_pc(DW$L$_ProcessSlaveChanResponse$17$E)
    2002              DW$127  .dwtag  DW_TAG_loop_range
    2003                      .dwattr DW$127, DW_AT_low_pc(DW$L$_ProcessSlaveChanResponse$20$B)
    2004                      .dwattr DW$127, DW_AT_high_pc(DW$L$_ProcessSlaveChanResponse$20$E)
    2005              DW$128  .dwtag  DW_TAG_loop_range
    2006                      .dwattr DW$128, DW_AT_low_pc(DW$L$_ProcessSlaveChanResponse$21$B)
    2007                      .dwattr DW$128, DW_AT_high_pc(DW$L$_ProcessSlaveChanResponse$21$E)
    2008                      .dwendtag DW$120
    2009              
    2010              
    2011              DW$129  .dwtag  DW_TAG_loop
    2012                      .dwattr DW$129, DW_AT_name("D:\DEV\Amot\BearingWear\XTSW_V6_20\slave485.asm:L71:1:1471518991")
    2013                      .dwattr DW$129, DW_AT_begin_file("slave485.c")
    2014                      .dwattr DW$129, DW_AT_begin_line(0x255)
    2015                      .dwattr DW$129, DW_AT_end_line(0x25c)
    2016              DW$130  .dwtag  DW_TAG_loop_range
    2017                      .dwattr DW$130, DW_AT_low_pc(DW$L$_ProcessSlaveChanResponse$12$B)
    2018                      .dwattr DW$130, DW_AT_high_pc(DW$L$_ProcessSlaveChanResponse$12$E)
    2019                      .dwendtag DW$129
    2020              
    2021              
    2022              DW$131  .dwtag  DW_TAG_loop
    2023                      .dwattr DW$131, DW_AT_name("D:\DEV\Amot\BearingWear\XTSW_V6_20\slave485.asm:L69:1:1471518991")
    2024                      .dwattr DW$131, DW_AT_begin_file("slave485.c")
    2025                      .dwattr DW$131, DW_AT_begin_line(0x247)
    2026                      .dwattr DW$131, DW_AT_end_line(0x253)
    2027              DW$132  .dwtag  DW_TAG_loop_range
    2028                      .dwattr DW$132, DW_AT_low_pc(DW$L$_ProcessSlaveChanResponse$8$B)
    2029                      .dwattr DW$132, DW_AT_high_pc(DW$L$_ProcessSlaveChanResponse$8$E)
    2030              DW$133  .dwtag  DW_TAG_loop_range
TMS320C2000 COFF Assembler PC v4.1.3 Thu Aug 18 12:16:31 2016

Tools Copyright (c) 1996-2006 Texas Instruments Incorporated
slave485.asm                                                         PAGE   44

    2031                      .dwattr DW$133, DW_AT_low_pc(DW$L$_ProcessSlaveChanResponse$9$B)
    2032                      .dwattr DW$133, DW_AT_high_pc(DW$L$_ProcessSlaveChanResponse$9$E)
    2033              DW$134  .dwtag  DW_TAG_loop_range
    2034                      .dwattr DW$134, DW_AT_low_pc(DW$L$_ProcessSlaveChanResponse$10$B)
    2035                      .dwattr DW$134, DW_AT_high_pc(DW$L$_ProcessSlaveChanResponse$10$E)
    2036                      .dwendtag DW$131
    2037              
    2038              
    2039              DW$135  .dwtag  DW_TAG_loop
    2040                      .dwattr DW$135, DW_AT_name("D:\DEV\Amot\BearingWear\XTSW_V6_20\slave485.asm:L66:1:1471518991")
    2041                      .dwattr DW$135, DW_AT_begin_file("slave485.c")
    2042                      .dwattr DW$135, DW_AT_begin_line(0x234)
    2043                      .dwattr DW$135, DW_AT_end_line(0x244)
    2044              DW$136  .dwtag  DW_TAG_loop_range
    2045                      .dwattr DW$136, DW_AT_low_pc(DW$L$_ProcessSlaveChanResponse$2$B)
    2046                      .dwattr DW$136, DW_AT_high_pc(DW$L$_ProcessSlaveChanResponse$2$E)
    2047              DW$137  .dwtag  DW_TAG_loop_range
    2048                      .dwattr DW$137, DW_AT_low_pc(DW$L$_ProcessSlaveChanResponse$3$B)
    2049                      .dwattr DW$137, DW_AT_high_pc(DW$L$_ProcessSlaveChanResponse$3$E)
    2050              DW$138  .dwtag  DW_TAG_loop_range
    2051                      .dwattr DW$138, DW_AT_low_pc(DW$L$_ProcessSlaveChanResponse$4$B)
    2052                      .dwattr DW$138, DW_AT_high_pc(DW$L$_ProcessSlaveChanResponse$4$E)
    2053              DW$139  .dwtag  DW_TAG_loop_range
    2054                      .dwattr DW$139, DW_AT_low_pc(DW$L$_ProcessSlaveChanResponse$5$B)
    2055                      .dwattr DW$139, DW_AT_high_pc(DW$L$_ProcessSlaveChanResponse$5$E)
    2056              DW$140  .dwtag  DW_TAG_loop_range
    2057                      .dwattr DW$140, DW_AT_low_pc(DW$L$_ProcessSlaveChanResponse$6$B)
    2058                      .dwattr DW$140, DW_AT_high_pc(DW$L$_ProcessSlaveChanResponse$6$E)
    2059                      .dwendtag DW$135
    2060              
    2061                      .dwattr DW$114, DW_AT_end_file("slave485.c")
    2062                      .dwattr DW$114, DW_AT_end_line(0x292)
    2063                      .dwattr DW$114, DW_AT_end_column(0x01)
    2064                      .dwendtag DW$114
    2065              
    2066 000004db               .sect   ".text"
    2067                      .global _StoreSPU2Status
    2068              
    2069              DW$141  .dwtag  DW_TAG_subprogram, DW_AT_name("StoreSPU2Status"), DW_AT_symbol_name("_StoreSPU2Status")
    2070                      .dwattr DW$141, DW_AT_low_pc(_StoreSPU2Status)
    2071                      .dwattr DW$141, DW_AT_high_pc(0x00)
    2072                      .dwattr DW$141, DW_AT_begin_file("slave485.c")
    2073                      .dwattr DW$141, DW_AT_begin_line(0x297)
    2074                      .dwattr DW$141, DW_AT_begin_column(0x06)
    2075                      .dwattr DW$141, DW_AT_frame_base[DW_OP_breg20 -4]
    2076                      .dwattr DW$141, DW_AT_skeletal(0x01)
    2077                      .dwpsn  "slave485.c",664,1
    2078              
    2079              ;***************************************************************
    2080              ;* FNAME: _StoreSPU2Status              FR SIZE:   2           *
    2081              ;*                                                             *
    2082              ;* FUNCTION ENVIRONMENT                                        *
    2083              ;*                                                             *
    2084              ;* FUNCTION PROPERTIES                                         *
    2085              ;*                            0 Parameter,  0 Auto,  2 SOE     *
TMS320C2000 COFF Assembler PC v4.1.3 Thu Aug 18 12:16:31 2016

Tools Copyright (c) 1996-2006 Texas Instruments Incorporated
slave485.asm                                                         PAGE   45

    2086              ;***************************************************************
    2087              
    2088              _StoreSPU2Status:
    2089              ;* AL    assigned to _chan
    2090              DW$142  .dwtag  DW_TAG_formal_parameter, DW_AT_name("chan"), DW_AT_symbol_name("_chan")
    2091                      .dwattr DW$142, DW_AT_type(*DW$T$11)
    2092                      .dwattr DW$142, DW_AT_location[DW_OP_reg0]
    2093              ;* AH    assigned to _val
    2094              DW$143  .dwtag  DW_TAG_formal_parameter, DW_AT_name("val"), DW_AT_symbol_name("_val")
    2095                      .dwattr DW$143, DW_AT_type(*DW$T$11)
    2096                      .dwattr DW$143, DW_AT_location[DW_OP_reg1]
    2097 000004db B2BD          MOVL      *SP++,XAR1
    2098 000004dc 59A8          MOVZ      AR1,AH                ; |664| 
    2099 000004dd 7640!         LCR       #_Status3Flags        ; |669| 
         000004de 0000 
    2100                      ; call occurs [#_Status3Flags] ; |669| 
    2101 000004df CCA1          AND       AL,AR1,#0x0001        ; |671| 
         000004e0 0001 
    2102 000004e1 CDC4          AND       AH,*+XAR4[0],#0xfffe  ; |671| 
         000004e2 FFFE 
    2103 000004e3 CAA8          OR        AL,AH                 ; |671| 
    2104 000004e4 CDA9          AND       AH,AL,#0xfffd         ; |672| 
         000004e5 FFFD 
    2105 000004e6 96C4          MOV       *+XAR4[0],AL          ; |671| 
    2106 000004e7 CCA1          AND       AL,AR1,#0x0002        ; |672| 
         000004e8 0002 
    2107 000004e9 CAA8          OR        AL,AH                 ; |672| 
    2108 000004ea CDA9          AND       AH,AL,#0xfffb         ; |673| 
         000004eb FFFB 
    2109 000004ec 96C4          MOV       *+XAR4[0],AL          ; |672| 
    2110 000004ed CCA1          AND       AL,AR1,#0x0004        ; |673| 
         000004ee 0004 
    2111 000004ef CAA8          OR        AL,AH                 ; |673| 
    2112 000004f0 96C4          MOV       *+XAR4[0],AL          ; |673| 
    2113 000004f1 8BBE          MOVL      XAR1,*--SP
    2114                      .dwpsn  "slave485.c",677,1
    2115 000004f2 0006          LRETR
    2116                      ; return occurs
    2117                      .dwattr DW$141, DW_AT_end_file("slave485.c")
    2118                      .dwattr DW$141, DW_AT_end_line(0x2a5)
    2119                      .dwattr DW$141, DW_AT_end_column(0x01)
    2120                      .dwendtag DW$141
    2121              
    2122              ;***************************************************************
    2123              ;* UNDEFINED EXTERNAL REFERENCES                               *
    2124              ;***************************************************************
    2125                      .global _memset
    2126                      .global _MastertoSlaveSendBuffer
    2127                      .global _CalcCRC
    2128                      .global _SetSlaveVersion
    2129                      .global _SetRPMChan
    2130                      .global _GetRPM
    2131                      .global _SetImmScaledValue
    2132                      .global _SetScaledValue
    2133                      .global _GetScaledValue
TMS320C2000 COFF Assembler PC v4.1.3 Thu Aug 18 12:16:31 2016

Tools Copyright (c) 1996-2006 Texas Instruments Incorporated
slave485.asm                                                         PAGE   46

    2134                      .global _DCModeInit
    2135                      .global _DCModeClear
    2136                      .global _Status3Flags
    2137                      .global _TxRegtoSlave
    2138                      .global _RxStatusfromSlave
    2139                      .global _ProcessReprogrammingTransferral
    2140                      .global _SaveSafeStruct1
    2141                      .global _SaveSafeStruct2
    2142                      .global _NOPDelay
    2143                      .global _settings
    2144                      .global _safe1
    2145                      .global _safe2
    2146                      .global _timers
    2147                      .global _allsensors
    2148                      .global _config
    2149                      .global _receiveA
    2150                      .global _versionreg
    2151                      .global _sensor
    2152                      .global _status3
    2153                      .global _reprogram
    2154              
    2155              ;***************************************************************
    2156              ;* TYPE INFORMATION                                            *
    2157              ;***************************************************************
    2158              DW$T$3  .dwtag  DW_TAG_pointer_type
    2159                      .dwattr DW$T$3, DW_AT_address_class(0x16)
    2160              
    2161              DW$T$64 .dwtag  DW_TAG_subroutine_type, DW_AT_type(*DW$T$3)
    2162                      .dwattr DW$T$64, DW_AT_language(DW_LANG_C)
    2163              DW$144  .dwtag  DW_TAG_formal_parameter, DW_AT_type(*DW$T$3)
    2164              DW$145  .dwtag  DW_TAG_formal_parameter, DW_AT_type(*DW$T$10)
    2165              DW$146  .dwtag  DW_TAG_formal_parameter, DW_AT_type(*DW$T$63)
    2166                      .dwendtag DW$T$64
    2167              
    2168              
    2169              DW$T$66 .dwtag  DW_TAG_subroutine_type
    2170                      .dwattr DW$T$66, DW_AT_language(DW_LANG_C)
    2171              DW$147  .dwtag  DW_TAG_formal_parameter, DW_AT_type(*DW$T$50)
    2172              DW$148  .dwtag  DW_TAG_formal_parameter, DW_AT_type(*DW$T$11)
    2173                      .dwendtag DW$T$66
    2174              
    2175              
    2176              DW$T$68 .dwtag  DW_TAG_subroutine_type
    2177                      .dwattr DW$T$68, DW_AT_language(DW_LANG_C)
    2178              DW$149  .dwtag  DW_TAG_formal_parameter, DW_AT_type(*DW$T$50)
    2179              DW$150  .dwtag  DW_TAG_formal_parameter, DW_AT_type(*DW$T$11)
    2180              DW$151  .dwtag  DW_TAG_formal_parameter, DW_AT_type(*DW$T$50)
    2181                      .dwendtag DW$T$68
    2182              
    2183              
    2184              DW$T$70 .dwtag  DW_TAG_subroutine_type
    2185                      .dwattr DW$T$70, DW_AT_language(DW_LANG_C)
    2186              DW$152  .dwtag  DW_TAG_formal_parameter, DW_AT_type(*DW$T$11)
    2187                      .dwendtag DW$T$70
    2188              
TMS320C2000 COFF Assembler PC v4.1.3 Thu Aug 18 12:16:31 2016

Tools Copyright (c) 1996-2006 Texas Instruments Incorporated
slave485.asm                                                         PAGE   47

    2189              
    2190              DW$T$72 .dwtag  DW_TAG_subroutine_type
    2191                      .dwattr DW$T$72, DW_AT_language(DW_LANG_C)
    2192              DW$153  .dwtag  DW_TAG_formal_parameter, DW_AT_type(*DW$T$11)
    2193              DW$154  .dwtag  DW_TAG_formal_parameter, DW_AT_type(*DW$T$11)
    2194                      .dwendtag DW$T$72
    2195              
    2196              
    2197              DW$T$74 .dwtag  DW_TAG_subroutine_type
    2198                      .dwattr DW$T$74, DW_AT_language(DW_LANG_C)
    2199              DW$155  .dwtag  DW_TAG_formal_parameter, DW_AT_type(*DW$T$11)
    2200              DW$156  .dwtag  DW_TAG_formal_parameter, DW_AT_type(*DW$T$10)
    2201                      .dwendtag DW$T$74
    2202              
    2203              
    2204              DW$T$76 .dwtag  DW_TAG_subroutine_type
    2205                      .dwattr DW$T$76, DW_AT_language(DW_LANG_C)
    2206              
    2207              DW$T$78 .dwtag  DW_TAG_subroutine_type
    2208                      .dwattr DW$T$78, DW_AT_language(DW_LANG_C)
    2209              DW$157  .dwtag  DW_TAG_formal_parameter, DW_AT_type(*DW$T$11)
    2210              DW$158  .dwtag  DW_TAG_formal_parameter, DW_AT_type(*DW$T$11)
    2211              DW$159  .dwtag  DW_TAG_formal_parameter, DW_AT_type(*DW$T$11)
    2212              DW$160  .dwtag  DW_TAG_formal_parameter, DW_AT_type(*DW$T$50)
    2213                      .dwendtag DW$T$78
    2214              
    2215              DW$T$10 .dwtag  DW_TAG_base_type, DW_AT_name("int")
    2216                      .dwattr DW$T$10, DW_AT_encoding(DW_ATE_signed)
    2217                      .dwattr DW$T$10, DW_AT_byte_size(0x01)
    2218              
    2219              DW$T$80 .dwtag  DW_TAG_subroutine_type, DW_AT_type(*DW$T$10)
    2220                      .dwattr DW$T$80, DW_AT_language(DW_LANG_C)
    2221              DW$161  .dwtag  DW_TAG_formal_parameter, DW_AT_type(*DW$T$11)
    2222                      .dwendtag DW$T$80
    2223              
    2224              
    2225              DW$T$82 .dwtag  DW_TAG_subroutine_type, DW_AT_type(*DW$T$10)
    2226                      .dwattr DW$T$82, DW_AT_language(DW_LANG_C)
    2227              
    2228              DW$T$84 .dwtag  DW_TAG_subroutine_type, DW_AT_type(*DW$T$10)
    2229                      .dwattr DW$T$84, DW_AT_language(DW_LANG_C)
    2230              DW$T$11 .dwtag  DW_TAG_base_type, DW_AT_name("unsigned int")
    2231                      .dwattr DW$T$11, DW_AT_encoding(DW_ATE_unsigned)
    2232                      .dwattr DW$T$11, DW_AT_byte_size(0x01)
    2233              DW$T$50 .dwtag  DW_TAG_pointer_type, DW_AT_type(*DW$T$11)
    2234                      .dwattr DW$T$50, DW_AT_address_class(0x16)
    2235              
    2236              DW$T$86 .dwtag  DW_TAG_subroutine_type, DW_AT_type(*DW$T$11)
    2237                      .dwattr DW$T$86, DW_AT_language(DW_LANG_C)
    2238              DW$162  .dwtag  DW_TAG_formal_parameter, DW_AT_type(*DW$T$11)
    2239                      .dwendtag DW$T$86
    2240              
    2241              DW$163  .dwtag  DW_TAG_far_type
    2242                      .dwattr DW$163, DW_AT_type(*DW$T$11)
    2243              DW$T$88 .dwtag  DW_TAG_const_type
TMS320C2000 COFF Assembler PC v4.1.3 Thu Aug 18 12:16:31 2016

Tools Copyright (c) 1996-2006 Texas Instruments Incorporated
slave485.asm                                                         PAGE   48

    2244                      .dwattr DW$T$88, DW_AT_type(*DW$163)
    2245              
    2246              DW$T$89 .dwtag  DW_TAG_array_type, DW_AT_type(*DW$T$11)
    2247                      .dwattr DW$T$89, DW_AT_language(DW_LANG_C)
    2248                      .dwattr DW$T$89, DW_AT_byte_size(0x64)
    2249              DW$164  .dwtag  DW_TAG_subrange_type
    2250                      .dwattr DW$164, DW_AT_upper_bound(0x63)
    2251                      .dwendtag DW$T$89
    2252              
    2253              DW$T$63 .dwtag  DW_TAG_typedef, DW_AT_name("size_t"), DW_AT_type(*DW$T$13)
    2254                      .dwattr DW$T$63, DW_AT_language(DW_LANG_C)
    2255              DW$T$93 .dwtag  DW_TAG_pointer_type, DW_AT_type(*DW$T$92)
    2256                      .dwattr DW$T$93, DW_AT_address_class(0x16)
    2257              
    2258              DW$T$94 .dwtag  DW_TAG_subroutine_type, DW_AT_type(*DW$T$93)
    2259                      .dwattr DW$T$94, DW_AT_language(DW_LANG_C)
    2260              DW$165  .dwtag  DW_TAG_formal_parameter, DW_AT_type(*DW$T$11)
    2261                      .dwendtag DW$T$94
    2262              
    2263              
    2264              DW$T$95 .dwtag  DW_TAG_array_type, DW_AT_type(*DW$T$92)
    2265                      .dwattr DW$T$95, DW_AT_language(DW_LANG_C)
    2266                      .dwattr DW$T$95, DW_AT_byte_size(0x1c)
    2267              DW$166  .dwtag  DW_TAG_subrange_type
    2268                      .dwattr DW$166, DW_AT_upper_bound(0x1b)
    2269                      .dwendtag DW$T$95
    2270              
    2271              DW$T$100        .dwtag  DW_TAG_typedef, DW_AT_name("settingsstruct"), DW_AT_type(*DW$T$21)
    2272                      .dwattr DW$T$100, DW_AT_language(DW_LANG_C)
    2273              DW$T$101        .dwtag  DW_TAG_typedef, DW_AT_name("safestruct1struct"), DW_AT_type(*DW$T$25)
    2274                      .dwattr DW$T$101, DW_AT_language(DW_LANG_C)
    2275              DW$T$102        .dwtag  DW_TAG_typedef, DW_AT_name("safestruct2struct"), DW_AT_type(*DW$T$38)
    2276                      .dwattr DW$T$102, DW_AT_language(DW_LANG_C)
    2277              DW$167  .dwtag  DW_TAG_far_type
    2278                      .dwattr DW$167, DW_AT_type(*DW$T$103)
    2279              DW$T$104        .dwtag  DW_TAG_volatile_type
    2280                      .dwattr DW$T$104, DW_AT_type(*DW$167)
    2281              DW$T$106        .dwtag  DW_TAG_typedef, DW_AT_name("allsensorstruct"), DW_AT_type(*DW$T$42)
    2282                      .dwattr DW$T$106, DW_AT_language(DW_LANG_C)
    2283              DW$T$108        .dwtag  DW_TAG_typedef, DW_AT_name("configstruct"), DW_AT_type(*DW$T$49)
    2284                      .dwattr DW$T$108, DW_AT_language(DW_LANG_C)
    2285              DW$T$109        .dwtag  DW_TAG_typedef, DW_AT_name("uartreadA"), DW_AT_type(*DW$T$53)
    2286                      .dwattr DW$T$109, DW_AT_language(DW_LANG_C)
    2287              
    2288              DW$T$112        .dwtag  DW_TAG_array_type, DW_AT_type(*DW$T$111)
    2289                      .dwattr DW$T$112, DW_AT_language(DW_LANG_C)
    2290                      .dwattr DW$T$112, DW_AT_byte_size(0x1f8)
    2291              DW$168  .dwtag  DW_TAG_subrange_type
    2292                      .dwattr DW$168, DW_AT_upper_bound(0x1b)
    2293                      .dwendtag DW$T$112
    2294              
    2295              DW$T$115        .dwtag  DW_TAG_typedef, DW_AT_name("reprogramstruct"), DW_AT_type(*DW$T$60)
    2296                      .dwattr DW$T$115, DW_AT_language(DW_LANG_C)
    2297              DW$T$116        .dwtag  DW_TAG_typedef, DW_AT_name("slavecmdstruct"), DW_AT_type(*DW$T$62)
    2298                      .dwattr DW$T$116, DW_AT_language(DW_LANG_C)
TMS320C2000 COFF Assembler PC v4.1.3 Thu Aug 18 12:16:31 2016

Tools Copyright (c) 1996-2006 Texas Instruments Incorporated
slave485.asm                                                         PAGE   49

    2299              DW$T$13 .dwtag  DW_TAG_base_type, DW_AT_name("unsigned long")
    2300                      .dwattr DW$T$13, DW_AT_encoding(DW_ATE_unsigned)
    2301                      .dwattr DW$T$13, DW_AT_byte_size(0x02)
    2302              DW$T$92 .dwtag  DW_TAG_typedef, DW_AT_name("status3struct"), DW_AT_type(*DW$T$19)
    2303                      .dwattr DW$T$92, DW_AT_language(DW_LANG_C)
    2304              
    2305              DW$T$21 .dwtag  DW_TAG_structure_type
    2306                      .dwattr DW$T$21, DW_AT_name("tag_settingsstruct")
    2307                      .dwattr DW$T$21, DW_AT_byte_size(0x24)
    2308              DW$169  .dwtag  DW_TAG_member, DW_AT_type(*DW$T$11)
    2309                      .dwattr DW$169, DW_AT_name("watchdog"), DW_AT_symbol_name("_watchdog")
    2310                      .dwattr DW$169, DW_AT_data_member_location[DW_OP_plus_uconst 0x0]
    2311                      .dwattr DW$169, DW_AT_accessibility(DW_ACCESS_public)
    2312              DW$170  .dwtag  DW_TAG_member, DW_AT_type(*DW$T$11)
    2313                      .dwattr DW$170, DW_AT_name("ledflashflag"), DW_AT_symbol_name("_ledflashflag")
    2314                      .dwattr DW$170, DW_AT_data_member_location[DW_OP_plus_uconst 0x1]
    2315                      .dwattr DW$170, DW_AT_accessibility(DW_ACCESS_public)
    2316              DW$171  .dwtag  DW_TAG_member, DW_AT_type(*DW$T$11)
    2317                      .dwattr DW$171, DW_AT_name("updatesafe"), DW_AT_symbol_name("_updatesafe")
    2318                      .dwattr DW$171, DW_AT_data_member_location[DW_OP_plus_uconst 0x2]
    2319                      .dwattr DW$171, DW_AT_accessibility(DW_ACCESS_public)
    2320              DW$172  .dwtag  DW_TAG_member, DW_AT_type(*DW$T$11)
    2321                      .dwattr DW$172, DW_AT_name("tableconfigtype"), DW_AT_symbol_name("_tableconfigtype")
    2322                      .dwattr DW$172, DW_AT_data_member_location[DW_OP_plus_uconst 0x3]
    2323                      .dwattr DW$172, DW_AT_accessibility(DW_ACCESS_public)
    2324              DW$173  .dwtag  DW_TAG_member, DW_AT_type(*DW$T$11)
    2325                      .dwattr DW$173, DW_AT_name("caltableconfigtype"), DW_AT_symbol_name("_caltableconfigtype")
    2326                      .dwattr DW$173, DW_AT_data_member_location[DW_OP_plus_uconst 0x4]
    2327                      .dwattr DW$173, DW_AT_accessibility(DW_ACCESS_public)
    2328              DW$174  .dwtag  DW_TAG_member, DW_AT_type(*DW$T$11)
    2329                      .dwattr DW$174, DW_AT_name("eventmsgid"), DW_AT_symbol_name("_eventmsgid")
    2330                      .dwattr DW$174, DW_AT_data_member_location[DW_OP_plus_uconst 0x5]
    2331                      .dwattr DW$174, DW_AT_accessibility(DW_ACCESS_public)
    2332              DW$175  .dwtag  DW_TAG_member, DW_AT_type(*DW$T$11)
    2333                      .dwattr DW$175, DW_AT_name("configoperationcomplete"), DW_AT_symbol_name("_configoperationcomplete")
    2334                      .dwattr DW$175, DW_AT_data_member_location[DW_OP_plus_uconst 0x6]
    2335                      .dwattr DW$175, DW_AT_accessibility(DW_ACCESS_public)
    2336              DW$176  .dwtag  DW_TAG_member, DW_AT_type(*DW$T$11)
    2337                      .dwattr DW$176, DW_AT_name("sdcarderr"), DW_AT_symbol_name("_sdcarderr")
    2338                      .dwattr DW$176, DW_AT_data_member_location[DW_OP_plus_uconst 0x7]
    2339                      .dwattr DW$176, DW_AT_accessibility(DW_ACCESS_public)
    2340              DW$177  .dwtag  DW_TAG_member, DW_AT_type(*DW$T$11)
    2341                      .dwattr DW$177, DW_AT_name("sderase"), DW_AT_symbol_name("_sderase")
    2342                      .dwattr DW$177, DW_AT_data_member_location[DW_OP_plus_uconst 0x8]
    2343                      .dwattr DW$177, DW_AT_accessibility(DW_ACCESS_public)
    2344              DW$178  .dwtag  DW_TAG_member, DW_AT_type(*DW$T$11)
    2345                      .dwattr DW$178, DW_AT_name("sdreinit"), DW_AT_symbol_name("_sdreinit")
    2346                      .dwattr DW$178, DW_AT_data_member_location[DW_OP_plus_uconst 0x9]
    2347                      .dwattr DW$178, DW_AT_accessibility(DW_ACCESS_public)
    2348              DW$179  .dwtag  DW_TAG_member, DW_AT_type(*DW$T$11)
    2349                      .dwattr DW$179, DW_AT_name("sdcardupdate"), DW_AT_symbol_name("_sdcardupdate")
    2350                      .dwattr DW$179, DW_AT_data_member_location[DW_OP_plus_uconst 0xa]
    2351                      .dwattr DW$179, DW_AT_accessibility(DW_ACCESS_public)
    2352              DW$180  .dwtag  DW_TAG_member, DW_AT_type(*DW$T$11)
    2353                      .dwattr DW$180, DW_AT_name("cardreadflag"), DW_AT_symbol_name("_cardreadflag")
TMS320C2000 COFF Assembler PC v4.1.3 Thu Aug 18 12:16:31 2016

Tools Copyright (c) 1996-2006 Texas Instruments Incorporated
slave485.asm                                                         PAGE   50

    2354                      .dwattr DW$180, DW_AT_data_member_location[DW_OP_plus_uconst 0xb]
    2355                      .dwattr DW$180, DW_AT_accessibility(DW_ACCESS_public)
    2356              DW$181  .dwtag  DW_TAG_member, DW_AT_type(*DW$T$11)
    2357                      .dwattr DW$181, DW_AT_name("ignore"), DW_AT_symbol_name("_ignore")
    2358                      .dwattr DW$181, DW_AT_data_member_location[DW_OP_plus_uconst 0xc]
    2359                      .dwattr DW$181, DW_AT_accessibility(DW_ACCESS_public)
    2360              DW$182  .dwtag  DW_TAG_member, DW_AT_type(*DW$T$11)
    2361                      .dwattr DW$182, DW_AT_name("dcmode"), DW_AT_symbol_name("_dcmode")
    2362                      .dwattr DW$182, DW_AT_data_member_location[DW_OP_plus_uconst 0xd]
    2363                      .dwattr DW$182, DW_AT_accessibility(DW_ACCESS_public)
    2364              DW$183  .dwtag  DW_TAG_member, DW_AT_type(*DW$T$11)
    2365                      .dwattr DW$183, DW_AT_name("spiinuse"), DW_AT_symbol_name("_spiinuse")
    2366                      .dwattr DW$183, DW_AT_data_member_location[DW_OP_plus_uconst 0xe]
    2367                      .dwattr DW$183, DW_AT_accessibility(DW_ACCESS_public)
    2368              DW$184  .dwtag  DW_TAG_member, DW_AT_type(*DW$T$11)
    2369                      .dwattr DW$184, DW_AT_name("dcpeakhold"), DW_AT_symbol_name("_dcpeakhold")
    2370                      .dwattr DW$184, DW_AT_data_member_location[DW_OP_plus_uconst 0xf]
    2371                      .dwattr DW$184, DW_AT_accessibility(DW_ACCESS_public)
    2372              DW$185  .dwtag  DW_TAG_member, DW_AT_type(*DW$T$11)
    2373                      .dwattr DW$185, DW_AT_name("dcpause"), DW_AT_symbol_name("_dcpause")
    2374                      .dwattr DW$185, DW_AT_data_member_location[DW_OP_plus_uconst 0x10]
    2375                      .dwattr DW$185, DW_AT_accessibility(DW_ACCESS_public)
    2376              DW$186  .dwtag  DW_TAG_member, DW_AT_type(*DW$T$11)
    2377                      .dwattr DW$186, DW_AT_name("mastermode"), DW_AT_symbol_name("_mastermode")
    2378                      .dwattr DW$186, DW_AT_data_member_location[DW_OP_plus_uconst 0x11]
    2379                      .dwattr DW$186, DW_AT_accessibility(DW_ACCESS_public)
    2380              DW$187  .dwtag  DW_TAG_member, DW_AT_type(*DW$T$11)
    2381                      .dwattr DW$187, DW_AT_name("updatescaling"), DW_AT_symbol_name("_updatescaling")
    2382                      .dwattr DW$187, DW_AT_data_member_location[DW_OP_plus_uconst 0x12]
    2383                      .dwattr DW$187, DW_AT_accessibility(DW_ACCESS_public)
    2384              DW$188  .dwtag  DW_TAG_member, DW_AT_type(*DW$T$11)
    2385                      .dwattr DW$188, DW_AT_name("forwardasternflag"), DW_AT_symbol_name("_forwardasternflag")
    2386                      .dwattr DW$188, DW_AT_data_member_location[DW_OP_plus_uconst 0x13]
    2387                      .dwattr DW$188, DW_AT_accessibility(DW_ACCESS_public)
    2388              DW$189  .dwtag  DW_TAG_member, DW_AT_type(*DW$T$11)
    2389                      .dwattr DW$189, DW_AT_name("initprogress"), DW_AT_symbol_name("_initprogress")
    2390                      .dwattr DW$189, DW_AT_data_member_location[DW_OP_plus_uconst 0x14]
    2391                      .dwattr DW$189, DW_AT_accessibility(DW_ACCESS_public)
    2392              DW$190  .dwtag  DW_TAG_member, DW_AT_type(*DW$T$11)
    2393                      .dwattr DW$190, DW_AT_name("dircountdown"), DW_AT_symbol_name("_dircountdown")
    2394                      .dwattr DW$190, DW_AT_data_member_location[DW_OP_plus_uconst 0x15]
    2395                      .dwattr DW$190, DW_AT_accessibility(DW_ACCESS_public)
    2396              DW$191  .dwtag  DW_TAG_member, DW_AT_type(*DW$T$11)
    2397                      .dwattr DW$191, DW_AT_name("slowdowncounter"), DW_AT_symbol_name("_slowdowncounter")
    2398                      .dwattr DW$191, DW_AT_data_member_location[DW_OP_plus_uconst 0x16]
    2399                      .dwattr DW$191, DW_AT_accessibility(DW_ACCESS_public)
    2400              DW$192  .dwtag  DW_TAG_member, DW_AT_type(*DW$T$11)
    2401                      .dwattr DW$192, DW_AT_name("slowdowncondition"), DW_AT_symbol_name("_slowdowncondition")
    2402                      .dwattr DW$192, DW_AT_data_member_location[DW_OP_plus_uconst 0x17]
    2403                      .dwattr DW$192, DW_AT_accessibility(DW_ACCESS_public)
    2404              DW$193  .dwtag  DW_TAG_member, DW_AT_type(*DW$T$11)
    2405                      .dwattr DW$193, DW_AT_name("slowdownlevel"), DW_AT_symbol_name("_slowdownlevel")
    2406                      .dwattr DW$193, DW_AT_data_member_location[DW_OP_plus_uconst 0x18]
    2407                      .dwattr DW$193, DW_AT_accessibility(DW_ACCESS_public)
    2408              DW$194  .dwtag  DW_TAG_member, DW_AT_type(*DW$T$11)
TMS320C2000 COFF Assembler PC v4.1.3 Thu Aug 18 12:16:31 2016

Tools Copyright (c) 1996-2006 Texas Instruments Incorporated
slave485.asm                                                         PAGE   51

    2409                      .dwattr DW$194, DW_AT_name("alarmlevel"), DW_AT_symbol_name("_alarmlevel")
    2410                      .dwattr DW$194, DW_AT_data_member_location[DW_OP_plus_uconst 0x19]
    2411                      .dwattr DW$194, DW_AT_accessibility(DW_ACCESS_public)
    2412              DW$195  .dwtag  DW_TAG_member, DW_AT_type(*DW$T$11)
    2413                      .dwattr DW$195, DW_AT_name("slowdowndevlevel"), DW_AT_symbol_name("_slowdowndevlevel")
    2414                      .dwattr DW$195, DW_AT_data_member_location[DW_OP_plus_uconst 0x1a]
    2415                      .dwattr DW$195, DW_AT_accessibility(DW_ACCESS_public)
    2416              DW$196  .dwtag  DW_TAG_member, DW_AT_type(*DW$T$11)
    2417                      .dwattr DW$196, DW_AT_name("alarmdevlevel"), DW_AT_symbol_name("_alarmdevlevel")
    2418                      .dwattr DW$196, DW_AT_data_member_location[DW_OP_plus_uconst 0x1b]
    2419                      .dwattr DW$196, DW_AT_accessibility(DW_ACCESS_public)
    2420              DW$197  .dwtag  DW_TAG_member, DW_AT_type(*DW$T$11)
    2421                      .dwattr DW$197, DW_AT_name("cylinderalarmlevel"), DW_AT_symbol_name("_cylinderalarmlevel")
    2422                      .dwattr DW$197, DW_AT_data_member_location[DW_OP_plus_uconst 0x1c]
    2423                      .dwattr DW$197, DW_AT_accessibility(DW_ACCESS_public)
    2424              DW$198  .dwtag  DW_TAG_member, DW_AT_type(*DW$T$11)
    2425                      .dwattr DW$198, DW_AT_name("temperaturealarm"), DW_AT_symbol_name("_temperaturealarm")
    2426                      .dwattr DW$198, DW_AT_data_member_location[DW_OP_plus_uconst 0x1d]
    2427                      .dwattr DW$198, DW_AT_accessibility(DW_ACCESS_public)
    2428              DW$199  .dwtag  DW_TAG_member, DW_AT_type(*DW$T$11)
    2429                      .dwattr DW$199, DW_AT_name("temperatureslowdown"), DW_AT_symbol_name("_temperatureslowdown")
    2430                      .dwattr DW$199, DW_AT_data_member_location[DW_OP_plus_uconst 0x1e]
    2431                      .dwattr DW$199, DW_AT_accessibility(DW_ACCESS_public)
    2432              DW$200  .dwtag  DW_TAG_member, DW_AT_type(*DW$T$20)
    2433                      .dwattr DW$200, DW_AT_name("anadebug"), DW_AT_symbol_name("_anadebug")
    2434                      .dwattr DW$200, DW_AT_data_member_location[DW_OP_plus_uconst 0x1f]
    2435                      .dwattr DW$200, DW_AT_accessibility(DW_ACCESS_public)
    2436              DW$201  .dwtag  DW_TAG_member, DW_AT_type(*DW$T$11)
    2437                      .dwattr DW$201, DW_AT_name("serialdebug"), DW_AT_symbol_name("_serialdebug")
    2438                      .dwattr DW$201, DW_AT_data_member_location[DW_OP_plus_uconst 0x21]
    2439                      .dwattr DW$201, DW_AT_accessibility(DW_ACCESS_public)
    2440              DW$202  .dwtag  DW_TAG_member, DW_AT_type(*DW$T$11)
    2441                      .dwattr DW$202, DW_AT_name("timerrunning"), DW_AT_symbol_name("_timerrunning")
    2442                      .dwattr DW$202, DW_AT_data_member_location[DW_OP_plus_uconst 0x22]
    2443                      .dwattr DW$202, DW_AT_accessibility(DW_ACCESS_public)
    2444              DW$203  .dwtag  DW_TAG_member, DW_AT_type(*DW$T$11)
    2445                      .dwattr DW$203, DW_AT_name("rpm"), DW_AT_symbol_name("_rpm")
    2446                      .dwattr DW$203, DW_AT_data_member_location[DW_OP_plus_uconst 0x23]
    2447                      .dwattr DW$203, DW_AT_accessibility(DW_ACCESS_public)
    2448                      .dwendtag DW$T$21
    2449              
    2450              
    2451              DW$T$25 .dwtag  DW_TAG_structure_type
    2452                      .dwattr DW$T$25, DW_AT_name("tag_safestruct1struct")
    2453                      .dwattr DW$T$25, DW_AT_byte_size(0x1f)
    2454              DW$204  .dwtag  DW_TAG_member, DW_AT_type(*DW$T$23)
    2455                      .dwattr DW$204, DW_AT_name("inputs"), DW_AT_symbol_name("_inputs")
    2456                      .dwattr DW$204, DW_AT_data_member_location[DW_OP_plus_uconst 0x0]
    2457                      .dwattr DW$204, DW_AT_accessibility(DW_ACCESS_public)
    2458              DW$205  .dwtag  DW_TAG_member, DW_AT_type(*DW$T$24)
    2459                      .dwattr DW$205, DW_AT_name("watchdog"), DW_AT_symbol_name("_watchdog")
    2460                      .dwattr DW$205, DW_AT_data_member_location[DW_OP_plus_uconst 0x1e]
    2461                      .dwattr DW$205, DW_AT_accessibility(DW_ACCESS_public)
    2462                      .dwendtag DW$T$25
    2463              
TMS320C2000 COFF Assembler PC v4.1.3 Thu Aug 18 12:16:31 2016

Tools Copyright (c) 1996-2006 Texas Instruments Incorporated
slave485.asm                                                         PAGE   52

    2464              
    2465              DW$T$38 .dwtag  DW_TAG_structure_type
    2466                      .dwattr DW$T$38, DW_AT_name("tag_safestruct2struct")
    2467                      .dwattr DW$T$38, DW_AT_byte_size(0x1e)
    2468              DW$206  .dwtag  DW_TAG_member, DW_AT_type(*DW$T$27)
    2469                      .dwattr DW$206, DW_AT_name("inputs"), DW_AT_symbol_name("_inputs")
    2470                      .dwattr DW$206, DW_AT_data_member_location[DW_OP_plus_uconst 0x0]
    2471                      .dwattr DW$206, DW_AT_accessibility(DW_ACCESS_public)
    2472              DW$207  .dwtag  DW_TAG_member, DW_AT_type(*DW$T$28)
    2473                      .dwattr DW$207, DW_AT_name("log"), DW_AT_symbol_name("_log")
    2474                      .dwattr DW$207, DW_AT_data_member_location[DW_OP_plus_uconst 0xb]
    2475                      .dwattr DW$207, DW_AT_accessibility(DW_ACCESS_public)
    2476              DW$208  .dwtag  DW_TAG_member, DW_AT_type(*DW$T$29)
    2477                      .dwattr DW$208, DW_AT_name("modbus"), DW_AT_symbol_name("_modbus")
    2478                      .dwattr DW$208, DW_AT_data_member_location[DW_OP_plus_uconst 0xe]
    2479                      .dwattr DW$208, DW_AT_accessibility(DW_ACCESS_public)
    2480              DW$209  .dwtag  DW_TAG_member, DW_AT_type(*DW$T$30)
    2481                      .dwattr DW$209, DW_AT_name("filter"), DW_AT_symbol_name("_filter")
    2482                      .dwattr DW$209, DW_AT_data_member_location[DW_OP_plus_uconst 0xf]
    2483                      .dwattr DW$209, DW_AT_accessibility(DW_ACCESS_public)
    2484              DW$210  .dwtag  DW_TAG_member, DW_AT_type(*DW$T$31)
    2485                      .dwattr DW$210, DW_AT_name("alarms"), DW_AT_symbol_name("_alarms")
    2486                      .dwattr DW$210, DW_AT_data_member_location[DW_OP_plus_uconst 0x11]
    2487                      .dwattr DW$210, DW_AT_accessibility(DW_ACCESS_public)
    2488              DW$211  .dwtag  DW_TAG_member, DW_AT_type(*DW$T$32)
    2489                      .dwattr DW$211, DW_AT_name("modbusbaud"), DW_AT_symbol_name("_modbusbaud")
    2490                      .dwattr DW$211, DW_AT_data_member_location[DW_OP_plus_uconst 0x14]
    2491                      .dwattr DW$211, DW_AT_accessibility(DW_ACCESS_public)
    2492              DW$212  .dwtag  DW_TAG_member, DW_AT_type(*DW$T$33)
    2493                      .dwattr DW$212, DW_AT_name("modbus2"), DW_AT_symbol_name("_modbus2")
    2494                      .dwattr DW$212, DW_AT_data_member_location[DW_OP_plus_uconst 0x15]
    2495                      .dwattr DW$212, DW_AT_accessibility(DW_ACCESS_public)
    2496              DW$213  .dwtag  DW_TAG_member, DW_AT_type(*DW$T$34)
    2497                      .dwattr DW$213, DW_AT_name("sync"), DW_AT_symbol_name("_sync")
    2498                      .dwattr DW$213, DW_AT_data_member_location[DW_OP_plus_uconst 0x17]
    2499                      .dwattr DW$213, DW_AT_accessibility(DW_ACCESS_public)
    2500              DW$214  .dwtag  DW_TAG_member, DW_AT_type(*DW$T$35)
    2501                      .dwattr DW$214, DW_AT_name("alarmenable"), DW_AT_symbol_name("_alarmenable")
    2502                      .dwattr DW$214, DW_AT_data_member_location[DW_OP_plus_uconst 0x1b]
    2503                      .dwattr DW$214, DW_AT_accessibility(DW_ACCESS_public)
    2504              DW$215  .dwtag  DW_TAG_member, DW_AT_type(*DW$T$36)
    2505                      .dwattr DW$215, DW_AT_name("trendmax"), DW_AT_symbol_name("_trendmax")
    2506                      .dwattr DW$215, DW_AT_data_member_location[DW_OP_plus_uconst 0x1c]
    2507                      .dwattr DW$215, DW_AT_accessibility(DW_ACCESS_public)
    2508              DW$216  .dwtag  DW_TAG_member, DW_AT_type(*DW$T$37)
    2509                      .dwattr DW$216, DW_AT_name("tempcomp"), DW_AT_symbol_name("_tempcomp")
    2510                      .dwattr DW$216, DW_AT_data_member_location[DW_OP_plus_uconst 0x1d]
    2511                      .dwattr DW$216, DW_AT_accessibility(DW_ACCESS_public)
    2512                      .dwendtag DW$T$38
    2513              
    2514              DW$T$103        .dwtag  DW_TAG_typedef, DW_AT_name("timersstruct"), DW_AT_type(*DW$T$39)
    2515                      .dwattr DW$T$103, DW_AT_language(DW_LANG_C)
    2516              
    2517              DW$T$42 .dwtag  DW_TAG_structure_type
    2518                      .dwattr DW$T$42, DW_AT_name("tag_allsensorstruct")
TMS320C2000 COFF Assembler PC v4.1.3 Thu Aug 18 12:16:31 2016

Tools Copyright (c) 1996-2006 Texas Instruments Incorporated
slave485.asm                                                         PAGE   53

    2519                      .dwattr DW$T$42, DW_AT_byte_size(0x2d)
    2520              DW$217  .dwtag  DW_TAG_member, DW_AT_type(*DW$T$11)
    2521                      .dwattr DW$217, DW_AT_name("numsensors"), DW_AT_symbol_name("_numsensors")
    2522                      .dwattr DW$217, DW_AT_data_member_location[DW_OP_plus_uconst 0x0]
    2523                      .dwattr DW$217, DW_AT_accessibility(DW_ACCESS_public)
    2524              DW$218  .dwtag  DW_TAG_member, DW_AT_type(*DW$T$11)
    2525                      .dwattr DW$218, DW_AT_name("numsensorsspu1"), DW_AT_symbol_name("_numsensorsspu1")
    2526                      .dwattr DW$218, DW_AT_data_member_location[DW_OP_plus_uconst 0x1]
    2527                      .dwattr DW$218, DW_AT_accessibility(DW_ACCESS_public)
    2528              DW$219  .dwtag  DW_TAG_member, DW_AT_type(*DW$T$11)
    2529                      .dwattr DW$219, DW_AT_name("numsensorsspu2"), DW_AT_symbol_name("_numsensorsspu2")
    2530                      .dwattr DW$219, DW_AT_data_member_location[DW_OP_plus_uconst 0x2]
    2531                      .dwattr DW$219, DW_AT_accessibility(DW_ACCESS_public)
    2532              DW$220  .dwtag  DW_TAG_member, DW_AT_type(*DW$T$11)
    2533                      .dwattr DW$220, DW_AT_name("nominalspeed"), DW_AT_symbol_name("_nominalspeed")
    2534                      .dwattr DW$220, DW_AT_data_member_location[DW_OP_plus_uconst 0x3]
    2535                      .dwattr DW$220, DW_AT_accessibility(DW_ACCESS_public)
    2536              DW$221  .dwtag  DW_TAG_member, DW_AT_type(*DW$T$11)
    2537                      .dwattr DW$221, DW_AT_name("rpmmin"), DW_AT_symbol_name("_rpmmin")
    2538                      .dwattr DW$221, DW_AT_data_member_location[DW_OP_plus_uconst 0x4]
    2539                      .dwattr DW$221, DW_AT_accessibility(DW_ACCESS_public)
    2540              DW$222  .dwtag  DW_TAG_member, DW_AT_type(*DW$T$11)
    2541                      .dwattr DW$222, DW_AT_name("rpmmax"), DW_AT_symbol_name("_rpmmax")
    2542                      .dwattr DW$222, DW_AT_data_member_location[DW_OP_plus_uconst 0x5]
    2543                      .dwattr DW$222, DW_AT_accessibility(DW_ACCESS_public)
    2544              DW$223  .dwtag  DW_TAG_member, DW_AT_type(*DW$T$11)
    2545                      .dwattr DW$223, DW_AT_name("reflash"), DW_AT_symbol_name("_reflash")
    2546                      .dwattr DW$223, DW_AT_data_member_location[DW_OP_plus_uconst 0x6]
    2547                      .dwattr DW$223, DW_AT_accessibility(DW_ACCESS_public)
    2548              DW$224  .dwtag  DW_TAG_member, DW_AT_type(*DW$T$10)
    2549                      .dwattr DW$224, DW_AT_name("sensorhysteresis"), DW_AT_symbol_name("_sensorhysteresis")
    2550                      .dwattr DW$224, DW_AT_data_member_location[DW_OP_plus_uconst 0x7]
    2551                      .dwattr DW$224, DW_AT_accessibility(DW_ACCESS_public)
    2552              DW$225  .dwtag  DW_TAG_member, DW_AT_type(*DW$T$10)
    2553                      .dwattr DW$225, DW_AT_name("cylinderhysteresis"), DW_AT_symbol_name("_cylinderhysteresis")
    2554                      .dwattr DW$225, DW_AT_data_member_location[DW_OP_plus_uconst 0x8]
    2555                      .dwattr DW$225, DW_AT_accessibility(DW_ACCESS_public)
    2556              DW$226  .dwtag  DW_TAG_member, DW_AT_type(*DW$T$11)
    2557                      .dwattr DW$226, DW_AT_name("slowdownlevel"), DW_AT_symbol_name("_slowdownlevel")
    2558                      .dwattr DW$226, DW_AT_data_member_location[DW_OP_plus_uconst 0x9]
    2559                      .dwattr DW$226, DW_AT_accessibility(DW_ACCESS_public)
    2560              DW$227  .dwtag  DW_TAG_member, DW_AT_type(*DW$T$11)
    2561                      .dwattr DW$227, DW_AT_name("alarmlevel"), DW_AT_symbol_name("_alarmlevel")
    2562                      .dwattr DW$227, DW_AT_data_member_location[DW_OP_plus_uconst 0xa]
    2563                      .dwattr DW$227, DW_AT_accessibility(DW_ACCESS_public)
    2564              DW$228  .dwtag  DW_TAG_member, DW_AT_type(*DW$T$11)
    2565                      .dwattr DW$228, DW_AT_name("slowdowndevcallevel"), DW_AT_symbol_name("_slowdowndevcallevel")
    2566                      .dwattr DW$228, DW_AT_data_member_location[DW_OP_plus_uconst 0xb]
    2567                      .dwattr DW$228, DW_AT_accessibility(DW_ACCESS_public)
    2568              DW$229  .dwtag  DW_TAG_member, DW_AT_type(*DW$T$11)
    2569                      .dwattr DW$229, DW_AT_name("alarmdevcallevel"), DW_AT_symbol_name("_alarmdevcallevel")
    2570                      .dwattr DW$229, DW_AT_data_member_location[DW_OP_plus_uconst 0xc]
    2571                      .dwattr DW$229, DW_AT_accessibility(DW_ACCESS_public)
    2572              DW$230  .dwtag  DW_TAG_member, DW_AT_type(*DW$T$11)
    2573                      .dwattr DW$230, DW_AT_name("slowdowndevlevel"), DW_AT_symbol_name("_slowdowndevlevel")
TMS320C2000 COFF Assembler PC v4.1.3 Thu Aug 18 12:16:31 2016

Tools Copyright (c) 1996-2006 Texas Instruments Incorporated
slave485.asm                                                         PAGE   54

    2574                      .dwattr DW$230, DW_AT_data_member_location[DW_OP_plus_uconst 0xd]
    2575                      .dwattr DW$230, DW_AT_accessibility(DW_ACCESS_public)
    2576              DW$231  .dwtag  DW_TAG_member, DW_AT_type(*DW$T$11)
    2577                      .dwattr DW$231, DW_AT_name("alarmdevlevel"), DW_AT_symbol_name("_alarmdevlevel")
    2578                      .dwattr DW$231, DW_AT_data_member_location[DW_OP_plus_uconst 0xe]
    2579                      .dwattr DW$231, DW_AT_accessibility(DW_ACCESS_public)
    2580              DW$232  .dwtag  DW_TAG_member, DW_AT_type(*DW$T$11)
    2581                      .dwattr DW$232, DW_AT_name("cylinderalarmlevel"), DW_AT_symbol_name("_cylinderalarmlevel")
    2582                      .dwattr DW$232, DW_AT_data_member_location[DW_OP_plus_uconst 0xf]
    2583                      .dwattr DW$232, DW_AT_accessibility(DW_ACCESS_public)
    2584              DW$233  .dwtag  DW_TAG_member, DW_AT_type(*DW$T$40)
    2585                      .dwattr DW$233, DW_AT_name("flags"), DW_AT_symbol_name("_flags")
    2586                      .dwattr DW$233, DW_AT_data_member_location[DW_OP_plus_uconst 0x10]
    2587                      .dwattr DW$233, DW_AT_accessibility(DW_ACCESS_public)
    2588              DW$234  .dwtag  DW_TAG_member, DW_AT_type(*DW$T$11)
    2589                      .dwattr DW$234, DW_AT_name("slowdownack"), DW_AT_symbol_name("_slowdownack")
    2590                      .dwattr DW$234, DW_AT_data_member_location[DW_OP_plus_uconst 0x11]
    2591                      .dwattr DW$234, DW_AT_accessibility(DW_ACCESS_public)
    2592              DW$235  .dwtag  DW_TAG_member, DW_AT_type(*DW$T$11)
    2593                      .dwattr DW$235, DW_AT_name("alarmack"), DW_AT_symbol_name("_alarmack")
    2594                      .dwattr DW$235, DW_AT_data_member_location[DW_OP_plus_uconst 0x12]
    2595                      .dwattr DW$235, DW_AT_accessibility(DW_ACCESS_public)
    2596              DW$236  .dwtag  DW_TAG_member, DW_AT_type(*DW$T$11)
    2597                      .dwattr DW$236, DW_AT_name("maxmintimer"), DW_AT_symbol_name("_maxmintimer")
    2598                      .dwattr DW$236, DW_AT_data_member_location[DW_OP_plus_uconst 0x13]
    2599                      .dwattr DW$236, DW_AT_accessibility(DW_ACCESS_public)
    2600              DW$237  .dwtag  DW_TAG_member, DW_AT_type(*DW$T$11)
    2601                      .dwattr DW$237, DW_AT_name("enginedircal"), DW_AT_symbol_name("_enginedircal")
    2602                      .dwattr DW$237, DW_AT_data_member_location[DW_OP_plus_uconst 0x14]
    2603                      .dwattr DW$237, DW_AT_accessibility(DW_ACCESS_public)
    2604              DW$238  .dwtag  DW_TAG_member, DW_AT_type(*DW$T$22)
    2605                      .dwattr DW$238, DW_AT_name("dirorder"), DW_AT_symbol_name("_dirorder")
    2606                      .dwattr DW$238, DW_AT_data_member_location[DW_OP_plus_uconst 0x15]
    2607                      .dwattr DW$238, DW_AT_accessibility(DW_ACCESS_public)
    2608              DW$239  .dwtag  DW_TAG_member, DW_AT_type(*DW$T$11)
    2609                      .dwattr DW$239, DW_AT_name("prewarningtimer"), DW_AT_symbol_name("_prewarningtimer")
    2610                      .dwattr DW$239, DW_AT_data_member_location[DW_OP_plus_uconst 0x23]
    2611                      .dwattr DW$239, DW_AT_accessibility(DW_ACCESS_public)
    2612              DW$240  .dwtag  DW_TAG_member, DW_AT_type(*DW$T$11)
    2613                      .dwattr DW$240, DW_AT_name("prewarninglevel"), DW_AT_symbol_name("_prewarninglevel")
    2614                      .dwattr DW$240, DW_AT_data_member_location[DW_OP_plus_uconst 0x24]
    2615                      .dwattr DW$240, DW_AT_accessibility(DW_ACCESS_public)
    2616              DW$241  .dwtag  DW_TAG_member, DW_AT_type(*DW$T$11)
    2617                      .dwattr DW$241, DW_AT_name("rpmlimit"), DW_AT_symbol_name("_rpmlimit")
    2618                      .dwattr DW$241, DW_AT_data_member_location[DW_OP_plus_uconst 0x25]
    2619                      .dwattr DW$241, DW_AT_accessibility(DW_ACCESS_public)
    2620              DW$242  .dwtag  DW_TAG_member, DW_AT_type(*DW$T$11)
    2621                      .dwattr DW$242, DW_AT_name("dsss"), DW_AT_symbol_name("_dsss")
    2622                      .dwattr DW$242, DW_AT_data_member_location[DW_OP_plus_uconst 0x26]
    2623                      .dwattr DW$242, DW_AT_accessibility(DW_ACCESS_public)
    2624              DW$243  .dwtag  DW_TAG_member, DW_AT_type(*DW$T$11)
    2625                      .dwattr DW$243, DW_AT_name("slowdowncallevel"), DW_AT_symbol_name("_slowdowncallevel")
    2626                      .dwattr DW$243, DW_AT_data_member_location[DW_OP_plus_uconst 0x27]
    2627                      .dwattr DW$243, DW_AT_accessibility(DW_ACCESS_public)
    2628              DW$244  .dwtag  DW_TAG_member, DW_AT_type(*DW$T$11)
TMS320C2000 COFF Assembler PC v4.1.3 Thu Aug 18 12:16:31 2016

Tools Copyright (c) 1996-2006 Texas Instruments Incorporated
slave485.asm                                                         PAGE   55

    2629                      .dwattr DW$244, DW_AT_name("alarmcallevel"), DW_AT_symbol_name("_alarmcallevel")
    2630                      .dwattr DW$244, DW_AT_data_member_location[DW_OP_plus_uconst 0x28]
    2631                      .dwattr DW$244, DW_AT_accessibility(DW_ACCESS_public)
    2632              DW$245  .dwtag  DW_TAG_member, DW_AT_type(*DW$T$11)
    2633                      .dwattr DW$245, DW_AT_name("cylinderalarmcallevel"), DW_AT_symbol_name("_cylinderalarmcallevel")
    2634                      .dwattr DW$245, DW_AT_data_member_location[DW_OP_plus_uconst 0x29]
    2635                      .dwattr DW$245, DW_AT_accessibility(DW_ACCESS_public)
    2636              DW$246  .dwtag  DW_TAG_member, DW_AT_type(*DW$T$41)
    2637                      .dwattr DW$246, DW_AT_name("bits"), DW_AT_symbol_name("_bits")
    2638                      .dwattr DW$246, DW_AT_data_member_location[DW_OP_plus_uconst 0x2a]
    2639                      .dwattr DW$246, DW_AT_accessibility(DW_ACCESS_public)
    2640              DW$247  .dwtag  DW_TAG_member, DW_AT_type(*DW$T$11)
    2641                      .dwattr DW$247, DW_AT_name("iBarredVibrationSpeedLow"), DW_AT_symbol_name("_iBarredVibrationSpeedLow"
    2642                      .dwattr DW$247, DW_AT_data_member_location[DW_OP_plus_uconst 0x2b]
    2643                      .dwattr DW$247, DW_AT_accessibility(DW_ACCESS_public)
    2644              DW$248  .dwtag  DW_TAG_member, DW_AT_type(*DW$T$11)
    2645                      .dwattr DW$248, DW_AT_name("iBarredVibrationSpeedHigh"), DW_AT_symbol_name("_iBarredVibrationSpeedHig
    2646                      .dwattr DW$248, DW_AT_data_member_location[DW_OP_plus_uconst 0x2c]
    2647                      .dwattr DW$248, DW_AT_accessibility(DW_ACCESS_public)
    2648                      .dwendtag DW$T$42
    2649              
    2650              
    2651              DW$T$49 .dwtag  DW_TAG_structure_type
    2652                      .dwattr DW$T$49, DW_AT_name("tag_configstruct")
    2653                      .dwattr DW$T$49, DW_AT_byte_size(0x18)
    2654              DW$249  .dwtag  DW_TAG_member, DW_AT_type(*DW$T$43)
    2655                      .dwattr DW$249, DW_AT_name("filter"), DW_AT_symbol_name("_filter")
    2656                      .dwattr DW$249, DW_AT_data_member_location[DW_OP_plus_uconst 0x0]
    2657                      .dwattr DW$249, DW_AT_accessibility(DW_ACCESS_public)
    2658              DW$250  .dwtag  DW_TAG_member, DW_AT_type(*DW$T$44)
    2659                      .dwattr DW$250, DW_AT_name("alarmenable"), DW_AT_symbol_name("_alarmenable")
    2660                      .dwattr DW$250, DW_AT_data_member_location[DW_OP_plus_uconst 0x1]
    2661                      .dwattr DW$250, DW_AT_accessibility(DW_ACCESS_public)
    2662              DW$251  .dwtag  DW_TAG_member, DW_AT_type(*DW$T$45)
    2663                      .dwattr DW$251, DW_AT_name("trendmax"), DW_AT_symbol_name("_trendmax")
    2664                      .dwattr DW$251, DW_AT_data_member_location[DW_OP_plus_uconst 0x2]
    2665                      .dwattr DW$251, DW_AT_accessibility(DW_ACCESS_public)
    2666              DW$252  .dwtag  DW_TAG_member, DW_AT_type(*DW$T$46)
    2667                      .dwattr DW$252, DW_AT_name("inputs"), DW_AT_symbol_name("_inputs")
    2668                      .dwattr DW$252, DW_AT_data_member_location[DW_OP_plus_uconst 0x3]
    2669                      .dwattr DW$252, DW_AT_accessibility(DW_ACCESS_public)
    2670              DW$253  .dwtag  DW_TAG_member, DW_AT_type(*DW$T$47)
    2671                      .dwattr DW$253, DW_AT_name("sdsettings"), DW_AT_symbol_name("_sdsettings")
    2672                      .dwattr DW$253, DW_AT_data_member_location[DW_OP_plus_uconst 0x6]
    2673                      .dwattr DW$253, DW_AT_accessibility(DW_ACCESS_public)
    2674              DW$254  .dwtag  DW_TAG_member, DW_AT_type(*DW$T$48)
    2675                      .dwattr DW$254, DW_AT_name("comms"), DW_AT_symbol_name("_comms")
    2676                      .dwattr DW$254, DW_AT_data_member_location[DW_OP_plus_uconst 0x8]
    2677                      .dwattr DW$254, DW_AT_accessibility(DW_ACCESS_public)
    2678                      .dwendtag DW$T$49
    2679              
    2680              
    2681              DW$T$53 .dwtag  DW_TAG_structure_type
    2682                      .dwattr DW$T$53, DW_AT_name("tag_uartreadA")
    2683                      .dwattr DW$T$53, DW_AT_byte_size(0x96)
TMS320C2000 COFF Assembler PC v4.1.3 Thu Aug 18 12:16:31 2016

Tools Copyright (c) 1996-2006 Texas Instruments Incorporated
slave485.asm                                                         PAGE   56

    2684              DW$255  .dwtag  DW_TAG_member, DW_AT_type(*DW$T$50)
    2685                      .dwattr DW$255, DW_AT_name("headptr"), DW_AT_symbol_name("_headptr")
    2686                      .dwattr DW$255, DW_AT_data_member_location[DW_OP_plus_uconst 0x0]
    2687                      .dwattr DW$255, DW_AT_accessibility(DW_ACCESS_public)
    2688              DW$256  .dwtag  DW_TAG_member, DW_AT_type(*DW$T$50)
    2689                      .dwattr DW$256, DW_AT_name("tailptr"), DW_AT_symbol_name("_tailptr")
    2690                      .dwattr DW$256, DW_AT_data_member_location[DW_OP_plus_uconst 0x2]
    2691                      .dwattr DW$256, DW_AT_accessibility(DW_ACCESS_public)
    2692              DW$257  .dwtag  DW_TAG_member, DW_AT_type(*DW$T$50)
    2693                      .dwattr DW$257, DW_AT_name("eobuf"), DW_AT_symbol_name("_eobuf")
    2694                      .dwattr DW$257, DW_AT_data_member_location[DW_OP_plus_uconst 0x4]
    2695                      .dwattr DW$257, DW_AT_accessibility(DW_ACCESS_public)
    2696              DW$258  .dwtag  DW_TAG_member, DW_AT_type(*DW$T$11)
    2697                      .dwattr DW$258, DW_AT_name("charcount"), DW_AT_symbol_name("_charcount")
    2698                      .dwattr DW$258, DW_AT_data_member_location[DW_OP_plus_uconst 0x6]
    2699                      .dwattr DW$258, DW_AT_accessibility(DW_ACCESS_public)
    2700              DW$259  .dwtag  DW_TAG_member, DW_AT_type(*DW$T$11)
    2701                      .dwattr DW$259, DW_AT_name("currentcharcount"), DW_AT_symbol_name("_currentcharcount")
    2702                      .dwattr DW$259, DW_AT_data_member_location[DW_OP_plus_uconst 0x7]
    2703                      .dwattr DW$259, DW_AT_accessibility(DW_ACCESS_public)
    2704              DW$260  .dwtag  DW_TAG_member, DW_AT_type(*DW$T$11)
    2705                      .dwattr DW$260, DW_AT_name("previouscharcount"), DW_AT_symbol_name("_previouscharcount")
    2706                      .dwattr DW$260, DW_AT_data_member_location[DW_OP_plus_uconst 0x8]
    2707                      .dwattr DW$260, DW_AT_accessibility(DW_ACCESS_public)
    2708              DW$261  .dwtag  DW_TAG_member, DW_AT_type(*DW$T$51)
    2709                      .dwattr DW$261, DW_AT_name("buf"), DW_AT_symbol_name("_buf")
    2710                      .dwattr DW$261, DW_AT_data_member_location[DW_OP_plus_uconst 0x9]
    2711                      .dwattr DW$261, DW_AT_accessibility(DW_ACCESS_public)
    2712              DW$262  .dwtag  DW_TAG_member, DW_AT_type(*DW$T$52)
    2713                      .dwattr DW$262, DW_AT_name("uartcharrx"), DW_AT_symbol_name("_uartcharrx")
    2714                      .dwattr DW$262, DW_AT_data_member_location[DW_OP_plus_uconst 0x95]
    2715                      .dwattr DW$262, DW_AT_accessibility(DW_ACCESS_public)
    2716                      .dwendtag DW$T$53
    2717              
    2718              DW$T$111        .dwtag  DW_TAG_typedef, DW_AT_name("sensorstruct"), DW_AT_type(*DW$T$58)
    2719                      .dwattr DW$T$111, DW_AT_language(DW_LANG_C)
    2720              
    2721              DW$T$60 .dwtag  DW_TAG_structure_type
    2722                      .dwattr DW$T$60, DW_AT_name("tag_reprogramstruct")
    2723                      .dwattr DW$T$60, DW_AT_byte_size(0x10)
    2724              DW$263  .dwtag  DW_TAG_member, DW_AT_type(*DW$T$59)
    2725                      .dwattr DW$263, DW_AT_name("spi"), DW_AT_symbol_name("_spi")
    2726                      .dwattr DW$263, DW_AT_data_member_location[DW_OP_plus_uconst 0x0]
    2727                      .dwattr DW$263, DW_AT_accessibility(DW_ACCESS_public)
    2728              DW$264  .dwtag  DW_TAG_member, DW_AT_type(*DW$T$13)
    2729                      .dwattr DW$264, DW_AT_name("programkey"), DW_AT_symbol_name("_programkey")
    2730                      .dwattr DW$264, DW_AT_data_member_location[DW_OP_plus_uconst 0x8]
    2731                      .dwattr DW$264, DW_AT_accessibility(DW_ACCESS_public)
    2732              DW$265  .dwtag  DW_TAG_member, DW_AT_type(*DW$T$11)
    2733                      .dwattr DW$265, DW_AT_name("reprogramnow"), DW_AT_symbol_name("_reprogramnow")
    2734                      .dwattr DW$265, DW_AT_data_member_location[DW_OP_plus_uconst 0xa]
    2735                      .dwattr DW$265, DW_AT_accessibility(DW_ACCESS_public)
    2736              DW$266  .dwtag  DW_TAG_member, DW_AT_type(*DW$T$11)
    2737                      .dwattr DW$266, DW_AT_name("slavecmdok"), DW_AT_symbol_name("_slavecmdok")
    2738                      .dwattr DW$266, DW_AT_data_member_location[DW_OP_plus_uconst 0xb]
TMS320C2000 COFF Assembler PC v4.1.3 Thu Aug 18 12:16:31 2016

Tools Copyright (c) 1996-2006 Texas Instruments Incorporated
slave485.asm                                                         PAGE   57

    2739                      .dwattr DW$266, DW_AT_accessibility(DW_ACCESS_public)
    2740              DW$267  .dwtag  DW_TAG_member, DW_AT_type(*DW$T$11)
    2741                      .dwattr DW$267, DW_AT_name("slavestatus"), DW_AT_symbol_name("_slavestatus")
    2742                      .dwattr DW$267, DW_AT_data_member_location[DW_OP_plus_uconst 0xc]
    2743                      .dwattr DW$267, DW_AT_accessibility(DW_ACCESS_public)
    2744              DW$268  .dwtag  DW_TAG_member, DW_AT_type(*DW$T$11)
    2745                      .dwattr DW$268, DW_AT_name("slavetx"), DW_AT_symbol_name("_slavetx")
    2746                      .dwattr DW$268, DW_AT_data_member_location[DW_OP_plus_uconst 0xd]
    2747                      .dwattr DW$268, DW_AT_accessibility(DW_ACCESS_public)
    2748              DW$269  .dwtag  DW_TAG_member, DW_AT_type(*DW$T$11)
    2749                      .dwattr DW$269, DW_AT_name("slaverx"), DW_AT_symbol_name("_slaverx")
    2750                      .dwattr DW$269, DW_AT_data_member_location[DW_OP_plus_uconst 0xe]
    2751                      .dwattr DW$269, DW_AT_accessibility(DW_ACCESS_public)
    2752              DW$270  .dwtag  DW_TAG_member, DW_AT_type(*DW$T$11)
    2753                      .dwattr DW$270, DW_AT_name("slaveset"), DW_AT_symbol_name("_slaveset")
    2754                      .dwattr DW$270, DW_AT_data_member_location[DW_OP_plus_uconst 0xf]
    2755                      .dwattr DW$270, DW_AT_accessibility(DW_ACCESS_public)
    2756                      .dwendtag DW$T$60
    2757              
    2758              
    2759              DW$T$62 .dwtag  DW_TAG_structure_type
    2760                      .dwattr DW$T$62, DW_AT_name("tag_slavecmdstruct")
    2761                      .dwattr DW$T$62, DW_AT_byte_size(0x48)
    2762              DW$271  .dwtag  DW_TAG_member, DW_AT_type(*DW$T$11)
    2763                      .dwattr DW$271, DW_AT_name("SlaveAddr"), DW_AT_symbol_name("_SlaveAddr")
    2764                      .dwattr DW$271, DW_AT_data_member_location[DW_OP_plus_uconst 0x0]
    2765                      .dwattr DW$271, DW_AT_accessibility(DW_ACCESS_public)
    2766              DW$272  .dwtag  DW_TAG_member, DW_AT_type(*DW$T$11)
    2767                      .dwattr DW$272, DW_AT_name("Func"), DW_AT_symbol_name("_Func")
    2768                      .dwattr DW$272, DW_AT_data_member_location[DW_OP_plus_uconst 0x1]
    2769                      .dwattr DW$272, DW_AT_accessibility(DW_ACCESS_public)
    2770              DW$273  .dwtag  DW_TAG_member, DW_AT_type(*DW$T$11)
    2771                      .dwattr DW$273, DW_AT_name("StartAdd"), DW_AT_symbol_name("_StartAdd")
    2772                      .dwattr DW$273, DW_AT_data_member_location[DW_OP_plus_uconst 0x2]
    2773                      .dwattr DW$273, DW_AT_accessibility(DW_ACCESS_public)
    2774              DW$274  .dwtag  DW_TAG_member, DW_AT_type(*DW$T$11)
    2775                      .dwattr DW$274, DW_AT_name("NoReg"), DW_AT_symbol_name("_NoReg")
    2776                      .dwattr DW$274, DW_AT_data_member_location[DW_OP_plus_uconst 0x3]
    2777                      .dwattr DW$274, DW_AT_accessibility(DW_ACCESS_public)
    2778              DW$275  .dwtag  DW_TAG_member, DW_AT_type(*DW$T$11)
    2779                      .dwattr DW$275, DW_AT_name("ByteCount"), DW_AT_symbol_name("_ByteCount")
    2780                      .dwattr DW$275, DW_AT_data_member_location[DW_OP_plus_uconst 0x4]
    2781                      .dwattr DW$275, DW_AT_accessibility(DW_ACCESS_public)
    2782              DW$276  .dwtag  DW_TAG_member, DW_AT_type(*DW$T$61)
    2783                      .dwattr DW$276, DW_AT_name("Data"), DW_AT_symbol_name("_Data")
    2784                      .dwattr DW$276, DW_AT_data_member_location[DW_OP_plus_uconst 0x5]
    2785                      .dwattr DW$276, DW_AT_accessibility(DW_ACCESS_public)
    2786              DW$277  .dwtag  DW_TAG_member, DW_AT_type(*DW$T$11)
    2787                      .dwattr DW$277, DW_AT_name("txmode"), DW_AT_symbol_name("_txmode")
    2788                      .dwattr DW$277, DW_AT_data_member_location[DW_OP_plus_uconst 0x45]
    2789                      .dwattr DW$277, DW_AT_accessibility(DW_ACCESS_public)
    2790              DW$278  .dwtag  DW_TAG_member, DW_AT_type(*DW$T$11)
    2791                      .dwattr DW$278, DW_AT_name("slavelost"), DW_AT_symbol_name("_slavelost")
    2792                      .dwattr DW$278, DW_AT_data_member_location[DW_OP_plus_uconst 0x46]
    2793                      .dwattr DW$278, DW_AT_accessibility(DW_ACCESS_public)
TMS320C2000 COFF Assembler PC v4.1.3 Thu Aug 18 12:16:31 2016

Tools Copyright (c) 1996-2006 Texas Instruments Incorporated
slave485.asm                                                         PAGE   58

    2794              DW$279  .dwtag  DW_TAG_member, DW_AT_type(*DW$T$11)
    2795                      .dwattr DW$279, DW_AT_name("slavenotready"), DW_AT_symbol_name("_slavenotready")
    2796                      .dwattr DW$279, DW_AT_data_member_location[DW_OP_plus_uconst 0x47]
    2797                      .dwattr DW$279, DW_AT_accessibility(DW_ACCESS_public)
    2798                      .dwendtag DW$T$62
    2799              
    2800              
    2801              DW$T$22 .dwtag  DW_TAG_array_type, DW_AT_type(*DW$T$11)
    2802                      .dwattr DW$T$22, DW_AT_language(DW_LANG_C)
    2803                      .dwattr DW$T$22, DW_AT_byte_size(0x0e)
    2804              DW$280  .dwtag  DW_TAG_subrange_type
    2805                      .dwattr DW$280, DW_AT_upper_bound(0x0d)
    2806                      .dwendtag DW$T$22
    2807              
    2808              
    2809              DW$T$51 .dwtag  DW_TAG_array_type, DW_AT_type(*DW$T$11)
    2810                      .dwattr DW$T$51, DW_AT_language(DW_LANG_C)
    2811                      .dwattr DW$T$51, DW_AT_byte_size(0x8c)
    2812              DW$281  .dwtag  DW_TAG_subrange_type
    2813                      .dwattr DW$281, DW_AT_upper_bound(0x8b)
    2814                      .dwendtag DW$T$51
    2815              
    2816              
    2817              DW$T$61 .dwtag  DW_TAG_array_type, DW_AT_type(*DW$T$11)
    2818                      .dwattr DW$T$61, DW_AT_language(DW_LANG_C)
    2819                      .dwattr DW$T$61, DW_AT_byte_size(0x40)
    2820              DW$282  .dwtag  DW_TAG_subrange_type
    2821                      .dwattr DW$282, DW_AT_upper_bound(0x3f)
    2822                      .dwendtag DW$T$61
    2823              
    2824              
    2825              DW$T$19 .dwtag  DW_TAG_structure_type
    2826                      .dwattr DW$T$19, DW_AT_name("tag_status3struct")
    2827                      .dwattr DW$T$19, DW_AT_byte_size(0x01)
    2828              DW$283  .dwtag  DW_TAG_member, DW_AT_type(*DW$T$11)
    2829                      .dwattr DW$283, DW_AT_name("nopulse"), DW_AT_symbol_name("_nopulse")
    2830                      .dwattr DW$283, DW_AT_bit_offset(0x0f), DW_AT_bit_size(0x01)
    2831                      .dwattr DW$283, DW_AT_data_member_location[DW_OP_plus_uconst 0x0]
    2832                      .dwattr DW$283, DW_AT_accessibility(DW_ACCESS_public)
    2833              DW$284  .dwtag  DW_TAG_member, DW_AT_type(*DW$T$11)
    2834                      .dwattr DW$284, DW_AT_name("low"), DW_AT_symbol_name("_low")
    2835                      .dwattr DW$284, DW_AT_bit_offset(0x0e), DW_AT_bit_size(0x01)
    2836                      .dwattr DW$284, DW_AT_data_member_location[DW_OP_plus_uconst 0x0]
    2837                      .dwattr DW$284, DW_AT_accessibility(DW_ACCESS_public)
    2838              DW$285  .dwtag  DW_TAG_member, DW_AT_type(*DW$T$11)
    2839                      .dwattr DW$285, DW_AT_name("high"), DW_AT_symbol_name("_high")
    2840                      .dwattr DW$285, DW_AT_bit_offset(0x0d), DW_AT_bit_size(0x01)
    2841                      .dwattr DW$285, DW_AT_data_member_location[DW_OP_plus_uconst 0x0]
    2842                      .dwattr DW$285, DW_AT_accessibility(DW_ACCESS_public)
    2843              DW$286  .dwtag  DW_TAG_member, DW_AT_type(*DW$T$11)
    2844                      .dwattr DW$286, DW_AT_name("rpmoor"), DW_AT_symbol_name("_rpmoor")
    2845                      .dwattr DW$286, DW_AT_bit_offset(0x0c), DW_AT_bit_size(0x01)
    2846                      .dwattr DW$286, DW_AT_data_member_location[DW_OP_plus_uconst 0x0]
    2847                      .dwattr DW$286, DW_AT_accessibility(DW_ACCESS_public)
    2848              DW$287  .dwtag  DW_TAG_member, DW_AT_type(*DW$T$11)
TMS320C2000 COFF Assembler PC v4.1.3 Thu Aug 18 12:16:31 2016

Tools Copyright (c) 1996-2006 Texas Instruments Incorporated
slave485.asm                                                         PAGE   59

    2849                      .dwattr DW$287, DW_AT_name("unused5"), DW_AT_symbol_name("_unused5")
    2850                      .dwattr DW$287, DW_AT_bit_offset(0x0b), DW_AT_bit_size(0x01)
    2851                      .dwattr DW$287, DW_AT_data_member_location[DW_OP_plus_uconst 0x0]
    2852                      .dwattr DW$287, DW_AT_accessibility(DW_ACCESS_public)
    2853              DW$288  .dwtag  DW_TAG_member, DW_AT_type(*DW$T$11)
    2854                      .dwattr DW$288, DW_AT_name("unused6"), DW_AT_symbol_name("_unused6")
    2855                      .dwattr DW$288, DW_AT_bit_offset(0x0a), DW_AT_bit_size(0x01)
    2856                      .dwattr DW$288, DW_AT_data_member_location[DW_OP_plus_uconst 0x0]
    2857                      .dwattr DW$288, DW_AT_accessibility(DW_ACCESS_public)
    2858              DW$289  .dwtag  DW_TAG_member, DW_AT_type(*DW$T$11)
    2859                      .dwattr DW$289, DW_AT_name("unused7"), DW_AT_symbol_name("_unused7")
    2860                      .dwattr DW$289, DW_AT_bit_offset(0x09), DW_AT_bit_size(0x01)
    2861                      .dwattr DW$289, DW_AT_data_member_location[DW_OP_plus_uconst 0x0]
    2862                      .dwattr DW$289, DW_AT_accessibility(DW_ACCESS_public)
    2863              DW$290  .dwtag  DW_TAG_member, DW_AT_type(*DW$T$11)
    2864                      .dwattr DW$290, DW_AT_name("unused8"), DW_AT_symbol_name("_unused8")
    2865                      .dwattr DW$290, DW_AT_bit_offset(0x08), DW_AT_bit_size(0x01)
    2866                      .dwattr DW$290, DW_AT_data_member_location[DW_OP_plus_uconst 0x0]
    2867                      .dwattr DW$290, DW_AT_accessibility(DW_ACCESS_public)
    2868              DW$291  .dwtag  DW_TAG_member, DW_AT_type(*DW$T$11)
    2869                      .dwattr DW$291, DW_AT_name("nopulselatched"), DW_AT_symbol_name("_nopulselatched")
    2870                      .dwattr DW$291, DW_AT_bit_offset(0x07), DW_AT_bit_size(0x01)
    2871                      .dwattr DW$291, DW_AT_data_member_location[DW_OP_plus_uconst 0x0]
    2872                      .dwattr DW$291, DW_AT_accessibility(DW_ACCESS_public)
    2873              DW$292  .dwtag  DW_TAG_member, DW_AT_type(*DW$T$11)
    2874                      .dwattr DW$292, DW_AT_name("lowlatched"), DW_AT_symbol_name("_lowlatched")
    2875                      .dwattr DW$292, DW_AT_bit_offset(0x06), DW_AT_bit_size(0x01)
    2876                      .dwattr DW$292, DW_AT_data_member_location[DW_OP_plus_uconst 0x0]
    2877                      .dwattr DW$292, DW_AT_accessibility(DW_ACCESS_public)
    2878              DW$293  .dwtag  DW_TAG_member, DW_AT_type(*DW$T$11)
    2879                      .dwattr DW$293, DW_AT_name("highlatched"), DW_AT_symbol_name("_highlatched")
    2880                      .dwattr DW$293, DW_AT_bit_offset(0x05), DW_AT_bit_size(0x01)
    2881                      .dwattr DW$293, DW_AT_data_member_location[DW_OP_plus_uconst 0x0]
    2882                      .dwattr DW$293, DW_AT_accessibility(DW_ACCESS_public)
    2883              DW$294  .dwtag  DW_TAG_member, DW_AT_type(*DW$T$11)
    2884                      .dwattr DW$294, DW_AT_name("rpmoorlatched"), DW_AT_symbol_name("_rpmoorlatched")
    2885                      .dwattr DW$294, DW_AT_bit_offset(0x04), DW_AT_bit_size(0x01)
    2886                      .dwattr DW$294, DW_AT_data_member_location[DW_OP_plus_uconst 0x0]
    2887                      .dwattr DW$294, DW_AT_accessibility(DW_ACCESS_public)
    2888              DW$295  .dwtag  DW_TAG_member, DW_AT_type(*DW$T$11)
    2889                      .dwattr DW$295, DW_AT_name("unused13"), DW_AT_symbol_name("_unused13")
    2890                      .dwattr DW$295, DW_AT_bit_offset(0x03), DW_AT_bit_size(0x01)
    2891                      .dwattr DW$295, DW_AT_data_member_location[DW_OP_plus_uconst 0x0]
    2892                      .dwattr DW$295, DW_AT_accessibility(DW_ACCESS_public)
    2893              DW$296  .dwtag  DW_TAG_member, DW_AT_type(*DW$T$11)
    2894                      .dwattr DW$296, DW_AT_name("unused14"), DW_AT_symbol_name("_unused14")
    2895                      .dwattr DW$296, DW_AT_bit_offset(0x02), DW_AT_bit_size(0x01)
    2896                      .dwattr DW$296, DW_AT_data_member_location[DW_OP_plus_uconst 0x0]
    2897                      .dwattr DW$296, DW_AT_accessibility(DW_ACCESS_public)
    2898              DW$297  .dwtag  DW_TAG_member, DW_AT_type(*DW$T$11)
    2899                      .dwattr DW$297, DW_AT_name("unused15"), DW_AT_symbol_name("_unused15")
    2900                      .dwattr DW$297, DW_AT_bit_offset(0x01), DW_AT_bit_size(0x01)
    2901                      .dwattr DW$297, DW_AT_data_member_location[DW_OP_plus_uconst 0x0]
    2902                      .dwattr DW$297, DW_AT_accessibility(DW_ACCESS_public)
    2903              DW$298  .dwtag  DW_TAG_member, DW_AT_type(*DW$T$11)
TMS320C2000 COFF Assembler PC v4.1.3 Thu Aug 18 12:16:31 2016

Tools Copyright (c) 1996-2006 Texas Instruments Incorporated
slave485.asm                                                         PAGE   60

    2904                      .dwattr DW$298, DW_AT_name("unused16"), DW_AT_symbol_name("_unused16")
    2905                      .dwattr DW$298, DW_AT_bit_offset(0x00), DW_AT_bit_size(0x01)
    2906                      .dwattr DW$298, DW_AT_data_member_location[DW_OP_plus_uconst 0x0]
    2907                      .dwattr DW$298, DW_AT_accessibility(DW_ACCESS_public)
    2908                      .dwendtag DW$T$19
    2909              
    2910              
    2911              DW$T$20 .dwtag  DW_TAG_structure_type
    2912                      .dwattr DW$T$20, DW_AT_byte_size(0x02)
    2913              DW$299  .dwtag  DW_TAG_member, DW_AT_type(*DW$T$11)
    2914                      .dwattr DW$299, DW_AT_name("enb"), DW_AT_symbol_name("_enb")
    2915                      .dwattr DW$299, DW_AT_data_member_location[DW_OP_plus_uconst 0x0]
    2916                      .dwattr DW$299, DW_AT_accessibility(DW_ACCESS_public)
    2917              DW$300  .dwtag  DW_TAG_member, DW_AT_type(*DW$T$11)
    2918                      .dwattr DW$300, DW_AT_name("chan"), DW_AT_symbol_name("_chan")
    2919                      .dwattr DW$300, DW_AT_data_member_location[DW_OP_plus_uconst 0x1]
    2920                      .dwattr DW$300, DW_AT_accessibility(DW_ACCESS_public)
    2921                      .dwendtag DW$T$20
    2922              
    2923              
    2924              DW$T$23 .dwtag  DW_TAG_structure_type
    2925                      .dwattr DW$T$23, DW_AT_byte_size(0x1e)
    2926              DW$301  .dwtag  DW_TAG_member, DW_AT_type(*DW$T$11)
    2927                      .dwattr DW$301, DW_AT_name("chanlowthreshold"), DW_AT_symbol_name("_chanlowthreshold")
    2928                      .dwattr DW$301, DW_AT_data_member_location[DW_OP_plus_uconst 0x0]
    2929                      .dwattr DW$301, DW_AT_accessibility(DW_ACCESS_public)
    2930              DW$302  .dwtag  DW_TAG_member, DW_AT_type(*DW$T$11)
    2931                      .dwattr DW$302, DW_AT_name("chanhighthreshold"), DW_AT_symbol_name("_chanhighthreshold")
    2932                      .dwattr DW$302, DW_AT_data_member_location[DW_OP_plus_uconst 0x1]
    2933                      .dwattr DW$302, DW_AT_accessibility(DW_ACCESS_public)
    2934              DW$303  .dwtag  DW_TAG_member, DW_AT_type(*DW$T$22)
    2935                      .dwattr DW$303, DW_AT_name("chan18ma"), DW_AT_symbol_name("_chan18ma")
    2936                      .dwattr DW$303, DW_AT_data_member_location[DW_OP_plus_uconst 0x2]
    2937                      .dwattr DW$303, DW_AT_accessibility(DW_ACCESS_public)
    2938              DW$304  .dwtag  DW_TAG_member, DW_AT_type(*DW$T$22)
    2939                      .dwattr DW$304, DW_AT_name("notused"), DW_AT_symbol_name("_notused")
    2940                      .dwattr DW$304, DW_AT_data_member_location[DW_OP_plus_uconst 0x10]
    2941                      .dwattr DW$304, DW_AT_accessibility(DW_ACCESS_public)
    2942                      .dwendtag DW$T$23
    2943              
    2944              
    2945              DW$T$24 .dwtag  DW_TAG_structure_type
    2946                      .dwattr DW$T$24, DW_AT_byte_size(0x01)
    2947              DW$305  .dwtag  DW_TAG_member, DW_AT_type(*DW$T$11)
    2948                      .dwattr DW$305, DW_AT_name("enabled"), DW_AT_symbol_name("_enabled")
    2949                      .dwattr DW$305, DW_AT_data_member_location[DW_OP_plus_uconst 0x0]
    2950                      .dwattr DW$305, DW_AT_accessibility(DW_ACCESS_public)
    2951                      .dwendtag DW$T$24
    2952              
    2953              
    2954              DW$T$27 .dwtag  DW_TAG_structure_type
    2955                      .dwattr DW$T$27, DW_AT_byte_size(0x0b)
    2956              DW$306  .dwtag  DW_TAG_member, DW_AT_type(*DW$T$26)
    2957                      .dwattr DW$306, DW_AT_name("calprtzero"), DW_AT_symbol_name("_calprtzero")
    2958                      .dwattr DW$306, DW_AT_data_member_location[DW_OP_plus_uconst 0x0]
TMS320C2000 COFF Assembler PC v4.1.3 Thu Aug 18 12:16:31 2016

Tools Copyright (c) 1996-2006 Texas Instruments Incorporated
slave485.asm                                                         PAGE   61

    2959                      .dwattr DW$306, DW_AT_accessibility(DW_ACCESS_public)
    2960              DW$307  .dwtag  DW_TAG_member, DW_AT_type(*DW$T$26)
    2961                      .dwattr DW$307, DW_AT_name("calprtfullscale"), DW_AT_symbol_name("_calprtfullscale")
    2962                      .dwattr DW$307, DW_AT_data_member_location[DW_OP_plus_uconst 0x4]
    2963                      .dwattr DW$307, DW_AT_accessibility(DW_ACCESS_public)
    2964              DW$308  .dwtag  DW_TAG_member, DW_AT_type(*DW$T$11)
    2965                      .dwattr DW$308, DW_AT_name("sensorscalingfactor"), DW_AT_symbol_name("_sensorscalingfactor")
    2966                      .dwattr DW$308, DW_AT_data_member_location[DW_OP_plus_uconst 0x8]
    2967                      .dwattr DW$308, DW_AT_accessibility(DW_ACCESS_public)
    2968              DW$309  .dwtag  DW_TAG_member, DW_AT_type(*DW$T$11)
    2969                      .dwattr DW$309, DW_AT_name("unused1"), DW_AT_symbol_name("_unused1")
    2970                      .dwattr DW$309, DW_AT_data_member_location[DW_OP_plus_uconst 0x9]
    2971                      .dwattr DW$309, DW_AT_accessibility(DW_ACCESS_public)
    2972              DW$310  .dwtag  DW_TAG_member, DW_AT_type(*DW$T$11)
    2973                      .dwattr DW$310, DW_AT_name("unused2"), DW_AT_symbol_name("_unused2")
    2974                      .dwattr DW$310, DW_AT_data_member_location[DW_OP_plus_uconst 0xa]
    2975                      .dwattr DW$310, DW_AT_accessibility(DW_ACCESS_public)
    2976                      .dwendtag DW$T$27
    2977              
    2978              
    2979              DW$T$28 .dwtag  DW_TAG_structure_type
    2980                      .dwattr DW$T$28, DW_AT_byte_size(0x03)
    2981              DW$311  .dwtag  DW_TAG_member, DW_AT_type(*DW$T$11)
    2982                      .dwattr DW$311, DW_AT_name("mainrate"), DW_AT_symbol_name("_mainrate")
    2983                      .dwattr DW$311, DW_AT_data_member_location[DW_OP_plus_uconst 0x0]
    2984                      .dwattr DW$311, DW_AT_accessibility(DW_ACCESS_public)
    2985              DW$312  .dwtag  DW_TAG_member, DW_AT_type(*DW$T$11)
    2986                      .dwattr DW$312, DW_AT_name("trendrate"), DW_AT_symbol_name("_trendrate")
    2987                      .dwattr DW$312, DW_AT_data_member_location[DW_OP_plus_uconst 0x1]
    2988                      .dwattr DW$312, DW_AT_accessibility(DW_ACCESS_public)
    2989              DW$313  .dwtag  DW_TAG_member, DW_AT_type(*DW$T$11)
    2990                      .dwattr DW$313, DW_AT_name("unused1"), DW_AT_symbol_name("_unused1")
    2991                      .dwattr DW$313, DW_AT_data_member_location[DW_OP_plus_uconst 0x2]
    2992                      .dwattr DW$313, DW_AT_accessibility(DW_ACCESS_public)
    2993                      .dwendtag DW$T$28
    2994              
    2995              
    2996              DW$T$29 .dwtag  DW_TAG_structure_type
    2997                      .dwattr DW$T$29, DW_AT_byte_size(0x01)
    2998              DW$314  .dwtag  DW_TAG_member, DW_AT_type(*DW$T$11)
    2999                      .dwattr DW$314, DW_AT_name("address"), DW_AT_symbol_name("_address")
    3000                      .dwattr DW$314, DW_AT_data_member_location[DW_OP_plus_uconst 0x0]
    3001                      .dwattr DW$314, DW_AT_accessibility(DW_ACCESS_public)
    3002                      .dwendtag DW$T$29
    3003              
    3004              
    3005              DW$T$30 .dwtag  DW_TAG_structure_type
    3006                      .dwattr DW$T$30, DW_AT_byte_size(0x02)
    3007              DW$315  .dwtag  DW_TAG_member, DW_AT_type(*DW$T$11)
    3008                      .dwattr DW$315, DW_AT_name("inputtap"), DW_AT_symbol_name("_inputtap")
    3009                      .dwattr DW$315, DW_AT_data_member_location[DW_OP_plus_uconst 0x0]
    3010                      .dwattr DW$315, DW_AT_accessibility(DW_ACCESS_public)
    3011              DW$316  .dwtag  DW_TAG_member, DW_AT_type(*DW$T$11)
    3012                      .dwattr DW$316, DW_AT_name("unused1"), DW_AT_symbol_name("_unused1")
    3013                      .dwattr DW$316, DW_AT_data_member_location[DW_OP_plus_uconst 0x1]
TMS320C2000 COFF Assembler PC v4.1.3 Thu Aug 18 12:16:31 2016

Tools Copyright (c) 1996-2006 Texas Instruments Incorporated
slave485.asm                                                         PAGE   62

    3014                      .dwattr DW$316, DW_AT_accessibility(DW_ACCESS_public)
    3015                      .dwendtag DW$T$30
    3016              
    3017              
    3018              DW$T$31 .dwtag  DW_TAG_structure_type
    3019                      .dwattr DW$T$31, DW_AT_byte_size(0x03)
    3020              DW$317  .dwtag  DW_TAG_member, DW_AT_type(*DW$T$11)
    3021                      .dwattr DW$317, DW_AT_name("notused1"), DW_AT_symbol_name("_notused1")
    3022                      .dwattr DW$317, DW_AT_data_member_location[DW_OP_plus_uconst 0x0]
    3023                      .dwattr DW$317, DW_AT_accessibility(DW_ACCESS_public)
    3024              DW$318  .dwtag  DW_TAG_member, DW_AT_type(*DW$T$11)
    3025                      .dwattr DW$318, DW_AT_name("notused2"), DW_AT_symbol_name("_notused2")
    3026                      .dwattr DW$318, DW_AT_data_member_location[DW_OP_plus_uconst 0x1]
    3027                      .dwattr DW$318, DW_AT_accessibility(DW_ACCESS_public)
    3028              DW$319  .dwtag  DW_TAG_member, DW_AT_type(*DW$T$11)
    3029                      .dwattr DW$319, DW_AT_name("notused3"), DW_AT_symbol_name("_notused3")
    3030                      .dwattr DW$319, DW_AT_data_member_location[DW_OP_plus_uconst 0x2]
    3031                      .dwattr DW$319, DW_AT_accessibility(DW_ACCESS_public)
    3032                      .dwendtag DW$T$31
    3033              
    3034              
    3035              DW$T$32 .dwtag  DW_TAG_structure_type
    3036                      .dwattr DW$T$32, DW_AT_byte_size(0x01)
    3037              DW$320  .dwtag  DW_TAG_member, DW_AT_type(*DW$T$11)
    3038                      .dwattr DW$320, DW_AT_name("rate"), DW_AT_symbol_name("_rate")
    3039                      .dwattr DW$320, DW_AT_data_member_location[DW_OP_plus_uconst 0x0]
    3040                      .dwattr DW$320, DW_AT_accessibility(DW_ACCESS_public)
    3041                      .dwendtag DW$T$32
    3042              
    3043              
    3044              DW$T$33 .dwtag  DW_TAG_structure_type
    3045                      .dwattr DW$T$33, DW_AT_byte_size(0x02)
    3046              DW$321  .dwtag  DW_TAG_member, DW_AT_type(*DW$T$11)
    3047                      .dwattr DW$321, DW_AT_name("notused1"), DW_AT_symbol_name("_notused1")
    3048                      .dwattr DW$321, DW_AT_data_member_location[DW_OP_plus_uconst 0x0]
    3049                      .dwattr DW$321, DW_AT_accessibility(DW_ACCESS_public)
    3050              DW$322  .dwtag  DW_TAG_member, DW_AT_type(*DW$T$11)
    3051                      .dwattr DW$322, DW_AT_name("notused2"), DW_AT_symbol_name("_notused2")
    3052                      .dwattr DW$322, DW_AT_data_member_location[DW_OP_plus_uconst 0x1]
    3053                      .dwattr DW$322, DW_AT_accessibility(DW_ACCESS_public)
    3054                      .dwendtag DW$T$33
    3055              
    3056              
    3057              DW$T$34 .dwtag  DW_TAG_structure_type
    3058                      .dwattr DW$T$34, DW_AT_byte_size(0x04)
    3059              DW$323  .dwtag  DW_TAG_member, DW_AT_type(*DW$T$11)
    3060                      .dwattr DW$323, DW_AT_name("notused1"), DW_AT_symbol_name("_notused1")
    3061                      .dwattr DW$323, DW_AT_data_member_location[DW_OP_plus_uconst 0x0]
    3062                      .dwattr DW$323, DW_AT_accessibility(DW_ACCESS_public)
    3063              DW$324  .dwtag  DW_TAG_member, DW_AT_type(*DW$T$11)
    3064                      .dwattr DW$324, DW_AT_name("notused2"), DW_AT_symbol_name("_notused2")
    3065                      .dwattr DW$324, DW_AT_data_member_location[DW_OP_plus_uconst 0x1]
    3066                      .dwattr DW$324, DW_AT_accessibility(DW_ACCESS_public)
    3067              DW$325  .dwtag  DW_TAG_member, DW_AT_type(*DW$T$11)
    3068                      .dwattr DW$325, DW_AT_name("notused3"), DW_AT_symbol_name("_notused3")
TMS320C2000 COFF Assembler PC v4.1.3 Thu Aug 18 12:16:31 2016

Tools Copyright (c) 1996-2006 Texas Instruments Incorporated
slave485.asm                                                         PAGE   63

    3069                      .dwattr DW$325, DW_AT_data_member_location[DW_OP_plus_uconst 0x2]
    3070                      .dwattr DW$325, DW_AT_accessibility(DW_ACCESS_public)
    3071              DW$326  .dwtag  DW_TAG_member, DW_AT_type(*DW$T$11)
    3072                      .dwattr DW$326, DW_AT_name("notused4"), DW_AT_symbol_name("_notused4")
    3073                      .dwattr DW$326, DW_AT_data_member_location[DW_OP_plus_uconst 0x3]
    3074                      .dwattr DW$326, DW_AT_accessibility(DW_ACCESS_public)
    3075                      .dwendtag DW$T$34
    3076              
    3077              
    3078              DW$T$35 .dwtag  DW_TAG_structure_type
    3079                      .dwattr DW$T$35, DW_AT_byte_size(0x01)
    3080              DW$327  .dwtag  DW_TAG_member, DW_AT_type(*DW$T$11)
    3081                      .dwattr DW$327, DW_AT_name("bitmap"), DW_AT_symbol_name("_bitmap")
    3082                      .dwattr DW$327, DW_AT_data_member_location[DW_OP_plus_uconst 0x0]
    3083                      .dwattr DW$327, DW_AT_accessibility(DW_ACCESS_public)
    3084                      .dwendtag DW$T$35
    3085              
    3086              
    3087              DW$T$36 .dwtag  DW_TAG_structure_type
    3088                      .dwattr DW$T$36, DW_AT_byte_size(0x01)
    3089              DW$328  .dwtag  DW_TAG_member, DW_AT_type(*DW$T$11)
    3090                      .dwattr DW$328, DW_AT_name("graphvalue"), DW_AT_symbol_name("_graphvalue")
    3091                      .dwattr DW$328, DW_AT_data_member_location[DW_OP_plus_uconst 0x0]
    3092                      .dwattr DW$328, DW_AT_accessibility(DW_ACCESS_public)
    3093                      .dwendtag DW$T$36
    3094              
    3095              
    3096              DW$T$37 .dwtag  DW_TAG_structure_type
    3097                      .dwattr DW$T$37, DW_AT_byte_size(0x01)
    3098              DW$329  .dwtag  DW_TAG_member, DW_AT_type(*DW$T$11)
    3099                      .dwattr DW$329, DW_AT_name("notused1"), DW_AT_symbol_name("_notused1")
    3100                      .dwattr DW$329, DW_AT_data_member_location[DW_OP_plus_uconst 0x0]
    3101                      .dwattr DW$329, DW_AT_accessibility(DW_ACCESS_public)
    3102                      .dwendtag DW$T$37
    3103              
    3104              
    3105              DW$T$39 .dwtag  DW_TAG_structure_type
    3106                      .dwattr DW$T$39, DW_AT_name("tag_timers")
    3107                      .dwattr DW$T$39, DW_AT_byte_size(0x4c)
    3108              DW$330  .dwtag  DW_TAG_member, DW_AT_type(*DW$T$11)
    3109                      .dwattr DW$330, DW_AT_name("update"), DW_AT_symbol_name("_update")
    3110                      .dwattr DW$330, DW_AT_data_member_location[DW_OP_plus_uconst 0x0]
    3111                      .dwattr DW$330, DW_AT_accessibility(DW_ACCESS_public)
    3112              DW$331  .dwtag  DW_TAG_member, DW_AT_type(*DW$T$11)
    3113                      .dwattr DW$331, DW_AT_name("general"), DW_AT_symbol_name("_general")
    3114                      .dwattr DW$331, DW_AT_data_member_location[DW_OP_plus_uconst 0x1]
    3115                      .dwattr DW$331, DW_AT_accessibility(DW_ACCESS_public)
    3116              DW$332  .dwtag  DW_TAG_member, DW_AT_type(*DW$T$11)
    3117                      .dwattr DW$332, DW_AT_name("rxcharTimeout"), DW_AT_symbol_name("_rxcharTimeout")
    3118                      .dwattr DW$332, DW_AT_data_member_location[DW_OP_plus_uconst 0x2]
    3119                      .dwattr DW$332, DW_AT_accessibility(DW_ACCESS_public)
    3120              DW$333  .dwtag  DW_TAG_member, DW_AT_type(*DW$T$11)
    3121                      .dwattr DW$333, DW_AT_name("wiorxtimeout"), DW_AT_symbol_name("_wiorxtimeout")
    3122                      .dwattr DW$333, DW_AT_data_member_location[DW_OP_plus_uconst 0x3]
    3123                      .dwattr DW$333, DW_AT_accessibility(DW_ACCESS_public)
TMS320C2000 COFF Assembler PC v4.1.3 Thu Aug 18 12:16:31 2016

Tools Copyright (c) 1996-2006 Texas Instruments Incorporated
slave485.asm                                                         PAGE   64

    3124              DW$334  .dwtag  DW_TAG_member, DW_AT_type(*DW$T$11)
    3125                      .dwattr DW$334, DW_AT_name("wiomasterrxtimeout"), DW_AT_symbol_name("_wiomasterrxtimeout")
    3126                      .dwattr DW$334, DW_AT_data_member_location[DW_OP_plus_uconst 0x4]
    3127                      .dwattr DW$334, DW_AT_accessibility(DW_ACCESS_public)
    3128              DW$335  .dwtag  DW_TAG_member, DW_AT_type(*DW$T$11)
    3129                      .dwattr DW$335, DW_AT_name("masterrxtimeout"), DW_AT_symbol_name("_masterrxtimeout")
    3130                      .dwattr DW$335, DW_AT_data_member_location[DW_OP_plus_uconst 0x5]
    3131                      .dwattr DW$335, DW_AT_accessibility(DW_ACCESS_public)
    3132              DW$336  .dwtag  DW_TAG_member, DW_AT_type(*DW$T$11)
    3133                      .dwattr DW$336, DW_AT_name("slaverxtimeout"), DW_AT_symbol_name("_slaverxtimeout")
    3134                      .dwattr DW$336, DW_AT_data_member_location[DW_OP_plus_uconst 0x6]
    3135                      .dwattr DW$336, DW_AT_accessibility(DW_ACCESS_public)
    3136              DW$337  .dwtag  DW_TAG_member, DW_AT_type(*DW$T$11)
    3137                      .dwattr DW$337, DW_AT_name("sectick"), DW_AT_symbol_name("_sectick")
    3138                      .dwattr DW$337, DW_AT_data_member_location[DW_OP_plus_uconst 0x7]
    3139                      .dwattr DW$337, DW_AT_accessibility(DW_ACCESS_public)
    3140              DW$338  .dwtag  DW_TAG_member, DW_AT_type(*DW$T$11)
    3141                      .dwattr DW$338, DW_AT_name("ledflash"), DW_AT_symbol_name("_ledflash")
    3142                      .dwattr DW$338, DW_AT_data_member_location[DW_OP_plus_uconst 0x8]
    3143                      .dwattr DW$338, DW_AT_accessibility(DW_ACCESS_public)
    3144              DW$339  .dwtag  DW_TAG_member, DW_AT_type(*DW$T$11)
    3145                      .dwattr DW$339, DW_AT_name("prtsettle"), DW_AT_symbol_name("_prtsettle")
    3146                      .dwattr DW$339, DW_AT_data_member_location[DW_OP_plus_uconst 0x9]
    3147                      .dwattr DW$339, DW_AT_accessibility(DW_ACCESS_public)
    3148              DW$340  .dwtag  DW_TAG_member, DW_AT_type(*DW$T$22)
    3149                      .dwattr DW$340, DW_AT_name("chantimeout"), DW_AT_symbol_name("_chantimeout")
    3150                      .dwattr DW$340, DW_AT_data_member_location[DW_OP_plus_uconst 0xa]
    3151                      .dwattr DW$340, DW_AT_accessibility(DW_ACCESS_public)
    3152              DW$341  .dwtag  DW_TAG_member, DW_AT_type(*DW$T$22)
    3153                      .dwattr DW$341, DW_AT_name("chanwait"), DW_AT_symbol_name("_chanwait")
    3154                      .dwattr DW$341, DW_AT_data_member_location[DW_OP_plus_uconst 0x18]
    3155                      .dwattr DW$341, DW_AT_accessibility(DW_ACCESS_public)
    3156              DW$342  .dwtag  DW_TAG_member, DW_AT_type(*DW$T$11)
    3157                      .dwattr DW$342, DW_AT_name("pcrxtimeout"), DW_AT_symbol_name("_pcrxtimeout")
    3158                      .dwattr DW$342, DW_AT_data_member_location[DW_OP_plus_uconst 0x26]
    3159                      .dwattr DW$342, DW_AT_accessibility(DW_ACCESS_public)
    3160              DW$343  .dwtag  DW_TAG_member, DW_AT_type(*DW$T$11)
    3161                      .dwattr DW$343, DW_AT_name("pctxtimeout"), DW_AT_symbol_name("_pctxtimeout")
    3162                      .dwattr DW$343, DW_AT_data_member_location[DW_OP_plus_uconst 0x27]
    3163                      .dwattr DW$343, DW_AT_accessibility(DW_ACCESS_public)
    3164              DW$344  .dwtag  DW_TAG_member, DW_AT_type(*DW$T$11)
    3165                      .dwattr DW$344, DW_AT_name("spistatus"), DW_AT_symbol_name("_spistatus")
    3166                      .dwattr DW$344, DW_AT_data_member_location[DW_OP_plus_uconst 0x28]
    3167                      .dwattr DW$344, DW_AT_accessibility(DW_ACCESS_public)
    3168              DW$345  .dwtag  DW_TAG_member, DW_AT_type(*DW$T$11)
    3169                      .dwattr DW$345, DW_AT_name("rpm"), DW_AT_symbol_name("_rpm")
    3170                      .dwattr DW$345, DW_AT_data_member_location[DW_OP_plus_uconst 0x29]
    3171                      .dwattr DW$345, DW_AT_accessibility(DW_ACCESS_public)
    3172              DW$346  .dwtag  DW_TAG_member, DW_AT_type(*DW$T$11)
    3173                      .dwattr DW$346, DW_AT_name("slaverqst"), DW_AT_symbol_name("_slaverqst")
    3174                      .dwattr DW$346, DW_AT_data_member_location[DW_OP_plus_uconst 0x2a]
    3175                      .dwattr DW$346, DW_AT_accessibility(DW_ACCESS_public)
    3176              DW$347  .dwtag  DW_TAG_member, DW_AT_type(*DW$T$11)
    3177                      .dwattr DW$347, DW_AT_name("mastermodebutton"), DW_AT_symbol_name("_mastermodebutton")
    3178                      .dwattr DW$347, DW_AT_data_member_location[DW_OP_plus_uconst 0x2b]
TMS320C2000 COFF Assembler PC v4.1.3 Thu Aug 18 12:16:31 2016

Tools Copyright (c) 1996-2006 Texas Instruments Incorporated
slave485.asm                                                         PAGE   65

    3179                      .dwattr DW$347, DW_AT_accessibility(DW_ACCESS_public)
    3180              DW$348  .dwtag  DW_TAG_member, DW_AT_type(*DW$T$11)
    3181                      .dwattr DW$348, DW_AT_name("dcmode"), DW_AT_symbol_name("_dcmode")
    3182                      .dwattr DW$348, DW_AT_data_member_location[DW_OP_plus_uconst 0x2c]
    3183                      .dwattr DW$348, DW_AT_accessibility(DW_ACCESS_public)
    3184              DW$349  .dwtag  DW_TAG_member, DW_AT_type(*DW$T$13)
    3185                      .dwattr DW$349, DW_AT_name("calibrate"), DW_AT_symbol_name("_calibrate")
    3186                      .dwattr DW$349, DW_AT_data_member_location[DW_OP_plus_uconst 0x2e]
    3187                      .dwattr DW$349, DW_AT_accessibility(DW_ACCESS_public)
    3188              DW$350  .dwtag  DW_TAG_member, DW_AT_type(*DW$T$13)
    3189                      .dwattr DW$350, DW_AT_name("calibrate2"), DW_AT_symbol_name("_calibrate2")
    3190                      .dwattr DW$350, DW_AT_data_member_location[DW_OP_plus_uconst 0x30]
    3191                      .dwattr DW$350, DW_AT_accessibility(DW_ACCESS_public)
    3192              DW$351  .dwtag  DW_TAG_member, DW_AT_type(*DW$T$11)
    3193                      .dwattr DW$351, DW_AT_name("alarmreflash"), DW_AT_symbol_name("_alarmreflash")
    3194                      .dwattr DW$351, DW_AT_data_member_location[DW_OP_plus_uconst 0x32]
    3195                      .dwattr DW$351, DW_AT_accessibility(DW_ACCESS_public)
    3196              DW$352  .dwtag  DW_TAG_member, DW_AT_type(*DW$T$11)
    3197                      .dwattr DW$352, DW_AT_name("slowdownreflash"), DW_AT_symbol_name("_slowdownreflash")
    3198                      .dwattr DW$352, DW_AT_data_member_location[DW_OP_plus_uconst 0x33]
    3199                      .dwattr DW$352, DW_AT_accessibility(DW_ACCESS_public)
    3200              DW$353  .dwtag  DW_TAG_member, DW_AT_type(*DW$T$11)
    3201                      .dwattr DW$353, DW_AT_name("wiorqst"), DW_AT_symbol_name("_wiorqst")
    3202                      .dwattr DW$353, DW_AT_data_member_location[DW_OP_plus_uconst 0x34]
    3203                      .dwattr DW$353, DW_AT_accessibility(DW_ACCESS_public)
    3204              DW$354  .dwtag  DW_TAG_member, DW_AT_type(*DW$T$11)
    3205                      .dwattr DW$354, DW_AT_name("rpmtimeout"), DW_AT_symbol_name("_rpmtimeout")
    3206                      .dwattr DW$354, DW_AT_data_member_location[DW_OP_plus_uconst 0x35]
    3207                      .dwattr DW$354, DW_AT_accessibility(DW_ACCESS_public)
    3208              DW$355  .dwtag  DW_TAG_member, DW_AT_type(*DW$T$11)
    3209                      .dwattr DW$355, DW_AT_name("analogoor"), DW_AT_symbol_name("_analogoor")
    3210                      .dwattr DW$355, DW_AT_data_member_location[DW_OP_plus_uconst 0x36]
    3211                      .dwattr DW$355, DW_AT_accessibility(DW_ACCESS_public)
    3212              DW$356  .dwtag  DW_TAG_member, DW_AT_type(*DW$T$11)
    3213                      .dwattr DW$356, DW_AT_name("motioncal"), DW_AT_symbol_name("_motioncal")
    3214                      .dwattr DW$356, DW_AT_data_member_location[DW_OP_plus_uconst 0x37]
    3215                      .dwattr DW$356, DW_AT_accessibility(DW_ACCESS_public)
    3216              DW$357  .dwtag  DW_TAG_member, DW_AT_type(*DW$T$11)
    3217                      .dwattr DW$357, DW_AT_name("framcheck"), DW_AT_symbol_name("_framcheck")
    3218                      .dwattr DW$357, DW_AT_data_member_location[DW_OP_plus_uconst 0x38]
    3219                      .dwattr DW$357, DW_AT_accessibility(DW_ACCESS_public)
    3220              DW$358  .dwtag  DW_TAG_member, DW_AT_type(*DW$T$11)
    3221                      .dwattr DW$358, DW_AT_name("pcmodbus"), DW_AT_symbol_name("_pcmodbus")
    3222                      .dwattr DW$358, DW_AT_data_member_location[DW_OP_plus_uconst 0x39]
    3223                      .dwattr DW$358, DW_AT_accessibility(DW_ACCESS_public)
    3224              DW$359  .dwtag  DW_TAG_member, DW_AT_type(*DW$T$11)
    3225                      .dwattr DW$359, DW_AT_name("statusreflash"), DW_AT_symbol_name("_statusreflash")
    3226                      .dwattr DW$359, DW_AT_data_member_location[DW_OP_plus_uconst 0x3a]
    3227                      .dwattr DW$359, DW_AT_accessibility(DW_ACCESS_public)
    3228              DW$360  .dwtag  DW_TAG_member, DW_AT_type(*DW$T$13)
    3229                      .dwattr DW$360, DW_AT_name("prewarn"), DW_AT_symbol_name("_prewarn")
    3230                      .dwattr DW$360, DW_AT_data_member_location[DW_OP_plus_uconst 0x3c]
    3231                      .dwattr DW$360, DW_AT_accessibility(DW_ACCESS_public)
    3232              DW$361  .dwtag  DW_TAG_member, DW_AT_type(*DW$T$11)
    3233                      .dwattr DW$361, DW_AT_name("clocktofram"), DW_AT_symbol_name("_clocktofram")
TMS320C2000 COFF Assembler PC v4.1.3 Thu Aug 18 12:16:31 2016

Tools Copyright (c) 1996-2006 Texas Instruments Incorporated
slave485.asm                                                         PAGE   66

    3234                      .dwattr DW$361, DW_AT_data_member_location[DW_OP_plus_uconst 0x3e]
    3235                      .dwattr DW$361, DW_AT_accessibility(DW_ACCESS_public)
    3236              DW$362  .dwtag  DW_TAG_member, DW_AT_type(*DW$T$11)
    3237                      .dwattr DW$362, DW_AT_name("debugrapidfast"), DW_AT_symbol_name("_debugrapidfast")
    3238                      .dwattr DW$362, DW_AT_data_member_location[DW_OP_plus_uconst 0x3f]
    3239                      .dwattr DW$362, DW_AT_accessibility(DW_ACCESS_public)
    3240              DW$363  .dwtag  DW_TAG_member, DW_AT_type(*DW$T$11)
    3241                      .dwattr DW$363, DW_AT_name("debugupdate"), DW_AT_symbol_name("_debugupdate")
    3242                      .dwattr DW$363, DW_AT_data_member_location[DW_OP_plus_uconst 0x40]
    3243                      .dwattr DW$363, DW_AT_accessibility(DW_ACCESS_public)
    3244              DW$364  .dwtag  DW_TAG_member, DW_AT_type(*DW$T$11)
    3245                      .dwattr DW$364, DW_AT_name("dircountdown"), DW_AT_symbol_name("_dircountdown")
    3246                      .dwattr DW$364, DW_AT_data_member_location[DW_OP_plus_uconst 0x41]
    3247                      .dwattr DW$364, DW_AT_accessibility(DW_ACCESS_public)
    3248              DW$365  .dwtag  DW_TAG_member, DW_AT_type(*DW$T$11)
    3249                      .dwattr DW$365, DW_AT_name("startup"), DW_AT_symbol_name("_startup")
    3250                      .dwattr DW$365, DW_AT_data_member_location[DW_OP_plus_uconst 0x42]
    3251                      .dwattr DW$365, DW_AT_accessibility(DW_ACCESS_public)
    3252              DW$366  .dwtag  DW_TAG_member, DW_AT_type(*DW$T$11)
    3253                      .dwattr DW$366, DW_AT_name("analogsettle"), DW_AT_symbol_name("_analogsettle")
    3254                      .dwattr DW$366, DW_AT_data_member_location[DW_OP_plus_uconst 0x43]
    3255                      .dwattr DW$366, DW_AT_accessibility(DW_ACCESS_public)
    3256              DW$367  .dwtag  DW_TAG_member, DW_AT_type(*DW$T$11)
    3257                      .dwattr DW$367, DW_AT_name("reprogram"), DW_AT_symbol_name("_reprogram")
    3258                      .dwattr DW$367, DW_AT_data_member_location[DW_OP_plus_uconst 0x44]
    3259                      .dwattr DW$367, DW_AT_accessibility(DW_ACCESS_public)
    3260              DW$368  .dwtag  DW_TAG_member, DW_AT_type(*DW$T$11)
    3261                      .dwattr DW$368, DW_AT_name("reprogramtimeout"), DW_AT_symbol_name("_reprogramtimeout")
    3262                      .dwattr DW$368, DW_AT_data_member_location[DW_OP_plus_uconst 0x45]
    3263                      .dwattr DW$368, DW_AT_accessibility(DW_ACCESS_public)
    3264              DW$369  .dwtag  DW_TAG_member, DW_AT_type(*DW$T$11)
    3265                      .dwattr DW$369, DW_AT_name("dcmodestayalive"), DW_AT_symbol_name("_dcmodestayalive")
    3266                      .dwattr DW$369, DW_AT_data_member_location[DW_OP_plus_uconst 0x46]
    3267                      .dwattr DW$369, DW_AT_accessibility(DW_ACCESS_public)
    3268              DW$370  .dwtag  DW_TAG_member, DW_AT_type(*DW$T$11)
    3269                      .dwattr DW$370, DW_AT_name("biteventchange"), DW_AT_symbol_name("_biteventchange")
    3270                      .dwattr DW$370, DW_AT_data_member_location[DW_OP_plus_uconst 0x47]
    3271                      .dwattr DW$370, DW_AT_accessibility(DW_ACCESS_public)
    3272              DW$371  .dwtag  DW_TAG_member, DW_AT_type(*DW$T$11)
    3273                      .dwattr DW$371, DW_AT_name("iSensorReplace"), DW_AT_symbol_name("_iSensorReplace")
    3274                      .dwattr DW$371, DW_AT_data_member_location[DW_OP_plus_uconst 0x48]
    3275                      .dwattr DW$371, DW_AT_accessibility(DW_ACCESS_public)
    3276              DW$372  .dwtag  DW_TAG_member, DW_AT_type(*DW$T$13)
    3277                      .dwattr DW$372, DW_AT_name("deltarpm15Delay"), DW_AT_symbol_name("_deltarpm15Delay")
    3278                      .dwattr DW$372, DW_AT_data_member_location[DW_OP_plus_uconst 0x4a]
    3279                      .dwattr DW$372, DW_AT_accessibility(DW_ACCESS_public)
    3280                      .dwendtag DW$T$39
    3281              
    3282              
    3283              DW$T$40 .dwtag  DW_TAG_structure_type
    3284                      .dwattr DW$T$40, DW_AT_byte_size(0x01)
    3285              DW$373  .dwtag  DW_TAG_member, DW_AT_type(*DW$T$11)
    3286                      .dwattr DW$373, DW_AT_name("newval"), DW_AT_symbol_name("_newval")
    3287                      .dwattr DW$373, DW_AT_bit_offset(0x0f), DW_AT_bit_size(0x01)
    3288                      .dwattr DW$373, DW_AT_data_member_location[DW_OP_plus_uconst 0x0]
TMS320C2000 COFF Assembler PC v4.1.3 Thu Aug 18 12:16:31 2016

Tools Copyright (c) 1996-2006 Texas Instruments Incorporated
slave485.asm                                                         PAGE   67

    3289                      .dwattr DW$373, DW_AT_accessibility(DW_ACCESS_public)
    3290              DW$374  .dwtag  DW_TAG_member, DW_AT_type(*DW$T$11)
    3291                      .dwattr DW$374, DW_AT_name("calmode"), DW_AT_symbol_name("_calmode")
    3292                      .dwattr DW$374, DW_AT_bit_offset(0x0e), DW_AT_bit_size(0x01)
    3293                      .dwattr DW$374, DW_AT_data_member_location[DW_OP_plus_uconst 0x0]
    3294                      .dwattr DW$374, DW_AT_accessibility(DW_ACCESS_public)
    3295              DW$375  .dwtag  DW_TAG_member, DW_AT_type(*DW$T$11)
    3296                      .dwattr DW$375, DW_AT_name("startcal"), DW_AT_symbol_name("_startcal")
    3297                      .dwattr DW$375, DW_AT_bit_offset(0x0d), DW_AT_bit_size(0x01)
    3298                      .dwattr DW$375, DW_AT_data_member_location[DW_OP_plus_uconst 0x0]
    3299                      .dwattr DW$375, DW_AT_accessibility(DW_ACCESS_public)
    3300              DW$376  .dwtag  DW_TAG_member, DW_AT_type(*DW$T$11)
    3301                      .dwattr DW$376, DW_AT_name("newvalspu2"), DW_AT_symbol_name("_newvalspu2")
    3302                      .dwattr DW$376, DW_AT_bit_offset(0x0c), DW_AT_bit_size(0x01)
    3303                      .dwattr DW$376, DW_AT_data_member_location[DW_OP_plus_uconst 0x0]
    3304                      .dwattr DW$376, DW_AT_accessibility(DW_ACCESS_public)
    3305              DW$377  .dwtag  DW_TAG_member, DW_AT_type(*DW$T$11)
    3306                      .dwattr DW$377, DW_AT_name("unused"), DW_AT_symbol_name("_unused")
    3307                      .dwattr DW$377, DW_AT_bit_offset(0x00), DW_AT_bit_size(0x0c)
    3308                      .dwattr DW$377, DW_AT_data_member_location[DW_OP_plus_uconst 0x0]
    3309                      .dwattr DW$377, DW_AT_accessibility(DW_ACCESS_public)
    3310                      .dwendtag DW$T$40
    3311              
    3312              
    3313              DW$T$41 .dwtag  DW_TAG_structure_type
    3314                      .dwattr DW$T$41, DW_AT_byte_size(0x01)
    3315              DW$378  .dwtag  DW_TAG_member, DW_AT_type(*DW$T$11)
    3316                      .dwattr DW$378, DW_AT_name("slowdowncntrl"), DW_AT_symbol_name("_slowdowncntrl")
    3317                      .dwattr DW$378, DW_AT_bit_offset(0x0f), DW_AT_bit_size(0x01)
    3318                      .dwattr DW$378, DW_AT_data_member_location[DW_OP_plus_uconst 0x0]
    3319                      .dwattr DW$378, DW_AT_accessibility(DW_ACCESS_public)
    3320              DW$379  .dwtag  DW_TAG_member, DW_AT_type(*DW$T$11)
    3321                      .dwattr DW$379, DW_AT_name("unused"), DW_AT_symbol_name("_unused")
    3322                      .dwattr DW$379, DW_AT_bit_offset(0x00), DW_AT_bit_size(0x0f)
    3323                      .dwattr DW$379, DW_AT_data_member_location[DW_OP_plus_uconst 0x0]
    3324                      .dwattr DW$379, DW_AT_accessibility(DW_ACCESS_public)
    3325                      .dwendtag DW$T$41
    3326              
    3327              
    3328              DW$T$43 .dwtag  DW_TAG_structure_type
    3329                      .dwattr DW$T$43, DW_AT_byte_size(0x01)
    3330              DW$380  .dwtag  DW_TAG_member, DW_AT_type(*DW$T$11)
    3331                      .dwattr DW$380, DW_AT_name("inputtap"), DW_AT_symbol_name("_inputtap")
    3332                      .dwattr DW$380, DW_AT_data_member_location[DW_OP_plus_uconst 0x0]
    3333                      .dwattr DW$380, DW_AT_accessibility(DW_ACCESS_public)
    3334                      .dwendtag DW$T$43
    3335              
    3336              
    3337              DW$T$44 .dwtag  DW_TAG_structure_type
    3338                      .dwattr DW$T$44, DW_AT_byte_size(0x01)
    3339              DW$381  .dwtag  DW_TAG_member, DW_AT_type(*DW$T$11)
    3340                      .dwattr DW$381, DW_AT_name("bitmap"), DW_AT_symbol_name("_bitmap")
    3341                      .dwattr DW$381, DW_AT_data_member_location[DW_OP_plus_uconst 0x0]
    3342                      .dwattr DW$381, DW_AT_accessibility(DW_ACCESS_public)
    3343                      .dwendtag DW$T$44
TMS320C2000 COFF Assembler PC v4.1.3 Thu Aug 18 12:16:31 2016

Tools Copyright (c) 1996-2006 Texas Instruments Incorporated
slave485.asm                                                         PAGE   68

    3344              
    3345              
    3346              DW$T$45 .dwtag  DW_TAG_structure_type
    3347                      .dwattr DW$T$45, DW_AT_byte_size(0x01)
    3348              DW$382  .dwtag  DW_TAG_member, DW_AT_type(*DW$T$11)
    3349                      .dwattr DW$382, DW_AT_name("graphvalue"), DW_AT_symbol_name("_graphvalue")
    3350                      .dwattr DW$382, DW_AT_data_member_location[DW_OP_plus_uconst 0x0]
    3351                      .dwattr DW$382, DW_AT_accessibility(DW_ACCESS_public)
    3352                      .dwendtag DW$T$45
    3353              
    3354              
    3355              DW$T$46 .dwtag  DW_TAG_structure_type
    3356                      .dwattr DW$T$46, DW_AT_byte_size(0x03)
    3357              DW$383  .dwtag  DW_TAG_member, DW_AT_type(*DW$T$11)
    3358                      .dwattr DW$383, DW_AT_name("chanlowthreshold"), DW_AT_symbol_name("_chanlowthreshold")
    3359                      .dwattr DW$383, DW_AT_data_member_location[DW_OP_plus_uconst 0x0]
    3360                      .dwattr DW$383, DW_AT_accessibility(DW_ACCESS_public)
    3361              DW$384  .dwtag  DW_TAG_member, DW_AT_type(*DW$T$11)
    3362                      .dwattr DW$384, DW_AT_name("chanhighthreshold"), DW_AT_symbol_name("_chanhighthreshold")
    3363                      .dwattr DW$384, DW_AT_data_member_location[DW_OP_plus_uconst 0x1]
    3364                      .dwattr DW$384, DW_AT_accessibility(DW_ACCESS_public)
    3365              DW$385  .dwtag  DW_TAG_member, DW_AT_type(*DW$T$11)
    3366                      .dwattr DW$385, DW_AT_name("sensorscalingfactor"), DW_AT_symbol_name("_sensorscalingfactor")
    3367                      .dwattr DW$385, DW_AT_data_member_location[DW_OP_plus_uconst 0x2]
    3368                      .dwattr DW$385, DW_AT_accessibility(DW_ACCESS_public)
    3369                      .dwendtag DW$T$46
    3370              
    3371              
    3372              DW$T$47 .dwtag  DW_TAG_structure_type
    3373                      .dwattr DW$T$47, DW_AT_byte_size(0x02)
    3374              DW$386  .dwtag  DW_TAG_member, DW_AT_type(*DW$T$11)
    3375                      .dwattr DW$386, DW_AT_name("shortlrate"), DW_AT_symbol_name("_shortlrate")
    3376                      .dwattr DW$386, DW_AT_data_member_location[DW_OP_plus_uconst 0x0]
    3377                      .dwattr DW$386, DW_AT_accessibility(DW_ACCESS_public)
    3378              DW$387  .dwtag  DW_TAG_member, DW_AT_type(*DW$T$11)
    3379                      .dwattr DW$387, DW_AT_name("longlrate"), DW_AT_symbol_name("_longlrate")
    3380                      .dwattr DW$387, DW_AT_data_member_location[DW_OP_plus_uconst 0x1]
    3381                      .dwattr DW$387, DW_AT_accessibility(DW_ACCESS_public)
    3382                      .dwendtag DW$T$47
    3383              
    3384              
    3385              DW$T$48 .dwtag  DW_TAG_structure_type
    3386                      .dwattr DW$T$48, DW_AT_byte_size(0x10)
    3387              DW$388  .dwtag  DW_TAG_member, DW_AT_type(*DW$T$13)
    3388                      .dwattr DW$388, DW_AT_name("wiorequest"), DW_AT_symbol_name("_wiorequest")
    3389                      .dwattr DW$388, DW_AT_data_member_location[DW_OP_plus_uconst 0x0]
    3390                      .dwattr DW$388, DW_AT_accessibility(DW_ACCESS_public)
    3391              DW$389  .dwtag  DW_TAG_member, DW_AT_type(*DW$T$13)
    3392                      .dwattr DW$389, DW_AT_name("wiocancelled"), DW_AT_symbol_name("_wiocancelled")
    3393                      .dwattr DW$389, DW_AT_data_member_location[DW_OP_plus_uconst 0x2]
    3394                      .dwattr DW$389, DW_AT_accessibility(DW_ACCESS_public)
    3395              DW$390  .dwtag  DW_TAG_member, DW_AT_type(*DW$T$13)
    3396                      .dwattr DW$390, DW_AT_name("wioreceived"), DW_AT_symbol_name("_wioreceived")
    3397                      .dwattr DW$390, DW_AT_data_member_location[DW_OP_plus_uconst 0x4]
    3398                      .dwattr DW$390, DW_AT_accessibility(DW_ACCESS_public)
TMS320C2000 COFF Assembler PC v4.1.3 Thu Aug 18 12:16:31 2016

Tools Copyright (c) 1996-2006 Texas Instruments Incorporated
slave485.asm                                                         PAGE   69

    3399              DW$391  .dwtag  DW_TAG_member, DW_AT_type(*DW$T$13)
    3400                      .dwattr DW$391, DW_AT_name("slaverequest"), DW_AT_symbol_name("_slaverequest")
    3401                      .dwattr DW$391, DW_AT_data_member_location[DW_OP_plus_uconst 0x6]
    3402                      .dwattr DW$391, DW_AT_accessibility(DW_ACCESS_public)
    3403              DW$392  .dwtag  DW_TAG_member, DW_AT_type(*DW$T$13)
    3404                      .dwattr DW$392, DW_AT_name("slavereceived"), DW_AT_symbol_name("_slavereceived")
    3405                      .dwattr DW$392, DW_AT_data_member_location[DW_OP_plus_uconst 0x8]
    3406                      .dwattr DW$392, DW_AT_accessibility(DW_ACCESS_public)
    3407              DW$393  .dwtag  DW_TAG_member, DW_AT_type(*DW$T$13)
    3408                      .dwattr DW$393, DW_AT_name("slaveretry"), DW_AT_symbol_name("_slaveretry")
    3409                      .dwattr DW$393, DW_AT_data_member_location[DW_OP_plus_uconst 0xa]
    3410                      .dwattr DW$393, DW_AT_accessibility(DW_ACCESS_public)
    3411              DW$394  .dwtag  DW_TAG_member, DW_AT_type(*DW$T$13)
    3412                      .dwattr DW$394, DW_AT_name("pcrequest"), DW_AT_symbol_name("_pcrequest")
    3413                      .dwattr DW$394, DW_AT_data_member_location[DW_OP_plus_uconst 0xc]
    3414                      .dwattr DW$394, DW_AT_accessibility(DW_ACCESS_public)
    3415              DW$395  .dwtag  DW_TAG_member, DW_AT_type(*DW$T$13)
    3416                      .dwattr DW$395, DW_AT_name("pcreqtimeout"), DW_AT_symbol_name("_pcreqtimeout")
    3417                      .dwattr DW$395, DW_AT_data_member_location[DW_OP_plus_uconst 0xe]
    3418                      .dwattr DW$395, DW_AT_accessibility(DW_ACCESS_public)
    3419                      .dwendtag DW$T$48
    3420              
    3421              DW$T$52 .dwtag  DW_TAG_base_type, DW_AT_name("signed char")
    3422                      .dwattr DW$T$52, DW_AT_encoding(DW_ATE_signed_char)
    3423                      .dwattr DW$T$52, DW_AT_byte_size(0x01)
    3424              
    3425              DW$T$58 .dwtag  DW_TAG_structure_type
    3426                      .dwattr DW$T$58, DW_AT_name("tag_sensorstruct")
    3427                      .dwattr DW$T$58, DW_AT_byte_size(0x12)
    3428              DW$396  .dwtag  DW_TAG_member, DW_AT_type(*DW$T$56)
    3429                      .dwattr DW$396, DW_AT_name("status1"), DW_AT_symbol_name("_status1")
    3430                      .dwattr DW$396, DW_AT_data_member_location[DW_OP_plus_uconst 0x0]
    3431                      .dwattr DW$396, DW_AT_accessibility(DW_ACCESS_public)
    3432              DW$397  .dwtag  DW_TAG_member, DW_AT_type(*DW$T$57)
    3433                      .dwattr DW$397, DW_AT_name("status2"), DW_AT_symbol_name("_status2")
    3434                      .dwattr DW$397, DW_AT_data_member_location[DW_OP_plus_uconst 0x1]
    3435                      .dwattr DW$397, DW_AT_accessibility(DW_ACCESS_public)
    3436              DW$398  .dwtag  DW_TAG_member, DW_AT_type(*DW$T$11)
    3437                      .dwattr DW$398, DW_AT_name("newval"), DW_AT_symbol_name("_newval")
    3438                      .dwattr DW$398, DW_AT_data_member_location[DW_OP_plus_uconst 0x2]
    3439                      .dwattr DW$398, DW_AT_accessibility(DW_ACCESS_public)
    3440              DW$399  .dwtag  DW_TAG_member, DW_AT_type(*DW$T$10)
    3441                      .dwattr DW$399, DW_AT_name("val"), DW_AT_symbol_name("_val")
    3442                      .dwattr DW$399, DW_AT_data_member_location[DW_OP_plus_uconst 0x3]
    3443                      .dwattr DW$399, DW_AT_accessibility(DW_ACCESS_public)
    3444              DW$400  .dwtag  DW_TAG_member, DW_AT_type(*DW$T$10)
    3445                      .dwattr DW$400, DW_AT_name("immediateval"), DW_AT_symbol_name("_immediateval")
    3446                      .dwattr DW$400, DW_AT_data_member_location[DW_OP_plus_uconst 0x4]
    3447                      .dwattr DW$400, DW_AT_accessibility(DW_ACCESS_public)
    3448              DW$401  .dwtag  DW_TAG_member, DW_AT_type(*DW$T$10)
    3449                      .dwattr DW$401, DW_AT_name("initialval"), DW_AT_symbol_name("_initialval")
    3450                      .dwattr DW$401, DW_AT_data_member_location[DW_OP_plus_uconst 0x5]
    3451                      .dwattr DW$401, DW_AT_accessibility(DW_ACCESS_public)
    3452              DW$402  .dwtag  DW_TAG_member, DW_AT_type(*DW$T$10)
    3453                      .dwattr DW$402, DW_AT_name("precomp"), DW_AT_symbol_name("_precomp")
TMS320C2000 COFF Assembler PC v4.1.3 Thu Aug 18 12:16:31 2016

Tools Copyright (c) 1996-2006 Texas Instruments Incorporated
slave485.asm                                                         PAGE   70

    3454                      .dwattr DW$402, DW_AT_data_member_location[DW_OP_plus_uconst 0x6]
    3455                      .dwattr DW$402, DW_AT_accessibility(DW_ACCESS_public)
    3456              DW$403  .dwtag  DW_TAG_member, DW_AT_type(*DW$T$10)
    3457                      .dwattr DW$403, DW_AT_name("postcomp"), DW_AT_symbol_name("_postcomp")
    3458                      .dwattr DW$403, DW_AT_data_member_location[DW_OP_plus_uconst 0x7]
    3459                      .dwattr DW$403, DW_AT_accessibility(DW_ACCESS_public)
    3460              DW$404  .dwtag  DW_TAG_member, DW_AT_type(*DW$T$16)
    3461                      .dwattr DW$404, DW_AT_name("postfilter"), DW_AT_symbol_name("_postfilter")
    3462                      .dwattr DW$404, DW_AT_data_member_location[DW_OP_plus_uconst 0x8]
    3463                      .dwattr DW$404, DW_AT_accessibility(DW_ACCESS_public)
    3464              DW$405  .dwtag  DW_TAG_member, DW_AT_type(*DW$T$10)
    3465                      .dwattr DW$405, DW_AT_name("endresult"), DW_AT_symbol_name("_endresult")
    3466                      .dwattr DW$405, DW_AT_data_member_location[DW_OP_plus_uconst 0xa]
    3467                      .dwattr DW$405, DW_AT_accessibility(DW_ACCESS_public)
    3468              DW$406  .dwtag  DW_TAG_member, DW_AT_type(*DW$T$10)
    3469                      .dwattr DW$406, DW_AT_name("deviation"), DW_AT_symbol_name("_deviation")
    3470                      .dwattr DW$406, DW_AT_data_member_location[DW_OP_plus_uconst 0xb]
    3471                      .dwattr DW$406, DW_AT_accessibility(DW_ACCESS_public)
    3472              DW$407  .dwtag  DW_TAG_member, DW_AT_type(*DW$T$10)
    3473                      .dwattr DW$407, DW_AT_name("min"), DW_AT_symbol_name("_min")
    3474                      .dwattr DW$407, DW_AT_data_member_location[DW_OP_plus_uconst 0xc]
    3475                      .dwattr DW$407, DW_AT_accessibility(DW_ACCESS_public)
    3476              DW$408  .dwtag  DW_TAG_member, DW_AT_type(*DW$T$10)
    3477                      .dwattr DW$408, DW_AT_name("max"), DW_AT_symbol_name("_max")
    3478                      .dwattr DW$408, DW_AT_data_member_location[DW_OP_plus_uconst 0xd]
    3479                      .dwattr DW$408, DW_AT_accessibility(DW_ACCESS_public)
    3480              DW$409  .dwtag  DW_TAG_member, DW_AT_type(*DW$T$10)
    3481                      .dwattr DW$409, DW_AT_name("devmin"), DW_AT_symbol_name("_devmin")
    3482                      .dwattr DW$409, DW_AT_data_member_location[DW_OP_plus_uconst 0xe]
    3483                      .dwattr DW$409, DW_AT_accessibility(DW_ACCESS_public)
    3484              DW$410  .dwtag  DW_TAG_member, DW_AT_type(*DW$T$10)
    3485                      .dwattr DW$410, DW_AT_name("devmax"), DW_AT_symbol_name("_devmax")
    3486                      .dwattr DW$410, DW_AT_data_member_location[DW_OP_plus_uconst 0xf]
    3487                      .dwattr DW$410, DW_AT_accessibility(DW_ACCESS_public)
    3488              DW$411  .dwtag  DW_TAG_member, DW_AT_type(*DW$T$11)
    3489                      .dwattr DW$411, DW_AT_name("rpm"), DW_AT_symbol_name("_rpm")
    3490                      .dwattr DW$411, DW_AT_data_member_location[DW_OP_plus_uconst 0x10]
    3491                      .dwattr DW$411, DW_AT_accessibility(DW_ACCESS_public)
    3492              DW$412  .dwtag  DW_TAG_member, DW_AT_type(*DW$T$10)
    3493                      .dwattr DW$412, DW_AT_name("prt"), DW_AT_symbol_name("_prt")
    3494                      .dwattr DW$412, DW_AT_data_member_location[DW_OP_plus_uconst 0x11]
    3495                      .dwattr DW$412, DW_AT_accessibility(DW_ACCESS_public)
    3496                      .dwendtag DW$T$58
    3497              
    3498              
    3499              DW$T$59 .dwtag  DW_TAG_structure_type
    3500                      .dwattr DW$T$59, DW_AT_byte_size(0x08)
    3501              DW$413  .dwtag  DW_TAG_member, DW_AT_type(*DW$T$11)
    3502                      .dwattr DW$413, DW_AT_name("programgo"), DW_AT_symbol_name("_programgo")
    3503                      .dwattr DW$413, DW_AT_data_member_location[DW_OP_plus_uconst 0x0]
    3504                      .dwattr DW$413, DW_AT_accessibility(DW_ACCESS_public)
    3505              DW$414  .dwtag  DW_TAG_member, DW_AT_type(*DW$T$11)
    3506                      .dwattr DW$414, DW_AT_name("status"), DW_AT_symbol_name("_status")
    3507                      .dwattr DW$414, DW_AT_data_member_location[DW_OP_plus_uconst 0x1]
    3508                      .dwattr DW$414, DW_AT_accessibility(DW_ACCESS_public)
TMS320C2000 COFF Assembler PC v4.1.3 Thu Aug 18 12:16:31 2016

Tools Copyright (c) 1996-2006 Texas Instruments Incorporated
slave485.asm                                                         PAGE   71

    3509              DW$415  .dwtag  DW_TAG_member, DW_AT_type(*DW$T$11)
    3510                      .dwattr DW$415, DW_AT_name("erase"), DW_AT_symbol_name("_erase")
    3511                      .dwattr DW$415, DW_AT_data_member_location[DW_OP_plus_uconst 0x2]
    3512                      .dwattr DW$415, DW_AT_accessibility(DW_ACCESS_public)
    3513              DW$416  .dwtag  DW_TAG_member, DW_AT_type(*DW$T$13)
    3514                      .dwattr DW$416, DW_AT_name("address"), DW_AT_symbol_name("_address")
    3515                      .dwattr DW$416, DW_AT_data_member_location[DW_OP_plus_uconst 0x4]
    3516                      .dwattr DW$416, DW_AT_accessibility(DW_ACCESS_public)
    3517              DW$417  .dwtag  DW_TAG_member, DW_AT_type(*DW$T$11)
    3518                      .dwattr DW$417, DW_AT_name("size"), DW_AT_symbol_name("_size")
    3519                      .dwattr DW$417, DW_AT_data_member_location[DW_OP_plus_uconst 0x6]
    3520                      .dwattr DW$417, DW_AT_accessibility(DW_ACCESS_public)
    3521                      .dwendtag DW$T$59
    3522              
    3523              
    3524              DW$T$26 .dwtag  DW_TAG_array_type, DW_AT_type(*DW$T$11)
    3525                      .dwattr DW$T$26, DW_AT_language(DW_LANG_C)
    3526                      .dwattr DW$T$26, DW_AT_byte_size(0x04)
    3527              DW$418  .dwtag  DW_TAG_subrange_type
    3528                      .dwattr DW$418, DW_AT_upper_bound(0x03)
    3529                      .dwendtag DW$T$26
    3530              
    3531              DW$T$16 .dwtag  DW_TAG_base_type, DW_AT_name("float")
    3532                      .dwattr DW$T$16, DW_AT_encoding(DW_ATE_float)
    3533                      .dwattr DW$T$16, DW_AT_byte_size(0x02)
    3534              DW$T$56 .dwtag  DW_TAG_typedef, DW_AT_name("status1struct"), DW_AT_type(*DW$T$54)
    3535                      .dwattr DW$T$56, DW_AT_language(DW_LANG_C)
    3536              DW$T$57 .dwtag  DW_TAG_typedef, DW_AT_name("sensoralarmstruct"), DW_AT_type(*DW$T$55)
    3537                      .dwattr DW$T$57, DW_AT_language(DW_LANG_C)
    3538              
    3539              DW$T$54 .dwtag  DW_TAG_structure_type
    3540                      .dwattr DW$T$54, DW_AT_name("tag_status1struct")
    3541                      .dwattr DW$T$54, DW_AT_byte_size(0x01)
    3542              DW$419  .dwtag  DW_TAG_member, DW_AT_type(*DW$T$11)
    3543                      .dwattr DW$419, DW_AT_name("enabled"), DW_AT_symbol_name("_enabled")
    3544                      .dwattr DW$419, DW_AT_bit_offset(0x0f), DW_AT_bit_size(0x01)
    3545                      .dwattr DW$419, DW_AT_data_member_location[DW_OP_plus_uconst 0x0]
    3546                      .dwattr DW$419, DW_AT_accessibility(DW_ACCESS_public)
    3547              DW$420  .dwtag  DW_TAG_member, DW_AT_type(*DW$T$11)
    3548                      .dwattr DW$420, DW_AT_name("calmode"), DW_AT_symbol_name("_calmode")
    3549                      .dwattr DW$420, DW_AT_bit_offset(0x0e), DW_AT_bit_size(0x01)
    3550                      .dwattr DW$420, DW_AT_data_member_location[DW_OP_plus_uconst 0x0]
    3551                      .dwattr DW$420, DW_AT_accessibility(DW_ACCESS_public)
    3552              DW$421  .dwtag  DW_TAG_member, DW_AT_type(*DW$T$11)
    3553                      .dwattr DW$421, DW_AT_name("alarmmask"), DW_AT_symbol_name("_alarmmask")
    3554                      .dwattr DW$421, DW_AT_bit_offset(0x0d), DW_AT_bit_size(0x01)
    3555                      .dwattr DW$421, DW_AT_data_member_location[DW_OP_plus_uconst 0x0]
    3556                      .dwattr DW$421, DW_AT_accessibility(DW_ACCESS_public)
    3557              DW$422  .dwtag  DW_TAG_member, DW_AT_type(*DW$T$11)
    3558                      .dwattr DW$422, DW_AT_name("dcmode"), DW_AT_symbol_name("_dcmode")
    3559                      .dwattr DW$422, DW_AT_bit_offset(0x0c), DW_AT_bit_size(0x01)
    3560                      .dwattr DW$422, DW_AT_data_member_location[DW_OP_plus_uconst 0x0]
    3561                      .dwattr DW$422, DW_AT_accessibility(DW_ACCESS_public)
    3562              DW$423  .dwtag  DW_TAG_member, DW_AT_type(*DW$T$11)
    3563                      .dwattr DW$423, DW_AT_name("replaced"), DW_AT_symbol_name("_replaced")
TMS320C2000 COFF Assembler PC v4.1.3 Thu Aug 18 12:16:31 2016

Tools Copyright (c) 1996-2006 Texas Instruments Incorporated
slave485.asm                                                         PAGE   72

    3564                      .dwattr DW$423, DW_AT_bit_offset(0x0b), DW_AT_bit_size(0x01)
    3565                      .dwattr DW$423, DW_AT_data_member_location[DW_OP_plus_uconst 0x0]
    3566                      .dwattr DW$423, DW_AT_accessibility(DW_ACCESS_public)
    3567              DW$424  .dwtag  DW_TAG_member, DW_AT_type(*DW$T$11)
    3568                      .dwattr DW$424, DW_AT_name("excludeslowroll"), DW_AT_symbol_name("_excludeslowroll")
    3569                      .dwattr DW$424, DW_AT_bit_offset(0x0a), DW_AT_bit_size(0x01)
    3570                      .dwattr DW$424, DW_AT_data_member_location[DW_OP_plus_uconst 0x0]
    3571                      .dwattr DW$424, DW_AT_accessibility(DW_ACCESS_public)
    3572              DW$425  .dwtag  DW_TAG_member, DW_AT_type(*DW$T$11)
    3573                      .dwattr DW$425, DW_AT_name("unused7"), DW_AT_symbol_name("_unused7")
    3574                      .dwattr DW$425, DW_AT_bit_offset(0x09), DW_AT_bit_size(0x01)
    3575                      .dwattr DW$425, DW_AT_data_member_location[DW_OP_plus_uconst 0x0]
    3576                      .dwattr DW$425, DW_AT_accessibility(DW_ACCESS_public)
    3577              DW$426  .dwtag  DW_TAG_member, DW_AT_type(*DW$T$11)
    3578                      .dwattr DW$426, DW_AT_name("unused8"), DW_AT_symbol_name("_unused8")
    3579                      .dwattr DW$426, DW_AT_bit_offset(0x08), DW_AT_bit_size(0x01)
    3580                      .dwattr DW$426, DW_AT_data_member_location[DW_OP_plus_uconst 0x0]
    3581                      .dwattr DW$426, DW_AT_accessibility(DW_ACCESS_public)
    3582              DW$427  .dwtag  DW_TAG_member, DW_AT_type(*DW$T$11)
    3583                      .dwattr DW$427, DW_AT_name("unused9"), DW_AT_symbol_name("_unused9")
    3584                      .dwattr DW$427, DW_AT_bit_offset(0x07), DW_AT_bit_size(0x01)
    3585                      .dwattr DW$427, DW_AT_data_member_location[DW_OP_plus_uconst 0x0]
    3586                      .dwattr DW$427, DW_AT_accessibility(DW_ACCESS_public)
    3587              DW$428  .dwtag  DW_TAG_member, DW_AT_type(*DW$T$11)
    3588                      .dwattr DW$428, DW_AT_name("unused10"), DW_AT_symbol_name("_unused10")
    3589                      .dwattr DW$428, DW_AT_bit_offset(0x06), DW_AT_bit_size(0x01)
    3590                      .dwattr DW$428, DW_AT_data_member_location[DW_OP_plus_uconst 0x0]
    3591                      .dwattr DW$428, DW_AT_accessibility(DW_ACCESS_public)
    3592              DW$429  .dwtag  DW_TAG_member, DW_AT_type(*DW$T$11)
    3593                      .dwattr DW$429, DW_AT_name("unused11"), DW_AT_symbol_name("_unused11")
    3594                      .dwattr DW$429, DW_AT_bit_offset(0x05), DW_AT_bit_size(0x01)
    3595                      .dwattr DW$429, DW_AT_data_member_location[DW_OP_plus_uconst 0x0]
    3596                      .dwattr DW$429, DW_AT_accessibility(DW_ACCESS_public)
    3597              DW$430  .dwtag  DW_TAG_member, DW_AT_type(*DW$T$11)
    3598                      .dwattr DW$430, DW_AT_name("unused12"), DW_AT_symbol_name("_unused12")
    3599                      .dwattr DW$430, DW_AT_bit_offset(0x04), DW_AT_bit_size(0x01)
    3600                      .dwattr DW$430, DW_AT_data_member_location[DW_OP_plus_uconst 0x0]
    3601                      .dwattr DW$430, DW_AT_accessibility(DW_ACCESS_public)
    3602              DW$431  .dwtag  DW_TAG_member, DW_AT_type(*DW$T$11)
    3603                      .dwattr DW$431, DW_AT_name("unused13"), DW_AT_symbol_name("_unused13")
    3604                      .dwattr DW$431, DW_AT_bit_offset(0x03), DW_AT_bit_size(0x01)
    3605                      .dwattr DW$431, DW_AT_data_member_location[DW_OP_plus_uconst 0x0]
    3606                      .dwattr DW$431, DW_AT_accessibility(DW_ACCESS_public)
    3607              DW$432  .dwtag  DW_TAG_member, DW_AT_type(*DW$T$11)
    3608                      .dwattr DW$432, DW_AT_name("unused14"), DW_AT_symbol_name("_unused14")
    3609                      .dwattr DW$432, DW_AT_bit_offset(0x02), DW_AT_bit_size(0x01)
    3610                      .dwattr DW$432, DW_AT_data_member_location[DW_OP_plus_uconst 0x0]
    3611                      .dwattr DW$432, DW_AT_accessibility(DW_ACCESS_public)
    3612              DW$433  .dwtag  DW_TAG_member, DW_AT_type(*DW$T$11)
    3613                      .dwattr DW$433, DW_AT_name("unused15"), DW_AT_symbol_name("_unused15")
    3614                      .dwattr DW$433, DW_AT_bit_offset(0x01), DW_AT_bit_size(0x01)
    3615                      .dwattr DW$433, DW_AT_data_member_location[DW_OP_plus_uconst 0x0]
    3616                      .dwattr DW$433, DW_AT_accessibility(DW_ACCESS_public)
    3617              DW$434  .dwtag  DW_TAG_member, DW_AT_type(*DW$T$11)
    3618                      .dwattr DW$434, DW_AT_name("unused16"), DW_AT_symbol_name("_unused16")
TMS320C2000 COFF Assembler PC v4.1.3 Thu Aug 18 12:16:31 2016

Tools Copyright (c) 1996-2006 Texas Instruments Incorporated
slave485.asm                                                         PAGE   73

    3619                      .dwattr DW$434, DW_AT_bit_offset(0x00), DW_AT_bit_size(0x01)
    3620                      .dwattr DW$434, DW_AT_data_member_location[DW_OP_plus_uconst 0x0]
    3621                      .dwattr DW$434, DW_AT_accessibility(DW_ACCESS_public)
    3622                      .dwendtag DW$T$54
    3623              
    3624              
    3625              DW$T$55 .dwtag  DW_TAG_structure_type
    3626                      .dwattr DW$T$55, DW_AT_name("tag_sensoralarmstruct")
    3627                      .dwattr DW$T$55, DW_AT_byte_size(0x01)
    3628              DW$435  .dwtag  DW_TAG_member, DW_AT_type(*DW$T$11)
    3629                      .dwattr DW$435, DW_AT_name("failure"), DW_AT_symbol_name("_failure")
    3630                      .dwattr DW$435, DW_AT_bit_offset(0x0f), DW_AT_bit_size(0x01)
    3631                      .dwattr DW$435, DW_AT_data_member_location[DW_OP_plus_uconst 0x0]
    3632                      .dwattr DW$435, DW_AT_accessibility(DW_ACCESS_public)
    3633              DW$436  .dwtag  DW_TAG_member, DW_AT_type(*DW$T$11)
    3634                      .dwattr DW$436, DW_AT_name("failurelatched"), DW_AT_symbol_name("_failurelatched")
    3635                      .dwattr DW$436, DW_AT_bit_offset(0x0e), DW_AT_bit_size(0x01)
    3636                      .dwattr DW$436, DW_AT_data_member_location[DW_OP_plus_uconst 0x0]
    3637                      .dwattr DW$436, DW_AT_accessibility(DW_ACCESS_public)
    3638              DW$437  .dwtag  DW_TAG_member, DW_AT_type(*DW$T$11)
    3639                      .dwattr DW$437, DW_AT_name("slowdown"), DW_AT_symbol_name("_slowdown")
    3640                      .dwattr DW$437, DW_AT_bit_offset(0x0d), DW_AT_bit_size(0x01)
    3641                      .dwattr DW$437, DW_AT_data_member_location[DW_OP_plus_uconst 0x0]
    3642                      .dwattr DW$437, DW_AT_accessibility(DW_ACCESS_public)
    3643              DW$438  .dwtag  DW_TAG_member, DW_AT_type(*DW$T$11)
    3644                      .dwattr DW$438, DW_AT_name("slowdownlatched"), DW_AT_symbol_name("_slowdownlatched")
    3645                      .dwattr DW$438, DW_AT_bit_offset(0x0c), DW_AT_bit_size(0x01)
    3646                      .dwattr DW$438, DW_AT_data_member_location[DW_OP_plus_uconst 0x0]
    3647                      .dwattr DW$438, DW_AT_accessibility(DW_ACCESS_public)
    3648              DW$439  .dwtag  DW_TAG_member, DW_AT_type(*DW$T$11)
    3649                      .dwattr DW$439, DW_AT_name("alarm"), DW_AT_symbol_name("_alarm")
    3650                      .dwattr DW$439, DW_AT_bit_offset(0x0b), DW_AT_bit_size(0x01)
    3651                      .dwattr DW$439, DW_AT_data_member_location[DW_OP_plus_uconst 0x0]
    3652                      .dwattr DW$439, DW_AT_accessibility(DW_ACCESS_public)
    3653              DW$440  .dwtag  DW_TAG_member, DW_AT_type(*DW$T$11)
    3654                      .dwattr DW$440, DW_AT_name("alarmlatched"), DW_AT_symbol_name("_alarmlatched")
    3655                      .dwattr DW$440, DW_AT_bit_offset(0x0a), DW_AT_bit_size(0x01)
    3656                      .dwattr DW$440, DW_AT_data_member_location[DW_OP_plus_uconst 0x0]
    3657                      .dwattr DW$440, DW_AT_accessibility(DW_ACCESS_public)
    3658              DW$441  .dwtag  DW_TAG_member, DW_AT_type(*DW$T$11)
    3659                      .dwattr DW$441, DW_AT_name("devalarm"), DW_AT_symbol_name("_devalarm")
    3660                      .dwattr DW$441, DW_AT_bit_offset(0x09), DW_AT_bit_size(0x01)
    3661                      .dwattr DW$441, DW_AT_data_member_location[DW_OP_plus_uconst 0x0]
    3662                      .dwattr DW$441, DW_AT_accessibility(DW_ACCESS_public)
    3663              DW$442  .dwtag  DW_TAG_member, DW_AT_type(*DW$T$11)
    3664                      .dwattr DW$442, DW_AT_name("devalarmlatched"), DW_AT_symbol_name("_devalarmlatched")
    3665                      .dwattr DW$442, DW_AT_bit_offset(0x08), DW_AT_bit_size(0x01)
    3666                      .dwattr DW$442, DW_AT_data_member_location[DW_OP_plus_uconst 0x0]
    3667                      .dwattr DW$442, DW_AT_accessibility(DW_ACCESS_public)
    3668              DW$443  .dwtag  DW_TAG_member, DW_AT_type(*DW$T$11)
    3669                      .dwattr DW$443, DW_AT_name("devslow"), DW_AT_symbol_name("_devslow")
    3670                      .dwattr DW$443, DW_AT_bit_offset(0x07), DW_AT_bit_size(0x01)
    3671                      .dwattr DW$443, DW_AT_data_member_location[DW_OP_plus_uconst 0x0]
    3672                      .dwattr DW$443, DW_AT_accessibility(DW_ACCESS_public)
    3673              DW$444  .dwtag  DW_TAG_member, DW_AT_type(*DW$T$11)
TMS320C2000 COFF Assembler PC v4.1.3 Thu Aug 18 12:16:31 2016

Tools Copyright (c) 1996-2006 Texas Instruments Incorporated
slave485.asm                                                         PAGE   74

    3674                      .dwattr DW$444, DW_AT_name("devslowlatched"), DW_AT_symbol_name("_devslowlatched")
    3675                      .dwattr DW$444, DW_AT_bit_offset(0x06), DW_AT_bit_size(0x01)
    3676                      .dwattr DW$444, DW_AT_data_member_location[DW_OP_plus_uconst 0x0]
    3677                      .dwattr DW$444, DW_AT_accessibility(DW_ACCESS_public)
    3678              DW$445  .dwtag  DW_TAG_member, DW_AT_type(*DW$T$11)
    3679                      .dwattr DW$445, DW_AT_name("calibration"), DW_AT_symbol_name("_calibration")
    3680                      .dwattr DW$445, DW_AT_bit_offset(0x05), DW_AT_bit_size(0x01)
    3681                      .dwattr DW$445, DW_AT_data_member_location[DW_OP_plus_uconst 0x0]
    3682                      .dwattr DW$445, DW_AT_accessibility(DW_ACCESS_public)
    3683              DW$446  .dwtag  DW_TAG_member, DW_AT_type(*DW$T$11)
    3684                      .dwattr DW$446, DW_AT_name("calibrationlatched"), DW_AT_symbol_name("_calibrationlatched")
    3685                      .dwattr DW$446, DW_AT_bit_offset(0x04), DW_AT_bit_size(0x01)
    3686                      .dwattr DW$446, DW_AT_data_member_location[DW_OP_plus_uconst 0x0]
    3687                      .dwattr DW$446, DW_AT_accessibility(DW_ACCESS_public)
    3688              DW$447  .dwtag  DW_TAG_member, DW_AT_type(*DW$T$11)
    3689                      .dwattr DW$447, DW_AT_name("prewarning"), DW_AT_symbol_name("_prewarning")
    3690                      .dwattr DW$447, DW_AT_bit_offset(0x03), DW_AT_bit_size(0x01)
    3691                      .dwattr DW$447, DW_AT_data_member_location[DW_OP_plus_uconst 0x0]
    3692                      .dwattr DW$447, DW_AT_accessibility(DW_ACCESS_public)
    3693              DW$448  .dwtag  DW_TAG_member, DW_AT_type(*DW$T$11)
    3694                      .dwattr DW$448, DW_AT_name("prewarninglatched"), DW_AT_symbol_name("_prewarninglatched")
    3695                      .dwattr DW$448, DW_AT_bit_offset(0x02), DW_AT_bit_size(0x01)
    3696                      .dwattr DW$448, DW_AT_data_member_location[DW_OP_plus_uconst 0x0]
    3697                      .dwattr DW$448, DW_AT_accessibility(DW_ACCESS_public)
    3698              DW$449  .dwtag  DW_TAG_member, DW_AT_type(*DW$T$11)
    3699                      .dwattr DW$449, DW_AT_name("unused15"), DW_AT_symbol_name("_unused15")
    3700                      .dwattr DW$449, DW_AT_bit_offset(0x01), DW_AT_bit_size(0x01)
    3701                      .dwattr DW$449, DW_AT_data_member_location[DW_OP_plus_uconst 0x0]
    3702                      .dwattr DW$449, DW_AT_accessibility(DW_ACCESS_public)
    3703              DW$450  .dwtag  DW_TAG_member, DW_AT_type(*DW$T$11)
    3704                      .dwattr DW$450, DW_AT_name("unused16"), DW_AT_symbol_name("_unused16")
    3705                      .dwattr DW$450, DW_AT_bit_offset(0x00), DW_AT_bit_size(0x01)
    3706                      .dwattr DW$450, DW_AT_data_member_location[DW_OP_plus_uconst 0x0]
    3707                      .dwattr DW$450, DW_AT_accessibility(DW_ACCESS_public)
    3708                      .dwendtag DW$T$55
    3709              
    3710              
    3711                      .dwattr DW$107, DW_AT_external(0x01)
    3712                      .dwattr DW$57, DW_AT_external(0x01)
    3713                      .dwattr DW$57, DW_AT_type(*DW$T$10)
    3714                      .dwattr DW$114, DW_AT_external(0x01)
    3715                      .dwattr DW$113, DW_AT_external(0x01)
    3716                      .dwattr DW$112, DW_AT_external(0x01)
    3717                      .dwattr DW$60, DW_AT_external(0x01)
    3718                      .dwattr DW$55, DW_AT_external(0x01)
    3719                      .dwattr DW$56, DW_AT_external(0x01)
    3720                      .dwattr DW$63, DW_AT_external(0x01)
    3721                      .dwattr DW$141, DW_AT_external(0x01)
    3722                      .dwattr DW$CU, DW_AT_language(DW_LANG_C)
    3723              
    3724              ;***************************************************************
    3725              ;* DWARF REGISTER MAP                                          *
    3726              ;***************************************************************
    3727              
    3728              DW$451  .dwtag  DW_TAG_assign_register, DW_AT_name("AL")
TMS320C2000 COFF Assembler PC v4.1.3 Thu Aug 18 12:16:31 2016

Tools Copyright (c) 1996-2006 Texas Instruments Incorporated
slave485.asm                                                         PAGE   75

    3729                      .dwattr DW$451, DW_AT_location[DW_OP_reg0]
    3730              DW$452  .dwtag  DW_TAG_assign_register, DW_AT_name("AH")
    3731                      .dwattr DW$452, DW_AT_location[DW_OP_reg1]
    3732              DW$453  .dwtag  DW_TAG_assign_register, DW_AT_name("PL")
    3733                      .dwattr DW$453, DW_AT_location[DW_OP_reg2]
    3734              DW$454  .dwtag  DW_TAG_assign_register, DW_AT_name("PH")
    3735                      .dwattr DW$454, DW_AT_location[DW_OP_reg3]
    3736              DW$455  .dwtag  DW_TAG_assign_register, DW_AT_name("AR0")
    3737                      .dwattr DW$455, DW_AT_location[DW_OP_reg4]
    3738              DW$456  .dwtag  DW_TAG_assign_register, DW_AT_name("XAR0")
    3739                      .dwattr DW$456, DW_AT_location[DW_OP_reg5]
    3740              DW$457  .dwtag  DW_TAG_assign_register, DW_AT_name("AR1")
    3741                      .dwattr DW$457, DW_AT_location[DW_OP_reg6]
    3742              DW$458  .dwtag  DW_TAG_assign_register, DW_AT_name("XAR1")
    3743                      .dwattr DW$458, DW_AT_location[DW_OP_reg7]
    3744              DW$459  .dwtag  DW_TAG_assign_register, DW_AT_name("AR2")
    3745                      .dwattr DW$459, DW_AT_location[DW_OP_reg8]
    3746              DW$460  .dwtag  DW_TAG_assign_register, DW_AT_name("XAR2")
    3747                      .dwattr DW$460, DW_AT_location[DW_OP_reg9]
    3748              DW$461  .dwtag  DW_TAG_assign_register, DW_AT_name("AR3")
    3749                      .dwattr DW$461, DW_AT_location[DW_OP_reg10]
    3750              DW$462  .dwtag  DW_TAG_assign_register, DW_AT_name("XAR3")
    3751                      .dwattr DW$462, DW_AT_location[DW_OP_reg11]
    3752              DW$463  .dwtag  DW_TAG_assign_register, DW_AT_name("AR4")
    3753                      .dwattr DW$463, DW_AT_location[DW_OP_reg12]
    3754              DW$464  .dwtag  DW_TAG_assign_register, DW_AT_name("XAR4")
    3755                      .dwattr DW$464, DW_AT_location[DW_OP_reg13]
    3756              DW$465  .dwtag  DW_TAG_assign_register, DW_AT_name("AR5")
    3757                      .dwattr DW$465, DW_AT_location[DW_OP_reg14]
    3758              DW$466  .dwtag  DW_TAG_assign_register, DW_AT_name("XAR5")
    3759                      .dwattr DW$466, DW_AT_location[DW_OP_reg15]
    3760              DW$467  .dwtag  DW_TAG_assign_register, DW_AT_name("AR6")
    3761                      .dwattr DW$467, DW_AT_location[DW_OP_reg16]
    3762              DW$468  .dwtag  DW_TAG_assign_register, DW_AT_name("XAR6")
    3763                      .dwattr DW$468, DW_AT_location[DW_OP_reg17]
    3764              DW$469  .dwtag  DW_TAG_assign_register, DW_AT_name("AR7")
    3765                      .dwattr DW$469, DW_AT_location[DW_OP_reg18]
    3766              DW$470  .dwtag  DW_TAG_assign_register, DW_AT_name("XAR7")
    3767                      .dwattr DW$470, DW_AT_location[DW_OP_reg19]
    3768              DW$471  .dwtag  DW_TAG_assign_register, DW_AT_name("SP")
    3769                      .dwattr DW$471, DW_AT_location[DW_OP_reg20]
    3770              DW$472  .dwtag  DW_TAG_assign_register, DW_AT_name("XT")
    3771                      .dwattr DW$472, DW_AT_location[DW_OP_reg21]
    3772              DW$473  .dwtag  DW_TAG_assign_register, DW_AT_name("T")
    3773                      .dwattr DW$473, DW_AT_location[DW_OP_reg22]
    3774              DW$474  .dwtag  DW_TAG_assign_register, DW_AT_name("ST0")
    3775                      .dwattr DW$474, DW_AT_location[DW_OP_reg23]
    3776              DW$475  .dwtag  DW_TAG_assign_register, DW_AT_name("ST1")
    3777                      .dwattr DW$475, DW_AT_location[DW_OP_reg24]
    3778              DW$476  .dwtag  DW_TAG_assign_register, DW_AT_name("PC")
    3779                      .dwattr DW$476, DW_AT_location[DW_OP_reg25]
    3780              DW$477  .dwtag  DW_TAG_assign_register, DW_AT_name("RPC")
    3781                      .dwattr DW$477, DW_AT_location[DW_OP_reg26]
    3782              DW$478  .dwtag  DW_TAG_assign_register, DW_AT_name("FP")
    3783                      .dwattr DW$478, DW_AT_location[DW_OP_reg27]
TMS320C2000 COFF Assembler PC v4.1.3 Thu Aug 18 12:16:31 2016

Tools Copyright (c) 1996-2006 Texas Instruments Incorporated
slave485.asm                                                         PAGE   76

    3784              DW$479  .dwtag  DW_TAG_assign_register, DW_AT_name("DP")
    3785                      .dwattr DW$479, DW_AT_location[DW_OP_reg28]
    3786              DW$480  .dwtag  DW_TAG_assign_register, DW_AT_name("SXM")
    3787                      .dwattr DW$480, DW_AT_location[DW_OP_reg29]
    3788              DW$481  .dwtag  DW_TAG_assign_register, DW_AT_name("PM")
    3789                      .dwattr DW$481, DW_AT_location[DW_OP_reg30]
    3790              DW$482  .dwtag  DW_TAG_assign_register, DW_AT_name("OVM")
    3791                      .dwattr DW$482, DW_AT_location[DW_OP_reg31]
    3792              DW$483  .dwtag  DW_TAG_assign_register, DW_AT_name("PAGE0")
    3793                      .dwattr DW$483, DW_AT_location[DW_OP_regx 0x20]
    3794              DW$484  .dwtag  DW_TAG_assign_register, DW_AT_name("AMODE")
    3795                      .dwattr DW$484, DW_AT_location[DW_OP_regx 0x21]
    3796              DW$485  .dwtag  DW_TAG_assign_register, DW_AT_name("IFR")
    3797                      .dwattr DW$485, DW_AT_location[DW_OP_regx 0x22]
    3798              DW$486  .dwtag  DW_TAG_assign_register, DW_AT_name("IER")
    3799                      .dwattr DW$486, DW_AT_location[DW_OP_regx 0x23]
    3800              DW$487  .dwtag  DW_TAG_assign_register, DW_AT_name("IER")
    3801                      .dwattr DW$487, DW_AT_location[DW_OP_regx 0x24]
    3802              DW$488  .dwtag  DW_TAG_assign_register, DW_AT_name("PSEUDO")
    3803                      .dwattr DW$488, DW_AT_location[DW_OP_regx 0x25]
    3804              DW$489  .dwtag  DW_TAG_assign_register, DW_AT_name("PSEUDOH")
    3805                      .dwattr DW$489, DW_AT_location[DW_OP_regx 0x26]
    3806              DW$490  .dwtag  DW_TAG_assign_register, DW_AT_name("VOL")
    3807                      .dwattr DW$490, DW_AT_location[DW_OP_regx 0x27]
    3808              DW$491  .dwtag  DW_TAG_assign_register, DW_AT_name("CIE_RETA")
    3809                      .dwattr DW$491, DW_AT_location[DW_OP_regx 0x28]
    3810                      .dwendtag DW$CU
    3811              

No Assembly Errors, No Assembly Warnings
