TMS320C2000 COFF Assembler PC v4.1.3 Thu Aug 18 12:16:32 2016

Tools Copyright (c) 1996-2006 Texas Instruments Incorporated
spi.asm                                                              PAGE    1

       1              ;***************************************************************
       2              ;* TMS320C2000 C/C++ Codegen                         PC v4.1.3 *
       3              ;* Date/Time created: Thu Aug 18 12:16:32 2016                 *
       4              ;***************************************************************
       5                      .compiler_opts --mem_model:code=flat --mem_model:data=large --quiet --silicon_version=28 
       6        0002  FP      .set    XAR2
       7              
       8              DW$CU   .dwtag  DW_TAG_compile_unit
       9                      .dwattr DW$CU, DW_AT_name("spi.c")
      10                      .dwattr DW$CU, DW_AT_producer("TMS320C2000 C/C++ Codegen PC v4.1.3 Copyright (c) 1996-2006 Texas Inst
      11                      .dwattr DW$CU, DW_AT_stmt_list(0x00)
      12                      .dwattr DW$CU, DW_AT_TI_VERSION(0x01)
      13              
      14              DW$1    .dwtag  DW_TAG_subprogram, DW_AT_name("DebugStringOut"), DW_AT_symbol_name("_DebugStringOut")
      15                      .dwattr DW$1, DW_AT_declaration(0x01)
      16                      .dwattr DW$1, DW_AT_external(0x01)
      17              DW$2    .dwtag  DW_TAG_formal_parameter, DW_AT_type(*DW$T$79)
      18                      .dwendtag DW$1
      19              
      20              
      21              DW$3    .dwtag  DW_TAG_subprogram, DW_AT_name("NOPDelay"), DW_AT_symbol_name("_NOPDelay")
      22                      .dwattr DW$3, DW_AT_declaration(0x01)
      23                      .dwattr DW$3, DW_AT_external(0x01)
      24              DW$4    .dwtag  DW_TAG_formal_parameter, DW_AT_type(*DW$T$11)
      25                      .dwendtag DW$3
      26              
      27              
      28              DW$5    .dwtag  DW_TAG_subprogram, DW_AT_name("DateTimetoInt"), DW_AT_symbol_name("_DateTimetoInt")
      29                      .dwattr DW$5, DW_AT_declaration(0x01)
      30                      .dwattr DW$5, DW_AT_external(0x01)
      31              
      32              DW$6    .dwtag  DW_TAG_subprogram, DW_AT_name("SaveTimetoFram"), DW_AT_symbol_name("_SaveTimetoFram")
      33                      .dwattr DW$6, DW_AT_declaration(0x01)
      34                      .dwattr DW$6, DW_AT_external(0x01)
      35              
      36              DW$7    .dwtag  DW_TAG_subprogram, DW_AT_name("BuildTimeStamp"), DW_AT_symbol_name("_BuildTimeStamp")
      37                      .dwattr DW$7, DW_AT_type(*DW$T$13)
      38                      .dwattr DW$7, DW_AT_declaration(0x01)
      39                      .dwattr DW$7, DW_AT_external(0x01)
      40              
      41              DW$8    .dwtag  DW_TAG_subprogram, DW_AT_name("ClearAlarmEvent"), DW_AT_symbol_name("_ClearAlarmEvent")
      42                      .dwattr DW$8, DW_AT_declaration(0x01)
      43                      .dwattr DW$8, DW_AT_external(0x01)
      44              DW$9    .dwtag  DW_TAG_formal_parameter, DW_AT_type(*DW$T$11)
      45                      .dwendtag DW$8
      46              
      47              DW$10   .dwtag  DW_TAG_variable, DW_AT_name("settings"), DW_AT_symbol_name("_settings")
      48                      .dwattr DW$10, DW_AT_type(*DW$T$103)
      49                      .dwattr DW$10, DW_AT_declaration(0x01)
      50                      .dwattr DW$10, DW_AT_external(0x01)
      51              DW$11   .dwtag  DW_TAG_variable, DW_AT_name("safe1"), DW_AT_symbol_name("_safe1")
      52                      .dwattr DW$11, DW_AT_type(*DW$T$104)
      53                      .dwattr DW$11, DW_AT_declaration(0x01)
      54                      .dwattr DW$11, DW_AT_external(0x01)
      55              DW$12   .dwtag  DW_TAG_variable, DW_AT_name("safe2"), DW_AT_symbol_name("_safe2")
TMS320C2000 COFF Assembler PC v4.1.3 Thu Aug 18 12:16:32 2016

Tools Copyright (c) 1996-2006 Texas Instruments Incorporated
spi.asm                                                              PAGE    2

      56                      .dwattr DW$12, DW_AT_type(*DW$T$106)
      57                      .dwattr DW$12, DW_AT_declaration(0x01)
      58                      .dwattr DW$12, DW_AT_external(0x01)
      59              DW$13   .dwtag  DW_TAG_variable, DW_AT_name("xtswplusanacal"), DW_AT_symbol_name("_xtswplusanacal")
      60                      .dwattr DW$13, DW_AT_type(*DW$T$108)
      61                      .dwattr DW$13, DW_AT_declaration(0x01)
      62                      .dwattr DW$13, DW_AT_external(0x01)
      63              DW$14   .dwtag  DW_TAG_variable, DW_AT_name("clocktime"), DW_AT_symbol_name("_clocktime")
      64                      .dwattr DW$14, DW_AT_type(*DW$T$110)
      65                      .dwattr DW$14, DW_AT_declaration(0x01)
      66                      .dwattr DW$14, DW_AT_external(0x01)
      67              DW$15   .dwtag  DW_TAG_variable, DW_AT_name("timers"), DW_AT_symbol_name("_timers")
      68                      .dwattr DW$15, DW_AT_type(*DW$T$112)
      69                      .dwattr DW$15, DW_AT_declaration(0x01)
      70                      .dwattr DW$15, DW_AT_external(0x01)
      71              DW$16   .dwtag  DW_TAG_variable, DW_AT_name("config"), DW_AT_symbol_name("_config")
      72                      .dwattr DW$16, DW_AT_type(*DW$T$114)
      73                      .dwattr DW$16, DW_AT_declaration(0x01)
      74                      .dwattr DW$16, DW_AT_external(0x01)
      75              DW$17   .dwtag  DW_TAG_variable, DW_AT_name("gpb"), DW_AT_symbol_name("_gpb")
      76                      .dwattr DW$17, DW_AT_type(*DW$T$116)
      77                      .dwattr DW$17, DW_AT_declaration(0x01)
      78                      .dwattr DW$17, DW_AT_external(0x01)
      79              DW$18   .dwtag  DW_TAG_variable, DW_AT_name("gpf"), DW_AT_symbol_name("_gpf")
      80                      .dwattr DW$18, DW_AT_type(*DW$T$120)
      81                      .dwattr DW$18, DW_AT_declaration(0x01)
      82                      .dwattr DW$18, DW_AT_external(0x01)
      83              DW$19   .dwtag  DW_TAG_variable, DW_AT_name("receiveC"), DW_AT_symbol_name("_receiveC")
      84                      .dwattr DW$19, DW_AT_type(*DW$T$123)
      85                      .dwattr DW$19, DW_AT_declaration(0x01)
      86                      .dwattr DW$19, DW_AT_external(0x01)
      87              DW$20   .dwtag  DW_TAG_variable, DW_AT_name("sdsettings"), DW_AT_symbol_name("_sdsettings")
      88                      .dwattr DW$20, DW_AT_type(*DW$T$124)
      89                      .dwattr DW$20, DW_AT_declaration(0x01)
      90                      .dwattr DW$20, DW_AT_external(0x01)
      91              DW$21   .dwtag  DW_TAG_variable, DW_AT_name("alarms"), DW_AT_symbol_name("_alarms")
      92                      .dwattr DW$21, DW_AT_type(*DW$T$126)
      93                      .dwattr DW$21, DW_AT_declaration(0x01)
      94                      .dwattr DW$21, DW_AT_external(0x01)
      95              DW$22   .dwtag  DW_TAG_variable, DW_AT_name("firmware"), DW_AT_symbol_name("_firmware")
      96                      .dwattr DW$22, DW_AT_type(*DW$T$128)
      97                      .dwattr DW$22, DW_AT_declaration(0x01)
      98                      .dwattr DW$22, DW_AT_external(0x01)
      99                      .global _spiregs
     100 00000000       _spiregs:       .usect  ".spiregisters",16,0,0
     101              DW$23   .dwtag  DW_TAG_variable, DW_AT_name("spiregs"), DW_AT_symbol_name("_spiregs")
     102                      .dwattr DW$23, DW_AT_location[DW_OP_addr _spiregs]
     103                      .dwattr DW$23, DW_AT_type(*DW$T$130)
     104                      .dwattr DW$23, DW_AT_external(0x01)
     105                      .global _dummy
     106 00000000       _dummy: .usect  ".ebss",1,1,0
     107              DW$24   .dwtag  DW_TAG_variable, DW_AT_name("dummy"), DW_AT_symbol_name("_dummy")
     108                      .dwattr DW$24, DW_AT_location[DW_OP_addr _dummy]
     109                      .dwattr DW$24, DW_AT_type(*DW$T$11)
     110                      .dwattr DW$24, DW_AT_external(0x01)
TMS320C2000 COFF Assembler PC v4.1.3 Thu Aug 18 12:16:32 2016

Tools Copyright (c) 1996-2006 Texas Instruments Incorporated
spi.asm                                                              PAGE    3

     111                      .global _flashaddr
     112 00000002       _flashaddr:     .usect  ".ebss",4,1,1
     113              DW$25   .dwtag  DW_TAG_variable, DW_AT_name("flashaddr"), DW_AT_symbol_name("_flashaddr")
     114                      .dwattr DW$25, DW_AT_location[DW_OP_addr _flashaddr]
     115                      .dwattr DW$25, DW_AT_type(*DW$T$132)
     116                      .dwattr DW$25, DW_AT_external(0x01)
     117                      .global _flashcheck
     118 00000006       _flashcheck:    .usect  ".ebss",4,1,0
     119              DW$26   .dwtag  DW_TAG_variable, DW_AT_name("flashcheck"), DW_AT_symbol_name("_flashcheck")
     120                      .dwattr DW$26, DW_AT_location[DW_OP_addr _flashcheck]
     121                      .dwattr DW$26, DW_AT_type(*DW$T$133)
     122                      .dwattr DW$26, DW_AT_external(0x01)
     123              ;       C:\CCStudio_v3.3\C2000\cgtools\bin\opt2000.exe C:\Users\Andrew\AppData\Local\Temp\TI3762 C:\Users\And
     124              ;       C:\CCStudio_v3.3\C2000\cgtools\bin\ac2000.exe -q -D_INLINE -DLARGE_MODEL -IC:/CCStudio_v3.3/C2000/xda
     125 00000000               .sect   ".text"
     126                      .global _InitSPI
     127              
     128              DW$27   .dwtag  DW_TAG_subprogram, DW_AT_name("InitSPI"), DW_AT_symbol_name("_InitSPI")
     129                      .dwattr DW$27, DW_AT_low_pc(_InitSPI)
     130                      .dwattr DW$27, DW_AT_high_pc(0x00)
     131                      .dwattr DW$27, DW_AT_begin_file("spi.c")
     132                      .dwattr DW$27, DW_AT_begin_line(0x40)
     133                      .dwattr DW$27, DW_AT_begin_column(0x06)
     134                      .dwattr DW$27, DW_AT_frame_base[DW_OP_breg20 -2]
     135                      .dwattr DW$27, DW_AT_skeletal(0x01)
     136                      .dwpsn  "spi.c",65,1
     137              
     138              ;***************************************************************
     139              ;* FNAME: _InitSPI                      FR SIZE:   0           *
     140              ;*                                                             *
     141              ;* FUNCTION ENVIRONMENT                                        *
     142              ;*                                                             *
     143              ;* FUNCTION PROPERTIES                                         *
     144              ;*                            0 Parameter,  0 Auto,  0 SOE     *
     145              ;***************************************************************
     146              
     147 00000000       _InitSPI:
     148 00000000 7622   eallow             ; Enable accesses to PIE control registers
     149 00000001 F5A9          MOV       AL,*(0:0x70d4)        ; |68| 
         00000002 70D4 
     150 00000003 5007          ORB       AL,#0x07              ; |68| 
     151 00000004 F4A9          MOV       *(0:0x70d4),AL        ; |68| 
         00000005 70D4 
     152 00000006 7700          NOP
     153 00000007 7700          NOP
     154 00000008 F5A9          MOV       AL,*(0:0x70c5)        ; |69| 
         00000009 70C5 
     155 0000000a 1AA9          OR        AL,#0x4000            ; |69| 
         0000000b 4000 
     156 0000000c F4A9          MOV       *(0:0x70c5),AL        ; |69| 
         0000000d 70C5 
     157 0000000e 761F!         MOVW      DP,#_gpf
         0000000f 0000 
     158 00000010 FF69          SPM       #0
     159 00000011 F5A9          MOV       AL,*(0:0x70d5)        ; |70| 
TMS320C2000 COFF Assembler PC v4.1.3 Thu Aug 18 12:16:32 2016

Tools Copyright (c) 1996-2006 Texas Instruments Incorporated
spi.asm                                                              PAGE    4

         00000012 70D5 
     160 00000013 1AA9          OR        AL,#0x070d            ; |70| 
         00000014 070D 
     161 00000015 F4A9          MOV       *(0:0x70d5),AL        ; |70| 
         00000016 70D5 
     162 00000017 1800!         AND       @_gpf,#0xfff7         ; |74| 
         00000018 FFF7 
     163 00000019 7640'         LCR       #_DeselectSPI         ; |75| 
         0000001a 0446 
     164                      ; call occurs [#_DeselectSPI] ; |75| 
     165 0000001b F5A9          MOV       AL,*(0:0x701c)        ; |76| 
         0000001c 701C 
     166 0000001d 1AA9          OR        AL,#0x0100            ; |76| 
         0000001e 0100 
     167 0000001f 8F00-         MOVL      XAR4,#_spiregs        ; |78| 
         00000020 0000 
     168 00000021 F4A9          MOV       *(0:0x701c),AL        ; |76| 
         00000022 701C 
     169 00000023 18C4          AND       *+XAR4[0],#0xff7f     ; |78| 
         00000024 FF7F 
     170 00000025 18C4          AND       *+XAR4[0],#0xffbf     ; |79| 
         00000026 FFBF 
     171 00000027 18C4          AND       *+XAR4[0],#0xffef     ; |80| 
         00000028 FFEF 
     172 00000029 CCC4          AND       AL,*+XAR4[0],#0xfff0  ; |81| 
         0000002a FFF0 
     173 0000002b 5007          ORB       AL,#0x07              ; |81| 
     174 0000002c 96C4          MOV       *+XAR4[0],AL          ; |81| 
     175 0000002d 761F-         MOVW      DP,#_spiregs+1
         0000002e 0000 
     176 0000002f 18CC          AND       *+XAR4[1],#0xffef     ; |82| 
         00000030 FFEF 
     177 00000031 1801-         AND       @_spiregs+1,#0xfff7   ; |83| 
         00000032 FFF7 
     178 00000033 761F-         MOVW      DP,#_spiregs+1
         00000034 0000 
     179 00000035 1A01-         OR        @_spiregs+1,#0x0004   ; |84| 
         00000036 0004 
     180 00000037 761F-         MOVW      DP,#_spiregs+1
         00000038 0000 
     181 00000039 1A01-         OR        @_spiregs+1,#0x0002   ; |85| 
         0000003a 0002 
     182 0000003b 761F-         MOVW      DP,#_spiregs+1
         0000003c 0000 
     183 0000003d 1801-         AND       @_spiregs+1,#0xfffe   ; |86| 
         0000003e FFFE 
     184 0000003f 9A3D          MOVB      AL,#61                ; |96| 
     185 00000040 761F-         MOVW      DP,#_spiregs
         00000041 0000 
     186 00000042 F4A9          MOV       *(0:0x7044),AL        ; |96| 
         00000043 7044 
     187 00000044 1A00-         OR        @_spiregs,#0x0080     ; |98| 
         00000045 0080 
     188 00000046 761A   edis               ; Disable accesses to PIE control registers
     189 00000047 761F!         MOVW      DP,#_clocktime
TMS320C2000 COFF Assembler PC v4.1.3 Thu Aug 18 12:16:32 2016

Tools Copyright (c) 1996-2006 Texas Instruments Incorporated
spi.asm                                                              PAGE    5

         00000048 0000 
     190 00000049 2B00!         MOV       @_clocktime,#0        ; |102| 
     191 0000004a 761F-         MOVW      DP,#_flashaddr
         0000004b 0000 
     192 0000004c 0200          MOVB      ACC,#0
     193 0000004d 1E02-         MOVL      @_flashaddr,ACC       ; |106| 
     194 0000004e FF69          SPM       #0
     195 0000004f 761F-         MOVW      DP,#_flashaddr+2
         00000050 0000 
     196 00000051 2B04-         MOV       @_flashaddr+2,#0      ; |107| 
     197 00000052 761F!         MOVW      DP,#_settings+2
         00000053 0000 
     198 00000054 2B02!         MOV       @_settings+2,#0       ; |109| 
     199 00000055 761F!         MOVW      DP,#_settings+14
         00000056 0000 
     200 00000057 2B0E!         MOV       @_settings+14,#0      ; |111| 
     201                      .dwpsn  "spi.c",113,1
     202 00000058 0006          LRETR
     203                      ; return occurs
     204                      .dwattr DW$27, DW_AT_end_file("spi.c")
     205                      .dwattr DW$27, DW_AT_end_line(0x71)
     206                      .dwattr DW$27, DW_AT_end_column(0x01)
     207                      .dwendtag DW$27
     208              
     209 00000059               .sect   ".text"
     210                      .global _SaveSafeGeneric
     211              
     212              DW$28   .dwtag  DW_TAG_subprogram, DW_AT_name("SaveSafeGeneric"), DW_AT_symbol_name("_SaveSafeGeneric")
     213                      .dwattr DW$28, DW_AT_low_pc(_SaveSafeGeneric)
     214                      .dwattr DW$28, DW_AT_high_pc(0x00)
     215                      .dwattr DW$28, DW_AT_begin_file("spi.c")
     216                      .dwattr DW$28, DW_AT_begin_line(0x75)
     217                      .dwattr DW$28, DW_AT_begin_column(0x06)
     218                      .dwattr DW$28, DW_AT_frame_base[DW_OP_breg20 -10]
     219                      .dwattr DW$28, DW_AT_skeletal(0x01)
     220                      .dwpsn  "spi.c",118,1
     221              
     222              ;***************************************************************
     223              ;* FNAME: _SaveSafeGeneric              FR SIZE:   8           *
     224              ;*                                                             *
     225              ;* FUNCTION ENVIRONMENT                                        *
     226              ;*                                                             *
     227              ;* FUNCTION PROPERTIES                                         *
     228              ;*                            0 Parameter,  1 Auto,  6 SOE     *
     229              ;***************************************************************
     230              
     231              _SaveSafeGeneric:
     232              ;* AL    assigned to _start
     233              DW$29   .dwtag  DW_TAG_formal_parameter, DW_AT_name("start"), DW_AT_symbol_name("_start")
     234                      .dwattr DW$29, DW_AT_type(*DW$T$11)
     235                      .dwattr DW$29, DW_AT_location[DW_OP_reg0]
     236              ;* AR4   assigned to _ptr
     237              DW$30   .dwtag  DW_TAG_formal_parameter, DW_AT_name("ptr"), DW_AT_symbol_name("_ptr")
     238                      .dwattr DW$30, DW_AT_type(*DW$T$86)
     239                      .dwattr DW$30, DW_AT_location[DW_OP_reg12]
TMS320C2000 COFF Assembler PC v4.1.3 Thu Aug 18 12:16:32 2016

Tools Copyright (c) 1996-2006 Texas Instruments Incorporated
spi.asm                                                              PAGE    6

     240              ;* AH    assigned to _size
     241              DW$31   .dwtag  DW_TAG_formal_parameter, DW_AT_name("size"), DW_AT_symbol_name("_size")
     242                      .dwattr DW$31, DW_AT_type(*DW$T$11)
     243                      .dwattr DW$31, DW_AT_location[DW_OP_reg1]
     244 00000059 B2BD          MOVL      *SP++,XAR1
     245 0000005a 761F!         MOVW      DP,#_settings
         0000005b 0000 
     246 0000005c AABD          MOVL      *SP++,XAR2
     247 0000005d A2BD          MOVL      *SP++,XAR3
     248 0000005e 59A9          MOVZ      AR1,AL                ; |118| 
     249 0000005f FE02          ADDB      SP,#2
     250 00000060 2800!         MOV       @_settings,#1         ; |124| 
         00000061 0001 
     251 00000062 86A4          MOVL      XAR2,XAR4             ; |118| 
     252 00000063 761F!         MOVW      DP,#_timers+40
         00000064 0000 
     253 00000065 9741          MOV       *-SP[1],AH            ; |118| 
     254                      .dwpsn  "spi.c",126,0
     255 00000066 2828!         MOV       @_timers+40,#3        ; |125| 
         00000067 0003 
     256              L1:    
     257              DW$L$_SaveSafeGeneric$2$B:
     258                      .dwpsn  "spi.c",127,0
     259 00000068 7640'         LCR       #_ReadEEprom1StatusReg ; |128| 
         00000069 02D3 
     260                      ; call occurs [#_ReadEEprom1StatusReg] ; |128| 
     261 0000006a 761F!         MOVW      DP,#_settings
         0000006b 0000 
     262 0000006c 9001          ANDB      AL,#1                 ; |130| 
     263 0000006d 2800!         MOV       @_settings,#1         ; |129| 
         0000006e 0001 
     264 0000006f EC05          BF        L2,EQ                 ; |130| 
     265                      ; branchcc occurs ; |130| 
     266 00000070       DW$L$_SaveSafeGeneric$2$E:
     267 00000070       DW$L$_SaveSafeGeneric$3$B:
     268 00000070 761F!         MOVW      DP,#_timers+40
         00000071 0000 
     269 00000072 9228!         MOV       AL,@_timers+40        ; |130| 
     270                      .dwpsn  "spi.c",130,0
     271 00000073 EDF5          BF        L1,NEQ                ; |130| 
     272                      ; branchcc occurs ; |130| 
     273 00000074       DW$L$_SaveSafeGeneric$3$E:
     274 00000074       L2:    
     275 00000074 92A1          MOV       AL,AR1                ; |131| 
     276 00000075 7640'         LCR       #_WritetoMemoryEEprom1 ; |131| 
         00000076 02C0 
     277                      ; call occurs [#_WritetoMemoryEEprom1] ; |131| 
     278 00000077 D300          MOVB      XAR3,#0
     279 00000078 9241          MOV       AL,*-SP[1]            ; |132| 
     280 00000079 EC10          BF        L4,EQ                 ; |132| 
     281                      ; branchcc occurs ; |132| 
     282              L3:    
     283              DW$L$_SaveSafeGeneric$5$B:
     284                      .dwpsn  "spi.c",133,0
     285 0000007a 9282          MOV       AL,*XAR2++            ; |135| 
TMS320C2000 COFF Assembler PC v4.1.3 Thu Aug 18 12:16:32 2016

Tools Copyright (c) 1996-2006 Texas Instruments Incorporated
spi.asm                                                              PAGE    7

     286 0000007b CDA9          AND       AH,AL,#0x00ff         ; |135| 
         0000007c 00FF 
     287 0000007d 59A8          MOVZ      AR1,AH                ; |135| 
     288 0000007e FFC7          LSR       AL,8                  ; |136| 
     289 0000007f 7640'         LCR       #_TransmitByte        ; |136| 
         00000080 0474 
     290                      ; call occurs [#_TransmitByte] ; |136| 
     291 00000081 92A1          MOV       AL,AR1                ; |136| 
     292 00000082 7640'         LCR       #_TransmitByte        ; |137| 
         00000083 0474 
     293                      ; call occurs [#_TransmitByte] ; |137| 
     294 00000084 DB01          ADDB      XAR3,#1               ; |132| 
     295 00000085 9241          MOV       AL,*-SP[1]            ; |132| 
     296 00000086 54A3          CMP       AL,AR3                ; |132| 
     297                      .dwpsn  "spi.c",139,0
     298 00000087 56C6          BF        L3,HI                 ; |132| 
         00000088 FFF3 
     299                      ; branchcc occurs ; |132| 
     300 00000089       DW$L$_SaveSafeGeneric$5$E:
     301 00000089       L4:    
     302 00000089 7640'         LCR       #_DeselectSPI         ; |140| 
         0000008a 0446 
     303                      ; call occurs [#_DeselectSPI] ; |140| 
     304 0000008b FE82          SUBB      SP,#2
     305 0000008c 82BE          MOVL      XAR3,*--SP
     306 0000008d 86BE          MOVL      XAR2,*--SP
     307 0000008e 8BBE          MOVL      XAR1,*--SP
     308                      .dwpsn  "spi.c",141,1
     309 0000008f 0006          LRETR
     310                      ; return occurs
     311              
     312              DW$32   .dwtag  DW_TAG_loop
     313                      .dwattr DW$32, DW_AT_name("D:\DEV\Amot\BearingWear\XTSW_V6_20\spi.asm:L3:1:1471518992")
     314                      .dwattr DW$32, DW_AT_begin_file("spi.c")
     315                      .dwattr DW$32, DW_AT_begin_line(0x84)
     316                      .dwattr DW$32, DW_AT_end_line(0x8b)
     317              DW$33   .dwtag  DW_TAG_loop_range
     318                      .dwattr DW$33, DW_AT_low_pc(DW$L$_SaveSafeGeneric$5$B)
     319                      .dwattr DW$33, DW_AT_high_pc(DW$L$_SaveSafeGeneric$5$E)
     320                      .dwendtag DW$32
     321              
     322              
     323              DW$34   .dwtag  DW_TAG_loop
     324                      .dwattr DW$34, DW_AT_name("D:\DEV\Amot\BearingWear\XTSW_V6_20\spi.asm:L1:1:1471518992")
     325                      .dwattr DW$34, DW_AT_begin_file("spi.c")
     326                      .dwattr DW$34, DW_AT_begin_line(0x7e)
     327                      .dwattr DW$34, DW_AT_end_line(0x82)
     328              DW$35   .dwtag  DW_TAG_loop_range
     329                      .dwattr DW$35, DW_AT_low_pc(DW$L$_SaveSafeGeneric$2$B)
     330                      .dwattr DW$35, DW_AT_high_pc(DW$L$_SaveSafeGeneric$2$E)
     331              DW$36   .dwtag  DW_TAG_loop_range
     332                      .dwattr DW$36, DW_AT_low_pc(DW$L$_SaveSafeGeneric$3$B)
     333                      .dwattr DW$36, DW_AT_high_pc(DW$L$_SaveSafeGeneric$3$E)
     334                      .dwendtag DW$34
     335              
TMS320C2000 COFF Assembler PC v4.1.3 Thu Aug 18 12:16:32 2016

Tools Copyright (c) 1996-2006 Texas Instruments Incorporated
spi.asm                                                              PAGE    8

     336                      .dwattr DW$28, DW_AT_end_file("spi.c")
     337                      .dwattr DW$28, DW_AT_end_line(0x8d)
     338                      .dwattr DW$28, DW_AT_end_column(0x01)
     339                      .dwendtag DW$28
     340              
     341 00000090               .sect   ".text"
     342                      .global _SaveFirmwareStruct
     343              
     344              DW$37   .dwtag  DW_TAG_subprogram, DW_AT_name("SaveFirmwareStruct"), DW_AT_symbol_name("_SaveFirmwareStruct")
     345                      .dwattr DW$37, DW_AT_low_pc(_SaveFirmwareStruct)
     346                      .dwattr DW$37, DW_AT_high_pc(0x00)
     347                      .dwattr DW$37, DW_AT_begin_file("spi.c")
     348                      .dwattr DW$37, DW_AT_begin_line(0x92)
     349                      .dwattr DW$37, DW_AT_begin_column(0x06)
     350                      .dwattr DW$37, DW_AT_frame_base[DW_OP_breg20 -2]
     351                      .dwattr DW$37, DW_AT_skeletal(0x01)
     352                      .dwpsn  "spi.c",147,1
     353              
     354              ;***************************************************************
     355              ;* FNAME: _SaveFirmwareStruct           FR SIZE:   0           *
     356              ;*                                                             *
     357              ;* FUNCTION ENVIRONMENT                                        *
     358              ;*                                                             *
     359              ;* FUNCTION PROPERTIES                                         *
     360              ;*                            0 Parameter,  0 Auto,  0 SOE     *
     361              ;***************************************************************
     362              
     363 00000090       _SaveFirmwareStruct:
     364 00000090 28A9          MOV       AL,#16380             ; |155| 
         00000091 3FFC 
     365 00000092 8F00!         MOVL      XAR4,#_firmware       ; |155| 
         00000093 0000 
     366 00000094 9B02          MOVB      AH,#2                 ; |155| 
     367 00000095 7640'         LCR       #_SaveSafeGeneric     ; |155| 
         00000096 0059 
     368                      ; call occurs [#_SaveSafeGeneric] ; |155| 
     369                      .dwpsn  "spi.c",156,1
     370 00000097 0006          LRETR
     371                      ; return occurs
     372                      .dwattr DW$37, DW_AT_end_file("spi.c")
     373                      .dwattr DW$37, DW_AT_end_line(0x9c)
     374                      .dwattr DW$37, DW_AT_end_column(0x01)
     375                      .dwendtag DW$37
     376              
     377 00000098               .sect   ".text"
     378                      .global _SaveSafeStruct1
     379              
     380              DW$38   .dwtag  DW_TAG_subprogram, DW_AT_name("SaveSafeStruct1"), DW_AT_symbol_name("_SaveSafeStruct1")
     381                      .dwattr DW$38, DW_AT_low_pc(_SaveSafeStruct1)
     382                      .dwattr DW$38, DW_AT_high_pc(0x00)
     383                      .dwattr DW$38, DW_AT_begin_file("spi.c")
     384                      .dwattr DW$38, DW_AT_begin_line(0xa1)
     385                      .dwattr DW$38, DW_AT_begin_column(0x06)
     386                      .dwattr DW$38, DW_AT_frame_base[DW_OP_breg20 -2]
     387                      .dwattr DW$38, DW_AT_skeletal(0x01)
TMS320C2000 COFF Assembler PC v4.1.3 Thu Aug 18 12:16:32 2016

Tools Copyright (c) 1996-2006 Texas Instruments Incorporated
spi.asm                                                              PAGE    9

     388                      .dwpsn  "spi.c",162,1
     389              
     390              ;***************************************************************
     391              ;* FNAME: _SaveSafeStruct1              FR SIZE:   0           *
     392              ;*                                                             *
     393              ;* FUNCTION ENVIRONMENT                                        *
     394              ;*                                                             *
     395              ;* FUNCTION PROPERTIES                                         *
     396              ;*                            0 Parameter,  0 Auto,  0 SOE     *
     397              ;***************************************************************
     398              
     399 00000098       _SaveSafeStruct1:
     400 00000098 9A00          MOVB      AL,#0
     401 00000099 8F00!         MOVL      XAR4,#_safe1          ; |170| 
         0000009a 0000 
     402 0000009b 9B1F          MOVB      AH,#31                ; |170| 
     403 0000009c 7640'         LCR       #_SaveSafeGeneric     ; |170| 
         0000009d 0059 
     404                      ; call occurs [#_SaveSafeGeneric] ; |170| 
     405                      .dwpsn  "spi.c",171,1
     406 0000009e 0006          LRETR
     407                      ; return occurs
     408                      .dwattr DW$38, DW_AT_end_file("spi.c")
     409                      .dwattr DW$38, DW_AT_end_line(0xab)
     410                      .dwattr DW$38, DW_AT_end_column(0x01)
     411                      .dwendtag DW$38
     412              
     413 0000009f               .sect   ".text"
     414                      .global _SaveXtswplusAnaCal
     415              
     416              DW$39   .dwtag  DW_TAG_subprogram, DW_AT_name("SaveXtswplusAnaCal"), DW_AT_symbol_name("_SaveXtswplusAnaCal")
     417                      .dwattr DW$39, DW_AT_low_pc(_SaveXtswplusAnaCal)
     418                      .dwattr DW$39, DW_AT_high_pc(0x00)
     419                      .dwattr DW$39, DW_AT_begin_file("spi.c")
     420                      .dwattr DW$39, DW_AT_begin_line(0xaf)
     421                      .dwattr DW$39, DW_AT_begin_column(0x06)
     422                      .dwattr DW$39, DW_AT_frame_base[DW_OP_breg20 -2]
     423                      .dwattr DW$39, DW_AT_skeletal(0x01)
     424                      .dwpsn  "spi.c",176,1
     425              
     426              ;***************************************************************
     427              ;* FNAME: _SaveXtswplusAnaCal           FR SIZE:   0           *
     428              ;*                                                             *
     429              ;* FUNCTION ENVIRONMENT                                        *
     430              ;*                                                             *
     431              ;* FUNCTION PROPERTIES                                         *
     432              ;*                            0 Parameter,  0 Auto,  0 SOE     *
     433              ;***************************************************************
     434              
     435 0000009f       _SaveXtswplusAnaCal:
     436 0000009f 28A9          MOV       AL,#384               ; |184| 
         000000a0 0180 
     437 000000a1 8F00!         MOVL      XAR4,#_xtswplusanacal ; |184| 
         000000a2 0000 
     438 000000a3 9B0E          MOVB      AH,#14                ; |184| 
TMS320C2000 COFF Assembler PC v4.1.3 Thu Aug 18 12:16:32 2016

Tools Copyright (c) 1996-2006 Texas Instruments Incorporated
spi.asm                                                              PAGE   10

     439 000000a4 7640'         LCR       #_SaveSafeGeneric     ; |184| 
         000000a5 0059 
     440                      ; call occurs [#_SaveSafeGeneric] ; |184| 
     441                      .dwpsn  "spi.c",185,1
     442 000000a6 0006          LRETR
     443                      ; return occurs
     444                      .dwattr DW$39, DW_AT_end_file("spi.c")
     445                      .dwattr DW$39, DW_AT_end_line(0xb9)
     446                      .dwattr DW$39, DW_AT_end_column(0x01)
     447                      .dwendtag DW$39
     448              
     449 000000a7               .sect   ".text"
     450                      .global _SaveSafeStruct2
     451              
     452              DW$40   .dwtag  DW_TAG_subprogram, DW_AT_name("SaveSafeStruct2"), DW_AT_symbol_name("_SaveSafeStruct2")
     453                      .dwattr DW$40, DW_AT_low_pc(_SaveSafeStruct2)
     454                      .dwattr DW$40, DW_AT_high_pc(0x00)
     455                      .dwattr DW$40, DW_AT_begin_file("spi.c")
     456                      .dwattr DW$40, DW_AT_begin_line(0xbc)
     457                      .dwattr DW$40, DW_AT_begin_column(0x06)
     458                      .dwattr DW$40, DW_AT_frame_base[DW_OP_breg20 -2]
     459                      .dwattr DW$40, DW_AT_skeletal(0x01)
     460                      .dwpsn  "spi.c",189,1
     461              
     462              ;***************************************************************
     463              ;* FNAME: _SaveSafeStruct2              FR SIZE:   0           *
     464              ;*                                                             *
     465              ;* FUNCTION ENVIRONMENT                                        *
     466              ;*                                                             *
     467              ;* FUNCTION PROPERTIES                                         *
     468              ;*                            0 Parameter,  0 Auto,  0 SOE     *
     469              ;***************************************************************
     470              
     471 000000a7       _SaveSafeStruct2:
     472 000000a7 9A40          MOVB      AL,#64                ; |197| 
     473 000000a8 8F00!         MOVL      XAR4,#_safe2          ; |197| 
         000000a9 0000 
     474 000000aa 9B1E          MOVB      AH,#30                ; |197| 
     475 000000ab 7640'         LCR       #_SaveSafeGeneric     ; |197| 
         000000ac 0059 
     476                      ; call occurs [#_SaveSafeGeneric] ; |197| 
     477                      .dwpsn  "spi.c",198,1
     478 000000ad 0006          LRETR
     479                      ; return occurs
     480                      .dwattr DW$40, DW_AT_end_file("spi.c")
     481                      .dwattr DW$40, DW_AT_end_line(0xc6)
     482                      .dwattr DW$40, DW_AT_end_column(0x01)
     483                      .dwendtag DW$40
     484              
     485 000000ae               .sect   ".text"
     486                      .global _ReadAllFromEEPROM
     487              
     488              DW$41   .dwtag  DW_TAG_subprogram, DW_AT_name("ReadAllFromEEPROM"), DW_AT_symbol_name("_ReadAllFromEEPROM")
     489                      .dwattr DW$41, DW_AT_low_pc(_ReadAllFromEEPROM)
     490                      .dwattr DW$41, DW_AT_high_pc(0x00)
TMS320C2000 COFF Assembler PC v4.1.3 Thu Aug 18 12:16:32 2016

Tools Copyright (c) 1996-2006 Texas Instruments Incorporated
spi.asm                                                              PAGE   11

     491                      .dwattr DW$41, DW_AT_begin_file("spi.c")
     492                      .dwattr DW$41, DW_AT_begin_line(0xc9)
     493                      .dwattr DW$41, DW_AT_begin_column(0x06)
     494                      .dwattr DW$41, DW_AT_frame_base[DW_OP_breg20 -2]
     495                      .dwattr DW$41, DW_AT_skeletal(0x01)
     496                      .dwpsn  "spi.c",202,1
     497              
     498              ;***************************************************************
     499              ;* FNAME: _ReadAllFromEEPROM            FR SIZE:   0           *
     500              ;*                                                             *
     501              ;* FUNCTION ENVIRONMENT                                        *
     502              ;*                                                             *
     503              ;* FUNCTION PROPERTIES                                         *
     504              ;*                            0 Parameter,  0 Auto,  0 SOE     *
     505              ;***************************************************************
     506              
     507 000000ae       _ReadAllFromEEPROM:
     508 000000ae 9A00          MOVB      AL,#0
     509 000000af 8F00!         MOVL      XAR4,#_safe1          ; |210| 
         000000b0 0000 
     510 000000b1 9B1F          MOVB      AH,#31                ; |210| 
     511 000000b2 7640'         LCR       #_ReadEEPROMStruct    ; |210| 
         000000b3 00D0 
     512                      ; call occurs [#_ReadEEPROMStruct] ; |210| 
     513 000000b4 9A40          MOVB      AL,#64                ; |215| 
     514 000000b5 8F00!         MOVL      XAR4,#_safe2          ; |215| 
         000000b6 0000 
     515 000000b7 9B1E          MOVB      AH,#30                ; |215| 
     516 000000b8 7640'         LCR       #_ReadEEPROMStruct    ; |215| 
         000000b9 00D0 
     517                      ; call occurs [#_ReadEEPROMStruct] ; |215| 
     518 000000ba 28A9          MOV       AL,#320               ; |221| 
         000000bb 0140 
     519 000000bc 8F00!         MOVL      XAR4,#_sdsettings     ; |221| 
         000000bd 0000 
     520 000000be 9B04          MOVB      AH,#4                 ; |221| 
     521 000000bf 7640'         LCR       #_ReadEEPROMStruct    ; |221| 
         000000c0 00D0 
     522                      ; call occurs [#_ReadEEPROMStruct] ; |221| 
     523 000000c1 28A9          MOV       AL,#384               ; |227| 
         000000c2 0180 
     524 000000c3 8F00!         MOVL      XAR4,#_xtswplusanacal ; |227| 
         000000c4 0000 
     525 000000c5 9B0E          MOVB      AH,#14                ; |227| 
     526 000000c6 7640'         LCR       #_ReadEEPROMStruct    ; |227| 
         000000c7 00D0 
     527                      ; call occurs [#_ReadEEPROMStruct] ; |227| 
     528 000000c8 28A9          MOV       AL,#16380             ; |233| 
         000000c9 3FFC 
     529 000000ca 8F00!         MOVL      XAR4,#_firmware       ; |233| 
         000000cb 0000 
     530 000000cc 9B02          MOVB      AH,#2                 ; |233| 
     531 000000cd 7640'         LCR       #_ReadEEPROMStruct    ; |233| 
         000000ce 00D0 
     532                      ; call occurs [#_ReadEEPROMStruct] ; |233| 
TMS320C2000 COFF Assembler PC v4.1.3 Thu Aug 18 12:16:32 2016

Tools Copyright (c) 1996-2006 Texas Instruments Incorporated
spi.asm                                                              PAGE   12

     533                      .dwpsn  "spi.c",235,1
     534 000000cf 0006          LRETR
     535                      ; return occurs
     536                      .dwattr DW$41, DW_AT_end_file("spi.c")
     537                      .dwattr DW$41, DW_AT_end_line(0xeb)
     538                      .dwattr DW$41, DW_AT_end_column(0x01)
     539                      .dwendtag DW$41
     540              
     541 000000d0               .sect   ".text"
     542                      .global _ReadEEPROMStruct
     543              
     544              DW$42   .dwtag  DW_TAG_subprogram, DW_AT_name("ReadEEPROMStruct"), DW_AT_symbol_name("_ReadEEPROMStruct")
     545                      .dwattr DW$42, DW_AT_low_pc(_ReadEEPROMStruct)
     546                      .dwattr DW$42, DW_AT_high_pc(0x00)
     547                      .dwattr DW$42, DW_AT_begin_file("spi.c")
     548                      .dwattr DW$42, DW_AT_begin_line(0xf0)
     549                      .dwattr DW$42, DW_AT_begin_column(0x06)
     550                      .dwattr DW$42, DW_AT_frame_base[DW_OP_breg20 -10]
     551                      .dwattr DW$42, DW_AT_skeletal(0x01)
     552                      .dwpsn  "spi.c",241,1
     553              
     554              ;***************************************************************
     555              ;* FNAME: _ReadEEPROMStruct             FR SIZE:   8           *
     556              ;*                                                             *
     557              ;* FUNCTION ENVIRONMENT                                        *
     558              ;*                                                             *
     559              ;* FUNCTION PROPERTIES                                         *
     560              ;*                            0 Parameter,  1 Auto,  6 SOE     *
     561              ;***************************************************************
     562              
     563              _ReadEEPROMStruct:
     564              ;* AL    assigned to _pos
     565              DW$43   .dwtag  DW_TAG_formal_parameter, DW_AT_name("pos"), DW_AT_symbol_name("_pos")
     566                      .dwattr DW$43, DW_AT_type(*DW$T$11)
     567                      .dwattr DW$43, DW_AT_location[DW_OP_reg0]
     568              ;* AR4   assigned to _ptr
     569              DW$44   .dwtag  DW_TAG_formal_parameter, DW_AT_name("ptr"), DW_AT_symbol_name("_ptr")
     570                      .dwattr DW$44, DW_AT_type(*DW$T$86)
     571                      .dwattr DW$44, DW_AT_location[DW_OP_reg12]
     572              ;* AH    assigned to _len
     573              DW$45   .dwtag  DW_TAG_formal_parameter, DW_AT_name("len"), DW_AT_symbol_name("_len")
     574                      .dwattr DW$45, DW_AT_type(*DW$T$11)
     575                      .dwattr DW$45, DW_AT_location[DW_OP_reg1]
     576 000000d0 B2BD          MOVL      *SP++,XAR1
     577 000000d1 761F!         MOVW      DP,#_settings
         000000d2 0000 
     578 000000d3 AABD          MOVL      *SP++,XAR2
     579 000000d4 A2BD          MOVL      *SP++,XAR3
     580 000000d5 59A9          MOVZ      AR1,AL                ; |241| 
     581 000000d6 FE02          ADDB      SP,#2
     582 000000d7 2800!         MOV       @_settings,#1         ; |247| 
         000000d8 0001 
     583 000000d9 86A4          MOVL      XAR2,XAR4             ; |241| 
     584 000000da 761F!         MOVW      DP,#_timers+40
         000000db 0000 
TMS320C2000 COFF Assembler PC v4.1.3 Thu Aug 18 12:16:32 2016

Tools Copyright (c) 1996-2006 Texas Instruments Incorporated
spi.asm                                                              PAGE   13

     585 000000dc 9741          MOV       *-SP[1],AH            ; |241| 
     586                      .dwpsn  "spi.c",249,0
     587 000000dd 2828!         MOV       @_timers+40,#3        ; |248| 
         000000de 0003 
     588              L5:    
     589              DW$L$_ReadEEPROMStruct$2$B:
     590                      .dwpsn  "spi.c",250,0
     591 000000df 7640'         LCR       #_ReadEEprom1StatusReg ; |251| 
         000000e0 02D3 
     592                      ; call occurs [#_ReadEEprom1StatusReg] ; |251| 
     593 000000e1 761F!         MOVW      DP,#_settings
         000000e2 0000 
     594 000000e3 9001          ANDB      AL,#1                 ; |253| 
     595 000000e4 2800!         MOV       @_settings,#1         ; |252| 
         000000e5 0001 
     596 000000e6 EC05          BF        L6,EQ                 ; |253| 
     597                      ; branchcc occurs ; |253| 
     598 000000e7       DW$L$_ReadEEPROMStruct$2$E:
     599 000000e7       DW$L$_ReadEEPROMStruct$3$B:
     600 000000e7 761F!         MOVW      DP,#_timers+40
         000000e8 0000 
     601 000000e9 9228!         MOV       AL,@_timers+40        ; |253| 
     602                      .dwpsn  "spi.c",253,0
     603 000000ea EDF5          BF        L5,NEQ                ; |253| 
     604                      ; branchcc occurs ; |253| 
     605 000000eb       DW$L$_ReadEEPROMStruct$3$E:
     606 000000eb       L6:    
     607 000000eb 92A1          MOV       AL,AR1                ; |254| 
     608 000000ec 7640'         LCR       #_ReadMemoryEEprom1   ; |254| 
         000000ed 03A4 
     609                      ; call occurs [#_ReadMemoryEEprom1] ; |254| 
     610 000000ee D300          MOVB      XAR3,#0
     611 000000ef 9241          MOV       AL,*-SP[1]            ; |255| 
     612 000000f0 EC0D          BF        L8,EQ                 ; |255| 
     613                      ; branchcc occurs ; |255| 
     614              L7:    
     615              DW$L$_ReadEEPROMStruct$5$B:
     616                      .dwpsn  "spi.c",256,0
     617 000000f1 7640'         LCR       #_ReceiveByte         ; |257| 
         000000f2 04A6 
     618                      ; call occurs [#_ReceiveByte] ; |257| 
     619 000000f3 59A9          MOVZ      AR1,AL                ; |257| 
     620 000000f4 7640'         LCR       #_ReceiveByte         ; |258| 
         000000f5 04A6 
     621                      ; call occurs [#_ReceiveByte] ; |258| 
     622 000000f6 DB01          ADDB      XAR3,#1               ; |255| 
     623 000000f7 38A1          MOVB      AL.MSB,AR1            ; |259| 
     624 000000f8 9682          MOV       *XAR2++,AL            ; |259| 
     625 000000f9 9241          MOV       AL,*-SP[1]            ; |255| 
     626 000000fa 54A3          CMP       AL,AR3                ; |255| 
     627                      .dwpsn  "spi.c",261,0
     628 000000fb 56C6          BF        L7,HI                 ; |255| 
         000000fc FFF6 
     629                      ; branchcc occurs ; |255| 
     630 000000fd       DW$L$_ReadEEPROMStruct$5$E:
TMS320C2000 COFF Assembler PC v4.1.3 Thu Aug 18 12:16:32 2016

Tools Copyright (c) 1996-2006 Texas Instruments Incorporated
spi.asm                                                              PAGE   14

     631 000000fd       L8:    
     632 000000fd 7640'         LCR       #_DeselectSPI         ; |262| 
         000000fe 0446 
     633                      ; call occurs [#_DeselectSPI] ; |262| 
     634 000000ff FE82          SUBB      SP,#2
     635 00000100 82BE          MOVL      XAR3,*--SP
     636 00000101 86BE          MOVL      XAR2,*--SP
     637 00000102 8BBE          MOVL      XAR1,*--SP
     638                      .dwpsn  "spi.c",263,1
     639 00000103 0006          LRETR
     640                      ; return occurs
     641              
     642              DW$46   .dwtag  DW_TAG_loop
     643                      .dwattr DW$46, DW_AT_name("D:\DEV\Amot\BearingWear\XTSW_V6_20\spi.asm:L7:1:1471518992")
     644                      .dwattr DW$46, DW_AT_begin_file("spi.c")
     645                      .dwattr DW$46, DW_AT_begin_line(0xff)
     646                      .dwattr DW$46, DW_AT_end_line(0x105)
     647              DW$47   .dwtag  DW_TAG_loop_range
     648                      .dwattr DW$47, DW_AT_low_pc(DW$L$_ReadEEPROMStruct$5$B)
     649                      .dwattr DW$47, DW_AT_high_pc(DW$L$_ReadEEPROMStruct$5$E)
     650                      .dwendtag DW$46
     651              
     652              
     653              DW$48   .dwtag  DW_TAG_loop
     654                      .dwattr DW$48, DW_AT_name("D:\DEV\Amot\BearingWear\XTSW_V6_20\spi.asm:L5:1:1471518992")
     655                      .dwattr DW$48, DW_AT_begin_file("spi.c")
     656                      .dwattr DW$48, DW_AT_begin_line(0xf9)
     657                      .dwattr DW$48, DW_AT_end_line(0xfd)
     658              DW$49   .dwtag  DW_TAG_loop_range
     659                      .dwattr DW$49, DW_AT_low_pc(DW$L$_ReadEEPROMStruct$2$B)
     660                      .dwattr DW$49, DW_AT_high_pc(DW$L$_ReadEEPROMStruct$2$E)
     661              DW$50   .dwtag  DW_TAG_loop_range
     662                      .dwattr DW$50, DW_AT_low_pc(DW$L$_ReadEEPROMStruct$3$B)
     663                      .dwattr DW$50, DW_AT_high_pc(DW$L$_ReadEEPROMStruct$3$E)
     664                      .dwendtag DW$48
     665              
     666                      .dwattr DW$42, DW_AT_end_file("spi.c")
     667                      .dwattr DW$42, DW_AT_end_line(0x107)
     668                      .dwattr DW$42, DW_AT_end_column(0x01)
     669                      .dwendtag DW$42
     670              
     671 00000104               .sect   ".text"
     672                      .global _ReadClockControl
     673              
     674              DW$51   .dwtag  DW_TAG_subprogram, DW_AT_name("ReadClockControl"), DW_AT_symbol_name("_ReadClockControl")
     675                      .dwattr DW$51, DW_AT_low_pc(_ReadClockControl)
     676                      .dwattr DW$51, DW_AT_high_pc(0x00)
     677                      .dwattr DW$51, DW_AT_begin_file("spi.c")
     678                      .dwattr DW$51, DW_AT_begin_line(0x18d)
     679                      .dwattr DW$51, DW_AT_begin_column(0x06)
     680                      .dwattr DW$51, DW_AT_frame_base[DW_OP_breg20 -2]
     681                      .dwattr DW$51, DW_AT_skeletal(0x01)
     682                      .dwpsn  "spi.c",398,1
     683              
     684              ;***************************************************************
TMS320C2000 COFF Assembler PC v4.1.3 Thu Aug 18 12:16:32 2016

Tools Copyright (c) 1996-2006 Texas Instruments Incorporated
spi.asm                                                              PAGE   15

     685              ;* FNAME: _ReadClockControl             FR SIZE:   0           *
     686              ;*                                                             *
     687              ;* FUNCTION ENVIRONMENT                                        *
     688              ;*                                                             *
     689              ;* FUNCTION PROPERTIES                                         *
     690              ;*                            0 Parameter,  0 Auto,  0 SOE     *
     691              ;***************************************************************
     692              
     693 00000104       _ReadClockControl:
     694 00000104 7640'         LCR       #_SelectRTC           ; |399| 
         00000105 0430 
     695                      ; call occurs [#_SelectRTC] ; |399| 
     696 00000106 9A0F          MOVB      AL,#15                ; |400| 
     697 00000107 7640'         LCR       #_TransmitByte        ; |400| 
         00000108 0474 
     698                      ; call occurs [#_TransmitByte] ; |400| 
     699 00000109 7640'         LCR       #_ReceiveByte         ; |401| 
         0000010a 04A6 
     700                      ; call occurs [#_ReceiveByte] ; |401| 
     701 0000010b 761F!         MOVW      DP,#_clocktime+8
         0000010c 0000 
     702 0000010d 9608!         MOV       @_clocktime+8,AL      ; |401| 
     703 0000010e 7640'         LCR       #_DeselectSPI         ; |402| 
         0000010f 0446 
     704                      ; call occurs [#_DeselectSPI] ; |402| 
     705                      .dwpsn  "spi.c",403,1
     706 00000110 0006          LRETR
     707                      ; return occurs
     708                      .dwattr DW$51, DW_AT_end_file("spi.c")
     709                      .dwattr DW$51, DW_AT_end_line(0x193)
     710                      .dwattr DW$51, DW_AT_end_column(0x01)
     711                      .dwendtag DW$51
     712              
     713 00000111               .sect   ".text"
     714                      .global _ReadClockData
     715              
     716              DW$52   .dwtag  DW_TAG_subprogram, DW_AT_name("ReadClockData"), DW_AT_symbol_name("_ReadClockData")
     717                      .dwattr DW$52, DW_AT_low_pc(_ReadClockData)
     718                      .dwattr DW$52, DW_AT_high_pc(0x00)
     719                      .dwattr DW$52, DW_AT_begin_file("spi.c")
     720                      .dwattr DW$52, DW_AT_begin_line(0x197)
     721                      .dwattr DW$52, DW_AT_begin_column(0x06)
     722                      .dwattr DW$52, DW_AT_frame_base[DW_OP_breg20 -2]
     723                      .dwattr DW$52, DW_AT_skeletal(0x01)
     724                      .dwpsn  "spi.c",408,1
     725              
     726              ;***************************************************************
     727              ;* FNAME: _ReadClockData                FR SIZE:   0           *
     728              ;*                                                             *
     729              ;* FUNCTION ENVIRONMENT                                        *
     730              ;*                                                             *
     731              ;* FUNCTION PROPERTIES                                         *
     732              ;*                            0 Parameter,  0 Auto,  0 SOE     *
     733              ;***************************************************************
     734              
TMS320C2000 COFF Assembler PC v4.1.3 Thu Aug 18 12:16:32 2016

Tools Copyright (c) 1996-2006 Texas Instruments Incorporated
spi.asm                                                              PAGE   16

     735 00000111       _ReadClockData:
     736 00000111 761F!         MOVW      DP,#_timers+7
         00000112 0000 
     737 00000113 9207!         MOV       AL,@_timers+7         ; |409| 
     738 00000114 ED31          BF        L9,NEQ                ; |409| 
     739                      ; branchcc occurs ; |409| 
     740 00000115 761F!         MOVW      DP,#_timers+7
         00000116 0000 
     741 00000117 2807!         MOV       @_timers+7,#200       ; |411| 
         00000118 00C8 
     742 00000119 7640'         LCR       #_SelectRTC           ; |412| 
         0000011a 0430 
     743                      ; call occurs [#_SelectRTC] ; |412| 
     744 0000011b 9A00          MOVB      AL,#0
     745 0000011c 7640'         LCR       #_TransmitByte        ; |413| 
         0000011d 0474 
     746                      ; call occurs [#_TransmitByte] ; |413| 
     747 0000011e 7640'         LCR       #_ReceiveByte         ; |415| 
         0000011f 04A6 
     748                      ; call occurs [#_ReceiveByte] ; |415| 
     749 00000120 761F!         MOVW      DP,#_clocktime+1
         00000121 0000 
     750 00000122 9601!         MOV       @_clocktime+1,AL      ; |415| 
     751 00000123 7640'         LCR       #_ReceiveByte         ; |416| 
         00000124 04A6 
     752                      ; call occurs [#_ReceiveByte] ; |416| 
     753 00000125 761F!         MOVW      DP,#_clocktime+2
         00000126 0000 
     754 00000127 9602!         MOV       @_clocktime+2,AL      ; |416| 
     755 00000128 7640'         LCR       #_ReceiveByte         ; |417| 
         00000129 04A6 
     756                      ; call occurs [#_ReceiveByte] ; |417| 
     757 0000012a 761F!         MOVW      DP,#_clocktime+3
         0000012b 0000 
     758 0000012c 9603!         MOV       @_clocktime+3,AL      ; |417| 
     759 0000012d 7640'         LCR       #_ReceiveByte         ; |418| 
         0000012e 04A6 
     760                      ; call occurs [#_ReceiveByte] ; |418| 
     761 0000012f 761F!         MOVW      DP,#_clocktime+4
         00000130 0000 
     762 00000131 9604!         MOV       @_clocktime+4,AL      ; |418| 
     763 00000132 7640'         LCR       #_ReceiveByte         ; |419| 
         00000133 04A6 
     764                      ; call occurs [#_ReceiveByte] ; |419| 
     765 00000134 761F!         MOVW      DP,#_clocktime+5
         00000135 0000 
     766 00000136 9605!         MOV       @_clocktime+5,AL      ; |419| 
     767 00000137 7640'         LCR       #_ReceiveByte         ; |420| 
         00000138 04A6 
     768                      ; call occurs [#_ReceiveByte] ; |420| 
     769 00000139 761F!         MOVW      DP,#_clocktime+6
         0000013a 0000 
     770 0000013b 9606!         MOV       @_clocktime+6,AL      ; |420| 
     771 0000013c 7640'         LCR       #_ReceiveByte         ; |421| 
         0000013d 04A6 
TMS320C2000 COFF Assembler PC v4.1.3 Thu Aug 18 12:16:32 2016

Tools Copyright (c) 1996-2006 Texas Instruments Incorporated
spi.asm                                                              PAGE   17

     772                      ; call occurs [#_ReceiveByte] ; |421| 
     773 0000013e 761F!         MOVW      DP,#_clocktime+7
         0000013f 0000 
     774 00000140 9607!         MOV       @_clocktime+7,AL      ; |421| 
     775 00000141 7640'         LCR       #_DeselectSPI         ; |422| 
         00000142 0446 
     776                      ; call occurs [#_DeselectSPI] ; |422| 
     777 00000143 7640!         LCR       #_DateTimetoInt       ; |423| 
         00000144 0000 
     778                      ; call occurs [#_DateTimetoInt] ; |423| 
     779              L9:    
     780                      .dwpsn  "spi.c",425,1
     781 00000145 0006          LRETR
     782                      ; return occurs
     783                      .dwattr DW$52, DW_AT_end_file("spi.c")
     784                      .dwattr DW$52, DW_AT_end_line(0x1a9)
     785                      .dwattr DW$52, DW_AT_end_column(0x01)
     786                      .dwendtag DW$52
     787              
     788 00000146               .sect   ".text"
     789                      .global _WriteClockData
     790              
     791              DW$53   .dwtag  DW_TAG_subprogram, DW_AT_name("WriteClockData"), DW_AT_symbol_name("_WriteClockData")
     792                      .dwattr DW$53, DW_AT_low_pc(_WriteClockData)
     793                      .dwattr DW$53, DW_AT_high_pc(0x00)
     794                      .dwattr DW$53, DW_AT_begin_file("spi.c")
     795                      .dwattr DW$53, DW_AT_begin_line(0x1ab)
     796                      .dwattr DW$53, DW_AT_begin_column(0x06)
     797                      .dwattr DW$53, DW_AT_frame_base[DW_OP_breg20 -2]
     798                      .dwattr DW$53, DW_AT_skeletal(0x01)
     799                      .dwpsn  "spi.c",428,1
     800              
     801              ;***************************************************************
     802              ;* FNAME: _WriteClockData               FR SIZE:   0           *
     803              ;*                                                             *
     804              ;* FUNCTION ENVIRONMENT                                        *
     805              ;*                                                             *
     806              ;* FUNCTION PROPERTIES                                         *
     807              ;*                            0 Parameter,  0 Auto,  0 SOE     *
     808              ;***************************************************************
     809              
     810 00000146       _WriteClockData:
     811 00000146 8F00+         MOVL      XAR4,#FSL1            ; |429| 
         00000147 0000 
     812 00000148 7640!         LCR       #_DebugStringOut      ; |429| 
         00000149 0000 
     813                      ; call occurs [#_DebugStringOut] ; |429| 
     814 0000014a 761F!         MOVW      DP,#_clocktime
         0000014b 0000 
     815 0000014c 9200!         MOV       AL,@_clocktime        ; |431| 
     816 0000014d ED13          BF        L10,NEQ               ; |431| 
     817                      ; branchcc occurs ; |431| 
     818 0000014e 7640'         LCR       #_SelectRTC           ; |433| 
         0000014f 0430 
     819                      ; call occurs [#_SelectRTC] ; |433| 
TMS320C2000 COFF Assembler PC v4.1.3 Thu Aug 18 12:16:32 2016

Tools Copyright (c) 1996-2006 Texas Instruments Incorporated
spi.asm                                                              PAGE   18

     820 00000150 9A8F          MOVB      AL,#143               ; |434| 
     821 00000151 7640'         LCR       #_TransmitByte        ; |434| 
         00000152 0474 
     822                      ; call occurs [#_TransmitByte] ; |434| 
     823 00000153 9A00          MOVB      AL,#0
     824 00000154 7640'         LCR       #_TransmitByte        ; |435| 
         00000155 0474 
     825                      ; call occurs [#_TransmitByte] ; |435| 
     826 00000156 7640'         LCR       #_DeselectSPI         ; |436| 
         00000157 0446 
     827                      ; call occurs [#_DeselectSPI] ; |436| 
     828 00000158 761F!         MOVW      DP,#_clocktime
         00000159 0000 
     829 0000015a 28A9          MOV       AL,#600               ; |438| 
         0000015b 0258 
     830 0000015c 2800!         MOV       @_clocktime,#1        ; |437| 
         0000015d 0001 
     831 0000015e 7640!         LCR       #_NOPDelay            ; |438| 
         0000015f 0000 
     832                      ; call occurs [#_NOPDelay] ; |438| 
     833 00000160       L10:    
     834 00000160 7640'         LCR       #_SelectRTC           ; |440| 
         00000161 0430 
     835                      ; call occurs [#_SelectRTC] ; |440| 
     836 00000162 9A80          MOVB      AL,#128               ; |441| 
     837 00000163 7640'         LCR       #_TransmitByte        ; |441| 
         00000164 0474 
     838                      ; call occurs [#_TransmitByte] ; |441| 
     839 00000165 761F!         MOVW      DP,#_clocktime+1
         00000166 0000 
     840 00000167 9201!         MOV       AL,@_clocktime+1      ; |442| 
     841 00000168 7640'         LCR       #_TransmitByte        ; |442| 
         00000169 0474 
     842                      ; call occurs [#_TransmitByte] ; |442| 
     843 0000016a 761F!         MOVW      DP,#_clocktime+2
         0000016b 0000 
     844 0000016c 9202!         MOV       AL,@_clocktime+2      ; |443| 
     845 0000016d 7640'         LCR       #_TransmitByte        ; |443| 
         0000016e 0474 
     846                      ; call occurs [#_TransmitByte] ; |443| 
     847 0000016f 761F!         MOVW      DP,#_clocktime+3
         00000170 0000 
     848 00000171 9203!         MOV       AL,@_clocktime+3      ; |444| 
     849 00000172 7640'         LCR       #_TransmitByte        ; |444| 
         00000173 0474 
     850                      ; call occurs [#_TransmitByte] ; |444| 
     851 00000174 761F!         MOVW      DP,#_clocktime+4
         00000175 0000 
     852 00000176 9204!         MOV       AL,@_clocktime+4      ; |445| 
     853 00000177 7640'         LCR       #_TransmitByte        ; |445| 
         00000178 0474 
     854                      ; call occurs [#_TransmitByte] ; |445| 
     855 00000179 761F!         MOVW      DP,#_clocktime+5
         0000017a 0000 
     856 0000017b 9205!         MOV       AL,@_clocktime+5      ; |446| 
TMS320C2000 COFF Assembler PC v4.1.3 Thu Aug 18 12:16:32 2016

Tools Copyright (c) 1996-2006 Texas Instruments Incorporated
spi.asm                                                              PAGE   19

     857 0000017c 7640'         LCR       #_TransmitByte        ; |446| 
         0000017d 0474 
     858                      ; call occurs [#_TransmitByte] ; |446| 
     859 0000017e 761F!         MOVW      DP,#_clocktime+6
         0000017f 0000 
     860 00000180 9206!         MOV       AL,@_clocktime+6      ; |447| 
     861 00000181 7640'         LCR       #_TransmitByte        ; |447| 
         00000182 0474 
     862                      ; call occurs [#_TransmitByte] ; |447| 
     863 00000183 761F!         MOVW      DP,#_clocktime+7
         00000184 0000 
     864 00000185 9207!         MOV       AL,@_clocktime+7      ; |448| 
     865 00000186 7640'         LCR       #_TransmitByte        ; |448| 
         00000187 0474 
     866                      ; call occurs [#_TransmitByte] ; |448| 
     867 00000188 7640'         LCR       #_DeselectSPI         ; |449| 
         00000189 0446 
     868                      ; call occurs [#_DeselectSPI] ; |449| 
     869 0000018a 7640!         LCR       #_BuildTimeStamp      ; |450| 
         0000018b 0000 
     870                      ; call occurs [#_BuildTimeStamp] ; |450| 
     871 0000018c 761F!         MOVW      DP,#_clocktime+10
         0000018d 0000 
     872 0000018e 1E0A!         MOVL      @_clocktime+10,ACC    ; |450| 
     873 0000018f 761F!         MOVW      DP,#_clocktime+12
         00000190 0000 
     874 00000191 2B0C!         MOV       @_clocktime+12,#0     ; |451| 
     875 00000192 7640!         LCR       #_SaveTimetoFram      ; |452| 
         00000193 0000 
     876                      ; call occurs [#_SaveTimetoFram] ; |452| 
     877                      .dwpsn  "spi.c",455,1
     878 00000194 0006          LRETR
     879                      ; return occurs
     880                      .dwattr DW$53, DW_AT_end_file("spi.c")
     881                      .dwattr DW$53, DW_AT_end_line(0x1c7)
     882                      .dwattr DW$53, DW_AT_end_column(0x01)
     883                      .dwendtag DW$53
     884              
     885 00000195               .sect   ".text"
     886                      .global _WriteYrMnthData
     887              
     888              DW$54   .dwtag  DW_TAG_subprogram, DW_AT_name("WriteYrMnthData"), DW_AT_symbol_name("_WriteYrMnthData")
     889                      .dwattr DW$54, DW_AT_low_pc(_WriteYrMnthData)
     890                      .dwattr DW$54, DW_AT_high_pc(0x00)
     891                      .dwattr DW$54, DW_AT_begin_file("spi.c")
     892                      .dwattr DW$54, DW_AT_begin_line(0x1c9)
     893                      .dwattr DW$54, DW_AT_begin_column(0x06)
     894                      .dwattr DW$54, DW_AT_frame_base[DW_OP_breg20 -2]
     895                      .dwattr DW$54, DW_AT_skeletal(0x01)
     896                      .dwpsn  "spi.c",458,1
     897              
     898              ;***************************************************************
     899              ;* FNAME: _WriteYrMnthData              FR SIZE:   0           *
     900              ;*                                                             *
     901              ;* FUNCTION ENVIRONMENT                                        *
TMS320C2000 COFF Assembler PC v4.1.3 Thu Aug 18 12:16:32 2016

Tools Copyright (c) 1996-2006 Texas Instruments Incorporated
spi.asm                                                              PAGE   20

     902              ;*                                                             *
     903              ;* FUNCTION PROPERTIES                                         *
     904              ;*                            0 Parameter,  0 Auto,  0 SOE     *
     905              ;***************************************************************
     906              
     907 00000195       _WriteYrMnthData:
     908 00000195 8F00+         MOVL      XAR4,#FSL2            ; |460| 
         00000196 0018 
     909 00000197 7640!         LCR       #_DebugStringOut      ; |460| 
         00000198 0000 
     910                      ; call occurs [#_DebugStringOut] ; |460| 
     911 00000199 761F!         MOVW      DP,#_clocktime
         0000019a 0000 
     912 0000019b 9200!         MOV       AL,@_clocktime        ; |462| 
     913 0000019c ED13          BF        L11,NEQ               ; |462| 
     914                      ; branchcc occurs ; |462| 
     915 0000019d 7640'         LCR       #_SelectRTC           ; |464| 
         0000019e 0430 
     916                      ; call occurs [#_SelectRTC] ; |464| 
     917 0000019f 9A8F          MOVB      AL,#143               ; |465| 
     918 000001a0 7640'         LCR       #_TransmitByte        ; |465| 
         000001a1 0474 
     919                      ; call occurs [#_TransmitByte] ; |465| 
     920 000001a2 9A00          MOVB      AL,#0
     921 000001a3 7640'         LCR       #_TransmitByte        ; |466| 
         000001a4 0474 
     922                      ; call occurs [#_TransmitByte] ; |466| 
     923 000001a5 7640'         LCR       #_DeselectSPI         ; |467| 
         000001a6 0446 
     924                      ; call occurs [#_DeselectSPI] ; |467| 
     925 000001a7 761F!         MOVW      DP,#_clocktime
         000001a8 0000 
     926 000001a9 28A9          MOV       AL,#600               ; |469| 
         000001aa 0258 
     927 000001ab 2800!         MOV       @_clocktime,#1        ; |468| 
         000001ac 0001 
     928 000001ad 7640!         LCR       #_NOPDelay            ; |469| 
         000001ae 0000 
     929                      ; call occurs [#_NOPDelay] ; |469| 
     930 000001af       L11:    
     931 000001af 7640'         LCR       #_SelectRTC           ; |471| 
         000001b0 0430 
     932                      ; call occurs [#_SelectRTC] ; |471| 
     933 000001b1 9A85          MOVB      AL,#133               ; |472| 
     934 000001b2 7640'         LCR       #_TransmitByte        ; |472| 
         000001b3 0474 
     935                      ; call occurs [#_TransmitByte] ; |472| 
     936 000001b4 761F!         MOVW      DP,#_clocktime+6
         000001b5 0000 
     937 000001b6 9206!         MOV       AL,@_clocktime+6      ; |473| 
     938 000001b7 7640'         LCR       #_TransmitByte        ; |473| 
         000001b8 0474 
     939                      ; call occurs [#_TransmitByte] ; |473| 
     940 000001b9 761F!         MOVW      DP,#_clocktime+7
         000001ba 0000 
TMS320C2000 COFF Assembler PC v4.1.3 Thu Aug 18 12:16:32 2016

Tools Copyright (c) 1996-2006 Texas Instruments Incorporated
spi.asm                                                              PAGE   21

     941 000001bb 9207!         MOV       AL,@_clocktime+7      ; |474| 
     942 000001bc 7640'         LCR       #_TransmitByte        ; |474| 
         000001bd 0474 
     943                      ; call occurs [#_TransmitByte] ; |474| 
     944 000001be 7640'         LCR       #_DeselectSPI         ; |475| 
         000001bf 0446 
     945                      ; call occurs [#_DeselectSPI] ; |475| 
     946 000001c0 7640!         LCR       #_BuildTimeStamp      ; |476| 
         000001c1 0000 
     947                      ; call occurs [#_BuildTimeStamp] ; |476| 
     948 000001c2 761F!         MOVW      DP,#_clocktime+10
         000001c3 0000 
     949 000001c4 1E0A!         MOVL      @_clocktime+10,ACC    ; |476| 
     950 000001c5 761F!         MOVW      DP,#_clocktime+12
         000001c6 0000 
     951 000001c7 2B0C!         MOV       @_clocktime+12,#0     ; |477| 
     952 000001c8 7640!         LCR       #_SaveTimetoFram      ; |478| 
         000001c9 0000 
     953                      ; call occurs [#_SaveTimetoFram] ; |478| 
     954 000001ca 28A9          MOV       AL,#269               ; |479| 
         000001cb 010D 
     955 000001cc 7640!         LCR       #_ClearAlarmEvent     ; |479| 
         000001cd 0000 
     956                      ; call occurs [#_ClearAlarmEvent] ; |479| 
     957                      .dwpsn  "spi.c",480,1
     958 000001ce 0006          LRETR
     959                      ; return occurs
     960                      .dwattr DW$54, DW_AT_end_file("spi.c")
     961                      .dwattr DW$54, DW_AT_end_line(0x1e0)
     962                      .dwattr DW$54, DW_AT_end_column(0x01)
     963                      .dwendtag DW$54
     964              
     965 000001cf               .sect   ".text"
     966                      .global _WriteDateHrsData
     967              
     968              DW$55   .dwtag  DW_TAG_subprogram, DW_AT_name("WriteDateHrsData"), DW_AT_symbol_name("_WriteDateHrsData")
     969                      .dwattr DW$55, DW_AT_low_pc(_WriteDateHrsData)
     970                      .dwattr DW$55, DW_AT_high_pc(0x00)
     971                      .dwattr DW$55, DW_AT_begin_file("spi.c")
     972                      .dwattr DW$55, DW_AT_begin_line(0x1e2)
     973                      .dwattr DW$55, DW_AT_begin_column(0x06)
     974                      .dwattr DW$55, DW_AT_frame_base[DW_OP_breg20 -2]
     975                      .dwattr DW$55, DW_AT_skeletal(0x01)
     976                      .dwpsn  "spi.c",483,1
     977              
     978              ;***************************************************************
     979              ;* FNAME: _WriteDateHrsData             FR SIZE:   0           *
     980              ;*                                                             *
     981              ;* FUNCTION ENVIRONMENT                                        *
     982              ;*                                                             *
     983              ;* FUNCTION PROPERTIES                                         *
     984              ;*                            0 Parameter,  0 Auto,  0 SOE     *
     985              ;***************************************************************
     986              
     987 000001cf       _WriteDateHrsData:
TMS320C2000 COFF Assembler PC v4.1.3 Thu Aug 18 12:16:32 2016

Tools Copyright (c) 1996-2006 Texas Instruments Incorporated
spi.asm                                                              PAGE   22

     988 000001cf 8F00+         MOVL      XAR4,#FSL3            ; |485| 
         000001d0 0032 
     989 000001d1 7640!         LCR       #_DebugStringOut      ; |485| 
         000001d2 0000 
     990                      ; call occurs [#_DebugStringOut] ; |485| 
     991 000001d3 761F!         MOVW      DP,#_clocktime
         000001d4 0000 
     992 000001d5 9200!         MOV       AL,@_clocktime        ; |487| 
     993 000001d6 ED13          BF        L12,NEQ               ; |487| 
     994                      ; branchcc occurs ; |487| 
     995 000001d7 7640'         LCR       #_SelectRTC           ; |489| 
         000001d8 0430 
     996                      ; call occurs [#_SelectRTC] ; |489| 
     997 000001d9 9A8F          MOVB      AL,#143               ; |490| 
     998 000001da 7640'         LCR       #_TransmitByte        ; |490| 
         000001db 0474 
     999                      ; call occurs [#_TransmitByte] ; |490| 
    1000 000001dc 9A00          MOVB      AL,#0
    1001 000001dd 7640'         LCR       #_TransmitByte        ; |491| 
         000001de 0474 
    1002                      ; call occurs [#_TransmitByte] ; |491| 
    1003 000001df 7640'         LCR       #_DeselectSPI         ; |492| 
         000001e0 0446 
    1004                      ; call occurs [#_DeselectSPI] ; |492| 
    1005 000001e1 761F!         MOVW      DP,#_clocktime
         000001e2 0000 
    1006 000001e3 28A9          MOV       AL,#600               ; |494| 
         000001e4 0258 
    1007 000001e5 2800!         MOV       @_clocktime,#1        ; |493| 
         000001e6 0001 
    1008 000001e7 7640!         LCR       #_NOPDelay            ; |494| 
         000001e8 0000 
    1009                      ; call occurs [#_NOPDelay] ; |494| 
    1010 000001e9       L12:    
    1011 000001e9 7640'         LCR       #_SelectRTC           ; |496| 
         000001ea 0430 
    1012                      ; call occurs [#_SelectRTC] ; |496| 
    1013 000001eb 9A82          MOVB      AL,#130               ; |497| 
    1014 000001ec 7640'         LCR       #_TransmitByte        ; |497| 
         000001ed 0474 
    1015                      ; call occurs [#_TransmitByte] ; |497| 
    1016 000001ee 761F!         MOVW      DP,#_clocktime+3
         000001ef 0000 
    1017 000001f0 9203!         MOV       AL,@_clocktime+3      ; |498| 
    1018 000001f1 7640'         LCR       #_TransmitByte        ; |498| 
         000001f2 0474 
    1019                      ; call occurs [#_TransmitByte] ; |498| 
    1020 000001f3 761F!         MOVW      DP,#_clocktime+4
         000001f4 0000 
    1021 000001f5 9204!         MOV       AL,@_clocktime+4      ; |499| 
    1022 000001f6 7640'         LCR       #_TransmitByte        ; |499| 
         000001f7 0474 
    1023                      ; call occurs [#_TransmitByte] ; |499| 
    1024 000001f8 761F!         MOVW      DP,#_clocktime+5
         000001f9 0000 
TMS320C2000 COFF Assembler PC v4.1.3 Thu Aug 18 12:16:32 2016

Tools Copyright (c) 1996-2006 Texas Instruments Incorporated
spi.asm                                                              PAGE   23

    1025 000001fa 9205!         MOV       AL,@_clocktime+5      ; |500| 
    1026 000001fb 7640'         LCR       #_TransmitByte        ; |500| 
         000001fc 0474 
    1027                      ; call occurs [#_TransmitByte] ; |500| 
    1028 000001fd 7640'         LCR       #_DeselectSPI         ; |501| 
         000001fe 0446 
    1029                      ; call occurs [#_DeselectSPI] ; |501| 
    1030 000001ff 7640!         LCR       #_BuildTimeStamp      ; |502| 
         00000200 0000 
    1031                      ; call occurs [#_BuildTimeStamp] ; |502| 
    1032 00000201 761F!         MOVW      DP,#_clocktime+10
         00000202 0000 
    1033 00000203 1E0A!         MOVL      @_clocktime+10,ACC    ; |502| 
    1034 00000204 761F!         MOVW      DP,#_clocktime+12
         00000205 0000 
    1035 00000206 2B0C!         MOV       @_clocktime+12,#0     ; |503| 
    1036 00000207 7640!         LCR       #_SaveTimetoFram      ; |504| 
         00000208 0000 
    1037                      ; call occurs [#_SaveTimetoFram] ; |504| 
    1038 00000209 28A9          MOV       AL,#269               ; |505| 
         0000020a 010D 
    1039 0000020b 7640!         LCR       #_ClearAlarmEvent     ; |505| 
         0000020c 0000 
    1040                      ; call occurs [#_ClearAlarmEvent] ; |505| 
    1041                      .dwpsn  "spi.c",506,1
    1042 0000020d 0006          LRETR
    1043                      ; return occurs
    1044                      .dwattr DW$55, DW_AT_end_file("spi.c")
    1045                      .dwattr DW$55, DW_AT_end_line(0x1fa)
    1046                      .dwattr DW$55, DW_AT_end_column(0x01)
    1047                      .dwendtag DW$55
    1048              
    1049 0000020e               .sect   ".text"
    1050                      .global _WriteMinsSecsData
    1051              
    1052              DW$56   .dwtag  DW_TAG_subprogram, DW_AT_name("WriteMinsSecsData"), DW_AT_symbol_name("_WriteMinsSecsData")
    1053                      .dwattr DW$56, DW_AT_low_pc(_WriteMinsSecsData)
    1054                      .dwattr DW$56, DW_AT_high_pc(0x00)
    1055                      .dwattr DW$56, DW_AT_begin_file("spi.c")
    1056                      .dwattr DW$56, DW_AT_begin_line(0x1fc)
    1057                      .dwattr DW$56, DW_AT_begin_column(0x06)
    1058                      .dwattr DW$56, DW_AT_frame_base[DW_OP_breg20 -2]
    1059                      .dwattr DW$56, DW_AT_skeletal(0x01)
    1060                      .dwpsn  "spi.c",509,1
    1061              
    1062              ;***************************************************************
    1063              ;* FNAME: _WriteMinsSecsData            FR SIZE:   0           *
    1064              ;*                                                             *
    1065              ;* FUNCTION ENVIRONMENT                                        *
    1066              ;*                                                             *
    1067              ;* FUNCTION PROPERTIES                                         *
    1068              ;*                            0 Parameter,  0 Auto,  0 SOE     *
    1069              ;***************************************************************
    1070              
    1071 0000020e       _WriteMinsSecsData:
TMS320C2000 COFF Assembler PC v4.1.3 Thu Aug 18 12:16:32 2016

Tools Copyright (c) 1996-2006 Texas Instruments Incorporated
spi.asm                                                              PAGE   24

    1072 0000020e 8F00+         MOVL      XAR4,#FSL4            ; |511| 
         0000020f 004C 
    1073 00000210 7640!         LCR       #_DebugStringOut      ; |511| 
         00000211 0000 
    1074                      ; call occurs [#_DebugStringOut] ; |511| 
    1075 00000212 761F!         MOVW      DP,#_clocktime
         00000213 0000 
    1076 00000214 9200!         MOV       AL,@_clocktime        ; |513| 
    1077 00000215 ED13          BF        L13,NEQ               ; |513| 
    1078                      ; branchcc occurs ; |513| 
    1079 00000216 7640'         LCR       #_SelectRTC           ; |515| 
         00000217 0430 
    1080                      ; call occurs [#_SelectRTC] ; |515| 
    1081 00000218 9A8F          MOVB      AL,#143               ; |516| 
    1082 00000219 7640'         LCR       #_TransmitByte        ; |516| 
         0000021a 0474 
    1083                      ; call occurs [#_TransmitByte] ; |516| 
    1084 0000021b 9A00          MOVB      AL,#0
    1085 0000021c 7640'         LCR       #_TransmitByte        ; |517| 
         0000021d 0474 
    1086                      ; call occurs [#_TransmitByte] ; |517| 
    1087 0000021e 7640'         LCR       #_DeselectSPI         ; |518| 
         0000021f 0446 
    1088                      ; call occurs [#_DeselectSPI] ; |518| 
    1089 00000220 761F!         MOVW      DP,#_clocktime
         00000221 0000 
    1090 00000222 28A9          MOV       AL,#600               ; |520| 
         00000223 0258 
    1091 00000224 2800!         MOV       @_clocktime,#1        ; |519| 
         00000225 0001 
    1092 00000226 7640!         LCR       #_NOPDelay            ; |520| 
         00000227 0000 
    1093                      ; call occurs [#_NOPDelay] ; |520| 
    1094 00000228       L13:    
    1095 00000228 7640'         LCR       #_SelectRTC           ; |522| 
         00000229 0430 
    1096                      ; call occurs [#_SelectRTC] ; |522| 
    1097 0000022a 9A80          MOVB      AL,#128               ; |523| 
    1098 0000022b 7640'         LCR       #_TransmitByte        ; |523| 
         0000022c 0474 
    1099                      ; call occurs [#_TransmitByte] ; |523| 
    1100 0000022d 761F!         MOVW      DP,#_clocktime+1
         0000022e 0000 
    1101 0000022f 9201!         MOV       AL,@_clocktime+1      ; |524| 
    1102 00000230 7640'         LCR       #_TransmitByte        ; |524| 
         00000231 0474 
    1103                      ; call occurs [#_TransmitByte] ; |524| 
    1104 00000232 761F!         MOVW      DP,#_clocktime+2
         00000233 0000 
    1105 00000234 9202!         MOV       AL,@_clocktime+2      ; |525| 
    1106 00000235 7640'         LCR       #_TransmitByte        ; |525| 
         00000236 0474 
    1107                      ; call occurs [#_TransmitByte] ; |525| 
    1108 00000237 7640'         LCR       #_DeselectSPI         ; |526| 
         00000238 0446 
TMS320C2000 COFF Assembler PC v4.1.3 Thu Aug 18 12:16:32 2016

Tools Copyright (c) 1996-2006 Texas Instruments Incorporated
spi.asm                                                              PAGE   25

    1109                      ; call occurs [#_DeselectSPI] ; |526| 
    1110 00000239 7640!         LCR       #_BuildTimeStamp      ; |527| 
         0000023a 0000 
    1111                      ; call occurs [#_BuildTimeStamp] ; |527| 
    1112 0000023b 761F!         MOVW      DP,#_clocktime+10
         0000023c 0000 
    1113 0000023d 1E0A!         MOVL      @_clocktime+10,ACC    ; |527| 
    1114 0000023e 761F!         MOVW      DP,#_clocktime+12
         0000023f 0000 
    1115 00000240 2B0C!         MOV       @_clocktime+12,#0     ; |528| 
    1116 00000241 7640!         LCR       #_SaveTimetoFram      ; |529| 
         00000242 0000 
    1117                      ; call occurs [#_SaveTimetoFram] ; |529| 
    1118 00000243 28A9          MOV       AL,#269               ; |530| 
         00000244 010D 
    1119 00000245 7640!         LCR       #_ClearAlarmEvent     ; |530| 
         00000246 0000 
    1120                      ; call occurs [#_ClearAlarmEvent] ; |530| 
    1121                      .dwpsn  "spi.c",531,1
    1122 00000247 0006          LRETR
    1123                      ; return occurs
    1124                      .dwattr DW$56, DW_AT_end_file("spi.c")
    1125                      .dwattr DW$56, DW_AT_end_line(0x213)
    1126                      .dwattr DW$56, DW_AT_end_column(0x01)
    1127                      .dwendtag DW$56
    1128              
    1129 00000248               .sect   ".text"
    1130                      .global _CheckFlash
    1131              
    1132              DW$57   .dwtag  DW_TAG_subprogram, DW_AT_name("CheckFlash"), DW_AT_symbol_name("_CheckFlash")
    1133                      .dwattr DW$57, DW_AT_low_pc(_CheckFlash)
    1134                      .dwattr DW$57, DW_AT_high_pc(0x00)
    1135                      .dwattr DW$57, DW_AT_begin_file("spi.c")
    1136                      .dwattr DW$57, DW_AT_begin_line(0x218)
    1137                      .dwattr DW$57, DW_AT_begin_column(0x06)
    1138                      .dwattr DW$57, DW_AT_frame_base[DW_OP_breg20 -2]
    1139                      .dwattr DW$57, DW_AT_skeletal(0x01)
    1140                      .dwpsn  "spi.c",537,1
    1141              
    1142              ;***************************************************************
    1143              ;* FNAME: _CheckFlash                   FR SIZE:   0           *
    1144              ;*                                                             *
    1145              ;* FUNCTION ENVIRONMENT                                        *
    1146              ;*                                                             *
    1147              ;* FUNCTION PROPERTIES                                         *
    1148              ;*                            0 Parameter,  0 Auto,  0 SOE     *
    1149              ;***************************************************************
    1150              
    1151 00000248       _CheckFlash:
    1152 00000248 761F-         MOVW      DP,#_spiregs
         00000249 0000 
    1153 0000024a 1A00-         OR        @_spiregs,#0x0040     ; |538| 
         0000024b 0040 
    1154 0000024c 9A03          MOVB      AL,#3                 ; |540| 
    1155 0000024d F4A9          MOV       *(0:0x7044),AL        ; |540| 
TMS320C2000 COFF Assembler PC v4.1.3 Thu Aug 18 12:16:32 2016

Tools Copyright (c) 1996-2006 Texas Instruments Incorporated
spi.asm                                                              PAGE   26

         0000024e 7044 
    1156 0000024f 7640'         LCR       #_ReceiveByte         ; |542| 
         00000250 04A6 
    1157                      ; call occurs [#_ReceiveByte] ; |542| 
    1158 00000251 7640'         LCR       #_SelectFlash1        ; |544| 
         00000252 040C 
    1159                      ; call occurs [#_SelectFlash1] ; |544| 
    1160 00000253 9A9F          MOVB      AL,#159               ; |545| 
    1161 00000254 7640'         LCR       #_TransmitByte        ; |545| 
         00000255 0474 
    1162                      ; call occurs [#_TransmitByte] ; |545| 
    1163 00000256 7640'         LCR       #_ReceiveByte         ; |546| 
         00000257 04A6 
    1164                      ; call occurs [#_ReceiveByte] ; |546| 
    1165 00000258 7640'         LCR       #_ReceiveByte         ; |547| 
         00000259 04A6 
    1166                      ; call occurs [#_ReceiveByte] ; |547| 
    1167 0000025a 761F-         MOVW      DP,#_flashcheck
         0000025b 0000 
    1168 0000025c 9606-         MOV       @_flashcheck,AL       ; |547| 
    1169 0000025d 7640'         LCR       #_ReceiveByte         ; |548| 
         0000025e 04A6 
    1170                      ; call occurs [#_ReceiveByte] ; |548| 
    1171 0000025f 7640'         LCR       #_ReceiveByte         ; |549| 
         00000260 04A6 
    1172                      ; call occurs [#_ReceiveByte] ; |549| 
    1173 00000261 7640'         LCR       #_ReceiveByte         ; |550| 
         00000262 04A6 
    1174                      ; call occurs [#_ReceiveByte] ; |550| 
    1175 00000263 7640'         LCR       #_ReceiveByte         ; |551| 
         00000264 04A6 
    1176                      ; call occurs [#_ReceiveByte] ; |551| 
    1177 00000265 7640'         LCR       #_DeselectSPI         ; |552| 
         00000266 0446 
    1178                      ; call occurs [#_DeselectSPI] ; |552| 
    1179 00000267 7640'         LCR       #_SelectFlash2        ; |554| 
         00000268 0415 
    1180                      ; call occurs [#_SelectFlash2] ; |554| 
    1181 00000269 9A9F          MOVB      AL,#159               ; |555| 
    1182 0000026a 7640'         LCR       #_TransmitByte        ; |555| 
         0000026b 0474 
    1183                      ; call occurs [#_TransmitByte] ; |555| 
    1184 0000026c 7640'         LCR       #_ReceiveByte         ; |556| 
         0000026d 04A6 
    1185                      ; call occurs [#_ReceiveByte] ; |556| 
    1186 0000026e 7640'         LCR       #_ReceiveByte         ; |557| 
         0000026f 04A6 
    1187                      ; call occurs [#_ReceiveByte] ; |557| 
    1188 00000270 761F-         MOVW      DP,#_flashcheck+1
         00000271 0000 
    1189 00000272 9607-         MOV       @_flashcheck+1,AL     ; |557| 
    1190 00000273 7640'         LCR       #_ReceiveByte         ; |558| 
         00000274 04A6 
    1191                      ; call occurs [#_ReceiveByte] ; |558| 
    1192 00000275 7640'         LCR       #_ReceiveByte         ; |559| 
TMS320C2000 COFF Assembler PC v4.1.3 Thu Aug 18 12:16:32 2016

Tools Copyright (c) 1996-2006 Texas Instruments Incorporated
spi.asm                                                              PAGE   27

         00000276 04A6 
    1193                      ; call occurs [#_ReceiveByte] ; |559| 
    1194 00000277 7640'         LCR       #_ReceiveByte         ; |560| 
         00000278 04A6 
    1195                      ; call occurs [#_ReceiveByte] ; |560| 
    1196 00000279 7640'         LCR       #_ReceiveByte         ; |561| 
         0000027a 04A6 
    1197                      ; call occurs [#_ReceiveByte] ; |561| 
    1198 0000027b 7640'         LCR       #_DeselectSPI         ; |562| 
         0000027c 0446 
    1199                      ; call occurs [#_DeselectSPI] ; |562| 
    1200 0000027d 7640'         LCR       #_SelectFlash3        ; |564| 
         0000027e 041E 
    1201                      ; call occurs [#_SelectFlash3] ; |564| 
    1202 0000027f 9A9F          MOVB      AL,#159               ; |565| 
    1203 00000280 7640'         LCR       #_TransmitByte        ; |565| 
         00000281 0474 
    1204                      ; call occurs [#_TransmitByte] ; |565| 
    1205 00000282 7640'         LCR       #_ReceiveByte         ; |566| 
         00000283 04A6 
    1206                      ; call occurs [#_ReceiveByte] ; |566| 
    1207 00000284 7640'         LCR       #_ReceiveByte         ; |567| 
         00000285 04A6 
    1208                      ; call occurs [#_ReceiveByte] ; |567| 
    1209 00000286 761F-         MOVW      DP,#_flashcheck+2
         00000287 0000 
    1210 00000288 9608-         MOV       @_flashcheck+2,AL     ; |567| 
    1211 00000289 7640'         LCR       #_ReceiveByte         ; |568| 
         0000028a 04A6 
    1212                      ; call occurs [#_ReceiveByte] ; |568| 
    1213 0000028b 7640'         LCR       #_ReceiveByte         ; |569| 
         0000028c 04A6 
    1214                      ; call occurs [#_ReceiveByte] ; |569| 
    1215 0000028d 7640'         LCR       #_ReceiveByte         ; |570| 
         0000028e 04A6 
    1216                      ; call occurs [#_ReceiveByte] ; |570| 
    1217 0000028f 7640'         LCR       #_ReceiveByte         ; |571| 
         00000290 04A6 
    1218                      ; call occurs [#_ReceiveByte] ; |571| 
    1219 00000291 7640'         LCR       #_DeselectSPI         ; |572| 
         00000292 0446 
    1220                      ; call occurs [#_DeselectSPI] ; |572| 
    1221 00000293 7640'         LCR       #_SelectFlash4        ; |574| 
         00000294 0427 
    1222                      ; call occurs [#_SelectFlash4] ; |574| 
    1223 00000295 9A9F          MOVB      AL,#159               ; |575| 
    1224 00000296 7640'         LCR       #_TransmitByte        ; |575| 
         00000297 0474 
    1225                      ; call occurs [#_TransmitByte] ; |575| 
    1226 00000298 7640'         LCR       #_ReceiveByte         ; |576| 
         00000299 04A6 
    1227                      ; call occurs [#_ReceiveByte] ; |576| 
    1228 0000029a 7640'         LCR       #_ReceiveByte         ; |577| 
         0000029b 04A6 
    1229                      ; call occurs [#_ReceiveByte] ; |577| 
TMS320C2000 COFF Assembler PC v4.1.3 Thu Aug 18 12:16:32 2016

Tools Copyright (c) 1996-2006 Texas Instruments Incorporated
spi.asm                                                              PAGE   28

    1230 0000029c 761F-         MOVW      DP,#_flashcheck+3
         0000029d 0000 
    1231 0000029e 9609-         MOV       @_flashcheck+3,AL     ; |577| 
    1232 0000029f 7640'         LCR       #_ReceiveByte         ; |578| 
         000002a0 04A6 
    1233                      ; call occurs [#_ReceiveByte] ; |578| 
    1234 000002a1 7640'         LCR       #_ReceiveByte         ; |579| 
         000002a2 04A6 
    1235                      ; call occurs [#_ReceiveByte] ; |579| 
    1236 000002a3 7640'         LCR       #_ReceiveByte         ; |580| 
         000002a4 04A6 
    1237                      ; call occurs [#_ReceiveByte] ; |580| 
    1238 000002a5 7640'         LCR       #_ReceiveByte         ; |581| 
         000002a6 04A6 
    1239                      ; call occurs [#_ReceiveByte] ; |581| 
    1240 000002a7 7640'         LCR       #_DeselectSPI         ; |582| 
         000002a8 0446 
    1241                      ; call occurs [#_DeselectSPI] ; |582| 
    1242                      .dwpsn  "spi.c",583,1
    1243 000002a9 0006          LRETR
    1244                      ; return occurs
    1245                      .dwattr DW$57, DW_AT_end_file("spi.c")
    1246                      .dwattr DW$57, DW_AT_end_line(0x247)
    1247                      .dwattr DW$57, DW_AT_end_column(0x01)
    1248                      .dwendtag DW$57
    1249              
    1250 000002aa               .sect   ".text"
    1251                      .global _WriteEnableEEprom1
    1252              
    1253              DW$58   .dwtag  DW_TAG_subprogram, DW_AT_name("WriteEnableEEprom1"), DW_AT_symbol_name("_WriteEnableEEprom1")
    1254                      .dwattr DW$58, DW_AT_low_pc(_WriteEnableEEprom1)
    1255                      .dwattr DW$58, DW_AT_high_pc(0x00)
    1256                      .dwattr DW$58, DW_AT_begin_file("spi.c")
    1257                      .dwattr DW$58, DW_AT_begin_line(0x24b)
    1258                      .dwattr DW$58, DW_AT_begin_column(0x06)
    1259                      .dwattr DW$58, DW_AT_frame_base[DW_OP_breg20 -2]
    1260                      .dwattr DW$58, DW_AT_skeletal(0x01)
    1261                      .dwpsn  "spi.c",588,1
    1262              
    1263              ;***************************************************************
    1264              ;* FNAME: _WriteEnableEEprom1           FR SIZE:   0           *
    1265              ;*                                                             *
    1266              ;* FUNCTION ENVIRONMENT                                        *
    1267              ;*                                                             *
    1268              ;* FUNCTION PROPERTIES                                         *
    1269              ;*                            0 Parameter,  0 Auto,  0 SOE     *
    1270              ;***************************************************************
    1271              
    1272 000002aa       _WriteEnableEEprom1:
    1273 000002aa 7640'         LCR       #_SelectEEprom1       ; |589| 
         000002ab 03FA 
    1274                      ; call occurs [#_SelectEEprom1] ; |589| 
    1275 000002ac 9A06          MOVB      AL,#6                 ; |590| 
    1276 000002ad 7640'         LCR       #_TransmitByte        ; |590| 
         000002ae 0474 
TMS320C2000 COFF Assembler PC v4.1.3 Thu Aug 18 12:16:32 2016

Tools Copyright (c) 1996-2006 Texas Instruments Incorporated
spi.asm                                                              PAGE   29

    1277                      ; call occurs [#_TransmitByte] ; |590| 
    1278 000002af 7640'         LCR       #_DeselectSPI         ; |591| 
         000002b0 0446 
    1279                      ; call occurs [#_DeselectSPI] ; |591| 
    1280                      .dwpsn  "spi.c",592,1
    1281 000002b1 0006          LRETR
    1282                      ; return occurs
    1283                      .dwattr DW$58, DW_AT_end_file("spi.c")
    1284                      .dwattr DW$58, DW_AT_end_line(0x250)
    1285                      .dwattr DW$58, DW_AT_end_column(0x01)
    1286                      .dwendtag DW$58
    1287              
    1288 000002b2               .sect   ".text"
    1289                      .global _WriteStatusRegEEprom1
    1290              
    1291              DW$59   .dwtag  DW_TAG_subprogram, DW_AT_name("WriteStatusRegEEprom1"), DW_AT_symbol_name("_WriteStatusRegEEp
    1292                      .dwattr DW$59, DW_AT_low_pc(_WriteStatusRegEEprom1)
    1293                      .dwattr DW$59, DW_AT_high_pc(0x00)
    1294                      .dwattr DW$59, DW_AT_begin_file("spi.c")
    1295                      .dwattr DW$59, DW_AT_begin_line(0x253)
    1296                      .dwattr DW$59, DW_AT_begin_column(0x06)
    1297                      .dwattr DW$59, DW_AT_frame_base[DW_OP_breg20 -4]
    1298                      .dwattr DW$59, DW_AT_skeletal(0x01)
    1299                      .dwpsn  "spi.c",596,1
    1300              
    1301              ;***************************************************************
    1302              ;* FNAME: _WriteStatusRegEEprom1        FR SIZE:   2           *
    1303              ;*                                                             *
    1304              ;* FUNCTION ENVIRONMENT                                        *
    1305              ;*                                                             *
    1306              ;* FUNCTION PROPERTIES                                         *
    1307              ;*                            0 Parameter,  0 Auto,  2 SOE     *
    1308              ;***************************************************************
    1309              
    1310              _WriteStatusRegEEprom1:
    1311              ;* AL    assigned to _wrbyte
    1312              DW$60   .dwtag  DW_TAG_formal_parameter, DW_AT_name("wrbyte"), DW_AT_symbol_name("_wrbyte")
    1313                      .dwattr DW$60, DW_AT_type(*DW$T$11)
    1314                      .dwattr DW$60, DW_AT_location[DW_OP_reg0]
    1315 000002b2 B2BD          MOVL      *SP++,XAR1
    1316 000002b3 59A9          MOVZ      AR1,AL                ; |596| 
    1317 000002b4 7640'         LCR       #_SelectEEprom1       ; |597| 
         000002b5 03FA 
    1318                      ; call occurs [#_SelectEEprom1] ; |597| 
    1319 000002b6 9A01          MOVB      AL,#1                 ; |598| 
    1320 000002b7 7640'         LCR       #_TransmitByte        ; |598| 
         000002b8 0474 
    1321                      ; call occurs [#_TransmitByte] ; |598| 
    1322 000002b9 92A1          MOV       AL,AR1                ; |599| 
    1323 000002ba 7640'         LCR       #_TransmitByte        ; |599| 
         000002bb 0474 
    1324                      ; call occurs [#_TransmitByte] ; |599| 
    1325 000002bc 7640'         LCR       #_DeselectSPI         ; |600| 
         000002bd 0446 
    1326                      ; call occurs [#_DeselectSPI] ; |600| 
TMS320C2000 COFF Assembler PC v4.1.3 Thu Aug 18 12:16:32 2016

Tools Copyright (c) 1996-2006 Texas Instruments Incorporated
spi.asm                                                              PAGE   30

    1327 000002be 8BBE          MOVL      XAR1,*--SP
    1328                      .dwpsn  "spi.c",601,1
    1329 000002bf 0006          LRETR
    1330                      ; return occurs
    1331                      .dwattr DW$59, DW_AT_end_file("spi.c")
    1332                      .dwattr DW$59, DW_AT_end_line(0x259)
    1333                      .dwattr DW$59, DW_AT_end_column(0x01)
    1334                      .dwendtag DW$59
    1335              
    1336 000002c0               .sect   ".text"
    1337                      .global _WritetoMemoryEEprom1
    1338              
    1339              DW$61   .dwtag  DW_TAG_subprogram, DW_AT_name("WritetoMemoryEEprom1"), DW_AT_symbol_name("_WritetoMemoryEEpro
    1340                      .dwattr DW$61, DW_AT_low_pc(_WritetoMemoryEEprom1)
    1341                      .dwattr DW$61, DW_AT_high_pc(0x00)
    1342                      .dwattr DW$61, DW_AT_begin_file("spi.c")
    1343                      .dwattr DW$61, DW_AT_begin_line(0x25c)
    1344                      .dwattr DW$61, DW_AT_begin_column(0x06)
    1345                      .dwattr DW$61, DW_AT_frame_base[DW_OP_breg20 -4]
    1346                      .dwattr DW$61, DW_AT_skeletal(0x01)
    1347                      .dwpsn  "spi.c",605,1
    1348              
    1349              ;***************************************************************
    1350              ;* FNAME: _WritetoMemoryEEprom1         FR SIZE:   2           *
    1351              ;*                                                             *
    1352              ;* FUNCTION ENVIRONMENT                                        *
    1353              ;*                                                             *
    1354              ;* FUNCTION PROPERTIES                                         *
    1355              ;*                            0 Parameter,  0 Auto,  2 SOE     *
    1356              ;***************************************************************
    1357              
    1358              _WritetoMemoryEEprom1:
    1359              ;* AL    assigned to _addy
    1360              DW$62   .dwtag  DW_TAG_formal_parameter, DW_AT_name("addy"), DW_AT_symbol_name("_addy")
    1361                      .dwattr DW$62, DW_AT_type(*DW$T$11)
    1362                      .dwattr DW$62, DW_AT_location[DW_OP_reg0]
    1363 000002c0 B2BD          MOVL      *SP++,XAR1
    1364 000002c1 59A9          MOVZ      AR1,AL                ; |605| 
    1365 000002c2 7640'         LCR       #_WriteEnableEEprom1  ; |609| 
         000002c3 02AA 
    1366                      ; call occurs [#_WriteEnableEEprom1] ; |609| 
    1367 000002c4 7640'         LCR       #_SelectEEprom1       ; |612| 
         000002c5 03FA 
    1368                      ; call occurs [#_SelectEEprom1] ; |612| 
    1369 000002c6 9A02          MOVB      AL,#2                 ; |613| 
    1370 000002c7 7640'         LCR       #_TransmitByte        ; |613| 
         000002c8 0474 
    1371                      ; call occurs [#_TransmitByte] ; |613| 
    1372 000002c9 92A1          MOV       AL,AR1                ; |614| 
    1373 000002ca FFC7          LSR       AL,8                  ; |614| 
    1374 000002cb 7640'         LCR       #_TransmitByte        ; |614| 
         000002cc 0474 
    1375                      ; call occurs [#_TransmitByte] ; |614| 
    1376 000002cd CCA1          AND       AL,AR1,#0x00ff        ; |615| 
         000002ce 00FF 
TMS320C2000 COFF Assembler PC v4.1.3 Thu Aug 18 12:16:32 2016

Tools Copyright (c) 1996-2006 Texas Instruments Incorporated
spi.asm                                                              PAGE   31

    1377 000002cf 7640'         LCR       #_TransmitByte        ; |615| 
         000002d0 0474 
    1378                      ; call occurs [#_TransmitByte] ; |615| 
    1379 000002d1 8BBE          MOVL      XAR1,*--SP
    1380                      .dwpsn  "spi.c",616,1
    1381 000002d2 0006          LRETR
    1382                      ; return occurs
    1383                      .dwattr DW$61, DW_AT_end_file("spi.c")
    1384                      .dwattr DW$61, DW_AT_end_line(0x268)
    1385                      .dwattr DW$61, DW_AT_end_column(0x01)
    1386                      .dwendtag DW$61
    1387              
    1388 000002d3               .sect   ".text"
    1389                      .global _ReadEEprom1StatusReg
    1390              
    1391              DW$63   .dwtag  DW_TAG_subprogram, DW_AT_name("ReadEEprom1StatusReg"), DW_AT_symbol_name("_ReadEEprom1StatusR
    1392                      .dwattr DW$63, DW_AT_low_pc(_ReadEEprom1StatusReg)
    1393                      .dwattr DW$63, DW_AT_high_pc(0x00)
    1394                      .dwattr DW$63, DW_AT_begin_file("spi.c")
    1395                      .dwattr DW$63, DW_AT_begin_line(0x26b)
    1396                      .dwattr DW$63, DW_AT_begin_column(0x0e)
    1397                      .dwattr DW$63, DW_AT_frame_base[DW_OP_breg20 -4]
    1398                      .dwattr DW$63, DW_AT_skeletal(0x01)
    1399                      .dwpsn  "spi.c",620,1
    1400              
    1401              ;***************************************************************
    1402              ;* FNAME: _ReadEEprom1StatusReg         FR SIZE:   2           *
    1403              ;*                                                             *
    1404              ;* FUNCTION ENVIRONMENT                                        *
    1405              ;*                                                             *
    1406              ;* FUNCTION PROPERTIES                                         *
    1407              ;*                            0 Parameter,  0 Auto,  2 SOE     *
    1408              ;***************************************************************
    1409              
    1410 000002d3       _ReadEEprom1StatusReg:
    1411 000002d3 B2BD          MOVL      *SP++,XAR1
    1412 000002d4 7640'         LCR       #_SelectEEprom1       ; |623| 
         000002d5 03FA 
    1413                      ; call occurs [#_SelectEEprom1] ; |623| 
    1414 000002d6 9A05          MOVB      AL,#5                 ; |624| 
    1415 000002d7 7640'         LCR       #_TransmitByte        ; |624| 
         000002d8 0474 
    1416                      ; call occurs [#_TransmitByte] ; |624| 
    1417 000002d9 7640'         LCR       #_ReceiveByte         ; |625| 
         000002da 04A6 
    1418                      ; call occurs [#_ReceiveByte] ; |625| 
    1419 000002db 59A9          MOVZ      AR1,AL                ; |625| 
    1420 000002dc 7640'         LCR       #_DeselectSPI         ; |626| 
         000002dd 0446 
    1421                      ; call occurs [#_DeselectSPI] ; |626| 
    1422 000002de 92A1          MOV       AL,AR1                ; |627| 
    1423 000002df 8BBE          MOVL      XAR1,*--SP            ; |627| 
    1424                      .dwpsn  "spi.c",628,1
    1425 000002e0 0006          LRETR
    1426                      ; return occurs
TMS320C2000 COFF Assembler PC v4.1.3 Thu Aug 18 12:16:32 2016

Tools Copyright (c) 1996-2006 Texas Instruments Incorporated
spi.asm                                                              PAGE   32

    1427                      .dwattr DW$63, DW_AT_end_file("spi.c")
    1428                      .dwattr DW$63, DW_AT_end_line(0x274)
    1429                      .dwattr DW$63, DW_AT_end_column(0x01)
    1430                      .dwendtag DW$63
    1431              
    1432 000002e1               .sect   ".text"
    1433                      .global _WriteNVMemory
    1434              
    1435              DW$64   .dwtag  DW_TAG_subprogram, DW_AT_name("WriteNVMemory"), DW_AT_symbol_name("_WriteNVMemory")
    1436                      .dwattr DW$64, DW_AT_low_pc(_WriteNVMemory)
    1437                      .dwattr DW$64, DW_AT_high_pc(0x00)
    1438                      .dwattr DW$64, DW_AT_begin_file("spi.c")
    1439                      .dwattr DW$64, DW_AT_begin_line(0x27d)
    1440                      .dwattr DW$64, DW_AT_begin_column(0x06)
    1441                      .dwattr DW$64, DW_AT_frame_base[DW_OP_breg20 -10]
    1442                      .dwattr DW$64, DW_AT_skeletal(0x01)
    1443                      .dwpsn  "spi.c",638,1
    1444              
    1445              ;***************************************************************
    1446              ;* FNAME: _WriteNVMemory                FR SIZE:   8           *
    1447              ;*                                                             *
    1448              ;* FUNCTION ENVIRONMENT                                        *
    1449              ;*                                                             *
    1450              ;* FUNCTION PROPERTIES                                         *
    1451              ;*                            0 Parameter,  1 Auto,  6 SOE     *
    1452              ;***************************************************************
    1453              
    1454              _WriteNVMemory:
    1455              ;* AL    assigned to _choice
    1456              DW$65   .dwtag  DW_TAG_formal_parameter, DW_AT_name("choice"), DW_AT_symbol_name("_choice")
    1457                      .dwattr DW$65, DW_AT_type(*DW$T$11)
    1458                      .dwattr DW$65, DW_AT_location[DW_OP_reg0]
    1459              ;* AH    assigned to _position
    1460              DW$66   .dwtag  DW_TAG_formal_parameter, DW_AT_name("position"), DW_AT_symbol_name("_position")
    1461                      .dwattr DW$66, DW_AT_type(*DW$T$11)
    1462                      .dwattr DW$66, DW_AT_location[DW_OP_reg1]
    1463              ;* AR4   assigned to _ptr
    1464              DW$67   .dwtag  DW_TAG_formal_parameter, DW_AT_name("ptr"), DW_AT_symbol_name("_ptr")
    1465                      .dwattr DW$67, DW_AT_type(*DW$T$86)
    1466                      .dwattr DW$67, DW_AT_location[DW_OP_reg12]
    1467              ;* AR5   assigned to _len
    1468              DW$68   .dwtag  DW_TAG_formal_parameter, DW_AT_name("len"), DW_AT_symbol_name("_len")
    1469                      .dwattr DW$68, DW_AT_type(*DW$T$11)
    1470                      .dwattr DW$68, DW_AT_location[DW_OP_reg14]
    1471 000002e1 B2BD          MOVL      *SP++,XAR1
    1472 000002e2 AABD          MOVL      *SP++,XAR2
    1473 000002e3 A2BD          MOVL      *SP++,XAR3
    1474 000002e4 FE02          ADDB      SP,#2
    1475 000002e5 86A4          MOVL      XAR2,XAR4             ; |638| 
    1476 000002e6 7D41          MOV       *-SP[1],AR5           ; |638| 
    1477 000002e7 7640'         LCR       #_WritetoMemoryFRAM   ; |643| 
         000002e8 03C5 
    1478                      ; call occurs [#_WritetoMemoryFRAM] ; |643| 
    1479 000002e9 D300          MOVB      XAR3,#0
    1480 000002ea 9241          MOV       AL,*-SP[1]            ; |644| 
TMS320C2000 COFF Assembler PC v4.1.3 Thu Aug 18 12:16:32 2016

Tools Copyright (c) 1996-2006 Texas Instruments Incorporated
spi.asm                                                              PAGE   33

    1481 000002eb EC10          BF        L15,EQ                ; |644| 
    1482                      ; branchcc occurs ; |644| 
    1483              L14:    
    1484              DW$L$_WriteNVMemory$2$B:
    1485                      .dwpsn  "spi.c",645,0
    1486 000002ec 9282          MOV       AL,*XAR2++            ; |647| 
    1487 000002ed CDA9          AND       AH,AL,#0x00ff         ; |647| 
         000002ee 00FF 
    1488 000002ef 59A8          MOVZ      AR1,AH                ; |647| 
    1489 000002f0 FFC7          LSR       AL,8                  ; |648| 
    1490 000002f1 7640'         LCR       #_TransmitByte        ; |648| 
         000002f2 0474 
    1491                      ; call occurs [#_TransmitByte] ; |648| 
    1492 000002f3 92A1          MOV       AL,AR1                ; |648| 
    1493 000002f4 7640'         LCR       #_TransmitByte        ; |649| 
         000002f5 0474 
    1494                      ; call occurs [#_TransmitByte] ; |649| 
    1495 000002f6 DB01          ADDB      XAR3,#1               ; |644| 
    1496 000002f7 9241          MOV       AL,*-SP[1]            ; |644| 
    1497 000002f8 54A3          CMP       AL,AR3                ; |644| 
    1498                      .dwpsn  "spi.c",651,0
    1499 000002f9 56C6          BF        L14,HI                ; |644| 
         000002fa FFF3 
    1500                      ; branchcc occurs ; |644| 
    1501 000002fb       DW$L$_WriteNVMemory$2$E:
    1502 000002fb       L15:    
    1503 000002fb 7640'         LCR       #_DeselectSPI         ; |652| 
         000002fc 0446 
    1504                      ; call occurs [#_DeselectSPI] ; |652| 
    1505 000002fd FE82          SUBB      SP,#2
    1506 000002fe 82BE          MOVL      XAR3,*--SP
    1507 000002ff 86BE          MOVL      XAR2,*--SP
    1508 00000300 8BBE          MOVL      XAR1,*--SP
    1509                      .dwpsn  "spi.c",654,1
    1510 00000301 0006          LRETR
    1511                      ; return occurs
    1512              
    1513              DW$69   .dwtag  DW_TAG_loop
    1514                      .dwattr DW$69, DW_AT_name("D:\DEV\Amot\BearingWear\XTSW_V6_20\spi.asm:L14:1:1471518992")
    1515                      .dwattr DW$69, DW_AT_begin_file("spi.c")
    1516                      .dwattr DW$69, DW_AT_begin_line(0x284)
    1517                      .dwattr DW$69, DW_AT_end_line(0x28b)
    1518              DW$70   .dwtag  DW_TAG_loop_range
    1519                      .dwattr DW$70, DW_AT_low_pc(DW$L$_WriteNVMemory$2$B)
    1520                      .dwattr DW$70, DW_AT_high_pc(DW$L$_WriteNVMemory$2$E)
    1521                      .dwendtag DW$69
    1522              
    1523                      .dwattr DW$64, DW_AT_end_file("spi.c")
    1524                      .dwattr DW$64, DW_AT_end_line(0x28e)
    1525                      .dwattr DW$64, DW_AT_end_column(0x01)
    1526                      .dwendtag DW$64
    1527              
    1528 00000302               .sect   ".text"
    1529                      .global _ReadNVMemory
    1530              
TMS320C2000 COFF Assembler PC v4.1.3 Thu Aug 18 12:16:32 2016

Tools Copyright (c) 1996-2006 Texas Instruments Incorporated
spi.asm                                                              PAGE   34

    1531              DW$71   .dwtag  DW_TAG_subprogram, DW_AT_name("ReadNVMemory"), DW_AT_symbol_name("_ReadNVMemory")
    1532                      .dwattr DW$71, DW_AT_low_pc(_ReadNVMemory)
    1533                      .dwattr DW$71, DW_AT_high_pc(0x00)
    1534                      .dwattr DW$71, DW_AT_begin_file("spi.c")
    1535                      .dwattr DW$71, DW_AT_begin_line(0x294)
    1536                      .dwattr DW$71, DW_AT_begin_column(0x06)
    1537                      .dwattr DW$71, DW_AT_frame_base[DW_OP_breg20 -10]
    1538                      .dwattr DW$71, DW_AT_skeletal(0x01)
    1539                      .dwpsn  "spi.c",661,1
    1540              
    1541              ;***************************************************************
    1542              ;* FNAME: _ReadNVMemory                 FR SIZE:   8           *
    1543              ;*                                                             *
    1544              ;* FUNCTION ENVIRONMENT                                        *
    1545              ;*                                                             *
    1546              ;* FUNCTION PROPERTIES                                         *
    1547              ;*                            0 Parameter,  1 Auto,  6 SOE     *
    1548              ;***************************************************************
    1549              
    1550              _ReadNVMemory:
    1551              ;* AL    assigned to _choice
    1552              DW$72   .dwtag  DW_TAG_formal_parameter, DW_AT_name("choice"), DW_AT_symbol_name("_choice")
    1553                      .dwattr DW$72, DW_AT_type(*DW$T$11)
    1554                      .dwattr DW$72, DW_AT_location[DW_OP_reg0]
    1555              ;* AH    assigned to _position
    1556              DW$73   .dwtag  DW_TAG_formal_parameter, DW_AT_name("position"), DW_AT_symbol_name("_position")
    1557                      .dwattr DW$73, DW_AT_type(*DW$T$11)
    1558                      .dwattr DW$73, DW_AT_location[DW_OP_reg1]
    1559              ;* AR4   assigned to _ptr
    1560              DW$74   .dwtag  DW_TAG_formal_parameter, DW_AT_name("ptr"), DW_AT_symbol_name("_ptr")
    1561                      .dwattr DW$74, DW_AT_type(*DW$T$86)
    1562                      .dwattr DW$74, DW_AT_location[DW_OP_reg12]
    1563              ;* AR5   assigned to _len
    1564              DW$75   .dwtag  DW_TAG_formal_parameter, DW_AT_name("len"), DW_AT_symbol_name("_len")
    1565                      .dwattr DW$75, DW_AT_type(*DW$T$11)
    1566                      .dwattr DW$75, DW_AT_location[DW_OP_reg14]
    1567 00000302 B2BD          MOVL      *SP++,XAR1
    1568 00000303 AABD          MOVL      *SP++,XAR2
    1569 00000304 A2BD          MOVL      *SP++,XAR3
    1570 00000305 FE02          ADDB      SP,#2
    1571 00000306 86A4          MOVL      XAR2,XAR4             ; |661| 
    1572 00000307 7D41          MOV       *-SP[1],AR5           ; |661| 
    1573 00000308 7640'         LCR       #_ReadfromMemoryFRAM  ; |667| 
         00000309 0384 
    1574                      ; call occurs [#_ReadfromMemoryFRAM] ; |667| 
    1575 0000030a D300          MOVB      XAR3,#0
    1576 0000030b 9241          MOV       AL,*-SP[1]            ; |668| 
    1577 0000030c EC0D          BF        L17,EQ                ; |668| 
    1578                      ; branchcc occurs ; |668| 
    1579              L16:    
    1580              DW$L$_ReadNVMemory$2$B:
    1581                      .dwpsn  "spi.c",669,0
    1582 0000030d 7640'         LCR       #_ReceiveByte         ; |670| 
         0000030e 04A6 
    1583                      ; call occurs [#_ReceiveByte] ; |670| 
TMS320C2000 COFF Assembler PC v4.1.3 Thu Aug 18 12:16:32 2016

Tools Copyright (c) 1996-2006 Texas Instruments Incorporated
spi.asm                                                              PAGE   35

    1584 0000030f 59A9          MOVZ      AR1,AL                ; |670| 
    1585 00000310 7640'         LCR       #_ReceiveByte         ; |671| 
         00000311 04A6 
    1586                      ; call occurs [#_ReceiveByte] ; |671| 
    1587 00000312 DB01          ADDB      XAR3,#1               ; |668| 
    1588 00000313 38A1          MOVB      AL.MSB,AR1            ; |672| 
    1589 00000314 9682          MOV       *XAR2++,AL            ; |672| 
    1590 00000315 9241          MOV       AL,*-SP[1]            ; |668| 
    1591 00000316 54A3          CMP       AL,AR3                ; |668| 
    1592                      .dwpsn  "spi.c",675,0
    1593 00000317 56C6          BF        L16,HI                ; |668| 
         00000318 FFF6 
    1594                      ; branchcc occurs ; |668| 
    1595 00000319       DW$L$_ReadNVMemory$2$E:
    1596 00000319       L17:    
    1597 00000319 7640'         LCR       #_DeselectSPI         ; |676| 
         0000031a 0446 
    1598                      ; call occurs [#_DeselectSPI] ; |676| 
    1599 0000031b FE82          SUBB      SP,#2
    1600 0000031c 82BE          MOVL      XAR3,*--SP
    1601 0000031d 86BE          MOVL      XAR2,*--SP
    1602 0000031e 8BBE          MOVL      XAR1,*--SP
    1603                      .dwpsn  "spi.c",677,1
    1604 0000031f 0006          LRETR
    1605                      ; return occurs
    1606              
    1607              DW$76   .dwtag  DW_TAG_loop
    1608                      .dwattr DW$76, DW_AT_name("D:\DEV\Amot\BearingWear\XTSW_V6_20\spi.asm:L16:1:1471518992")
    1609                      .dwattr DW$76, DW_AT_begin_file("spi.c")
    1610                      .dwattr DW$76, DW_AT_begin_line(0x29c)
    1611                      .dwattr DW$76, DW_AT_end_line(0x2a3)
    1612              DW$77   .dwtag  DW_TAG_loop_range
    1613                      .dwattr DW$77, DW_AT_low_pc(DW$L$_ReadNVMemory$2$B)
    1614                      .dwattr DW$77, DW_AT_high_pc(DW$L$_ReadNVMemory$2$E)
    1615                      .dwendtag DW$76
    1616              
    1617                      .dwattr DW$71, DW_AT_end_file("spi.c")
    1618                      .dwattr DW$71, DW_AT_end_line(0x2a5)
    1619                      .dwattr DW$71, DW_AT_end_column(0x01)
    1620                      .dwendtag DW$71
    1621              
    1622 00000320               .sect   ".text"
    1623                      .global _Fram1ChipCheck
    1624              
    1625              DW$78   .dwtag  DW_TAG_subprogram, DW_AT_name("Fram1ChipCheck"), DW_AT_symbol_name("_Fram1ChipCheck")
    1626                      .dwattr DW$78, DW_AT_low_pc(_Fram1ChipCheck)
    1627                      .dwattr DW$78, DW_AT_high_pc(0x00)
    1628                      .dwattr DW$78, DW_AT_begin_file("spi.c")
    1629                      .dwattr DW$78, DW_AT_begin_line(0x2a9)
    1630                      .dwattr DW$78, DW_AT_begin_column(0x06)
    1631                      .dwattr DW$78, DW_AT_frame_base[DW_OP_breg20 -4]
    1632                      .dwattr DW$78, DW_AT_skeletal(0x01)
    1633                      .dwpsn  "spi.c",682,1
    1634              
    1635              ;***************************************************************
TMS320C2000 COFF Assembler PC v4.1.3 Thu Aug 18 12:16:32 2016

Tools Copyright (c) 1996-2006 Texas Instruments Incorporated
spi.asm                                                              PAGE   36

    1636              ;* FNAME: _Fram1ChipCheck               FR SIZE:   2           *
    1637              ;*                                                             *
    1638              ;* FUNCTION ENVIRONMENT                                        *
    1639              ;*                                                             *
    1640              ;* FUNCTION PROPERTIES                                         *
    1641              ;*                            0 Parameter,  2 Auto,  0 SOE     *
    1642              ;***************************************************************
    1643              
    1644 00000320       _Fram1ChipCheck:
    1645 00000320 FE02          ADDB      SP,#2
    1646 00000321 761F!         MOVW      DP,#_timers+56
         00000322 0000 
    1647 00000323 9238!         MOV       AL,@_timers+56        ; |686| 
    1648 00000324 ED25          BF        L19,NEQ               ; |686| 
    1649                      ; branchcc occurs ; |686| 
    1650 00000325 2B42          MOV       *-SP[2],#0            ; |688| 
    1651 00000326 761F!         MOVW      DP,#_timers+56
         00000327 0000 
    1652 00000328 9A00          MOVB      AL,#0
    1653 00000329 5CAD          MOVZ      AR4,SP                ; |691| 
    1654 0000032a D501          MOVB      XAR5,#1               ; |691| 
    1655 0000032b 2841          MOV       *-SP[1],#85           ; |689| 
         0000032c 0055 
    1656 0000032d 2838!         MOV       @_timers+56,#12000    ; |690| 
         0000032e 2EE0 
    1657 0000032f 28A8          MOV       AH,#32766             ; |691| 
         00000330 7FFE 
    1658 00000331 DC81          SUBB      XAR4,#1               ; |691| 
    1659 00000332 7640'         LCR       #_WriteNVMemory       ; |691| 
         00000333 02E1 
    1660                      ; call occurs [#_WriteNVMemory] ; |691| 
    1661 00000334 5CAD          MOVZ      AR4,SP                ; |692| 
    1662 00000335 9A00          MOVB      AL,#0
    1663 00000336 D501          MOVB      XAR5,#1               ; |692| 
    1664 00000337 DC82          SUBB      XAR4,#2               ; |692| 
    1665 00000338 28A8          MOV       AH,#32766             ; |692| 
         00000339 7FFE 
    1666 0000033a 7640'         LCR       #_ReadNVMemory        ; |692| 
         0000033b 0302 
    1667                      ; call occurs [#_ReadNVMemory] ; |692| 
    1668 0000033c 9242          MOV       AL,*-SP[2]            ; |693| 
    1669 0000033d 5441          CMP       AL,*-SP[1]            ; |693| 
    1670 0000033e ED07          BF        L18,NEQ               ; |693| 
    1671                      ; branchcc occurs ; |693| 
    1672 0000033f 761F!         MOVW      DP,#_alarms
         00000340 0000 
    1673 00000341 1800!         AND       @_alarms,#0xfffb      ; |694| 
         00000342 FFFB 
    1674 00000343 56CF          BF        L19,UNC               ; |694| 
         00000344 0006 
    1675                      ; branch occurs ; |694| 
    1676 00000345       L18:    
    1677 00000345 761F!         MOVW      DP,#_alarms
         00000346 0000 
    1678 00000347 1A00!         OR        @_alarms,#0x0004      ; |693| 
TMS320C2000 COFF Assembler PC v4.1.3 Thu Aug 18 12:16:32 2016

Tools Copyright (c) 1996-2006 Texas Instruments Incorporated
spi.asm                                                              PAGE   37

         00000348 0004 
    1679 00000349       L19:    
    1680 00000349 FE82          SUBB      SP,#2
    1681                      .dwpsn  "spi.c",696,1
    1682 0000034a 0006          LRETR
    1683                      ; return occurs
    1684                      .dwattr DW$78, DW_AT_end_file("spi.c")
    1685                      .dwattr DW$78, DW_AT_end_line(0x2b8)
    1686                      .dwattr DW$78, DW_AT_end_column(0x01)
    1687                      .dwendtag DW$78
    1688              
    1689 0000034b               .sect   ".text"
    1690                      .global _Fram1MagicNumberRead
    1691              
    1692              DW$79   .dwtag  DW_TAG_subprogram, DW_AT_name("Fram1MagicNumberRead"), DW_AT_symbol_name("_Fram1MagicNumberRe
    1693                      .dwattr DW$79, DW_AT_low_pc(_Fram1MagicNumberRead)
    1694                      .dwattr DW$79, DW_AT_high_pc(0x00)
    1695                      .dwattr DW$79, DW_AT_begin_file("spi.c")
    1696                      .dwattr DW$79, DW_AT_begin_line(0x2bc)
    1697                      .dwattr DW$79, DW_AT_begin_column(0x05)
    1698                      .dwattr DW$79, DW_AT_frame_base[DW_OP_breg20 -4]
    1699                      .dwattr DW$79, DW_AT_skeletal(0x01)
    1700                      .dwpsn  "spi.c",701,1
    1701              
    1702              ;***************************************************************
    1703              ;* FNAME: _Fram1MagicNumberRead         FR SIZE:   2           *
    1704              ;*                                                             *
    1705              ;* FUNCTION ENVIRONMENT                                        *
    1706              ;*                                                             *
    1707              ;* FUNCTION PROPERTIES                                         *
    1708              ;*                            0 Parameter,  2 Auto,  0 SOE     *
    1709              ;***************************************************************
    1710              
    1711 0000034b       _Fram1MagicNumberRead:
    1712 0000034b FE02          ADDB      SP,#2
    1713 0000034c 0200          MOVB      ACC,#0
    1714 0000034d 5CAD          MOVZ      AR4,SP                ; |705| 
    1715 0000034e D502          MOVB      XAR5,#2               ; |705| 
    1716 0000034f 1E42          MOVL      *-SP[2],ACC           ; |704| 
    1717 00000350 9A00          MOVB      AL,#0
    1718 00000351 DC82          SUBB      XAR4,#2               ; |705| 
    1719 00000352 28A8          MOV       AH,#32762             ; |705| 
         00000353 7FFA 
    1720 00000354 7640'         LCR       #_ReadNVMemory        ; |705| 
         00000355 0302 
    1721                      ; call occurs [#_ReadNVMemory] ; |705| 
    1722 00000356 28A9          MOV       AL,#22136
         00000357 5678 
    1723 00000358 28A8          MOV       AH,#4660
         00000359 1234 
    1724 0000035a 0F42          CMPL      ACC,*-SP[2]           ; |706| 
    1725 0000035b EC05          BF        L20,EQ                ; |706| 
    1726                      ; branchcc occurs ; |706| 
    1727 0000035c 28A9          MOV       AL,#-1                ; |706| 
         0000035d FFFF 
TMS320C2000 COFF Assembler PC v4.1.3 Thu Aug 18 12:16:32 2016

Tools Copyright (c) 1996-2006 Texas Instruments Incorporated
spi.asm                                                              PAGE   38

    1728 0000035e 56CF          BF        L21,UNC               ; |706| 
         0000035f 0003 
    1729                      ; branch occurs ; |706| 
    1730 00000360       L20:    
    1731 00000360 9A00          MOVB      AL,#0
    1732 00000361       L21:    
    1733 00000361 FE82          SUBB      SP,#2                 ; |706| 
    1734                      .dwpsn  "spi.c",712,1
    1735 00000362 0006          LRETR
    1736                      ; return occurs
    1737                      .dwattr DW$79, DW_AT_end_file("spi.c")
    1738                      .dwattr DW$79, DW_AT_end_line(0x2c8)
    1739                      .dwattr DW$79, DW_AT_end_column(0x01)
    1740                      .dwendtag DW$79
    1741              
    1742 00000363               .sect   ".text"
    1743                      .global _Fram1MagicNumberWrite
    1744              
    1745              DW$80   .dwtag  DW_TAG_subprogram, DW_AT_name("Fram1MagicNumberWrite"), DW_AT_symbol_name("_Fram1MagicNumberW
    1746                      .dwattr DW$80, DW_AT_low_pc(_Fram1MagicNumberWrite)
    1747                      .dwattr DW$80, DW_AT_high_pc(0x00)
    1748                      .dwattr DW$80, DW_AT_begin_file("spi.c")
    1749                      .dwattr DW$80, DW_AT_begin_line(0x2cd)
    1750                      .dwattr DW$80, DW_AT_begin_column(0x06)
    1751                      .dwattr DW$80, DW_AT_frame_base[DW_OP_breg20 -6]
    1752                      .dwattr DW$80, DW_AT_skeletal(0x01)
    1753                      .dwpsn  "spi.c",718,1
    1754              
    1755              ;***************************************************************
    1756              ;* FNAME: _Fram1MagicNumberWrite        FR SIZE:   4           *
    1757              ;*                                                             *
    1758              ;* FUNCTION ENVIRONMENT                                        *
    1759              ;*                                                             *
    1760              ;* FUNCTION PROPERTIES                                         *
    1761              ;*                            0 Parameter,  4 Auto,  0 SOE     *
    1762              ;***************************************************************
    1763              
    1764 00000363       _Fram1MagicNumberWrite:
    1765 00000363 FE04          ADDB      SP,#4
    1766 00000364 0200          MOVB      ACC,#0
    1767 00000365 28AA          MOV       PH,#4660
         00000366 1234 
    1768 00000367 28AB          MOV       PL,#22136
         00000368 5678 
    1769 00000369 5CAD          MOVZ      AR4,SP                ; |724| 
    1770 0000036a D502          MOVB      XAR5,#2               ; |724| 
    1771 0000036b 1E44          MOVL      *-SP[4],ACC           ; |722| 
    1772 0000036c 9A00          MOVB      AL,#0
    1773 0000036d DC82          SUBB      XAR4,#2               ; |724| 
    1774 0000036e A942          MOVL      *-SP[2],P             ; |723| 
    1775 0000036f 28A8          MOV       AH,#32762             ; |724| 
         00000370 7FFA 
    1776 00000371 7640'         LCR       #_WriteNVMemory       ; |724| 
         00000372 02E1 
    1777                      ; call occurs [#_WriteNVMemory] ; |724| 
TMS320C2000 COFF Assembler PC v4.1.3 Thu Aug 18 12:16:32 2016

Tools Copyright (c) 1996-2006 Texas Instruments Incorporated
spi.asm                                                              PAGE   39

    1778 00000373 5CAD          MOVZ      AR4,SP                ; |725| 
    1779 00000374 9A00          MOVB      AL,#0
    1780 00000375 D502          MOVB      XAR5,#2               ; |725| 
    1781 00000376 DC84          SUBB      XAR4,#4               ; |725| 
    1782 00000377 28A8          MOV       AH,#32762             ; |725| 
         00000378 7FFA 
    1783 00000379 7640'         LCR       #_ReadNVMemory        ; |725| 
         0000037a 0302 
    1784                      ; call occurs [#_ReadNVMemory] ; |725| 
    1785 0000037b 0644          MOVL      ACC,*-SP[4]           ; |727| 
    1786 0000037c 0F42          CMPL      ACC,*-SP[2]           ; |727| 
    1787 0000037d EC05          BF        L22,EQ                ; |727| 
    1788                      ; branchcc occurs ; |727| 
    1789 0000037e 761F!         MOVW      DP,#_alarms
         0000037f 0000 
    1790 00000380 1A00!         OR        @_alarms,#0x0004      ; |727| 
         00000381 0004 
    1791 00000382       L22:    
    1792 00000382 FE84          SUBB      SP,#4
    1793                      .dwpsn  "spi.c",728,1
    1794 00000383 0006          LRETR
    1795                      ; return occurs
    1796                      .dwattr DW$80, DW_AT_end_file("spi.c")
    1797                      .dwattr DW$80, DW_AT_end_line(0x2d8)
    1798                      .dwattr DW$80, DW_AT_end_column(0x01)
    1799                      .dwendtag DW$80
    1800              
    1801 00000384               .sect   ".text"
    1802                      .global _ReadfromMemoryFRAM
    1803              
    1804              DW$81   .dwtag  DW_TAG_subprogram, DW_AT_name("ReadfromMemoryFRAM"), DW_AT_symbol_name("_ReadfromMemoryFRAM")
    1805                      .dwattr DW$81, DW_AT_low_pc(_ReadfromMemoryFRAM)
    1806                      .dwattr DW$81, DW_AT_high_pc(0x00)
    1807                      .dwattr DW$81, DW_AT_begin_file("spi.c")
    1808                      .dwattr DW$81, DW_AT_begin_line(0x2db)
    1809                      .dwattr DW$81, DW_AT_begin_column(0x06)
    1810                      .dwattr DW$81, DW_AT_frame_base[DW_OP_breg20 -6]
    1811                      .dwattr DW$81, DW_AT_skeletal(0x01)
    1812                      .dwpsn  "spi.c",732,1
    1813              
    1814              ;***************************************************************
    1815              ;* FNAME: _ReadfromMemoryFRAM           FR SIZE:   4           *
    1816              ;*                                                             *
    1817              ;* FUNCTION ENVIRONMENT                                        *
    1818              ;*                                                             *
    1819              ;* FUNCTION PROPERTIES                                         *
    1820              ;*                            0 Parameter,  0 Auto,  4 SOE     *
    1821              ;***************************************************************
    1822              
    1823              _ReadfromMemoryFRAM:
    1824              ;* AL    assigned to _choice
    1825              DW$82   .dwtag  DW_TAG_formal_parameter, DW_AT_name("choice"), DW_AT_symbol_name("_choice")
    1826                      .dwattr DW$82, DW_AT_type(*DW$T$11)
    1827                      .dwattr DW$82, DW_AT_location[DW_OP_reg0]
    1828              ;* AH    assigned to _addy
TMS320C2000 COFF Assembler PC v4.1.3 Thu Aug 18 12:16:32 2016

Tools Copyright (c) 1996-2006 Texas Instruments Incorporated
spi.asm                                                              PAGE   40

    1829              DW$83   .dwtag  DW_TAG_formal_parameter, DW_AT_name("addy"), DW_AT_symbol_name("_addy")
    1830                      .dwattr DW$83, DW_AT_type(*DW$T$11)
    1831                      .dwattr DW$83, DW_AT_location[DW_OP_reg1]
    1832 00000384 B2BD          MOVL      *SP++,XAR1
    1833 00000385 59A8          MOVZ      AR1,AH                ; |732| 
    1834 00000386 88A9          MOVZ      AR6,AL                ; |732| 
    1835 00000387 92A1          MOV       AL,AR1                ; |736| 
    1836 00000388 AABD          MOVL      *SP++,XAR2
    1837 00000389 FFC7          LSR       AL,8                  ; |736| 
    1838 0000038a 5AA9          MOVZ      AR2,AL                ; |736| 
    1839 0000038b CDA1          AND       AH,AR1,#0x00ff        ; |737| 
         0000038c 00FF 
    1840 0000038d 92A6          MOV       AL,AR6                ; |738| 
    1841 0000038e 59A8          MOVZ      AR1,AH                ; |737| 
    1842 0000038f EC07          BF        L23,EQ                ; |738| 
    1843                      ; branchcc occurs ; |738| 
    1844 00000390 5201          CMPB      AL,#1                 ; |738| 
    1845 00000391 ED07          BF        L24,NEQ               ; |738| 
    1846                      ; branchcc occurs ; |738| 
    1847 00000392 7640'         LCR       #_SelectFram2         ; |744| 
         00000393 03EE 
    1848                      ; call occurs [#_SelectFram2] ; |744| 
    1849 00000394 56CF          BF        L24,UNC               ; |745| 
         00000395 0004 
    1850                      ; branch occurs ; |745| 
    1851 00000396       L23:    
    1852 00000396 7640'         LCR       #_SelectFram1         ; |741| 
         00000397 03E2 
    1853                      ; call occurs [#_SelectFram1] ; |741| 
    1854 00000398       L24:    
    1855 00000398 9A03          MOVB      AL,#3                 ; |747| 
    1856 00000399 7640'         LCR       #_TransmitByte        ; |747| 
         0000039a 0474 
    1857                      ; call occurs [#_TransmitByte] ; |747| 
    1858 0000039b 92A2          MOV       AL,AR2                ; |748| 
    1859 0000039c 7640'         LCR       #_TransmitByte        ; |748| 
         0000039d 0474 
    1860                      ; call occurs [#_TransmitByte] ; |748| 
    1861 0000039e 92A1          MOV       AL,AR1                ; |748| 
    1862 0000039f 7640'         LCR       #_TransmitByte        ; |749| 
         000003a0 0474 
    1863                      ; call occurs [#_TransmitByte] ; |749| 
    1864 000003a1 86BE          MOVL      XAR2,*--SP
    1865 000003a2 8BBE          MOVL      XAR1,*--SP
    1866                      .dwpsn  "spi.c",750,1
    1867 000003a3 0006          LRETR
    1868                      ; return occurs
    1869                      .dwattr DW$81, DW_AT_end_file("spi.c")
    1870                      .dwattr DW$81, DW_AT_end_line(0x2ee)
    1871                      .dwattr DW$81, DW_AT_end_column(0x01)
    1872                      .dwendtag DW$81
    1873              
    1874 000003a4               .sect   ".text"
    1875                      .global _ReadMemoryEEprom1
    1876              
TMS320C2000 COFF Assembler PC v4.1.3 Thu Aug 18 12:16:32 2016

Tools Copyright (c) 1996-2006 Texas Instruments Incorporated
spi.asm                                                              PAGE   41

    1877              DW$84   .dwtag  DW_TAG_subprogram, DW_AT_name("ReadMemoryEEprom1"), DW_AT_symbol_name("_ReadMemoryEEprom1")
    1878                      .dwattr DW$84, DW_AT_low_pc(_ReadMemoryEEprom1)
    1879                      .dwattr DW$84, DW_AT_high_pc(0x00)
    1880                      .dwattr DW$84, DW_AT_begin_file("spi.c")
    1881                      .dwattr DW$84, DW_AT_begin_line(0x2f1)
    1882                      .dwattr DW$84, DW_AT_begin_column(0x06)
    1883                      .dwattr DW$84, DW_AT_frame_base[DW_OP_breg20 -4]
    1884                      .dwattr DW$84, DW_AT_skeletal(0x01)
    1885                      .dwpsn  "spi.c",754,1
    1886              
    1887              ;***************************************************************
    1888              ;* FNAME: _ReadMemoryEEprom1            FR SIZE:   2           *
    1889              ;*                                                             *
    1890              ;* FUNCTION ENVIRONMENT                                        *
    1891              ;*                                                             *
    1892              ;* FUNCTION PROPERTIES                                         *
    1893              ;*                            0 Parameter,  0 Auto,  2 SOE     *
    1894              ;***************************************************************
    1895              
    1896              _ReadMemoryEEprom1:
    1897              ;* AL    assigned to _addy
    1898              DW$85   .dwtag  DW_TAG_formal_parameter, DW_AT_name("addy"), DW_AT_symbol_name("_addy")
    1899                      .dwattr DW$85, DW_AT_type(*DW$T$11)
    1900                      .dwattr DW$85, DW_AT_location[DW_OP_reg0]
    1901 000003a4 B2BD          MOVL      *SP++,XAR1
    1902 000003a5 59A9          MOVZ      AR1,AL                ; |754| 
    1903 000003a6 7640'         LCR       #_SelectEEprom1       ; |760| 
         000003a7 03FA 
    1904                      ; call occurs [#_SelectEEprom1] ; |760| 
    1905 000003a8 9A03          MOVB      AL,#3                 ; |761| 
    1906 000003a9 7640'         LCR       #_TransmitByte        ; |761| 
         000003aa 0474 
    1907                      ; call occurs [#_TransmitByte] ; |761| 
    1908 000003ab 92A1          MOV       AL,AR1                ; |762| 
    1909 000003ac FFC7          LSR       AL,8                  ; |762| 
    1910 000003ad 7640'         LCR       #_TransmitByte        ; |762| 
         000003ae 0474 
    1911                      ; call occurs [#_TransmitByte] ; |762| 
    1912 000003af CCA1          AND       AL,AR1,#0x00ff        ; |763| 
         000003b0 00FF 
    1913 000003b1 7640'         LCR       #_TransmitByte        ; |763| 
         000003b2 0474 
    1914                      ; call occurs [#_TransmitByte] ; |763| 
    1915 000003b3 8BBE          MOVL      XAR1,*--SP
    1916                      .dwpsn  "spi.c",764,1
    1917 000003b4 0006          LRETR
    1918                      ; return occurs
    1919                      .dwattr DW$84, DW_AT_end_file("spi.c")
    1920                      .dwattr DW$84, DW_AT_end_line(0x2fc)
    1921                      .dwattr DW$84, DW_AT_end_column(0x01)
    1922                      .dwendtag DW$84
    1923              
    1924 000003b5               .sect   ".text"
    1925                      .global _WriteEnableFram1
    1926              
TMS320C2000 COFF Assembler PC v4.1.3 Thu Aug 18 12:16:32 2016

Tools Copyright (c) 1996-2006 Texas Instruments Incorporated
spi.asm                                                              PAGE   42

    1927              DW$86   .dwtag  DW_TAG_subprogram, DW_AT_name("WriteEnableFram1"), DW_AT_symbol_name("_WriteEnableFram1")
    1928                      .dwattr DW$86, DW_AT_low_pc(_WriteEnableFram1)
    1929                      .dwattr DW$86, DW_AT_high_pc(0x00)
    1930                      .dwattr DW$86, DW_AT_begin_file("spi.c")
    1931                      .dwattr DW$86, DW_AT_begin_line(0x2fe)
    1932                      .dwattr DW$86, DW_AT_begin_column(0x06)
    1933                      .dwattr DW$86, DW_AT_frame_base[DW_OP_breg20 -2]
    1934                      .dwattr DW$86, DW_AT_skeletal(0x01)
    1935                      .dwpsn  "spi.c",767,1
    1936              
    1937              ;***************************************************************
    1938              ;* FNAME: _WriteEnableFram1             FR SIZE:   0           *
    1939              ;*                                                             *
    1940              ;* FUNCTION ENVIRONMENT                                        *
    1941              ;*                                                             *
    1942              ;* FUNCTION PROPERTIES                                         *
    1943              ;*                            0 Parameter,  0 Auto,  0 SOE     *
    1944              ;***************************************************************
    1945              
    1946 000003b5       _WriteEnableFram1:
    1947 000003b5 7640'         LCR       #_SelectFram1         ; |768| 
         000003b6 03E2 
    1948                      ; call occurs [#_SelectFram1] ; |768| 
    1949 000003b7 9A06          MOVB      AL,#6                 ; |769| 
    1950 000003b8 7640'         LCR       #_TransmitByte        ; |769| 
         000003b9 0474 
    1951                      ; call occurs [#_TransmitByte] ; |769| 
    1952 000003ba 7640'         LCR       #_DeselectSPI         ; |770| 
         000003bb 0446 
    1953                      ; call occurs [#_DeselectSPI] ; |770| 
    1954                      .dwpsn  "spi.c",771,1
    1955 000003bc 0006          LRETR
    1956                      ; return occurs
    1957                      .dwattr DW$86, DW_AT_end_file("spi.c")
    1958                      .dwattr DW$86, DW_AT_end_line(0x303)
    1959                      .dwattr DW$86, DW_AT_end_column(0x01)
    1960                      .dwendtag DW$86
    1961              
    1962 000003bd               .sect   ".text"
    1963                      .global _WriteEnableFram2
    1964              
    1965              DW$87   .dwtag  DW_TAG_subprogram, DW_AT_name("WriteEnableFram2"), DW_AT_symbol_name("_WriteEnableFram2")
    1966                      .dwattr DW$87, DW_AT_low_pc(_WriteEnableFram2)
    1967                      .dwattr DW$87, DW_AT_high_pc(0x00)
    1968                      .dwattr DW$87, DW_AT_begin_file("spi.c")
    1969                      .dwattr DW$87, DW_AT_begin_line(0x305)
    1970                      .dwattr DW$87, DW_AT_begin_column(0x06)
    1971                      .dwattr DW$87, DW_AT_frame_base[DW_OP_breg20 -2]
    1972                      .dwattr DW$87, DW_AT_skeletal(0x01)
    1973                      .dwpsn  "spi.c",774,1
    1974              
    1975              ;***************************************************************
    1976              ;* FNAME: _WriteEnableFram2             FR SIZE:   0           *
    1977              ;*                                                             *
    1978              ;* FUNCTION ENVIRONMENT                                        *
TMS320C2000 COFF Assembler PC v4.1.3 Thu Aug 18 12:16:32 2016

Tools Copyright (c) 1996-2006 Texas Instruments Incorporated
spi.asm                                                              PAGE   43

    1979              ;*                                                             *
    1980              ;* FUNCTION PROPERTIES                                         *
    1981              ;*                            0 Parameter,  0 Auto,  0 SOE     *
    1982              ;***************************************************************
    1983              
    1984 000003bd       _WriteEnableFram2:
    1985 000003bd 7640'         LCR       #_SelectFram2         ; |775| 
         000003be 03EE 
    1986                      ; call occurs [#_SelectFram2] ; |775| 
    1987 000003bf 9A06          MOVB      AL,#6                 ; |776| 
    1988 000003c0 7640'         LCR       #_TransmitByte        ; |776| 
         000003c1 0474 
    1989                      ; call occurs [#_TransmitByte] ; |776| 
    1990 000003c2 7640'         LCR       #_DeselectSPI         ; |777| 
         000003c3 0446 
    1991                      ; call occurs [#_DeselectSPI] ; |777| 
    1992                      .dwpsn  "spi.c",778,1
    1993 000003c4 0006          LRETR
    1994                      ; return occurs
    1995                      .dwattr DW$87, DW_AT_end_file("spi.c")
    1996                      .dwattr DW$87, DW_AT_end_line(0x30a)
    1997                      .dwattr DW$87, DW_AT_end_column(0x01)
    1998                      .dwendtag DW$87
    1999              
    2000 000003c5               .sect   ".text"
    2001                      .global _WritetoMemoryFRAM
    2002              
    2003              DW$88   .dwtag  DW_TAG_subprogram, DW_AT_name("WritetoMemoryFRAM"), DW_AT_symbol_name("_WritetoMemoryFRAM")
    2004                      .dwattr DW$88, DW_AT_low_pc(_WritetoMemoryFRAM)
    2005                      .dwattr DW$88, DW_AT_high_pc(0x00)
    2006                      .dwattr DW$88, DW_AT_begin_file("spi.c")
    2007                      .dwattr DW$88, DW_AT_begin_line(0x30c)
    2008                      .dwattr DW$88, DW_AT_begin_column(0x06)
    2009                      .dwattr DW$88, DW_AT_frame_base[DW_OP_breg20 -4]
    2010                      .dwattr DW$88, DW_AT_skeletal(0x01)
    2011                      .dwpsn  "spi.c",781,1
    2012              
    2013              ;***************************************************************
    2014              ;* FNAME: _WritetoMemoryFRAM            FR SIZE:   2           *
    2015              ;*                                                             *
    2016              ;* FUNCTION ENVIRONMENT                                        *
    2017              ;*                                                             *
    2018              ;* FUNCTION PROPERTIES                                         *
    2019              ;*                            0 Parameter,  0 Auto,  2 SOE     *
    2020              ;***************************************************************
    2021              
    2022              _WritetoMemoryFRAM:
    2023              ;* AL    assigned to _choice
    2024              DW$89   .dwtag  DW_TAG_formal_parameter, DW_AT_name("choice"), DW_AT_symbol_name("_choice")
    2025                      .dwattr DW$89, DW_AT_type(*DW$T$11)
    2026                      .dwattr DW$89, DW_AT_location[DW_OP_reg0]
    2027              ;* AH    assigned to _addy
    2028              DW$90   .dwtag  DW_TAG_formal_parameter, DW_AT_name("addy"), DW_AT_symbol_name("_addy")
    2029                      .dwattr DW$90, DW_AT_type(*DW$T$11)
    2030                      .dwattr DW$90, DW_AT_location[DW_OP_reg1]
TMS320C2000 COFF Assembler PC v4.1.3 Thu Aug 18 12:16:32 2016

Tools Copyright (c) 1996-2006 Texas Instruments Incorporated
spi.asm                                                              PAGE   44

    2031 000003c5 B2BD          MOVL      *SP++,XAR1
    2032 000003c6 5200          CMPB      AL,#0                 ; |785| 
    2033 000003c7 59A8          MOVZ      AR1,AH                ; |781| 
    2034 000003c8 EC09          BF        L25,EQ                ; |785| 
    2035                      ; branchcc occurs ; |785| 
    2036 000003c9 5201          CMPB      AL,#1                 ; |785| 
    2037 000003ca ED0B          BF        L26,NEQ               ; |785| 
    2038                      ; branchcc occurs ; |785| 
    2039 000003cb 7640'         LCR       #_WriteEnableFram2    ; |792| 
         000003cc 03BD 
    2040                      ; call occurs [#_WriteEnableFram2] ; |792| 
    2041 000003cd 7640'         LCR       #_SelectFram2         ; |793| 
         000003ce 03EE 
    2042                      ; call occurs [#_SelectFram2] ; |793| 
    2043 000003cf 56CF          BF        L26,UNC               ; |794| 
         000003d0 0006 
    2044                      ; branch occurs ; |794| 
    2045 000003d1       L25:    
    2046 000003d1 7640'         LCR       #_WriteEnableFram1    ; |788| 
         000003d2 03B5 
    2047                      ; call occurs [#_WriteEnableFram1] ; |788| 
    2048 000003d3 7640'         LCR       #_SelectFram1         ; |789| 
         000003d4 03E2 
    2049                      ; call occurs [#_SelectFram1] ; |789| 
    2050 000003d5       L26:    
    2051 000003d5 9A02          MOVB      AL,#2                 ; |799| 
    2052 000003d6 7640'         LCR       #_TransmitByte        ; |799| 
         000003d7 0474 
    2053                      ; call occurs [#_TransmitByte] ; |799| 
    2054 000003d8 92A1          MOV       AL,AR1                ; |800| 
    2055 000003d9 FFC7          LSR       AL,8                  ; |800| 
    2056 000003da 7640'         LCR       #_TransmitByte        ; |800| 
         000003db 0474 
    2057                      ; call occurs [#_TransmitByte] ; |800| 
    2058 000003dc CCA1          AND       AL,AR1,#0x00ff        ; |801| 
         000003dd 00FF 
    2059 000003de 7640'         LCR       #_TransmitByte        ; |801| 
         000003df 0474 
    2060                      ; call occurs [#_TransmitByte] ; |801| 
    2061 000003e0 8BBE          MOVL      XAR1,*--SP
    2062                      .dwpsn  "spi.c",802,1
    2063 000003e1 0006          LRETR
    2064                      ; return occurs
    2065                      .dwattr DW$88, DW_AT_end_file("spi.c")
    2066                      .dwattr DW$88, DW_AT_end_line(0x322)
    2067                      .dwattr DW$88, DW_AT_end_column(0x01)
    2068                      .dwendtag DW$88
    2069              
    2070 000003e2               .sect   ".text"
    2071                      .global _SelectFram1
    2072              
    2073              DW$91   .dwtag  DW_TAG_subprogram, DW_AT_name("SelectFram1"), DW_AT_symbol_name("_SelectFram1")
    2074                      .dwattr DW$91, DW_AT_low_pc(_SelectFram1)
    2075                      .dwattr DW$91, DW_AT_high_pc(0x00)
    2076                      .dwattr DW$91, DW_AT_begin_file("spi.c")
TMS320C2000 COFF Assembler PC v4.1.3 Thu Aug 18 12:16:32 2016

Tools Copyright (c) 1996-2006 Texas Instruments Incorporated
spi.asm                                                              PAGE   45

    2077                      .dwattr DW$91, DW_AT_begin_line(0x324)
    2078                      .dwattr DW$91, DW_AT_begin_column(0x06)
    2079                      .dwattr DW$91, DW_AT_frame_base[DW_OP_breg20 -2]
    2080                      .dwattr DW$91, DW_AT_skeletal(0x01)
    2081                      .dwpsn  "spi.c",805,1
    2082              
    2083              ;***************************************************************
    2084              ;* FNAME: _SelectFram1                  FR SIZE:   0           *
    2085              ;*                                                             *
    2086              ;* FUNCTION ENVIRONMENT                                        *
    2087              ;*                                                             *
    2088              ;* FUNCTION PROPERTIES                                         *
    2089              ;*                            0 Parameter,  0 Auto,  0 SOE     *
    2090              ;***************************************************************
    2091              
    2092 000003e2       _SelectFram1:
    2093 000003e2 9A24          MOVB      AL,#36                ; |808| 
    2094 000003e3 761F!         MOVW      DP,#_settings+14
         000003e4 0000 
    2095 000003e5 280E!         MOV       @_settings+14,#1      ; |807| 
         000003e6 0001 
    2096 000003e7 F4A9          MOV       *(0:0x7044),AL        ; |808| 
         000003e8 7044 
    2097 000003e9 761F!         MOVW      DP,#_gpb
         000003ea 0000 
    2098 000003eb 1800!         AND       @_gpb,#0xf3ff         ; |809| 
         000003ec F3FF 
    2099                      .dwpsn  "spi.c",810,1
    2100 000003ed 0006          LRETR
    2101                      ; return occurs
    2102                      .dwattr DW$91, DW_AT_end_file("spi.c")
    2103                      .dwattr DW$91, DW_AT_end_line(0x32a)
    2104                      .dwattr DW$91, DW_AT_end_column(0x01)
    2105                      .dwendtag DW$91
    2106              
    2107 000003ee               .sect   ".text"
    2108                      .global _SelectFram2
    2109              
    2110              DW$92   .dwtag  DW_TAG_subprogram, DW_AT_name("SelectFram2"), DW_AT_symbol_name("_SelectFram2")
    2111                      .dwattr DW$92, DW_AT_low_pc(_SelectFram2)
    2112                      .dwattr DW$92, DW_AT_high_pc(0x00)
    2113                      .dwattr DW$92, DW_AT_begin_file("spi.c")
    2114                      .dwattr DW$92, DW_AT_begin_line(0x32c)
    2115                      .dwattr DW$92, DW_AT_begin_column(0x06)
    2116                      .dwattr DW$92, DW_AT_frame_base[DW_OP_breg20 -2]
    2117                      .dwattr DW$92, DW_AT_skeletal(0x01)
    2118                      .dwpsn  "spi.c",813,1
    2119              
    2120              ;***************************************************************
    2121              ;* FNAME: _SelectFram2                  FR SIZE:   0           *
    2122              ;*                                                             *
    2123              ;* FUNCTION ENVIRONMENT                                        *
    2124              ;*                                                             *
    2125              ;* FUNCTION PROPERTIES                                         *
    2126              ;*                            0 Parameter,  0 Auto,  0 SOE     *
TMS320C2000 COFF Assembler PC v4.1.3 Thu Aug 18 12:16:32 2016

Tools Copyright (c) 1996-2006 Texas Instruments Incorporated
spi.asm                                                              PAGE   46

    2127              ;***************************************************************
    2128              
    2129 000003ee       _SelectFram2:
    2130 000003ee 9A24          MOVB      AL,#36                ; |816| 
    2131 000003ef 761F!         MOVW      DP,#_settings+14
         000003f0 0000 
    2132 000003f1 280E!         MOV       @_settings+14,#1      ; |815| 
         000003f2 0001 
    2133 000003f3 F4A9          MOV       *(0:0x7044),AL        ; |816| 
         000003f4 7044 
    2134 000003f5 761F!         MOVW      DP,#_gpb
         000003f6 0000 
    2135 000003f7 1800!         AND       @_gpb,#0xf7ff         ; |817| 
         000003f8 F7FF 
    2136                      .dwpsn  "spi.c",818,1
    2137 000003f9 0006          LRETR
    2138                      ; return occurs
    2139                      .dwattr DW$92, DW_AT_end_file("spi.c")
    2140                      .dwattr DW$92, DW_AT_end_line(0x332)
    2141                      .dwattr DW$92, DW_AT_end_column(0x01)
    2142                      .dwendtag DW$92
    2143              
    2144 000003fa               .sect   ".text"
    2145                      .global _SelectEEprom1
    2146              
    2147              DW$93   .dwtag  DW_TAG_subprogram, DW_AT_name("SelectEEprom1"), DW_AT_symbol_name("_SelectEEprom1")
    2148                      .dwattr DW$93, DW_AT_low_pc(_SelectEEprom1)
    2149                      .dwattr DW$93, DW_AT_high_pc(0x00)
    2150                      .dwattr DW$93, DW_AT_begin_file("spi.c")
    2151                      .dwattr DW$93, DW_AT_begin_line(0x334)
    2152                      .dwattr DW$93, DW_AT_begin_column(0x06)
    2153                      .dwattr DW$93, DW_AT_frame_base[DW_OP_breg20 -2]
    2154                      .dwattr DW$93, DW_AT_skeletal(0x01)
    2155                      .dwpsn  "spi.c",821,1
    2156              
    2157              ;***************************************************************
    2158              ;* FNAME: _SelectEEprom1                FR SIZE:   0           *
    2159              ;*                                                             *
    2160              ;* FUNCTION ENVIRONMENT                                        *
    2161              ;*                                                             *
    2162              ;* FUNCTION PROPERTIES                                         *
    2163              ;*                            0 Parameter,  0 Auto,  0 SOE     *
    2164              ;***************************************************************
    2165              
    2166 000003fa       _SelectEEprom1:
    2167 000003fa 761F!         MOVW      DP,#_settings+14
         000003fb 0000 
    2168 000003fc 280E!         MOV       @_settings+14,#1      ; |822| 
         000003fd 0001 
    2169 000003fe 761F-         MOVW      DP,#_spiregs
         000003ff 0000 
    2170 00000400 1A00-         OR        @_spiregs,#0x0040     ; |825| 
         00000401 0040 
    2171 00000402 9A24          MOVB      AL,#36                ; |827| 
    2172 00000403 F4A9          MOV       *(0:0x7044),AL        ; |827| 
TMS320C2000 COFF Assembler PC v4.1.3 Thu Aug 18 12:16:32 2016

Tools Copyright (c) 1996-2006 Texas Instruments Incorporated
spi.asm                                                              PAGE   47

         00000404 7044 
    2173 00000405 7640'         LCR       #_ReceiveByte         ; |828| 
         00000406 04A6 
    2174                      ; call occurs [#_ReceiveByte] ; |828| 
    2175 00000407 761F!         MOVW      DP,#_gpf
         00000408 0000 
    2176 00000409 1800!         AND       @_gpf,#0xfeff         ; |830| 
         0000040a FEFF 
    2177                      .dwpsn  "spi.c",831,1
    2178 0000040b 0006          LRETR
    2179                      ; return occurs
    2180                      .dwattr DW$93, DW_AT_end_file("spi.c")
    2181                      .dwattr DW$93, DW_AT_end_line(0x33f)
    2182                      .dwattr DW$93, DW_AT_end_column(0x01)
    2183                      .dwendtag DW$93
    2184              
    2185 0000040c               .sect   ".text"
    2186                      .global _SelectFlash1
    2187              
    2188              DW$94   .dwtag  DW_TAG_subprogram, DW_AT_name("SelectFlash1"), DW_AT_symbol_name("_SelectFlash1")
    2189                      .dwattr DW$94, DW_AT_low_pc(_SelectFlash1)
    2190                      .dwattr DW$94, DW_AT_high_pc(0x00)
    2191                      .dwattr DW$94, DW_AT_begin_file("spi.c")
    2192                      .dwattr DW$94, DW_AT_begin_line(0x341)
    2193                      .dwattr DW$94, DW_AT_begin_column(0x06)
    2194                      .dwattr DW$94, DW_AT_frame_base[DW_OP_breg20 -2]
    2195                      .dwattr DW$94, DW_AT_skeletal(0x01)
    2196                      .dwpsn  "spi.c",834,1
    2197              
    2198              ;***************************************************************
    2199              ;* FNAME: _SelectFlash1                 FR SIZE:   0           *
    2200              ;*                                                             *
    2201              ;* FUNCTION ENVIRONMENT                                        *
    2202              ;*                                                             *
    2203              ;* FUNCTION PROPERTIES                                         *
    2204              ;*                            0 Parameter,  0 Auto,  0 SOE     *
    2205              ;***************************************************************
    2206              
    2207 0000040c       _SelectFlash1:
    2208 0000040c 761F!         MOVW      DP,#_settings+14
         0000040d 0000 
    2209 0000040e 280E!         MOV       @_settings+14,#1      ; |835| 
         0000040f 0001 
    2210 00000410 761F!         MOVW      DP,#_gpf
         00000411 0000 
    2211 00000412 1800!         AND       @_gpf,#0xf8ff         ; |837| 
         00000413 F8FF 
    2212                      .dwpsn  "spi.c",838,1
    2213 00000414 0006          LRETR
    2214                      ; return occurs
    2215                      .dwattr DW$94, DW_AT_end_file("spi.c")
    2216                      .dwattr DW$94, DW_AT_end_line(0x346)
    2217                      .dwattr DW$94, DW_AT_end_column(0x01)
    2218                      .dwendtag DW$94
    2219              
TMS320C2000 COFF Assembler PC v4.1.3 Thu Aug 18 12:16:32 2016

Tools Copyright (c) 1996-2006 Texas Instruments Incorporated
spi.asm                                                              PAGE   48

    2220 00000415               .sect   ".text"
    2221                      .global _SelectFlash2
    2222              
    2223              DW$95   .dwtag  DW_TAG_subprogram, DW_AT_name("SelectFlash2"), DW_AT_symbol_name("_SelectFlash2")
    2224                      .dwattr DW$95, DW_AT_low_pc(_SelectFlash2)
    2225                      .dwattr DW$95, DW_AT_high_pc(0x00)
    2226                      .dwattr DW$95, DW_AT_begin_file("spi.c")
    2227                      .dwattr DW$95, DW_AT_begin_line(0x348)
    2228                      .dwattr DW$95, DW_AT_begin_column(0x06)
    2229                      .dwattr DW$95, DW_AT_frame_base[DW_OP_breg20 -2]
    2230                      .dwattr DW$95, DW_AT_skeletal(0x01)
    2231                      .dwpsn  "spi.c",841,1
    2232              
    2233              ;***************************************************************
    2234              ;* FNAME: _SelectFlash2                 FR SIZE:   0           *
    2235              ;*                                                             *
    2236              ;* FUNCTION ENVIRONMENT                                        *
    2237              ;*                                                             *
    2238              ;* FUNCTION PROPERTIES                                         *
    2239              ;*                            0 Parameter,  0 Auto,  0 SOE     *
    2240              ;***************************************************************
    2241              
    2242 00000415       _SelectFlash2:
    2243 00000415 761F!         MOVW      DP,#_settings+14
         00000416 0000 
    2244 00000417 280E!         MOV       @_settings+14,#1      ; |842| 
         00000418 0001 
    2245 00000419 761F!         MOVW      DP,#_gpf
         0000041a 0000 
    2246 0000041b 1800!         AND       @_gpf,#0xf9ff         ; |844| 
         0000041c F9FF 
    2247                      .dwpsn  "spi.c",845,1
    2248 0000041d 0006          LRETR
    2249                      ; return occurs
    2250                      .dwattr DW$95, DW_AT_end_file("spi.c")
    2251                      .dwattr DW$95, DW_AT_end_line(0x34d)
    2252                      .dwattr DW$95, DW_AT_end_column(0x01)
    2253                      .dwendtag DW$95
    2254              
    2255 0000041e               .sect   ".text"
    2256                      .global _SelectFlash3
    2257              
    2258              DW$96   .dwtag  DW_TAG_subprogram, DW_AT_name("SelectFlash3"), DW_AT_symbol_name("_SelectFlash3")
    2259                      .dwattr DW$96, DW_AT_low_pc(_SelectFlash3)
    2260                      .dwattr DW$96, DW_AT_high_pc(0x00)
    2261                      .dwattr DW$96, DW_AT_begin_file("spi.c")
    2262                      .dwattr DW$96, DW_AT_begin_line(0x34f)
    2263                      .dwattr DW$96, DW_AT_begin_column(0x06)
    2264                      .dwattr DW$96, DW_AT_frame_base[DW_OP_breg20 -2]
    2265                      .dwattr DW$96, DW_AT_skeletal(0x01)
    2266                      .dwpsn  "spi.c",848,1
    2267              
    2268              ;***************************************************************
    2269              ;* FNAME: _SelectFlash3                 FR SIZE:   0           *
    2270              ;*                                                             *
TMS320C2000 COFF Assembler PC v4.1.3 Thu Aug 18 12:16:32 2016

Tools Copyright (c) 1996-2006 Texas Instruments Incorporated
spi.asm                                                              PAGE   49

    2271              ;* FUNCTION ENVIRONMENT                                        *
    2272              ;*                                                             *
    2273              ;* FUNCTION PROPERTIES                                         *
    2274              ;*                            0 Parameter,  0 Auto,  0 SOE     *
    2275              ;***************************************************************
    2276              
    2277 0000041e       _SelectFlash3:
    2278 0000041e 761F!         MOVW      DP,#_settings+14
         0000041f 0000 
    2279 00000420 280E!         MOV       @_settings+14,#1      ; |849| 
         00000421 0001 
    2280 00000422 761F!         MOVW      DP,#_gpf
         00000423 0000 
    2281 00000424 1800!         AND       @_gpf,#0xfaff         ; |851| 
         00000425 FAFF 
    2282                      .dwpsn  "spi.c",852,1
    2283 00000426 0006          LRETR
    2284                      ; return occurs
    2285                      .dwattr DW$96, DW_AT_end_file("spi.c")
    2286                      .dwattr DW$96, DW_AT_end_line(0x354)
    2287                      .dwattr DW$96, DW_AT_end_column(0x01)
    2288                      .dwendtag DW$96
    2289              
    2290 00000427               .sect   ".text"
    2291                      .global _SelectFlash4
    2292              
    2293              DW$97   .dwtag  DW_TAG_subprogram, DW_AT_name("SelectFlash4"), DW_AT_symbol_name("_SelectFlash4")
    2294                      .dwattr DW$97, DW_AT_low_pc(_SelectFlash4)
    2295                      .dwattr DW$97, DW_AT_high_pc(0x00)
    2296                      .dwattr DW$97, DW_AT_begin_file("spi.c")
    2297                      .dwattr DW$97, DW_AT_begin_line(0x356)
    2298                      .dwattr DW$97, DW_AT_begin_column(0x06)
    2299                      .dwattr DW$97, DW_AT_frame_base[DW_OP_breg20 -2]
    2300                      .dwattr DW$97, DW_AT_skeletal(0x01)
    2301                      .dwpsn  "spi.c",855,1
    2302              
    2303              ;***************************************************************
    2304              ;* FNAME: _SelectFlash4                 FR SIZE:   0           *
    2305              ;*                                                             *
    2306              ;* FUNCTION ENVIRONMENT                                        *
    2307              ;*                                                             *
    2308              ;* FUNCTION PROPERTIES                                         *
    2309              ;*                            0 Parameter,  0 Auto,  0 SOE     *
    2310              ;***************************************************************
    2311              
    2312 00000427       _SelectFlash4:
    2313 00000427 761F!         MOVW      DP,#_settings+14
         00000428 0000 
    2314 00000429 280E!         MOV       @_settings+14,#1      ; |856| 
         0000042a 0001 
    2315 0000042b 761F!         MOVW      DP,#_gpf
         0000042c 0000 
    2316 0000042d 1800!         AND       @_gpf,#0xfbff         ; |858| 
         0000042e FBFF 
    2317                      .dwpsn  "spi.c",859,1
TMS320C2000 COFF Assembler PC v4.1.3 Thu Aug 18 12:16:32 2016

Tools Copyright (c) 1996-2006 Texas Instruments Incorporated
spi.asm                                                              PAGE   50

    2318 0000042f 0006          LRETR
    2319                      ; return occurs
    2320                      .dwattr DW$97, DW_AT_end_file("spi.c")
    2321                      .dwattr DW$97, DW_AT_end_line(0x35b)
    2322                      .dwattr DW$97, DW_AT_end_column(0x01)
    2323                      .dwendtag DW$97
    2324              
    2325 00000430               .sect   ".text"
    2326                      .global _SelectRTC
    2327              
    2328              DW$98   .dwtag  DW_TAG_subprogram, DW_AT_name("SelectRTC"), DW_AT_symbol_name("_SelectRTC")
    2329                      .dwattr DW$98, DW_AT_low_pc(_SelectRTC)
    2330                      .dwattr DW$98, DW_AT_high_pc(0x00)
    2331                      .dwattr DW$98, DW_AT_begin_file("spi.c")
    2332                      .dwattr DW$98, DW_AT_begin_line(0x35e)
    2333                      .dwattr DW$98, DW_AT_begin_column(0x06)
    2334                      .dwattr DW$98, DW_AT_frame_base[DW_OP_breg20 -2]
    2335                      .dwattr DW$98, DW_AT_skeletal(0x01)
    2336                      .dwpsn  "spi.c",863,1
    2337              
    2338              ;***************************************************************
    2339              ;* FNAME: _SelectRTC                    FR SIZE:   0           *
    2340              ;*                                                             *
    2341              ;* FUNCTION ENVIRONMENT                                        *
    2342              ;*                                                             *
    2343              ;* FUNCTION PROPERTIES                                         *
    2344              ;*                            0 Parameter,  0 Auto,  0 SOE     *
    2345              ;***************************************************************
    2346              
    2347 00000430       _SelectRTC:
    2348 00000430 761F!         MOVW      DP,#_settings+14
         00000431 0000 
    2349 00000432 280E!         MOV       @_settings+14,#1      ; |864| 
         00000433 0001 
    2350 00000434 761F-         MOVW      DP,#_spiregs
         00000435 0000 
    2351 00000436 1800-         AND       @_spiregs,#0xffbf     ; |865| 
         00000437 FFBF 
    2352 00000438 9A3D          MOVB      AL,#61                ; |867| 
    2353 00000439 F4A9          MOV       *(0:0x7044),AL        ; |867| 
         0000043a 7044 
    2354 0000043b 7640'         LCR       #_ReceiveByte         ; |869| 
         0000043c 04A6 
    2355                      ; call occurs [#_ReceiveByte] ; |869| 
    2356 0000043d 761F!         MOVW      DP,#_gpb
         0000043e 0000 
    2357 0000043f 1A00!         OR        @_gpb,#0x4000         ; |871| 
         00000440 4000 
    2358 00000441 28A9          MOV       AL,#600               ; |872| 
         00000442 0258 
    2359 00000443 7640!         LCR       #_NOPDelay            ; |872| 
         00000444 0000 
    2360                      ; call occurs [#_NOPDelay] ; |872| 
    2361                      .dwpsn  "spi.c",873,1
    2362 00000445 0006          LRETR
TMS320C2000 COFF Assembler PC v4.1.3 Thu Aug 18 12:16:32 2016

Tools Copyright (c) 1996-2006 Texas Instruments Incorporated
spi.asm                                                              PAGE   51

    2363                      ; return occurs
    2364                      .dwattr DW$98, DW_AT_end_file("spi.c")
    2365                      .dwattr DW$98, DW_AT_end_line(0x369)
    2366                      .dwattr DW$98, DW_AT_end_column(0x01)
    2367                      .dwendtag DW$98
    2368              
    2369 00000446               .sect   ".text"
    2370                      .global _DeselectSPI
    2371              
    2372              DW$99   .dwtag  DW_TAG_subprogram, DW_AT_name("DeselectSPI"), DW_AT_symbol_name("_DeselectSPI")
    2373                      .dwattr DW$99, DW_AT_low_pc(_DeselectSPI)
    2374                      .dwattr DW$99, DW_AT_high_pc(0x00)
    2375                      .dwattr DW$99, DW_AT_begin_file("spi.c")
    2376                      .dwattr DW$99, DW_AT_begin_line(0x36c)
    2377                      .dwattr DW$99, DW_AT_begin_column(0x06)
    2378                      .dwattr DW$99, DW_AT_frame_base[DW_OP_breg20 -2]
    2379                      .dwattr DW$99, DW_AT_skeletal(0x01)
    2380                      .dwpsn  "spi.c",877,1
    2381              
    2382              ;***************************************************************
    2383              ;* FNAME: _DeselectSPI                  FR SIZE:   0           *
    2384              ;*                                                             *
    2385              ;* FUNCTION ENVIRONMENT                                        *
    2386              ;*                                                             *
    2387              ;* FUNCTION PROPERTIES                                         *
    2388              ;*                            0 Parameter,  0 Auto,  0 SOE     *
    2389              ;***************************************************************
    2390              
    2391 00000446       _DeselectSPI:
    2392 00000446 761F!         MOVW      DP,#_gpb
         00000447 0000 
    2393 00000448 1800!         AND       @_gpb,#0xbfff         ; |878| 
         00000449 BFFF 
    2394 0000044a 761F!         MOVW      DP,#_gpf
         0000044b 0000 
    2395 0000044c 1A00!         OR        @_gpf,#0x0700         ; |879| 
         0000044d 0700 
    2396 0000044e 761F!         MOVW      DP,#_gpb
         0000044f 0000 
    2397 00000450 1A00!         OR        @_gpb,#0x0c00         ; |881| 
         00000451 0C00 
    2398 00000452 9A03          MOVB      AL,#3                 ; |883| 
    2399 00000453 761F-         MOVW      DP,#_spiregs
         00000454 0000 
    2400 00000455 F4A9          MOV       *(0:0x7044),AL        ; |883| 
         00000456 7044 
    2401 00000457 1A00-         OR        @_spiregs,#0x0040     ; |886| 
         00000458 0040 
    2402 00000459 7640'         LCR       #_ReceiveByte         ; |888| 
         0000045a 04A6 
    2403                      ; call occurs [#_ReceiveByte] ; |888| 
    2404 0000045b 761F!         MOVW      DP,#_receiveC
         0000045c 0000 
    2405 0000045d 9200!         MOV       AL,@_receiveC         ; |892| 
    2406 0000045e 5201          CMPB      AL,#1                 ; |892| 
TMS320C2000 COFF Assembler PC v4.1.3 Thu Aug 18 12:16:32 2016

Tools Copyright (c) 1996-2006 Texas Instruments Incorporated
spi.asm                                                              PAGE   52

    2407 0000045f ED0D          BF        L27,NEQ               ; |892| 
    2408                      ; branchcc occurs ; |892| 
    2409 00000460 7640'         LCR       #_ReadDataFromUart_C  ; |894| 
         00000461 0530 
    2410                      ; call occurs [#_ReadDataFromUart_C] ; |894| 
    2411 00000462 7640'         LCR       #_ReadDataFromUart_C  ; |895| 
         00000463 0530 
    2412                      ; call occurs [#_ReadDataFromUart_C] ; |895| 
    2413 00000464 761F!         MOVW      DP,#_config+10
         00000465 0000 
    2414 00000466 0201          MOVB      ACC,#1
    2415 00000467 5601!         ADDL      @_config+10,ACC       ; |896| 
         00000468 000A 
    2416 00000469 761F!         MOVW      DP,#_receiveC
         0000046a 0000 
    2417 0000046b 2B00!         MOV       @_receiveC,#0         ; |897| 
    2418 0000046c       L27:    
    2419 0000046c 761F!         MOVW      DP,#_settings
         0000046d 0000 
    2420 0000046e 2800!         MOV       @_settings,#1         ; |900| 
         0000046f 0001 
    2421 00000470 761F!         MOVW      DP,#_settings+14
         00000471 0000 
    2422 00000472 2B0E!         MOV       @_settings+14,#0      ; |901| 
    2423                      .dwpsn  "spi.c",902,1
    2424 00000473 0006          LRETR
    2425                      ; return occurs
    2426                      .dwattr DW$99, DW_AT_end_file("spi.c")
    2427                      .dwattr DW$99, DW_AT_end_line(0x386)
    2428                      .dwattr DW$99, DW_AT_end_column(0x01)
    2429                      .dwendtag DW$99
    2430              
    2431 00000474               .sect   ".text"
    2432                      .global _TransmitByte
    2433              
    2434              DW$100  .dwtag  DW_TAG_subprogram, DW_AT_name("TransmitByte"), DW_AT_symbol_name("_TransmitByte")
    2435                      .dwattr DW$100, DW_AT_low_pc(_TransmitByte)
    2436                      .dwattr DW$100, DW_AT_high_pc(0x00)
    2437                      .dwattr DW$100, DW_AT_begin_file("spi.c")
    2438                      .dwattr DW$100, DW_AT_begin_line(0x389)
    2439                      .dwattr DW$100, DW_AT_begin_column(0x06)
    2440                      .dwattr DW$100, DW_AT_frame_base[DW_OP_breg20 -2]
    2441                      .dwattr DW$100, DW_AT_skeletal(0x01)
    2442                      .dwpsn  "spi.c",906,1
    2443              
    2444              ;***************************************************************
    2445              ;* FNAME: _TransmitByte                 FR SIZE:   0           *
    2446              ;*                                                             *
    2447              ;* FUNCTION ENVIRONMENT                                        *
    2448              ;*                                                             *
    2449              ;* FUNCTION PROPERTIES                                         *
    2450              ;*                            0 Parameter,  0 Auto,  0 SOE     *
    2451              ;***************************************************************
    2452              
    2453              _TransmitByte:
TMS320C2000 COFF Assembler PC v4.1.3 Thu Aug 18 12:16:32 2016

Tools Copyright (c) 1996-2006 Texas Instruments Incorporated
spi.asm                                                              PAGE   53

    2454              ;* AL    assigned to _byteout
    2455              DW$101  .dwtag  DW_TAG_formal_parameter, DW_AT_name("byteout"), DW_AT_symbol_name("_byteout")
    2456                      .dwattr DW$101, DW_AT_type(*DW$T$11)
    2457                      .dwattr DW$101, DW_AT_location[DW_OP_reg0]
    2458 00000474 761F!         MOVW      DP,#_settings
         00000475 0000 
    2459 00000476 2800!         MOV       @_settings,#1         ; |909| 
         00000477 0001 
    2460 00000478 90FF          ANDB      AL,#255               ; |912| 
    2461 00000479 761F-         MOVW      DP,#_spiregs+7
         0000047a 0000 
    2462 0000047b 28AC          MOV       T,#257                ; |912| 
         0000047c 0101 
    2463 0000047d 9307-         MOV       AH,@_spiregs+7        ; |910| 
    2464 0000047e 761F-         MOVW      DP,#_dummy
         0000047f 0000 
    2465 00000480 9700-         MOV       @_dummy,AH            ; |910| 
    2466 00000481 761F!         MOVW      DP,#_timers+1
         00000482 0000 
    2467 00000483 2801!         MOV       @_timers+1,#2         ; |911| 
         00000484 0002 
    2468 00000485 12A9          MPY       ACC,T,AL              ; |912| 
    2469 00000486 761F-         MOVW      DP,#_spiregs+8
         00000487 0000 
    2470 00000488 9608-         MOV       @_spiregs+8,AL        ; |912| 
    2471 00000489 7700          NOP
    2472 0000048a 7700    NOP
    2473 0000048b 7700    NOP
    2474 0000048c 761F-         MOVW      DP,#_spiregs+2
         0000048d 0000 
    2475 0000048e 4602-         TBIT      @_spiregs+2,#6        ; |915| 
    2476 0000048f EE0D          BF        L29,TC                ; |915| 
    2477                      ; branchcc occurs ; |915| 
    2478              L28:    
    2479              DW$L$_TransmitByte$2$B:
    2480                      .dwpsn  "spi.c",916,0
    2481 00000490 761F!         MOVW      DP,#_timers+1
         00000491 0000 
    2482 00000492 9201!         MOV       AL,@_timers+1         ; |915| 
    2483 00000493 EC09          BF        L29,EQ                ; |915| 
    2484                      ; branchcc occurs ; |915| 
    2485 00000494       DW$L$_TransmitByte$2$E:
    2486 00000494       DW$L$_TransmitByte$3$B:
    2487 00000494 761F!         MOVW      DP,#_settings
         00000495 0000 
    2488 00000496 2800!         MOV       @_settings,#1         ; |917| 
         00000497 0001 
    2489 00000498 761F-         MOVW      DP,#_spiregs+2
         00000499 0000 
    2490 0000049a 4602-         TBIT      @_spiregs+2,#6        ; |917| 
    2491                      .dwpsn  "spi.c",918,0
    2492 0000049b EFF5          BF        L28,NTC               ; |917| 
    2493                      ; branchcc occurs ; |917| 
    2494 0000049c       DW$L$_TransmitByte$3$E:
    2495 0000049c       L29:    
TMS320C2000 COFF Assembler PC v4.1.3 Thu Aug 18 12:16:32 2016

Tools Copyright (c) 1996-2006 Texas Instruments Incorporated
spi.asm                                                              PAGE   54

    2496 0000049c 7700    NOP
    2497 0000049d 7700    NOP
    2498 0000049e 761F-         MOVW      DP,#_spiregs+7
         0000049f 0000 
    2499 000004a0 9207-         MOV       AL,@_spiregs+7        ; |921| 
    2500 000004a1 FF69          SPM       #0
    2501 000004a2 761F-         MOVW      DP,#_dummy
         000004a3 0000 
    2502 000004a4 9600-         MOV       @_dummy,AL            ; |921| 
    2503                      .dwpsn  "spi.c",922,1
    2504 000004a5 0006          LRETR
    2505                      ; return occurs
    2506              
    2507              DW$102  .dwtag  DW_TAG_loop
    2508                      .dwattr DW$102, DW_AT_name("D:\DEV\Amot\BearingWear\XTSW_V6_20\spi.asm:L28:1:1471518992")
    2509                      .dwattr DW$102, DW_AT_begin_file("spi.c")
    2510                      .dwattr DW$102, DW_AT_begin_line(0x393)
    2511                      .dwattr DW$102, DW_AT_end_line(0x396)
    2512              DW$103  .dwtag  DW_TAG_loop_range
    2513                      .dwattr DW$103, DW_AT_low_pc(DW$L$_TransmitByte$2$B)
    2514                      .dwattr DW$103, DW_AT_high_pc(DW$L$_TransmitByte$2$E)
    2515              DW$104  .dwtag  DW_TAG_loop_range
    2516                      .dwattr DW$104, DW_AT_low_pc(DW$L$_TransmitByte$3$B)
    2517                      .dwattr DW$104, DW_AT_high_pc(DW$L$_TransmitByte$3$E)
    2518                      .dwendtag DW$102
    2519              
    2520                      .dwattr DW$100, DW_AT_end_file("spi.c")
    2521                      .dwattr DW$100, DW_AT_end_line(0x39a)
    2522                      .dwattr DW$100, DW_AT_end_column(0x01)
    2523                      .dwendtag DW$100
    2524              
    2525 000004a6               .sect   ".text"
    2526                      .global _ReceiveByte
    2527              
    2528              DW$105  .dwtag  DW_TAG_subprogram, DW_AT_name("ReceiveByte"), DW_AT_symbol_name("_ReceiveByte")
    2529                      .dwattr DW$105, DW_AT_low_pc(_ReceiveByte)
    2530                      .dwattr DW$105, DW_AT_high_pc(0x00)
    2531                      .dwattr DW$105, DW_AT_begin_file("spi.c")
    2532                      .dwattr DW$105, DW_AT_begin_line(0x39c)
    2533                      .dwattr DW$105, DW_AT_begin_column(0x0e)
    2534                      .dwattr DW$105, DW_AT_frame_base[DW_OP_breg20 -2]
    2535                      .dwattr DW$105, DW_AT_skeletal(0x01)
    2536                      .dwpsn  "spi.c",925,1
    2537              
    2538              ;***************************************************************
    2539              ;* FNAME: _ReceiveByte                  FR SIZE:   0           *
    2540              ;*                                                             *
    2541              ;* FUNCTION ENVIRONMENT                                        *
    2542              ;*                                                             *
    2543              ;* FUNCTION PROPERTIES                                         *
    2544              ;*                            0 Parameter,  0 Auto,  0 SOE     *
    2545              ;***************************************************************
    2546              
    2547 000004a6       _ReceiveByte:
    2548 000004a6 761F!         MOVW      DP,#_settings
TMS320C2000 COFF Assembler PC v4.1.3 Thu Aug 18 12:16:32 2016

Tools Copyright (c) 1996-2006 Texas Instruments Incorporated
spi.asm                                                              PAGE   55

         000004a7 0000 
    2549 000004a8 8F00-         MOVL      XAR4,#_spiregs        ; |929| 
         000004a9 0000 
    2550 000004aa 2800!         MOV       @_settings,#1         ; |926| 
         000004ab 0001 
    2551 000004ac 761F-         MOVW      DP,#_spiregs+8
         000004ad 0000 
    2552 000004ae 1ACC          OR        *+XAR4[1],#0x0002     ; |929| 
         000004af 0002 
    2553 000004b0 2808-         MOV       @_spiregs+8,#65535    ; |930| 
         000004b1 FFFF 
    2554 000004b2 761F!         MOVW      DP,#_timers+1
         000004b3 0000 
    2555 000004b4 2801!         MOV       @_timers+1,#2         ; |932| 
         000004b5 0002 
    2556 000004b6 7700          NOP
    2557 000004b7 7700          NOP
    2558 000004b8 7700    NOP
    2559 000004b9 7700    NOP
    2560 000004ba 46D4          TBIT      *+XAR4[2],#6          ; |935| 
    2561 000004bb EE0D          BF        L31,TC                ; |935| 
    2562                      ; branchcc occurs ; |935| 
    2563              L30:    
    2564              DW$L$_ReceiveByte$2$B:
    2565                      .dwpsn  "spi.c",936,0
    2566 000004bc 761F!         MOVW      DP,#_timers+1
         000004bd 0000 
    2567 000004be 9201!         MOV       AL,@_timers+1         ; |935| 
    2568 000004bf EC09          BF        L31,EQ                ; |935| 
    2569                      ; branchcc occurs ; |935| 
    2570 000004c0       DW$L$_ReceiveByte$2$E:
    2571 000004c0       DW$L$_ReceiveByte$3$B:
    2572 000004c0 761F!         MOVW      DP,#_settings
         000004c1 0000 
    2573 000004c2 2800!         MOV       @_settings,#1         ; |937| 
         000004c3 0001 
    2574 000004c4 761F-         MOVW      DP,#_spiregs+2
         000004c5 0000 
    2575 000004c6 4602-         TBIT      @_spiregs+2,#6        ; |937| 
    2576                      .dwpsn  "spi.c",938,0
    2577 000004c7 EFF5          BF        L30,NTC               ; |937| 
    2578                      ; branchcc occurs ; |937| 
    2579 000004c8       DW$L$_ReceiveByte$3$E:
    2580 000004c8       L31:    
    2581 000004c8 7700    NOP
    2582 000004c9 7700    NOP
    2583 000004ca FF69          SPM       #0
    2584 000004cb 761F-         MOVW      DP,#_spiregs+1
         000004cc 0000 
    2585 000004cd 1A01-         OR        @_spiregs+1,#0x0002   ; |941| 
         000004ce 0002 
    2586 000004cf 761F-         MOVW      DP,#_spiregs+7
         000004d0 0000 
    2587 000004d1 CC07-         AND       AL,@_spiregs+7,#0x00ff ; |942| 
         000004d2 00FF 
TMS320C2000 COFF Assembler PC v4.1.3 Thu Aug 18 12:16:32 2016

Tools Copyright (c) 1996-2006 Texas Instruments Incorporated
spi.asm                                                              PAGE   56

    2588                      .dwpsn  "spi.c",943,1
    2589 000004d3 0006          LRETR
    2590                      ; return occurs
    2591              
    2592              DW$106  .dwtag  DW_TAG_loop
    2593                      .dwattr DW$106, DW_AT_name("D:\DEV\Amot\BearingWear\XTSW_V6_20\spi.asm:L30:1:1471518992")
    2594                      .dwattr DW$106, DW_AT_begin_file("spi.c")
    2595                      .dwattr DW$106, DW_AT_begin_line(0x3a7)
    2596                      .dwattr DW$106, DW_AT_end_line(0x3aa)
    2597              DW$107  .dwtag  DW_TAG_loop_range
    2598                      .dwattr DW$107, DW_AT_low_pc(DW$L$_ReceiveByte$2$B)
    2599                      .dwattr DW$107, DW_AT_high_pc(DW$L$_ReceiveByte$2$E)
    2600              DW$108  .dwtag  DW_TAG_loop_range
    2601                      .dwattr DW$108, DW_AT_low_pc(DW$L$_ReceiveByte$3$B)
    2602                      .dwattr DW$108, DW_AT_high_pc(DW$L$_ReceiveByte$3$E)
    2603                      .dwendtag DW$106
    2604              
    2605                      .dwattr DW$105, DW_AT_end_file("spi.c")
    2606                      .dwattr DW$105, DW_AT_end_line(0x3af)
    2607                      .dwattr DW$105, DW_AT_end_column(0x01)
    2608                      .dwendtag DW$105
    2609              
    2610 000004d4               .sect   ".text"
    2611                      .global _SelectUart_C
    2612              
    2613              DW$109  .dwtag  DW_TAG_subprogram, DW_AT_name("SelectUart_C"), DW_AT_symbol_name("_SelectUart_C")
    2614                      .dwattr DW$109, DW_AT_low_pc(_SelectUart_C)
    2615                      .dwattr DW$109, DW_AT_high_pc(0x00)
    2616                      .dwattr DW$109, DW_AT_begin_file("spi.c")
    2617                      .dwattr DW$109, DW_AT_begin_line(0x3b6)
    2618                      .dwattr DW$109, DW_AT_begin_column(0x06)
    2619                      .dwattr DW$109, DW_AT_frame_base[DW_OP_breg20 -2]
    2620                      .dwattr DW$109, DW_AT_skeletal(0x01)
    2621                      .dwpsn  "spi.c",951,1
    2622              
    2623              ;***************************************************************
    2624              ;* FNAME: _SelectUart_C                 FR SIZE:   0           *
    2625              ;*                                                             *
    2626              ;* FUNCTION ENVIRONMENT                                        *
    2627              ;*                                                             *
    2628              ;* FUNCTION PROPERTIES                                         *
    2629              ;*                            0 Parameter,  0 Auto,  0 SOE     *
    2630              ;***************************************************************
    2631              
    2632 000004d4       _SelectUart_C:
    2633 000004d4 9A24          MOVB      AL,#36                ; |953| 
    2634 000004d5 F4A9          MOV       *(0:0x7044),AL        ; |953| 
         000004d6 7044 
    2635 000004d7 761F!         MOVW      DP,#_gpf
         000004d8 0000 
    2636 000004d9 1800!         AND       @_gpf,#0xfdff         ; |954| 
         000004da FDFF 
    2637                      .dwpsn  "spi.c",955,1
    2638 000004db 0006          LRETR
    2639                      ; return occurs
TMS320C2000 COFF Assembler PC v4.1.3 Thu Aug 18 12:16:32 2016

Tools Copyright (c) 1996-2006 Texas Instruments Incorporated
spi.asm                                                              PAGE   57

    2640                      .dwattr DW$109, DW_AT_end_file("spi.c")
    2641                      .dwattr DW$109, DW_AT_end_line(0x3bb)
    2642                      .dwattr DW$109, DW_AT_end_column(0x01)
    2643                      .dwendtag DW$109
    2644              
    2645 000004dc               .sect   ".text"
    2646                      .global _DeselectUart_C
    2647              
    2648              DW$110  .dwtag  DW_TAG_subprogram, DW_AT_name("DeselectUart_C"), DW_AT_symbol_name("_DeselectUart_C")
    2649                      .dwattr DW$110, DW_AT_low_pc(_DeselectUart_C)
    2650                      .dwattr DW$110, DW_AT_high_pc(0x00)
    2651                      .dwattr DW$110, DW_AT_begin_file("spi.c")
    2652                      .dwattr DW$110, DW_AT_begin_line(0x3bf)
    2653                      .dwattr DW$110, DW_AT_begin_column(0x06)
    2654                      .dwattr DW$110, DW_AT_frame_base[DW_OP_breg20 -2]
    2655                      .dwattr DW$110, DW_AT_skeletal(0x01)
    2656                      .dwpsn  "spi.c",960,1
    2657              
    2658              ;***************************************************************
    2659              ;* FNAME: _DeselectUart_C               FR SIZE:   0           *
    2660              ;*                                                             *
    2661              ;* FUNCTION ENVIRONMENT                                        *
    2662              ;*                                                             *
    2663              ;* FUNCTION PROPERTIES                                         *
    2664              ;*                            0 Parameter,  0 Auto,  0 SOE     *
    2665              ;***************************************************************
    2666              
    2667 000004dc       _DeselectUart_C:
    2668 000004dc 761F!         MOVW      DP,#_gpb
         000004dd 0000 
    2669 000004de 1800!         AND       @_gpb,#0xbfff         ; |961| 
         000004df BFFF 
    2670 000004e0 761F!         MOVW      DP,#_gpf
         000004e1 0000 
    2671 000004e2 1A00!         OR        @_gpf,#0x0700         ; |962| 
         000004e3 0700 
    2672 000004e4 9A03          MOVB      AL,#3                 ; |964| 
    2673 000004e5 F4A9          MOV       *(0:0x7044),AL        ; |964| 
         000004e6 7044 
    2674 000004e7 761F-         MOVW      DP,#_spiregs
         000004e8 0000 
    2675 000004e9 1A00-         OR        @_spiregs,#0x0040     ; |966| 
         000004ea 0040 
    2676 000004eb 7640'         LCR       #_ReceiveByte         ; |968| 
         000004ec 04A6 
    2677                      ; call occurs [#_ReceiveByte] ; |968| 
    2678                      .dwpsn  "spi.c",969,1
    2679 000004ed 0006          LRETR
    2680                      ; return occurs
    2681                      .dwattr DW$110, DW_AT_end_file("spi.c")
    2682                      .dwattr DW$110, DW_AT_end_line(0x3c9)
    2683                      .dwattr DW$110, DW_AT_end_column(0x01)
    2684                      .dwendtag DW$110
    2685              
    2686 000004ee               .sect   ".text"
TMS320C2000 COFF Assembler PC v4.1.3 Thu Aug 18 12:16:32 2016

Tools Copyright (c) 1996-2006 Texas Instruments Incorporated
spi.asm                                                              PAGE   58

    2687                      .global _WriteUartConfig_C
    2688              
    2689              DW$111  .dwtag  DW_TAG_subprogram, DW_AT_name("WriteUartConfig_C"), DW_AT_symbol_name("_WriteUartConfig_C")
    2690                      .dwattr DW$111, DW_AT_low_pc(_WriteUartConfig_C)
    2691                      .dwattr DW$111, DW_AT_high_pc(0x00)
    2692                      .dwattr DW$111, DW_AT_begin_file("spi.c")
    2693                      .dwattr DW$111, DW_AT_begin_line(0x3cf)
    2694                      .dwattr DW$111, DW_AT_begin_column(0x06)
    2695                      .dwattr DW$111, DW_AT_frame_base[DW_OP_breg20 -2]
    2696                      .dwattr DW$111, DW_AT_skeletal(0x01)
    2697                      .dwpsn  "spi.c",976,1
    2698              
    2699              ;***************************************************************
    2700              ;* FNAME: _WriteUartConfig_C            FR SIZE:   0           *
    2701              ;*                                                             *
    2702              ;* FUNCTION ENVIRONMENT                                        *
    2703              ;*                                                             *
    2704              ;* FUNCTION PROPERTIES                                         *
    2705              ;*                            0 Parameter,  0 Auto,  0 SOE     *
    2706              ;***************************************************************
    2707              
    2708              _WriteUartConfig_C:
    2709              ;* AL    assigned to _num
    2710              DW$112  .dwtag  DW_TAG_formal_parameter, DW_AT_name("num"), DW_AT_symbol_name("_num")
    2711                      .dwattr DW$112, DW_AT_type(*DW$T$11)
    2712                      .dwattr DW$112, DW_AT_location[DW_OP_reg0]
    2713 000004ee 7640'         LCR       #_SelectUart_C        ; |977| 
         000004ef 04D4 
    2714                      ; call occurs [#_SelectUart_C] ; |977| 
    2715 000004f0 9AE4          MOVB      AL,#228               ; |980| 
    2716 000004f1 7640'         LCR       #_TransmitByte        ; |980| 
         000004f2 0474 
    2717                      ; call occurs [#_TransmitByte] ; |980| 
    2718 000004f3 9A0B          MOVB      AL,#11                ; |982| 
    2719 000004f4 7640'         LCR       #_TransmitByte        ; |982| 
         000004f5 0474 
    2720                      ; call occurs [#_TransmitByte] ; |982| 
    2721 000004f6 7640'         LCR       #_DeselectUart_C      ; |983| 
         000004f7 04DC 
    2722                      ; call occurs [#_DeselectUart_C] ; |983| 
    2723                      .dwpsn  "spi.c",984,1
    2724 000004f8 0006          LRETR
    2725                      ; return occurs
    2726                      .dwattr DW$111, DW_AT_end_file("spi.c")
    2727                      .dwattr DW$111, DW_AT_end_line(0x3d8)
    2728                      .dwattr DW$111, DW_AT_end_column(0x01)
    2729                      .dwendtag DW$111
    2730              
    2731 000004f9               .sect   ".text"
    2732                      .global _WaitforUartTxComplete_C
    2733              
    2734              DW$113  .dwtag  DW_TAG_subprogram, DW_AT_name("WaitforUartTxComplete_C"), DW_AT_symbol_name("_WaitforUartTxCo
    2735                      .dwattr DW$113, DW_AT_low_pc(_WaitforUartTxComplete_C)
    2736                      .dwattr DW$113, DW_AT_high_pc(0x00)
    2737                      .dwattr DW$113, DW_AT_begin_file("spi.c")
TMS320C2000 COFF Assembler PC v4.1.3 Thu Aug 18 12:16:32 2016

Tools Copyright (c) 1996-2006 Texas Instruments Incorporated
spi.asm                                                              PAGE   59

    2738                      .dwattr DW$113, DW_AT_begin_line(0x3da)
    2739                      .dwattr DW$113, DW_AT_begin_column(0x06)
    2740                      .dwattr DW$113, DW_AT_frame_base[DW_OP_breg20 -2]
    2741                      .dwattr DW$113, DW_AT_skeletal(0x01)
    2742                      .dwpsn  "spi.c",987,1
    2743              
    2744              ;***************************************************************
    2745              ;* FNAME: _WaitforUartTxComplete_C      FR SIZE:   0           *
    2746              ;*                                                             *
    2747              ;* FUNCTION ENVIRONMENT                                        *
    2748              ;*                                                             *
    2749              ;* FUNCTION PROPERTIES                                         *
    2750              ;*                            0 Parameter,  0 Auto,  0 SOE     *
    2751              ;***************************************************************
    2752              
    2753 000004f9       _WaitforUartTxComplete_C:
    2754 000004f9 761F!         MOVW      DP,#_timers+40
         000004fa 0000 
    2755                      .dwpsn  "spi.c",991,0
    2756 000004fb 2828!         MOV       @_timers+40,#4        ; |990| 
         000004fc 0004 
    2757              L32:    
    2758              DW$L$_WaitforUartTxComplete_C$2$B:
    2759                      .dwpsn  "spi.c",992,0
    2760 000004fd 7640'         LCR       #_ReadDataFromUart_C  ; |993| 
         000004fe 0530 
    2761                      ; call occurs [#_ReadDataFromUart_C] ; |993| 
    2762 000004ff 761F!         MOVW      DP,#_settings
         00000500 0000 
    2763 00000501 CCA9          AND       AL,AL,#0x4000         ; |995| 
         00000502 4000 
    2764 00000503 2800!         MOV       @_settings,#1         ; |994| 
         00000504 0001 
    2765 00000505 ED05          BF        L33,NEQ               ; |995| 
    2766                      ; branchcc occurs ; |995| 
    2767 00000506       DW$L$_WaitforUartTxComplete_C$2$E:
    2768 00000506       DW$L$_WaitforUartTxComplete_C$3$B:
    2769 00000506 761F!         MOVW      DP,#_timers+40
         00000507 0000 
    2770 00000508 9228!         MOV       AL,@_timers+40        ; |995| 
    2771                      .dwpsn  "spi.c",995,0
    2772 00000509 EDF4          BF        L32,NEQ               ; |995| 
    2773                      ; branchcc occurs ; |995| 
    2774              DW$L$_WaitforUartTxComplete_C$3$E:
    2775              L33:    
    2776                      .dwpsn  "spi.c",996,1
    2777 0000050a 0006          LRETR
    2778                      ; return occurs
    2779              
    2780              DW$114  .dwtag  DW_TAG_loop
    2781                      .dwattr DW$114, DW_AT_name("D:\DEV\Amot\BearingWear\XTSW_V6_20\spi.asm:L32:1:1471518992")
    2782                      .dwattr DW$114, DW_AT_begin_file("spi.c")
    2783                      .dwattr DW$114, DW_AT_begin_line(0x3df)
    2784                      .dwattr DW$114, DW_AT_end_line(0x3e3)
    2785              DW$115  .dwtag  DW_TAG_loop_range
TMS320C2000 COFF Assembler PC v4.1.3 Thu Aug 18 12:16:32 2016

Tools Copyright (c) 1996-2006 Texas Instruments Incorporated
spi.asm                                                              PAGE   60

    2786                      .dwattr DW$115, DW_AT_low_pc(DW$L$_WaitforUartTxComplete_C$2$B)
    2787                      .dwattr DW$115, DW_AT_high_pc(DW$L$_WaitforUartTxComplete_C$2$E)
    2788              DW$116  .dwtag  DW_TAG_loop_range
    2789                      .dwattr DW$116, DW_AT_low_pc(DW$L$_WaitforUartTxComplete_C$3$B)
    2790                      .dwattr DW$116, DW_AT_high_pc(DW$L$_WaitforUartTxComplete_C$3$E)
    2791                      .dwendtag DW$114
    2792              
    2793                      .dwattr DW$113, DW_AT_end_file("spi.c")
    2794                      .dwattr DW$113, DW_AT_end_line(0x3e4)
    2795                      .dwattr DW$113, DW_AT_end_column(0x01)
    2796                      .dwendtag DW$113
    2797              
    2798 0000050b               .sect   ".text"
    2799                      .global _WriteBytetoUart_C
    2800              
    2801              DW$117  .dwtag  DW_TAG_subprogram, DW_AT_name("WriteBytetoUart_C"), DW_AT_symbol_name("_WriteBytetoUart_C")
    2802                      .dwattr DW$117, DW_AT_low_pc(_WriteBytetoUart_C)
    2803                      .dwattr DW$117, DW_AT_high_pc(0x00)
    2804                      .dwattr DW$117, DW_AT_begin_file("spi.c")
    2805                      .dwattr DW$117, DW_AT_begin_line(0x3e7)
    2806                      .dwattr DW$117, DW_AT_begin_column(0x06)
    2807                      .dwattr DW$117, DW_AT_frame_base[DW_OP_breg20 -4]
    2808                      .dwattr DW$117, DW_AT_skeletal(0x01)
    2809                      .dwpsn  "spi.c",1000,1
    2810              
    2811              ;***************************************************************
    2812              ;* FNAME: _WriteBytetoUart_C            FR SIZE:   2           *
    2813              ;*                                                             *
    2814              ;* FUNCTION ENVIRONMENT                                        *
    2815              ;*                                                             *
    2816              ;* FUNCTION PROPERTIES                                         *
    2817              ;*                            0 Parameter,  0 Auto,  2 SOE     *
    2818              ;***************************************************************
    2819              
    2820              _WriteBytetoUart_C:
    2821              ;* AL    assigned to _databyte
    2822              DW$118  .dwtag  DW_TAG_formal_parameter, DW_AT_name("databyte"), DW_AT_symbol_name("_databyte")
    2823                      .dwattr DW$118, DW_AT_type(*DW$T$11)
    2824                      .dwattr DW$118, DW_AT_location[DW_OP_reg0]
    2825 0000050b B2BD          MOVL      *SP++,XAR1
    2826 0000050c 761F!         MOVW      DP,#_timers+40
         0000050d 0000 
    2827 0000050e 59A9          MOVZ      AR1,AL                ; |1000| 
    2828                      .dwpsn  "spi.c",1004,0
    2829 0000050f 2828!         MOV       @_timers+40,#4        ; |1003| 
         00000510 0004 
    2830              L34:    
    2831              DW$L$_WriteBytetoUart_C$2$B:
    2832                      .dwpsn  "spi.c",1005,0
    2833 00000511 7640'         LCR       #_ReadDataFromUart_C  ; |1006| 
         00000512 0530 
    2834                      ; call occurs [#_ReadDataFromUart_C] ; |1006| 
    2835 00000513 761F!         MOVW      DP,#_settings
         00000514 0000 
    2836 00000515 CCA9          AND       AL,AL,#0x4000         ; |1008| 
TMS320C2000 COFF Assembler PC v4.1.3 Thu Aug 18 12:16:32 2016

Tools Copyright (c) 1996-2006 Texas Instruments Incorporated
spi.asm                                                              PAGE   61

         00000516 4000 
    2837 00000517 2800!         MOV       @_settings,#1         ; |1007| 
         00000518 0001 
    2838 00000519 ED05          BF        L35,NEQ               ; |1008| 
    2839                      ; branchcc occurs ; |1008| 
    2840 0000051a       DW$L$_WriteBytetoUart_C$2$E:
    2841 0000051a       DW$L$_WriteBytetoUart_C$3$B:
    2842 0000051a 761F!         MOVW      DP,#_timers+40
         0000051b 0000 
    2843 0000051c 9228!         MOV       AL,@_timers+40        ; |1008| 
    2844                      .dwpsn  "spi.c",1008,0
    2845 0000051d EDF4          BF        L34,NEQ               ; |1008| 
    2846                      ; branchcc occurs ; |1008| 
    2847 0000051e       DW$L$_WriteBytetoUart_C$3$E:
    2848 0000051e       L35:    
    2849 0000051e 761F!         MOVW      DP,#_timers+40
         0000051f 0000 
    2850 00000520 9228!         MOV       AL,@_timers+40        ; |1009| 
    2851 00000521 ED03          BF        L36,NEQ               ; |1009| 
    2852                      ; branchcc occurs ; |1009| 
    2853 00000522 7640'         LCR       #_WriteUartConfig_C   ; |1012| 
         00000523 04EE 
    2854                      ; call occurs [#_WriteUartConfig_C] ; |1012| 
    2855 00000524       L36:    
    2856 00000524 7640'         LCR       #_SelectUart_C        ; |1014| 
         00000525 04D4 
    2857                      ; call occurs [#_SelectUart_C] ; |1014| 
    2858 00000526 9A80          MOVB      AL,#128               ; |1016| 
    2859 00000527 7640'         LCR       #_TransmitByte        ; |1016| 
         00000528 0474 
    2860                      ; call occurs [#_TransmitByte] ; |1016| 
    2861 00000529 92A1          MOV       AL,AR1                ; |1017| 
    2862 0000052a 7640'         LCR       #_TransmitByte        ; |1017| 
         0000052b 0474 
    2863                      ; call occurs [#_TransmitByte] ; |1017| 
    2864 0000052c 7640'         LCR       #_DeselectUart_C      ; |1018| 
         0000052d 04DC 
    2865                      ; call occurs [#_DeselectUart_C] ; |1018| 
    2866 0000052e 8BBE          MOVL      XAR1,*--SP
    2867                      .dwpsn  "spi.c",1019,1
    2868 0000052f 0006          LRETR
    2869                      ; return occurs
    2870              
    2871              DW$119  .dwtag  DW_TAG_loop
    2872                      .dwattr DW$119, DW_AT_name("D:\DEV\Amot\BearingWear\XTSW_V6_20\spi.asm:L34:1:1471518992")
    2873                      .dwattr DW$119, DW_AT_begin_file("spi.c")
    2874                      .dwattr DW$119, DW_AT_begin_line(0x3ec)
    2875                      .dwattr DW$119, DW_AT_end_line(0x3f0)
    2876              DW$120  .dwtag  DW_TAG_loop_range
    2877                      .dwattr DW$120, DW_AT_low_pc(DW$L$_WriteBytetoUart_C$2$B)
    2878                      .dwattr DW$120, DW_AT_high_pc(DW$L$_WriteBytetoUart_C$2$E)
    2879              DW$121  .dwtag  DW_TAG_loop_range
    2880                      .dwattr DW$121, DW_AT_low_pc(DW$L$_WriteBytetoUart_C$3$B)
    2881                      .dwattr DW$121, DW_AT_high_pc(DW$L$_WriteBytetoUart_C$3$E)
    2882                      .dwendtag DW$119
TMS320C2000 COFF Assembler PC v4.1.3 Thu Aug 18 12:16:32 2016

Tools Copyright (c) 1996-2006 Texas Instruments Incorporated
spi.asm                                                              PAGE   62

    2883              
    2884                      .dwattr DW$117, DW_AT_end_file("spi.c")
    2885                      .dwattr DW$117, DW_AT_end_line(0x3fb)
    2886                      .dwattr DW$117, DW_AT_end_column(0x01)
    2887                      .dwendtag DW$117
    2888              
    2889 00000530               .sect   ".text"
    2890                      .global _ReadDataFromUart_C
    2891              
    2892              DW$122  .dwtag  DW_TAG_subprogram, DW_AT_name("ReadDataFromUart_C"), DW_AT_symbol_name("_ReadDataFromUart_C")
    2893                      .dwattr DW$122, DW_AT_low_pc(_ReadDataFromUart_C)
    2894                      .dwattr DW$122, DW_AT_high_pc(0x00)
    2895                      .dwattr DW$122, DW_AT_begin_file("spi.c")
    2896                      .dwattr DW$122, DW_AT_begin_line(0x3fe)
    2897                      .dwattr DW$122, DW_AT_begin_column(0x0e)
    2898                      .dwattr DW$122, DW_AT_frame_base[DW_OP_breg20 -4]
    2899                      .dwattr DW$122, DW_AT_skeletal(0x01)
    2900                      .dwpsn  "spi.c",1023,1
    2901              
    2902              ;***************************************************************
    2903              ;* FNAME: _ReadDataFromUart_C           FR SIZE:   2           *
    2904              ;*                                                             *
    2905              ;* FUNCTION ENVIRONMENT                                        *
    2906              ;*                                                             *
    2907              ;* FUNCTION PROPERTIES                                         *
    2908              ;*                            0 Parameter,  0 Auto,  2 SOE     *
    2909              ;***************************************************************
    2910              
    2911 00000530       _ReadDataFromUart_C:
    2912 00000530 B2BD          MOVL      *SP++,XAR1
    2913 00000531 7640'         LCR       #_SelectUart_C        ; |1028| 
         00000532 04D4 
    2914                      ; call occurs [#_SelectUart_C] ; |1028| 
    2915 00000533 7640'         LCR       #_ReceiveByteUART     ; |1030| 
         00000534 0541 
    2916                      ; call occurs [#_ReceiveByteUART] ; |1030| 
    2917 00000535 59A9          MOVZ      AR1,AL                ; |1030| 
    2918 00000536 7640'         LCR       #_ReceiveByteUART     ; |1031| 
         00000537 0541 
    2919                      ; call occurs [#_ReceiveByteUART] ; |1031| 
    2920 00000538 88A9          MOVZ      AR6,AL                ; |1031| 
    2921 00000539 5603          MOV       ACC,AR1 << #8         ; |1032| 
         0000053a 08A1 
    2922 0000053b 72A6          ADD       AR6,AL                ; |1032| 
    2923 0000053c 7640'         LCR       #_DeselectUart_C      ; |1033| 
         0000053d 04DC 
    2924                      ; call occurs [#_DeselectUart_C] ; |1033| 
    2925 0000053e 8BBE          MOVL      XAR1,*--SP            ; |1034| 
    2926 0000053f 92A6          MOV       AL,AR6                ; |1034| 
    2927                      .dwpsn  "spi.c",1035,1
    2928 00000540 0006          LRETR
    2929                      ; return occurs
    2930                      .dwattr DW$122, DW_AT_end_file("spi.c")
    2931                      .dwattr DW$122, DW_AT_end_line(0x40b)
    2932                      .dwattr DW$122, DW_AT_end_column(0x01)
TMS320C2000 COFF Assembler PC v4.1.3 Thu Aug 18 12:16:32 2016

Tools Copyright (c) 1996-2006 Texas Instruments Incorporated
spi.asm                                                              PAGE   63

    2933                      .dwendtag DW$122
    2934              
    2935 00000541               .sect   ".text"
    2936                      .global _ReceiveByteUART
    2937              
    2938              DW$123  .dwtag  DW_TAG_subprogram, DW_AT_name("ReceiveByteUART"), DW_AT_symbol_name("_ReceiveByteUART")
    2939                      .dwattr DW$123, DW_AT_low_pc(_ReceiveByteUART)
    2940                      .dwattr DW$123, DW_AT_high_pc(0x00)
    2941                      .dwattr DW$123, DW_AT_begin_file("spi.c")
    2942                      .dwattr DW$123, DW_AT_begin_line(0x40f)
    2943                      .dwattr DW$123, DW_AT_begin_column(0x0e)
    2944                      .dwattr DW$123, DW_AT_frame_base[DW_OP_breg20 -2]
    2945                      .dwattr DW$123, DW_AT_skeletal(0x01)
    2946                      .dwpsn  "spi.c",1040,1
    2947              
    2948              ;***************************************************************
    2949              ;* FNAME: _ReceiveByteUART              FR SIZE:   0           *
    2950              ;*                                                             *
    2951              ;* FUNCTION ENVIRONMENT                                        *
    2952              ;*                                                             *
    2953              ;* FUNCTION PROPERTIES                                         *
    2954              ;*                            0 Parameter,  0 Auto,  0 SOE     *
    2955              ;***************************************************************
    2956              
    2957 00000541       _ReceiveByteUART:
    2958 00000541 761F!         MOVW      DP,#_settings
         00000542 0000 
    2959 00000543 8F00-         MOVL      XAR4,#_spiregs        ; |1042| 
         00000544 0000 
    2960 00000545 2800!         MOV       @_settings,#1         ; |1041| 
         00000546 0001 
    2961 00000547 761F-         MOVW      DP,#_spiregs+8
         00000548 0000 
    2962 00000549 1ACC          OR        *+XAR4[1],#0x0002     ; |1042| 
         0000054a 0002 
    2963 0000054b 2B08-         MOV       @_spiregs+8,#0        ; |1043| 
    2964 0000054c 761F!         MOVW      DP,#_timers+1
         0000054d 0000 
    2965 0000054e 2801!         MOV       @_timers+1,#2         ; |1045| 
         0000054f 0002 
    2966 00000550 7700          NOP
    2967 00000551 7700          NOP
    2968 00000552 7700    NOP
    2969 00000553 7700    NOP
    2970 00000554 46D4          TBIT      *+XAR4[2],#6          ; |1048| 
    2971 00000555 EE0D          BF        L38,TC                ; |1048| 
    2972                      ; branchcc occurs ; |1048| 
    2973              L37:    
    2974              DW$L$_ReceiveByteUART$2$B:
    2975                      .dwpsn  "spi.c",1049,0
    2976 00000556 761F!         MOVW      DP,#_timers+1
         00000557 0000 
    2977 00000558 9201!         MOV       AL,@_timers+1         ; |1048| 
    2978 00000559 EC09          BF        L38,EQ                ; |1048| 
    2979                      ; branchcc occurs ; |1048| 
TMS320C2000 COFF Assembler PC v4.1.3 Thu Aug 18 12:16:32 2016

Tools Copyright (c) 1996-2006 Texas Instruments Incorporated
spi.asm                                                              PAGE   64

    2980 0000055a       DW$L$_ReceiveByteUART$2$E:
    2981 0000055a       DW$L$_ReceiveByteUART$3$B:
    2982 0000055a 761F!         MOVW      DP,#_settings
         0000055b 0000 
    2983 0000055c 2800!         MOV       @_settings,#1         ; |1050| 
         0000055d 0001 
    2984 0000055e 761F-         MOVW      DP,#_spiregs+2
         0000055f 0000 
    2985 00000560 4602-         TBIT      @_spiregs+2,#6        ; |1050| 
    2986                      .dwpsn  "spi.c",1051,0
    2987 00000561 EFF5          BF        L37,NTC               ; |1050| 
    2988                      ; branchcc occurs ; |1050| 
    2989 00000562       DW$L$_ReceiveByteUART$3$E:
    2990 00000562       L38:    
    2991 00000562 7700    NOP
    2992 00000563 7700    NOP
    2993 00000564 FF69          SPM       #0
    2994 00000565 761F-         MOVW      DP,#_spiregs+1
         00000566 0000 
    2995 00000567 1A01-         OR        @_spiregs+1,#0x0002   ; |1054| 
         00000568 0002 
    2996 00000569 761F-         MOVW      DP,#_spiregs+7
         0000056a 0000 
    2997 0000056b CC07-         AND       AL,@_spiregs+7,#0x00ff ; |1055| 
         0000056c 00FF 
    2998                      .dwpsn  "spi.c",1056,1
    2999 0000056d 0006          LRETR
    3000                      ; return occurs
    3001              
    3002              DW$124  .dwtag  DW_TAG_loop
    3003                      .dwattr DW$124, DW_AT_name("D:\DEV\Amot\BearingWear\XTSW_V6_20\spi.asm:L37:1:1471518992")
    3004                      .dwattr DW$124, DW_AT_begin_file("spi.c")
    3005                      .dwattr DW$124, DW_AT_begin_line(0x418)
    3006                      .dwattr DW$124, DW_AT_end_line(0x41b)
    3007              DW$125  .dwtag  DW_TAG_loop_range
    3008                      .dwattr DW$125, DW_AT_low_pc(DW$L$_ReceiveByteUART$2$B)
    3009                      .dwattr DW$125, DW_AT_high_pc(DW$L$_ReceiveByteUART$2$E)
    3010              DW$126  .dwtag  DW_TAG_loop_range
    3011                      .dwattr DW$126, DW_AT_low_pc(DW$L$_ReceiveByteUART$3$B)
    3012                      .dwattr DW$126, DW_AT_high_pc(DW$L$_ReceiveByteUART$3$E)
    3013                      .dwendtag DW$124
    3014              
    3015                      .dwattr DW$123, DW_AT_end_file("spi.c")
    3016                      .dwattr DW$123, DW_AT_end_line(0x420)
    3017                      .dwattr DW$123, DW_AT_end_column(0x01)
    3018                      .dwendtag DW$123
    3019              
    3020 0000056e               .sect   ".text"
    3021                      .global _SelectUart_D
    3022              
    3023              DW$127  .dwtag  DW_TAG_subprogram, DW_AT_name("SelectUart_D"), DW_AT_symbol_name("_SelectUart_D")
    3024                      .dwattr DW$127, DW_AT_low_pc(_SelectUart_D)
    3025                      .dwattr DW$127, DW_AT_high_pc(0x00)
    3026                      .dwattr DW$127, DW_AT_begin_file("spi.c")
    3027                      .dwattr DW$127, DW_AT_begin_line(0x428)
TMS320C2000 COFF Assembler PC v4.1.3 Thu Aug 18 12:16:32 2016

Tools Copyright (c) 1996-2006 Texas Instruments Incorporated
spi.asm                                                              PAGE   65

    3028                      .dwattr DW$127, DW_AT_begin_column(0x06)
    3029                      .dwattr DW$127, DW_AT_frame_base[DW_OP_breg20 -2]
    3030                      .dwattr DW$127, DW_AT_skeletal(0x01)
    3031                      .dwpsn  "spi.c",1065,1
    3032              
    3033              ;***************************************************************
    3034              ;* FNAME: _SelectUart_D                 FR SIZE:   0           *
    3035              ;*                                                             *
    3036              ;* FUNCTION ENVIRONMENT                                        *
    3037              ;*                                                             *
    3038              ;* FUNCTION PROPERTIES                                         *
    3039              ;*                            0 Parameter,  0 Auto,  0 SOE     *
    3040              ;***************************************************************
    3041              
    3042 0000056e       _SelectUart_D:
    3043 0000056e 9A24          MOVB      AL,#36                ; |1067| 
    3044 0000056f F4A9          MOV       *(0:0x7044),AL        ; |1067| 
         00000570 7044 
    3045 00000571 761F!         MOVW      DP,#_gpb
         00000572 0000 
    3046 00000573 1800!         AND       @_gpb,#0xfbff         ; |1068| 
         00000574 FBFF 
    3047                      .dwpsn  "spi.c",1069,1
    3048 00000575 0006          LRETR
    3049                      ; return occurs
    3050                      .dwattr DW$127, DW_AT_end_file("spi.c")
    3051                      .dwattr DW$127, DW_AT_end_line(0x42d)
    3052                      .dwattr DW$127, DW_AT_end_column(0x01)
    3053                      .dwendtag DW$127
    3054              
    3055 00000576               .sect   ".text"
    3056                      .global _DeselectUart_D
    3057              
    3058              DW$128  .dwtag  DW_TAG_subprogram, DW_AT_name("DeselectUart_D"), DW_AT_symbol_name("_DeselectUart_D")
    3059                      .dwattr DW$128, DW_AT_low_pc(_DeselectUart_D)
    3060                      .dwattr DW$128, DW_AT_high_pc(0x00)
    3061                      .dwattr DW$128, DW_AT_begin_file("spi.c")
    3062                      .dwattr DW$128, DW_AT_begin_line(0x431)
    3063                      .dwattr DW$128, DW_AT_begin_column(0x06)
    3064                      .dwattr DW$128, DW_AT_frame_base[DW_OP_breg20 -2]
    3065                      .dwattr DW$128, DW_AT_skeletal(0x01)
    3066                      .dwpsn  "spi.c",1074,1
    3067              
    3068              ;***************************************************************
    3069              ;* FNAME: _DeselectUart_D               FR SIZE:   0           *
    3070              ;*                                                             *
    3071              ;* FUNCTION ENVIRONMENT                                        *
    3072              ;*                                                             *
    3073              ;* FUNCTION PROPERTIES                                         *
    3074              ;*                            0 Parameter,  0 Auto,  0 SOE     *
    3075              ;***************************************************************
    3076              
    3077 00000576       _DeselectUart_D:
    3078 00000576 761F!         MOVW      DP,#_gpb
         00000577 0000 
TMS320C2000 COFF Assembler PC v4.1.3 Thu Aug 18 12:16:32 2016

Tools Copyright (c) 1996-2006 Texas Instruments Incorporated
spi.asm                                                              PAGE   66

    3079 00000578 1A00!         OR        @_gpb,#0x0c00         ; |1076| 
         00000579 0C00 
    3080 0000057a 9A03          MOVB      AL,#3                 ; |1078| 
    3081 0000057b F4A9          MOV       *(0:0x7044),AL        ; |1078| 
         0000057c 7044 
    3082 0000057d 761F-         MOVW      DP,#_spiregs
         0000057e 0000 
    3083 0000057f 1A00-         OR        @_spiregs,#0x0040     ; |1080| 
         00000580 0040 
    3084 00000581 7640'         LCR       #_ReceiveByte         ; |1082| 
         00000582 04A6 
    3085                      ; call occurs [#_ReceiveByte] ; |1082| 
    3086                      .dwpsn  "spi.c",1083,1
    3087 00000583 0006          LRETR
    3088                      ; return occurs
    3089                      .dwattr DW$128, DW_AT_end_file("spi.c")
    3090                      .dwattr DW$128, DW_AT_end_line(0x43b)
    3091                      .dwattr DW$128, DW_AT_end_column(0x01)
    3092                      .dwendtag DW$128
    3093              
    3094 00000584               .sect   ".text"
    3095                      .global _WriteUartConfig_D
    3096              
    3097              DW$129  .dwtag  DW_TAG_subprogram, DW_AT_name("WriteUartConfig_D"), DW_AT_symbol_name("_WriteUartConfig_D")
    3098                      .dwattr DW$129, DW_AT_low_pc(_WriteUartConfig_D)
    3099                      .dwattr DW$129, DW_AT_high_pc(0x00)
    3100                      .dwattr DW$129, DW_AT_begin_file("spi.c")
    3101                      .dwattr DW$129, DW_AT_begin_line(0x440)
    3102                      .dwattr DW$129, DW_AT_begin_column(0x06)
    3103                      .dwattr DW$129, DW_AT_frame_base[DW_OP_breg20 -2]
    3104                      .dwattr DW$129, DW_AT_skeletal(0x01)
    3105                      .dwpsn  "spi.c",1089,1
    3106              
    3107              ;***************************************************************
    3108              ;* FNAME: _WriteUartConfig_D            FR SIZE:   0           *
    3109              ;*                                                             *
    3110              ;* FUNCTION ENVIRONMENT                                        *
    3111              ;*                                                             *
    3112              ;* FUNCTION PROPERTIES                                         *
    3113              ;*                            0 Parameter,  0 Auto,  0 SOE     *
    3114              ;***************************************************************
    3115              
    3116              _WriteUartConfig_D:
    3117              ;* AL    assigned to _num
    3118              DW$130  .dwtag  DW_TAG_formal_parameter, DW_AT_name("num"), DW_AT_symbol_name("_num")
    3119                      .dwattr DW$130, DW_AT_type(*DW$T$11)
    3120                      .dwattr DW$130, DW_AT_location[DW_OP_reg0]
    3121 00000584 7640'         LCR       #_SelectUart_D        ; |1090| 
         00000585 056E 
    3122                      ; call occurs [#_SelectUart_D] ; |1090| 
    3123 00000586 9AE4          MOVB      AL,#228               ; |1093| 
    3124 00000587 7640'         LCR       #_TransmitByte        ; |1093| 
         00000588 0474 
    3125                      ; call occurs [#_TransmitByte] ; |1093| 
    3126 00000589 9A09          MOVB      AL,#9                 ; |1095| 
TMS320C2000 COFF Assembler PC v4.1.3 Thu Aug 18 12:16:32 2016

Tools Copyright (c) 1996-2006 Texas Instruments Incorporated
spi.asm                                                              PAGE   67

    3127 0000058a 7640'         LCR       #_TransmitByte        ; |1095| 
         0000058b 0474 
    3128                      ; call occurs [#_TransmitByte] ; |1095| 
    3129 0000058c 7640'         LCR       #_DeselectUart_D      ; |1096| 
         0000058d 0576 
    3130                      ; call occurs [#_DeselectUart_D] ; |1096| 
    3131                      .dwpsn  "spi.c",1097,1
    3132 0000058e 0006          LRETR
    3133                      ; return occurs
    3134                      .dwattr DW$129, DW_AT_end_file("spi.c")
    3135                      .dwattr DW$129, DW_AT_end_line(0x449)
    3136                      .dwattr DW$129, DW_AT_end_column(0x01)
    3137                      .dwendtag DW$129
    3138              
    3139 0000058f               .sect   ".text"
    3140                      .global _WaitforUartTxComplete_D
    3141              
    3142              DW$131  .dwtag  DW_TAG_subprogram, DW_AT_name("WaitforUartTxComplete_D"), DW_AT_symbol_name("_WaitforUartTxCo
    3143                      .dwattr DW$131, DW_AT_low_pc(_WaitforUartTxComplete_D)
    3144                      .dwattr DW$131, DW_AT_high_pc(0x00)
    3145                      .dwattr DW$131, DW_AT_begin_file("spi.c")
    3146                      .dwattr DW$131, DW_AT_begin_line(0x44b)
    3147                      .dwattr DW$131, DW_AT_begin_column(0x06)
    3148                      .dwattr DW$131, DW_AT_frame_base[DW_OP_breg20 -2]
    3149                      .dwattr DW$131, DW_AT_skeletal(0x01)
    3150                      .dwpsn  "spi.c",1100,1
    3151              
    3152              ;***************************************************************
    3153              ;* FNAME: _WaitforUartTxComplete_D      FR SIZE:   0           *
    3154              ;*                                                             *
    3155              ;* FUNCTION ENVIRONMENT                                        *
    3156              ;*                                                             *
    3157              ;* FUNCTION PROPERTIES                                         *
    3158              ;*                            0 Parameter,  0 Auto,  0 SOE     *
    3159              ;***************************************************************
    3160              
    3161 0000058f       _WaitforUartTxComplete_D:
    3162 0000058f 761F!         MOVW      DP,#_timers+40
         00000590 0000 
    3163                      .dwpsn  "spi.c",1104,0
    3164 00000591 2828!         MOV       @_timers+40,#4        ; |1103| 
         00000592 0004 
    3165              L39:    
    3166              DW$L$_WaitforUartTxComplete_D$2$B:
    3167                      .dwpsn  "spi.c",1105,0
    3168 00000593 7640'         LCR       #_ReadDataFromUart_D  ; |1106| 
         00000594 05C6 
    3169                      ; call occurs [#_ReadDataFromUart_D] ; |1106| 
    3170 00000595 761F!         MOVW      DP,#_settings
         00000596 0000 
    3171 00000597 CCA9          AND       AL,AL,#0x4000         ; |1108| 
         00000598 4000 
    3172 00000599 2800!         MOV       @_settings,#1         ; |1107| 
         0000059a 0001 
    3173 0000059b ED05          BF        L40,NEQ               ; |1108| 
TMS320C2000 COFF Assembler PC v4.1.3 Thu Aug 18 12:16:32 2016

Tools Copyright (c) 1996-2006 Texas Instruments Incorporated
spi.asm                                                              PAGE   68

    3174                      ; branchcc occurs ; |1108| 
    3175 0000059c       DW$L$_WaitforUartTxComplete_D$2$E:
    3176 0000059c       DW$L$_WaitforUartTxComplete_D$3$B:
    3177 0000059c 761F!         MOVW      DP,#_timers+40
         0000059d 0000 
    3178 0000059e 9228!         MOV       AL,@_timers+40        ; |1108| 
    3179                      .dwpsn  "spi.c",1108,0
    3180 0000059f EDF4          BF        L39,NEQ               ; |1108| 
    3181                      ; branchcc occurs ; |1108| 
    3182              DW$L$_WaitforUartTxComplete_D$3$E:
    3183              L40:    
    3184                      .dwpsn  "spi.c",1109,1
    3185 000005a0 0006          LRETR
    3186                      ; return occurs
    3187              
    3188              DW$132  .dwtag  DW_TAG_loop
    3189                      .dwattr DW$132, DW_AT_name("D:\DEV\Amot\BearingWear\XTSW_V6_20\spi.asm:L39:1:1471518992")
    3190                      .dwattr DW$132, DW_AT_begin_file("spi.c")
    3191                      .dwattr DW$132, DW_AT_begin_line(0x450)
    3192                      .dwattr DW$132, DW_AT_end_line(0x454)
    3193              DW$133  .dwtag  DW_TAG_loop_range
    3194                      .dwattr DW$133, DW_AT_low_pc(DW$L$_WaitforUartTxComplete_D$2$B)
    3195                      .dwattr DW$133, DW_AT_high_pc(DW$L$_WaitforUartTxComplete_D$2$E)
    3196              DW$134  .dwtag  DW_TAG_loop_range
    3197                      .dwattr DW$134, DW_AT_low_pc(DW$L$_WaitforUartTxComplete_D$3$B)
    3198                      .dwattr DW$134, DW_AT_high_pc(DW$L$_WaitforUartTxComplete_D$3$E)
    3199                      .dwendtag DW$132
    3200              
    3201                      .dwattr DW$131, DW_AT_end_file("spi.c")
    3202                      .dwattr DW$131, DW_AT_end_line(0x455)
    3203                      .dwattr DW$131, DW_AT_end_column(0x01)
    3204                      .dwendtag DW$131
    3205              
    3206 000005a1               .sect   ".text"
    3207                      .global _WriteBytetoUart_D
    3208              
    3209              DW$135  .dwtag  DW_TAG_subprogram, DW_AT_name("WriteBytetoUart_D"), DW_AT_symbol_name("_WriteBytetoUart_D")
    3210                      .dwattr DW$135, DW_AT_low_pc(_WriteBytetoUart_D)
    3211                      .dwattr DW$135, DW_AT_high_pc(0x00)
    3212                      .dwattr DW$135, DW_AT_begin_file("spi.c")
    3213                      .dwattr DW$135, DW_AT_begin_line(0x458)
    3214                      .dwattr DW$135, DW_AT_begin_column(0x06)
    3215                      .dwattr DW$135, DW_AT_frame_base[DW_OP_breg20 -4]
    3216                      .dwattr DW$135, DW_AT_skeletal(0x01)
    3217                      .dwpsn  "spi.c",1113,1
    3218              
    3219              ;***************************************************************
    3220              ;* FNAME: _WriteBytetoUart_D            FR SIZE:   2           *
    3221              ;*                                                             *
    3222              ;* FUNCTION ENVIRONMENT                                        *
    3223              ;*                                                             *
    3224              ;* FUNCTION PROPERTIES                                         *
    3225              ;*                            0 Parameter,  0 Auto,  2 SOE     *
    3226              ;***************************************************************
    3227              
TMS320C2000 COFF Assembler PC v4.1.3 Thu Aug 18 12:16:32 2016

Tools Copyright (c) 1996-2006 Texas Instruments Incorporated
spi.asm                                                              PAGE   69

    3228              _WriteBytetoUart_D:
    3229              ;* AL    assigned to _databyte
    3230              DW$136  .dwtag  DW_TAG_formal_parameter, DW_AT_name("databyte"), DW_AT_symbol_name("_databyte")
    3231                      .dwattr DW$136, DW_AT_type(*DW$T$11)
    3232                      .dwattr DW$136, DW_AT_location[DW_OP_reg0]
    3233 000005a1 B2BD          MOVL      *SP++,XAR1
    3234 000005a2 761F!         MOVW      DP,#_timers+40
         000005a3 0000 
    3235 000005a4 59A9          MOVZ      AR1,AL                ; |1113| 
    3236                      .dwpsn  "spi.c",1117,0
    3237 000005a5 2828!         MOV       @_timers+40,#4        ; |1116| 
         000005a6 0004 
    3238              L41:    
    3239              DW$L$_WriteBytetoUart_D$2$B:
    3240                      .dwpsn  "spi.c",1118,0
    3241 000005a7 7640'         LCR       #_ReadDataFromUart_D  ; |1119| 
         000005a8 05C6 
    3242                      ; call occurs [#_ReadDataFromUart_D] ; |1119| 
    3243 000005a9 761F!         MOVW      DP,#_settings
         000005aa 0000 
    3244 000005ab CCA9          AND       AL,AL,#0x4000         ; |1121| 
         000005ac 4000 
    3245 000005ad 2800!         MOV       @_settings,#1         ; |1120| 
         000005ae 0001 
    3246 000005af ED05          BF        L42,NEQ               ; |1121| 
    3247                      ; branchcc occurs ; |1121| 
    3248 000005b0       DW$L$_WriteBytetoUart_D$2$E:
    3249 000005b0       DW$L$_WriteBytetoUart_D$3$B:
    3250 000005b0 761F!         MOVW      DP,#_timers+40
         000005b1 0000 
    3251 000005b2 9228!         MOV       AL,@_timers+40        ; |1121| 
    3252                      .dwpsn  "spi.c",1121,0
    3253 000005b3 EDF4          BF        L41,NEQ               ; |1121| 
    3254                      ; branchcc occurs ; |1121| 
    3255 000005b4       DW$L$_WriteBytetoUart_D$3$E:
    3256 000005b4       L42:    
    3257 000005b4 761F!         MOVW      DP,#_timers+40
         000005b5 0000 
    3258 000005b6 9228!         MOV       AL,@_timers+40        ; |1122| 
    3259 000005b7 ED03          BF        L43,NEQ               ; |1122| 
    3260                      ; branchcc occurs ; |1122| 
    3261 000005b8 7640'         LCR       #_WriteUartConfig_D   ; |1124| 
         000005b9 0584 
    3262                      ; call occurs [#_WriteUartConfig_D] ; |1124| 
    3263 000005ba       L43:    
    3264 000005ba 7640'         LCR       #_SelectUart_D        ; |1126| 
         000005bb 056E 
    3265                      ; call occurs [#_SelectUart_D] ; |1126| 
    3266 000005bc 9A80          MOVB      AL,#128               ; |1128| 
    3267 000005bd 7640'         LCR       #_TransmitByte        ; |1128| 
         000005be 0474 
    3268                      ; call occurs [#_TransmitByte] ; |1128| 
    3269 000005bf 92A1          MOV       AL,AR1                ; |1129| 
    3270 000005c0 7640'         LCR       #_TransmitByte        ; |1129| 
         000005c1 0474 
TMS320C2000 COFF Assembler PC v4.1.3 Thu Aug 18 12:16:32 2016

Tools Copyright (c) 1996-2006 Texas Instruments Incorporated
spi.asm                                                              PAGE   70

    3271                      ; call occurs [#_TransmitByte] ; |1129| 
    3272 000005c2 7640'         LCR       #_DeselectUart_D      ; |1130| 
         000005c3 0576 
    3273                      ; call occurs [#_DeselectUart_D] ; |1130| 
    3274 000005c4 8BBE          MOVL      XAR1,*--SP
    3275                      .dwpsn  "spi.c",1131,1
    3276 000005c5 0006          LRETR
    3277                      ; return occurs
    3278              
    3279              DW$137  .dwtag  DW_TAG_loop
    3280                      .dwattr DW$137, DW_AT_name("D:\DEV\Amot\BearingWear\XTSW_V6_20\spi.asm:L41:1:1471518992")
    3281                      .dwattr DW$137, DW_AT_begin_file("spi.c")
    3282                      .dwattr DW$137, DW_AT_begin_line(0x45d)
    3283                      .dwattr DW$137, DW_AT_end_line(0x461)
    3284              DW$138  .dwtag  DW_TAG_loop_range
    3285                      .dwattr DW$138, DW_AT_low_pc(DW$L$_WriteBytetoUart_D$2$B)
    3286                      .dwattr DW$138, DW_AT_high_pc(DW$L$_WriteBytetoUart_D$2$E)
    3287              DW$139  .dwtag  DW_TAG_loop_range
    3288                      .dwattr DW$139, DW_AT_low_pc(DW$L$_WriteBytetoUart_D$3$B)
    3289                      .dwattr DW$139, DW_AT_high_pc(DW$L$_WriteBytetoUart_D$3$E)
    3290                      .dwendtag DW$137
    3291              
    3292                      .dwattr DW$135, DW_AT_end_file("spi.c")
    3293                      .dwattr DW$135, DW_AT_end_line(0x46b)
    3294                      .dwattr DW$135, DW_AT_end_column(0x01)
    3295                      .dwendtag DW$135
    3296              
    3297 000005c6               .sect   ".text"
    3298                      .global _ReadDataFromUart_D
    3299              
    3300              DW$140  .dwtag  DW_TAG_subprogram, DW_AT_name("ReadDataFromUart_D"), DW_AT_symbol_name("_ReadDataFromUart_D")
    3301                      .dwattr DW$140, DW_AT_low_pc(_ReadDataFromUart_D)
    3302                      .dwattr DW$140, DW_AT_high_pc(0x00)
    3303                      .dwattr DW$140, DW_AT_begin_file("spi.c")
    3304                      .dwattr DW$140, DW_AT_begin_line(0x46e)
    3305                      .dwattr DW$140, DW_AT_begin_column(0x0e)
    3306                      .dwattr DW$140, DW_AT_frame_base[DW_OP_breg20 -2]
    3307                      .dwattr DW$140, DW_AT_skeletal(0x01)
    3308                      .dwpsn  "spi.c",1135,1
    3309              
    3310              ;***************************************************************
    3311              ;* FNAME: _ReadDataFromUart_D           FR SIZE:   0           *
    3312              ;*                                                             *
    3313              ;* FUNCTION ENVIRONMENT                                        *
    3314              ;*                                                             *
    3315              ;* FUNCTION PROPERTIES                                         *
    3316              ;*                            0 Parameter,  0 Auto,  0 SOE     *
    3317              ;***************************************************************
    3318              
    3319 000005c6       _ReadDataFromUart_D:
    3320 000005c6 7640'         LCR       #_SelectUart_D        ; |1140| 
         000005c7 056E 
    3321                      ; call occurs [#_SelectUart_D] ; |1140| 
    3322 000005c8 7640'         LCR       #_ReceiveByteUART     ; |1142| 
         000005c9 0541 
TMS320C2000 COFF Assembler PC v4.1.3 Thu Aug 18 12:16:32 2016

Tools Copyright (c) 1996-2006 Texas Instruments Incorporated
spi.asm                                                              PAGE   71

    3323                      ; call occurs [#_ReceiveByteUART] ; |1142| 
    3324 000005ca 93A9          MOV       AH,AL                 ; |1142| 
    3325 000005cb 7640'         LCR       #_ReceiveByteUART     ; |1143| 
         000005cc 0541 
    3326                      ; call occurs [#_ReceiveByteUART] ; |1143| 
    3327 000005cd 88A9          MOVZ      AR6,AL                ; |1143| 
    3328 000005ce 5603          MOV       ACC,AH << #8          ; |1144| 
         000005cf 08A8 
    3329 000005d0 72A6          ADD       AR6,AL                ; |1144| 
    3330 000005d1 7640'         LCR       #_DeselectUart_D      ; |1145| 
         000005d2 0576 
    3331                      ; call occurs [#_DeselectUart_D] ; |1145| 
    3332 000005d3 92A6          MOV       AL,AR6                ; |1146| 
    3333                      .dwpsn  "spi.c",1147,1
    3334 000005d4 0006          LRETR
    3335                      ; return occurs
    3336                      .dwattr DW$140, DW_AT_end_file("spi.c")
    3337                      .dwattr DW$140, DW_AT_end_line(0x47b)
    3338                      .dwattr DW$140, DW_AT_end_column(0x01)
    3339                      .dwendtag DW$140
    3340              
    3341              ;***************************************************************
    3342              ;* FAR STRINGS                                                 *
    3343              ;***************************************************************
    3344 00000000               .sect   ".econst"
    3345                      .align  2
    3346 00000000 0043  FSL1:   .string "Code - WriteClockData",13,10,0
         00000001 006F 
         00000002 0064 
         00000003 0065 
         00000004 0020 
         00000005 002D 
         00000006 0020 
         00000007 0057 
         00000008 0072 
         00000009 0069 
         0000000a 0074 
         0000000b 0065 
         0000000c 0043 
         0000000d 006C 
         0000000e 006F 
         0000000f 0063 
         00000010 006B 
         00000011 0044 
         00000012 0061 
         00000013 0074 
         00000014 0061 
         00000015 000D 
         00000016 000A 
         00000017 0000 
    3347                      .align  2
    3348 00000018 0043  FSL2:   .string "Code - WriteYrMnthData",13,10,0
         00000019 006F 
         0000001a 0064 
         0000001b 0065 
TMS320C2000 COFF Assembler PC v4.1.3 Thu Aug 18 12:16:32 2016

Tools Copyright (c) 1996-2006 Texas Instruments Incorporated
spi.asm                                                              PAGE   72

         0000001c 0020 
         0000001d 002D 
         0000001e 0020 
         0000001f 0057 
         00000020 0072 
         00000021 0069 
         00000022 0074 
         00000023 0065 
         00000024 0059 
         00000025 0072 
         00000026 004D 
         00000027 006E 
         00000028 0074 
         00000029 0068 
         0000002a 0044 
         0000002b 0061 
         0000002c 0074 
         0000002d 0061 
         0000002e 000D 
         0000002f 000A 
         00000030 0000 
    3349                      .align  2
    3350 00000032 0043  FSL3:   .string "Code - WriteDateHrsData",13,10,0
         00000033 006F 
         00000034 0064 
         00000035 0065 
         00000036 0020 
         00000037 002D 
         00000038 0020 
         00000039 0057 
         0000003a 0072 
         0000003b 0069 
         0000003c 0074 
         0000003d 0065 
         0000003e 0044 
         0000003f 0061 
         00000040 0074 
         00000041 0065 
         00000042 0048 
         00000043 0072 
         00000044 0073 
         00000045 0044 
         00000046 0061 
         00000047 0074 
         00000048 0061 
         00000049 000D 
         0000004a 000A 
         0000004b 0000 
    3351                      .align  2
    3352 0000004c 0043  FSL4:   .string "Code - WriteMinsSecsData",13,10,0
         0000004d 006F 
         0000004e 0064 
         0000004f 0065 
         00000050 0020 
         00000051 002D 
TMS320C2000 COFF Assembler PC v4.1.3 Thu Aug 18 12:16:32 2016

Tools Copyright (c) 1996-2006 Texas Instruments Incorporated
spi.asm                                                              PAGE   73

         00000052 0020 
         00000053 0057 
         00000054 0072 
         00000055 0069 
         00000056 0074 
         00000057 0065 
         00000058 004D 
         00000059 0069 
         0000005a 006E 
         0000005b 0073 
         0000005c 0053 
         0000005d 0065 
         0000005e 0063 
         0000005f 0073 
         00000060 0044 
         00000061 0061 
         00000062 0074 
         00000063 0061 
         00000064 000D 
         00000065 000A 
         00000066 0000 
    3353              ;***************************************************************
    3354              ;* UNDEFINED EXTERNAL REFERENCES                               *
    3355              ;***************************************************************
    3356                      .global _DebugStringOut
    3357                      .global _NOPDelay
    3358                      .global _DateTimetoInt
    3359                      .global _SaveTimetoFram
    3360                      .global _BuildTimeStamp
    3361                      .global _ClearAlarmEvent
    3362                      .global _settings
    3363                      .global _safe1
    3364                      .global _safe2
    3365                      .global _xtswplusanacal
    3366                      .global _clocktime
    3367                      .global _timers
    3368                      .global _config
    3369                      .global _gpb
    3370                      .global _gpf
    3371                      .global _receiveC
    3372                      .global _sdsettings
    3373                      .global _alarms
    3374                      .global _firmware
    3375              
    3376              ;***************************************************************
    3377              ;* TYPE INFORMATION                                            *
    3378              ;***************************************************************
    3379              
    3380              DW$T$80 .dwtag  DW_TAG_subroutine_type
    3381                      .dwattr DW$T$80, DW_AT_language(DW_LANG_C)
    3382              DW$141  .dwtag  DW_TAG_formal_parameter, DW_AT_type(*DW$T$79)
    3383                      .dwendtag DW$T$80
    3384              
    3385              
    3386              DW$T$82 .dwtag  DW_TAG_subroutine_type
TMS320C2000 COFF Assembler PC v4.1.3 Thu Aug 18 12:16:32 2016

Tools Copyright (c) 1996-2006 Texas Instruments Incorporated
spi.asm                                                              PAGE   74

    3387                      .dwattr DW$T$82, DW_AT_language(DW_LANG_C)
    3388              DW$142  .dwtag  DW_TAG_formal_parameter, DW_AT_type(*DW$T$11)
    3389                      .dwendtag DW$T$82
    3390              
    3391              
    3392              DW$T$84 .dwtag  DW_TAG_subroutine_type
    3393                      .dwattr DW$T$84, DW_AT_language(DW_LANG_C)
    3394              
    3395              DW$T$87 .dwtag  DW_TAG_subroutine_type
    3396                      .dwattr DW$T$87, DW_AT_language(DW_LANG_C)
    3397              DW$143  .dwtag  DW_TAG_formal_parameter, DW_AT_type(*DW$T$11)
    3398              DW$144  .dwtag  DW_TAG_formal_parameter, DW_AT_type(*DW$T$86)
    3399              DW$145  .dwtag  DW_TAG_formal_parameter, DW_AT_type(*DW$T$11)
    3400                      .dwendtag DW$T$87
    3401              
    3402              
    3403              DW$T$89 .dwtag  DW_TAG_subroutine_type
    3404                      .dwattr DW$T$89, DW_AT_language(DW_LANG_C)
    3405              DW$146  .dwtag  DW_TAG_formal_parameter, DW_AT_type(*DW$T$11)
    3406              DW$147  .dwtag  DW_TAG_formal_parameter, DW_AT_type(*DW$T$11)
    3407              DW$148  .dwtag  DW_TAG_formal_parameter, DW_AT_type(*DW$T$86)
    3408              DW$149  .dwtag  DW_TAG_formal_parameter, DW_AT_type(*DW$T$11)
    3409                      .dwendtag DW$T$89
    3410              
    3411              
    3412              DW$T$91 .dwtag  DW_TAG_subroutine_type
    3413                      .dwattr DW$T$91, DW_AT_language(DW_LANG_C)
    3414              DW$150  .dwtag  DW_TAG_formal_parameter, DW_AT_type(*DW$T$11)
    3415              DW$151  .dwtag  DW_TAG_formal_parameter, DW_AT_type(*DW$T$11)
    3416                      .dwendtag DW$T$91
    3417              
    3418              
    3419              DW$T$94 .dwtag  DW_TAG_subroutine_type, DW_AT_type(*DW$T$10)
    3420                      .dwattr DW$T$94, DW_AT_language(DW_LANG_C)
    3421              DW$T$11 .dwtag  DW_TAG_base_type, DW_AT_name("unsigned int")
    3422                      .dwattr DW$T$11, DW_AT_encoding(DW_ATE_unsigned)
    3423                      .dwattr DW$T$11, DW_AT_byte_size(0x01)
    3424              DW$T$86 .dwtag  DW_TAG_pointer_type, DW_AT_type(*DW$T$11)
    3425                      .dwattr DW$T$86, DW_AT_address_class(0x16)
    3426              
    3427              DW$T$95 .dwtag  DW_TAG_subroutine_type, DW_AT_type(*DW$T$11)
    3428                      .dwattr DW$T$95, DW_AT_language(DW_LANG_C)
    3429              DW$T$13 .dwtag  DW_TAG_base_type, DW_AT_name("unsigned long")
    3430                      .dwattr DW$T$13, DW_AT_encoding(DW_ATE_unsigned)
    3431                      .dwattr DW$T$13, DW_AT_byte_size(0x02)
    3432              
    3433              DW$T$100        .dwtag  DW_TAG_subroutine_type, DW_AT_type(*DW$T$13)
    3434                      .dwattr DW$T$100, DW_AT_language(DW_LANG_C)
    3435              DW$T$103        .dwtag  DW_TAG_typedef, DW_AT_name("settingsstruct"), DW_AT_type(*DW$T$20)
    3436                      .dwattr DW$T$103, DW_AT_language(DW_LANG_C)
    3437              DW$T$104        .dwtag  DW_TAG_typedef, DW_AT_name("safestruct1struct"), DW_AT_type(*DW$T$24)
    3438                      .dwattr DW$T$104, DW_AT_language(DW_LANG_C)
    3439              DW$T$106        .dwtag  DW_TAG_typedef, DW_AT_name("safestruct2struct"), DW_AT_type(*DW$T$37)
    3440                      .dwattr DW$T$106, DW_AT_language(DW_LANG_C)
    3441              DW$T$108        .dwtag  DW_TAG_typedef, DW_AT_name("xtswplusanastruct"), DW_AT_type(*DW$T$38)
TMS320C2000 COFF Assembler PC v4.1.3 Thu Aug 18 12:16:32 2016

Tools Copyright (c) 1996-2006 Texas Instruments Incorporated
spi.asm                                                              PAGE   75

    3442                      .dwattr DW$T$108, DW_AT_language(DW_LANG_C)
    3443              DW$T$110        .dwtag  DW_TAG_typedef, DW_AT_name("clockstruct"), DW_AT_type(*DW$T$39)
    3444                      .dwattr DW$T$110, DW_AT_language(DW_LANG_C)
    3445              DW$152  .dwtag  DW_TAG_far_type
    3446                      .dwattr DW$152, DW_AT_type(*DW$T$111)
    3447              DW$T$112        .dwtag  DW_TAG_volatile_type
    3448                      .dwattr DW$T$112, DW_AT_type(*DW$152)
    3449              DW$T$114        .dwtag  DW_TAG_typedef, DW_AT_name("configstruct"), DW_AT_type(*DW$T$47)
    3450                      .dwattr DW$T$114, DW_AT_language(DW_LANG_C)
    3451              DW$153  .dwtag  DW_TAG_far_type
    3452                      .dwattr DW$153, DW_AT_type(*DW$T$115)
    3453              DW$T$116        .dwtag  DW_TAG_volatile_type
    3454                      .dwattr DW$T$116, DW_AT_type(*DW$153)
    3455              DW$154  .dwtag  DW_TAG_far_type
    3456                      .dwattr DW$154, DW_AT_type(*DW$T$119)
    3457              DW$T$120        .dwtag  DW_TAG_volatile_type
    3458                      .dwattr DW$T$120, DW_AT_type(*DW$154)
    3459              DW$T$79 .dwtag  DW_TAG_pointer_type, DW_AT_type(*DW$T$55)
    3460                      .dwattr DW$T$79, DW_AT_address_class(0x16)
    3461              DW$T$123        .dwtag  DW_TAG_typedef, DW_AT_name("uartreadC"), DW_AT_type(*DW$T$56)
    3462                      .dwattr DW$T$123, DW_AT_language(DW_LANG_C)
    3463              DW$T$124        .dwtag  DW_TAG_typedef, DW_AT_name("sdsettingsstruct"), DW_AT_type(*DW$T$58)
    3464                      .dwattr DW$T$124, DW_AT_language(DW_LANG_C)
    3465              DW$T$126        .dwtag  DW_TAG_typedef, DW_AT_name("alarmsstruct"), DW_AT_type(*DW$T$59)
    3466                      .dwattr DW$T$126, DW_AT_language(DW_LANG_C)
    3467              DW$T$128        .dwtag  DW_TAG_typedef, DW_AT_name("firmwarestruct"), DW_AT_type(*DW$T$60)
    3468                      .dwattr DW$T$128, DW_AT_language(DW_LANG_C)
    3469              DW$155  .dwtag  DW_TAG_far_type
    3470                      .dwattr DW$155, DW_AT_type(*DW$T$76)
    3471              DW$T$130        .dwtag  DW_TAG_volatile_type
    3472                      .dwattr DW$T$130, DW_AT_type(*DW$155)
    3473              DW$T$132        .dwtag  DW_TAG_typedef, DW_AT_name("flashaddrstruct"), DW_AT_type(*DW$T$77)
    3474                      .dwattr DW$T$132, DW_AT_language(DW_LANG_C)
    3475              DW$T$133        .dwtag  DW_TAG_typedef, DW_AT_name("flashflags"), DW_AT_type(*DW$T$78)
    3476                      .dwattr DW$T$133, DW_AT_language(DW_LANG_C)
    3477              DW$T$10 .dwtag  DW_TAG_base_type, DW_AT_name("int")
    3478                      .dwattr DW$T$10, DW_AT_encoding(DW_ATE_signed)
    3479                      .dwattr DW$T$10, DW_AT_byte_size(0x01)
    3480              
    3481              DW$T$20 .dwtag  DW_TAG_structure_type
    3482                      .dwattr DW$T$20, DW_AT_name("tag_settingsstruct")
    3483                      .dwattr DW$T$20, DW_AT_byte_size(0x24)
    3484              DW$156  .dwtag  DW_TAG_member, DW_AT_type(*DW$T$11)
    3485                      .dwattr DW$156, DW_AT_name("watchdog"), DW_AT_symbol_name("_watchdog")
    3486                      .dwattr DW$156, DW_AT_data_member_location[DW_OP_plus_uconst 0x0]
    3487                      .dwattr DW$156, DW_AT_accessibility(DW_ACCESS_public)
    3488              DW$157  .dwtag  DW_TAG_member, DW_AT_type(*DW$T$11)
    3489                      .dwattr DW$157, DW_AT_name("ledflashflag"), DW_AT_symbol_name("_ledflashflag")
    3490                      .dwattr DW$157, DW_AT_data_member_location[DW_OP_plus_uconst 0x1]
    3491                      .dwattr DW$157, DW_AT_accessibility(DW_ACCESS_public)
    3492              DW$158  .dwtag  DW_TAG_member, DW_AT_type(*DW$T$11)
    3493                      .dwattr DW$158, DW_AT_name("updatesafe"), DW_AT_symbol_name("_updatesafe")
    3494                      .dwattr DW$158, DW_AT_data_member_location[DW_OP_plus_uconst 0x2]
    3495                      .dwattr DW$158, DW_AT_accessibility(DW_ACCESS_public)
    3496              DW$159  .dwtag  DW_TAG_member, DW_AT_type(*DW$T$11)
TMS320C2000 COFF Assembler PC v4.1.3 Thu Aug 18 12:16:32 2016

Tools Copyright (c) 1996-2006 Texas Instruments Incorporated
spi.asm                                                              PAGE   76

    3497                      .dwattr DW$159, DW_AT_name("tableconfigtype"), DW_AT_symbol_name("_tableconfigtype")
    3498                      .dwattr DW$159, DW_AT_data_member_location[DW_OP_plus_uconst 0x3]
    3499                      .dwattr DW$159, DW_AT_accessibility(DW_ACCESS_public)
    3500              DW$160  .dwtag  DW_TAG_member, DW_AT_type(*DW$T$11)
    3501                      .dwattr DW$160, DW_AT_name("caltableconfigtype"), DW_AT_symbol_name("_caltableconfigtype")
    3502                      .dwattr DW$160, DW_AT_data_member_location[DW_OP_plus_uconst 0x4]
    3503                      .dwattr DW$160, DW_AT_accessibility(DW_ACCESS_public)
    3504              DW$161  .dwtag  DW_TAG_member, DW_AT_type(*DW$T$11)
    3505                      .dwattr DW$161, DW_AT_name("eventmsgid"), DW_AT_symbol_name("_eventmsgid")
    3506                      .dwattr DW$161, DW_AT_data_member_location[DW_OP_plus_uconst 0x5]
    3507                      .dwattr DW$161, DW_AT_accessibility(DW_ACCESS_public)
    3508              DW$162  .dwtag  DW_TAG_member, DW_AT_type(*DW$T$11)
    3509                      .dwattr DW$162, DW_AT_name("configoperationcomplete"), DW_AT_symbol_name("_configoperationcomplete")
    3510                      .dwattr DW$162, DW_AT_data_member_location[DW_OP_plus_uconst 0x6]
    3511                      .dwattr DW$162, DW_AT_accessibility(DW_ACCESS_public)
    3512              DW$163  .dwtag  DW_TAG_member, DW_AT_type(*DW$T$11)
    3513                      .dwattr DW$163, DW_AT_name("sdcarderr"), DW_AT_symbol_name("_sdcarderr")
    3514                      .dwattr DW$163, DW_AT_data_member_location[DW_OP_plus_uconst 0x7]
    3515                      .dwattr DW$163, DW_AT_accessibility(DW_ACCESS_public)
    3516              DW$164  .dwtag  DW_TAG_member, DW_AT_type(*DW$T$11)
    3517                      .dwattr DW$164, DW_AT_name("sderase"), DW_AT_symbol_name("_sderase")
    3518                      .dwattr DW$164, DW_AT_data_member_location[DW_OP_plus_uconst 0x8]
    3519                      .dwattr DW$164, DW_AT_accessibility(DW_ACCESS_public)
    3520              DW$165  .dwtag  DW_TAG_member, DW_AT_type(*DW$T$11)
    3521                      .dwattr DW$165, DW_AT_name("sdreinit"), DW_AT_symbol_name("_sdreinit")
    3522                      .dwattr DW$165, DW_AT_data_member_location[DW_OP_plus_uconst 0x9]
    3523                      .dwattr DW$165, DW_AT_accessibility(DW_ACCESS_public)
    3524              DW$166  .dwtag  DW_TAG_member, DW_AT_type(*DW$T$11)
    3525                      .dwattr DW$166, DW_AT_name("sdcardupdate"), DW_AT_symbol_name("_sdcardupdate")
    3526                      .dwattr DW$166, DW_AT_data_member_location[DW_OP_plus_uconst 0xa]
    3527                      .dwattr DW$166, DW_AT_accessibility(DW_ACCESS_public)
    3528              DW$167  .dwtag  DW_TAG_member, DW_AT_type(*DW$T$11)
    3529                      .dwattr DW$167, DW_AT_name("cardreadflag"), DW_AT_symbol_name("_cardreadflag")
    3530                      .dwattr DW$167, DW_AT_data_member_location[DW_OP_plus_uconst 0xb]
    3531                      .dwattr DW$167, DW_AT_accessibility(DW_ACCESS_public)
    3532              DW$168  .dwtag  DW_TAG_member, DW_AT_type(*DW$T$11)
    3533                      .dwattr DW$168, DW_AT_name("ignore"), DW_AT_symbol_name("_ignore")
    3534                      .dwattr DW$168, DW_AT_data_member_location[DW_OP_plus_uconst 0xc]
    3535                      .dwattr DW$168, DW_AT_accessibility(DW_ACCESS_public)
    3536              DW$169  .dwtag  DW_TAG_member, DW_AT_type(*DW$T$11)
    3537                      .dwattr DW$169, DW_AT_name("dcmode"), DW_AT_symbol_name("_dcmode")
    3538                      .dwattr DW$169, DW_AT_data_member_location[DW_OP_plus_uconst 0xd]
    3539                      .dwattr DW$169, DW_AT_accessibility(DW_ACCESS_public)
    3540              DW$170  .dwtag  DW_TAG_member, DW_AT_type(*DW$T$11)
    3541                      .dwattr DW$170, DW_AT_name("spiinuse"), DW_AT_symbol_name("_spiinuse")
    3542                      .dwattr DW$170, DW_AT_data_member_location[DW_OP_plus_uconst 0xe]
    3543                      .dwattr DW$170, DW_AT_accessibility(DW_ACCESS_public)
    3544              DW$171  .dwtag  DW_TAG_member, DW_AT_type(*DW$T$11)
    3545                      .dwattr DW$171, DW_AT_name("dcpeakhold"), DW_AT_symbol_name("_dcpeakhold")
    3546                      .dwattr DW$171, DW_AT_data_member_location[DW_OP_plus_uconst 0xf]
    3547                      .dwattr DW$171, DW_AT_accessibility(DW_ACCESS_public)
    3548              DW$172  .dwtag  DW_TAG_member, DW_AT_type(*DW$T$11)
    3549                      .dwattr DW$172, DW_AT_name("dcpause"), DW_AT_symbol_name("_dcpause")
    3550                      .dwattr DW$172, DW_AT_data_member_location[DW_OP_plus_uconst 0x10]
    3551                      .dwattr DW$172, DW_AT_accessibility(DW_ACCESS_public)
TMS320C2000 COFF Assembler PC v4.1.3 Thu Aug 18 12:16:32 2016

Tools Copyright (c) 1996-2006 Texas Instruments Incorporated
spi.asm                                                              PAGE   77

    3552              DW$173  .dwtag  DW_TAG_member, DW_AT_type(*DW$T$11)
    3553                      .dwattr DW$173, DW_AT_name("mastermode"), DW_AT_symbol_name("_mastermode")
    3554                      .dwattr DW$173, DW_AT_data_member_location[DW_OP_plus_uconst 0x11]
    3555                      .dwattr DW$173, DW_AT_accessibility(DW_ACCESS_public)
    3556              DW$174  .dwtag  DW_TAG_member, DW_AT_type(*DW$T$11)
    3557                      .dwattr DW$174, DW_AT_name("updatescaling"), DW_AT_symbol_name("_updatescaling")
    3558                      .dwattr DW$174, DW_AT_data_member_location[DW_OP_plus_uconst 0x12]
    3559                      .dwattr DW$174, DW_AT_accessibility(DW_ACCESS_public)
    3560              DW$175  .dwtag  DW_TAG_member, DW_AT_type(*DW$T$11)
    3561                      .dwattr DW$175, DW_AT_name("forwardasternflag"), DW_AT_symbol_name("_forwardasternflag")
    3562                      .dwattr DW$175, DW_AT_data_member_location[DW_OP_plus_uconst 0x13]
    3563                      .dwattr DW$175, DW_AT_accessibility(DW_ACCESS_public)
    3564              DW$176  .dwtag  DW_TAG_member, DW_AT_type(*DW$T$11)
    3565                      .dwattr DW$176, DW_AT_name("initprogress"), DW_AT_symbol_name("_initprogress")
    3566                      .dwattr DW$176, DW_AT_data_member_location[DW_OP_plus_uconst 0x14]
    3567                      .dwattr DW$176, DW_AT_accessibility(DW_ACCESS_public)
    3568              DW$177  .dwtag  DW_TAG_member, DW_AT_type(*DW$T$11)
    3569                      .dwattr DW$177, DW_AT_name("dircountdown"), DW_AT_symbol_name("_dircountdown")
    3570                      .dwattr DW$177, DW_AT_data_member_location[DW_OP_plus_uconst 0x15]
    3571                      .dwattr DW$177, DW_AT_accessibility(DW_ACCESS_public)
    3572              DW$178  .dwtag  DW_TAG_member, DW_AT_type(*DW$T$11)
    3573                      .dwattr DW$178, DW_AT_name("slowdowncounter"), DW_AT_symbol_name("_slowdowncounter")
    3574                      .dwattr DW$178, DW_AT_data_member_location[DW_OP_plus_uconst 0x16]
    3575                      .dwattr DW$178, DW_AT_accessibility(DW_ACCESS_public)
    3576              DW$179  .dwtag  DW_TAG_member, DW_AT_type(*DW$T$11)
    3577                      .dwattr DW$179, DW_AT_name("slowdowncondition"), DW_AT_symbol_name("_slowdowncondition")
    3578                      .dwattr DW$179, DW_AT_data_member_location[DW_OP_plus_uconst 0x17]
    3579                      .dwattr DW$179, DW_AT_accessibility(DW_ACCESS_public)
    3580              DW$180  .dwtag  DW_TAG_member, DW_AT_type(*DW$T$11)
    3581                      .dwattr DW$180, DW_AT_name("slowdownlevel"), DW_AT_symbol_name("_slowdownlevel")
    3582                      .dwattr DW$180, DW_AT_data_member_location[DW_OP_plus_uconst 0x18]
    3583                      .dwattr DW$180, DW_AT_accessibility(DW_ACCESS_public)
    3584              DW$181  .dwtag  DW_TAG_member, DW_AT_type(*DW$T$11)
    3585                      .dwattr DW$181, DW_AT_name("alarmlevel"), DW_AT_symbol_name("_alarmlevel")
    3586                      .dwattr DW$181, DW_AT_data_member_location[DW_OP_plus_uconst 0x19]
    3587                      .dwattr DW$181, DW_AT_accessibility(DW_ACCESS_public)
    3588              DW$182  .dwtag  DW_TAG_member, DW_AT_type(*DW$T$11)
    3589                      .dwattr DW$182, DW_AT_name("slowdowndevlevel"), DW_AT_symbol_name("_slowdowndevlevel")
    3590                      .dwattr DW$182, DW_AT_data_member_location[DW_OP_plus_uconst 0x1a]
    3591                      .dwattr DW$182, DW_AT_accessibility(DW_ACCESS_public)
    3592              DW$183  .dwtag  DW_TAG_member, DW_AT_type(*DW$T$11)
    3593                      .dwattr DW$183, DW_AT_name("alarmdevlevel"), DW_AT_symbol_name("_alarmdevlevel")
    3594                      .dwattr DW$183, DW_AT_data_member_location[DW_OP_plus_uconst 0x1b]
    3595                      .dwattr DW$183, DW_AT_accessibility(DW_ACCESS_public)
    3596              DW$184  .dwtag  DW_TAG_member, DW_AT_type(*DW$T$11)
    3597                      .dwattr DW$184, DW_AT_name("cylinderalarmlevel"), DW_AT_symbol_name("_cylinderalarmlevel")
    3598                      .dwattr DW$184, DW_AT_data_member_location[DW_OP_plus_uconst 0x1c]
    3599                      .dwattr DW$184, DW_AT_accessibility(DW_ACCESS_public)
    3600              DW$185  .dwtag  DW_TAG_member, DW_AT_type(*DW$T$11)
    3601                      .dwattr DW$185, DW_AT_name("temperaturealarm"), DW_AT_symbol_name("_temperaturealarm")
    3602                      .dwattr DW$185, DW_AT_data_member_location[DW_OP_plus_uconst 0x1d]
    3603                      .dwattr DW$185, DW_AT_accessibility(DW_ACCESS_public)
    3604              DW$186  .dwtag  DW_TAG_member, DW_AT_type(*DW$T$11)
    3605                      .dwattr DW$186, DW_AT_name("temperatureslowdown"), DW_AT_symbol_name("_temperatureslowdown")
    3606                      .dwattr DW$186, DW_AT_data_member_location[DW_OP_plus_uconst 0x1e]
TMS320C2000 COFF Assembler PC v4.1.3 Thu Aug 18 12:16:32 2016

Tools Copyright (c) 1996-2006 Texas Instruments Incorporated
spi.asm                                                              PAGE   78

    3607                      .dwattr DW$186, DW_AT_accessibility(DW_ACCESS_public)
    3608              DW$187  .dwtag  DW_TAG_member, DW_AT_type(*DW$T$19)
    3609                      .dwattr DW$187, DW_AT_name("anadebug"), DW_AT_symbol_name("_anadebug")
    3610                      .dwattr DW$187, DW_AT_data_member_location[DW_OP_plus_uconst 0x1f]
    3611                      .dwattr DW$187, DW_AT_accessibility(DW_ACCESS_public)
    3612              DW$188  .dwtag  DW_TAG_member, DW_AT_type(*DW$T$11)
    3613                      .dwattr DW$188, DW_AT_name("serialdebug"), DW_AT_symbol_name("_serialdebug")
    3614                      .dwattr DW$188, DW_AT_data_member_location[DW_OP_plus_uconst 0x21]
    3615                      .dwattr DW$188, DW_AT_accessibility(DW_ACCESS_public)
    3616              DW$189  .dwtag  DW_TAG_member, DW_AT_type(*DW$T$11)
    3617                      .dwattr DW$189, DW_AT_name("timerrunning"), DW_AT_symbol_name("_timerrunning")
    3618                      .dwattr DW$189, DW_AT_data_member_location[DW_OP_plus_uconst 0x22]
    3619                      .dwattr DW$189, DW_AT_accessibility(DW_ACCESS_public)
    3620              DW$190  .dwtag  DW_TAG_member, DW_AT_type(*DW$T$11)
    3621                      .dwattr DW$190, DW_AT_name("rpm"), DW_AT_symbol_name("_rpm")
    3622                      .dwattr DW$190, DW_AT_data_member_location[DW_OP_plus_uconst 0x23]
    3623                      .dwattr DW$190, DW_AT_accessibility(DW_ACCESS_public)
    3624                      .dwendtag DW$T$20
    3625              
    3626              
    3627              DW$T$24 .dwtag  DW_TAG_structure_type
    3628                      .dwattr DW$T$24, DW_AT_name("tag_safestruct1struct")
    3629                      .dwattr DW$T$24, DW_AT_byte_size(0x1f)
    3630              DW$191  .dwtag  DW_TAG_member, DW_AT_type(*DW$T$22)
    3631                      .dwattr DW$191, DW_AT_name("inputs"), DW_AT_symbol_name("_inputs")
    3632                      .dwattr DW$191, DW_AT_data_member_location[DW_OP_plus_uconst 0x0]
    3633                      .dwattr DW$191, DW_AT_accessibility(DW_ACCESS_public)
    3634              DW$192  .dwtag  DW_TAG_member, DW_AT_type(*DW$T$23)
    3635                      .dwattr DW$192, DW_AT_name("watchdog"), DW_AT_symbol_name("_watchdog")
    3636                      .dwattr DW$192, DW_AT_data_member_location[DW_OP_plus_uconst 0x1e]
    3637                      .dwattr DW$192, DW_AT_accessibility(DW_ACCESS_public)
    3638                      .dwendtag DW$T$24
    3639              
    3640              
    3641              DW$T$37 .dwtag  DW_TAG_structure_type
    3642                      .dwattr DW$T$37, DW_AT_name("tag_safestruct2struct")
    3643                      .dwattr DW$T$37, DW_AT_byte_size(0x1e)
    3644              DW$193  .dwtag  DW_TAG_member, DW_AT_type(*DW$T$26)
    3645                      .dwattr DW$193, DW_AT_name("inputs"), DW_AT_symbol_name("_inputs")
    3646                      .dwattr DW$193, DW_AT_data_member_location[DW_OP_plus_uconst 0x0]
    3647                      .dwattr DW$193, DW_AT_accessibility(DW_ACCESS_public)
    3648              DW$194  .dwtag  DW_TAG_member, DW_AT_type(*DW$T$27)
    3649                      .dwattr DW$194, DW_AT_name("log"), DW_AT_symbol_name("_log")
    3650                      .dwattr DW$194, DW_AT_data_member_location[DW_OP_plus_uconst 0xb]
    3651                      .dwattr DW$194, DW_AT_accessibility(DW_ACCESS_public)
    3652              DW$195  .dwtag  DW_TAG_member, DW_AT_type(*DW$T$28)
    3653                      .dwattr DW$195, DW_AT_name("modbus"), DW_AT_symbol_name("_modbus")
    3654                      .dwattr DW$195, DW_AT_data_member_location[DW_OP_plus_uconst 0xe]
    3655                      .dwattr DW$195, DW_AT_accessibility(DW_ACCESS_public)
    3656              DW$196  .dwtag  DW_TAG_member, DW_AT_type(*DW$T$29)
    3657                      .dwattr DW$196, DW_AT_name("filter"), DW_AT_symbol_name("_filter")
    3658                      .dwattr DW$196, DW_AT_data_member_location[DW_OP_plus_uconst 0xf]
    3659                      .dwattr DW$196, DW_AT_accessibility(DW_ACCESS_public)
    3660              DW$197  .dwtag  DW_TAG_member, DW_AT_type(*DW$T$30)
    3661                      .dwattr DW$197, DW_AT_name("alarms"), DW_AT_symbol_name("_alarms")
TMS320C2000 COFF Assembler PC v4.1.3 Thu Aug 18 12:16:32 2016

Tools Copyright (c) 1996-2006 Texas Instruments Incorporated
spi.asm                                                              PAGE   79

    3662                      .dwattr DW$197, DW_AT_data_member_location[DW_OP_plus_uconst 0x11]
    3663                      .dwattr DW$197, DW_AT_accessibility(DW_ACCESS_public)
    3664              DW$198  .dwtag  DW_TAG_member, DW_AT_type(*DW$T$31)
    3665                      .dwattr DW$198, DW_AT_name("modbusbaud"), DW_AT_symbol_name("_modbusbaud")
    3666                      .dwattr DW$198, DW_AT_data_member_location[DW_OP_plus_uconst 0x14]
    3667                      .dwattr DW$198, DW_AT_accessibility(DW_ACCESS_public)
    3668              DW$199  .dwtag  DW_TAG_member, DW_AT_type(*DW$T$32)
    3669                      .dwattr DW$199, DW_AT_name("modbus2"), DW_AT_symbol_name("_modbus2")
    3670                      .dwattr DW$199, DW_AT_data_member_location[DW_OP_plus_uconst 0x15]
    3671                      .dwattr DW$199, DW_AT_accessibility(DW_ACCESS_public)
    3672              DW$200  .dwtag  DW_TAG_member, DW_AT_type(*DW$T$33)
    3673                      .dwattr DW$200, DW_AT_name("sync"), DW_AT_symbol_name("_sync")
    3674                      .dwattr DW$200, DW_AT_data_member_location[DW_OP_plus_uconst 0x17]
    3675                      .dwattr DW$200, DW_AT_accessibility(DW_ACCESS_public)
    3676              DW$201  .dwtag  DW_TAG_member, DW_AT_type(*DW$T$34)
    3677                      .dwattr DW$201, DW_AT_name("alarmenable"), DW_AT_symbol_name("_alarmenable")
    3678                      .dwattr DW$201, DW_AT_data_member_location[DW_OP_plus_uconst 0x1b]
    3679                      .dwattr DW$201, DW_AT_accessibility(DW_ACCESS_public)
    3680              DW$202  .dwtag  DW_TAG_member, DW_AT_type(*DW$T$35)
    3681                      .dwattr DW$202, DW_AT_name("trendmax"), DW_AT_symbol_name("_trendmax")
    3682                      .dwattr DW$202, DW_AT_data_member_location[DW_OP_plus_uconst 0x1c]
    3683                      .dwattr DW$202, DW_AT_accessibility(DW_ACCESS_public)
    3684              DW$203  .dwtag  DW_TAG_member, DW_AT_type(*DW$T$36)
    3685                      .dwattr DW$203, DW_AT_name("tempcomp"), DW_AT_symbol_name("_tempcomp")
    3686                      .dwattr DW$203, DW_AT_data_member_location[DW_OP_plus_uconst 0x1d]
    3687                      .dwattr DW$203, DW_AT_accessibility(DW_ACCESS_public)
    3688                      .dwendtag DW$T$37
    3689              
    3690              
    3691              DW$T$38 .dwtag  DW_TAG_structure_type
    3692                      .dwattr DW$T$38, DW_AT_name("tag_xtswplusanastruct")
    3693                      .dwattr DW$T$38, DW_AT_byte_size(0x0e)
    3694              DW$204  .dwtag  DW_TAG_member, DW_AT_type(*DW$T$21)
    3695                      .dwattr DW$204, DW_AT_name("analog18ma"), DW_AT_symbol_name("_analog18ma")
    3696                      .dwattr DW$204, DW_AT_data_member_location[DW_OP_plus_uconst 0x0]
    3697                      .dwattr DW$204, DW_AT_accessibility(DW_ACCESS_public)
    3698                      .dwendtag DW$T$38
    3699              
    3700              
    3701              DW$T$39 .dwtag  DW_TAG_structure_type
    3702                      .dwattr DW$T$39, DW_AT_name("tag_clockstruct")
    3703                      .dwattr DW$T$39, DW_AT_byte_size(0x0e)
    3704              DW$205  .dwtag  DW_TAG_member, DW_AT_type(*DW$T$11)
    3705                      .dwattr DW$205, DW_AT_name("WPstate"), DW_AT_symbol_name("_WPstate")
    3706                      .dwattr DW$205, DW_AT_data_member_location[DW_OP_plus_uconst 0x0]
    3707                      .dwattr DW$205, DW_AT_accessibility(DW_ACCESS_public)
    3708              DW$206  .dwtag  DW_TAG_member, DW_AT_type(*DW$T$11)
    3709                      .dwattr DW$206, DW_AT_name("seconds"), DW_AT_symbol_name("_seconds")
    3710                      .dwattr DW$206, DW_AT_data_member_location[DW_OP_plus_uconst 0x1]
    3711                      .dwattr DW$206, DW_AT_accessibility(DW_ACCESS_public)
    3712              DW$207  .dwtag  DW_TAG_member, DW_AT_type(*DW$T$11)
    3713                      .dwattr DW$207, DW_AT_name("minutes"), DW_AT_symbol_name("_minutes")
    3714                      .dwattr DW$207, DW_AT_data_member_location[DW_OP_plus_uconst 0x2]
    3715                      .dwattr DW$207, DW_AT_accessibility(DW_ACCESS_public)
    3716              DW$208  .dwtag  DW_TAG_member, DW_AT_type(*DW$T$11)
TMS320C2000 COFF Assembler PC v4.1.3 Thu Aug 18 12:16:32 2016

Tools Copyright (c) 1996-2006 Texas Instruments Incorporated
spi.asm                                                              PAGE   80

    3717                      .dwattr DW$208, DW_AT_name("hours"), DW_AT_symbol_name("_hours")
    3718                      .dwattr DW$208, DW_AT_data_member_location[DW_OP_plus_uconst 0x3]
    3719                      .dwattr DW$208, DW_AT_accessibility(DW_ACCESS_public)
    3720              DW$209  .dwtag  DW_TAG_member, DW_AT_type(*DW$T$11)
    3721                      .dwattr DW$209, DW_AT_name("day"), DW_AT_symbol_name("_day")
    3722                      .dwattr DW$209, DW_AT_data_member_location[DW_OP_plus_uconst 0x4]
    3723                      .dwattr DW$209, DW_AT_accessibility(DW_ACCESS_public)
    3724              DW$210  .dwtag  DW_TAG_member, DW_AT_type(*DW$T$11)
    3725                      .dwattr DW$210, DW_AT_name("date"), DW_AT_symbol_name("_date")
    3726                      .dwattr DW$210, DW_AT_data_member_location[DW_OP_plus_uconst 0x5]
    3727                      .dwattr DW$210, DW_AT_accessibility(DW_ACCESS_public)
    3728              DW$211  .dwtag  DW_TAG_member, DW_AT_type(*DW$T$11)
    3729                      .dwattr DW$211, DW_AT_name("month"), DW_AT_symbol_name("_month")
    3730                      .dwattr DW$211, DW_AT_data_member_location[DW_OP_plus_uconst 0x6]
    3731                      .dwattr DW$211, DW_AT_accessibility(DW_ACCESS_public)
    3732              DW$212  .dwtag  DW_TAG_member, DW_AT_type(*DW$T$11)
    3733                      .dwattr DW$212, DW_AT_name("year"), DW_AT_symbol_name("_year")
    3734                      .dwattr DW$212, DW_AT_data_member_location[DW_OP_plus_uconst 0x7]
    3735                      .dwattr DW$212, DW_AT_accessibility(DW_ACCESS_public)
    3736              DW$213  .dwtag  DW_TAG_member, DW_AT_type(*DW$T$11)
    3737                      .dwattr DW$213, DW_AT_name("control"), DW_AT_symbol_name("_control")
    3738                      .dwattr DW$213, DW_AT_data_member_location[DW_OP_plus_uconst 0x8]
    3739                      .dwattr DW$213, DW_AT_accessibility(DW_ACCESS_public)
    3740              DW$214  .dwtag  DW_TAG_member, DW_AT_type(*DW$T$13)
    3741                      .dwattr DW$214, DW_AT_name("framstamp"), DW_AT_symbol_name("_framstamp")
    3742                      .dwattr DW$214, DW_AT_data_member_location[DW_OP_plus_uconst 0xa]
    3743                      .dwattr DW$214, DW_AT_accessibility(DW_ACCESS_public)
    3744              DW$215  .dwtag  DW_TAG_member, DW_AT_type(*DW$T$11)
    3745                      .dwattr DW$215, DW_AT_name("clockerr"), DW_AT_symbol_name("_clockerr")
    3746                      .dwattr DW$215, DW_AT_data_member_location[DW_OP_plus_uconst 0xc]
    3747                      .dwattr DW$215, DW_AT_accessibility(DW_ACCESS_public)
    3748                      .dwendtag DW$T$39
    3749              
    3750              DW$T$111        .dwtag  DW_TAG_typedef, DW_AT_name("timersstruct"), DW_AT_type(*DW$T$40)
    3751                      .dwattr DW$T$111, DW_AT_language(DW_LANG_C)
    3752              
    3753              DW$T$47 .dwtag  DW_TAG_structure_type
    3754                      .dwattr DW$T$47, DW_AT_name("tag_configstruct")
    3755                      .dwattr DW$T$47, DW_AT_byte_size(0x18)
    3756              DW$216  .dwtag  DW_TAG_member, DW_AT_type(*DW$T$41)
    3757                      .dwattr DW$216, DW_AT_name("filter"), DW_AT_symbol_name("_filter")
    3758                      .dwattr DW$216, DW_AT_data_member_location[DW_OP_plus_uconst 0x0]
    3759                      .dwattr DW$216, DW_AT_accessibility(DW_ACCESS_public)
    3760              DW$217  .dwtag  DW_TAG_member, DW_AT_type(*DW$T$42)
    3761                      .dwattr DW$217, DW_AT_name("alarmenable"), DW_AT_symbol_name("_alarmenable")
    3762                      .dwattr DW$217, DW_AT_data_member_location[DW_OP_plus_uconst 0x1]
    3763                      .dwattr DW$217, DW_AT_accessibility(DW_ACCESS_public)
    3764              DW$218  .dwtag  DW_TAG_member, DW_AT_type(*DW$T$43)
    3765                      .dwattr DW$218, DW_AT_name("trendmax"), DW_AT_symbol_name("_trendmax")
    3766                      .dwattr DW$218, DW_AT_data_member_location[DW_OP_plus_uconst 0x2]
    3767                      .dwattr DW$218, DW_AT_accessibility(DW_ACCESS_public)
    3768              DW$219  .dwtag  DW_TAG_member, DW_AT_type(*DW$T$44)
    3769                      .dwattr DW$219, DW_AT_name("inputs"), DW_AT_symbol_name("_inputs")
    3770                      .dwattr DW$219, DW_AT_data_member_location[DW_OP_plus_uconst 0x3]
    3771                      .dwattr DW$219, DW_AT_accessibility(DW_ACCESS_public)
TMS320C2000 COFF Assembler PC v4.1.3 Thu Aug 18 12:16:32 2016

Tools Copyright (c) 1996-2006 Texas Instruments Incorporated
spi.asm                                                              PAGE   81

    3772              DW$220  .dwtag  DW_TAG_member, DW_AT_type(*DW$T$45)
    3773                      .dwattr DW$220, DW_AT_name("sdsettings"), DW_AT_symbol_name("_sdsettings")
    3774                      .dwattr DW$220, DW_AT_data_member_location[DW_OP_plus_uconst 0x6]
    3775                      .dwattr DW$220, DW_AT_accessibility(DW_ACCESS_public)
    3776              DW$221  .dwtag  DW_TAG_member, DW_AT_type(*DW$T$46)
    3777                      .dwattr DW$221, DW_AT_name("comms"), DW_AT_symbol_name("_comms")
    3778                      .dwattr DW$221, DW_AT_data_member_location[DW_OP_plus_uconst 0x8]
    3779                      .dwattr DW$221, DW_AT_accessibility(DW_ACCESS_public)
    3780                      .dwendtag DW$T$47
    3781              
    3782              DW$T$115        .dwtag  DW_TAG_typedef, DW_AT_name("gpbport"), DW_AT_type(*DW$T$50)
    3783                      .dwattr DW$T$115, DW_AT_language(DW_LANG_C)
    3784              DW$T$119        .dwtag  DW_TAG_typedef, DW_AT_name("gpfport"), DW_AT_type(*DW$T$53)
    3785                      .dwattr DW$T$119, DW_AT_language(DW_LANG_C)
    3786              DW$T$55 .dwtag  DW_TAG_base_type, DW_AT_name("signed char")
    3787                      .dwattr DW$T$55, DW_AT_encoding(DW_ATE_signed_char)
    3788                      .dwattr DW$T$55, DW_AT_byte_size(0x01)
    3789              
    3790              DW$T$56 .dwtag  DW_TAG_structure_type
    3791                      .dwattr DW$T$56, DW_AT_name("tag_uartreadC")
    3792                      .dwattr DW$T$56, DW_AT_byte_size(0x68)
    3793              DW$222  .dwtag  DW_TAG_member, DW_AT_type(*DW$T$11)
    3794                      .dwattr DW$222, DW_AT_name("receiveINTR"), DW_AT_symbol_name("_receiveINTR")
    3795                      .dwattr DW$222, DW_AT_data_member_location[DW_OP_plus_uconst 0x0]
    3796                      .dwattr DW$222, DW_AT_accessibility(DW_ACCESS_public)
    3797              DW$223  .dwtag  DW_TAG_member, DW_AT_type(*DW$T$11)
    3798                      .dwattr DW$223, DW_AT_name("currentcharcount"), DW_AT_symbol_name("_currentcharcount")
    3799                      .dwattr DW$223, DW_AT_data_member_location[DW_OP_plus_uconst 0x1]
    3800                      .dwattr DW$223, DW_AT_accessibility(DW_ACCESS_public)
    3801              DW$224  .dwtag  DW_TAG_member, DW_AT_type(*DW$T$11)
    3802                      .dwattr DW$224, DW_AT_name("previouscharcount"), DW_AT_symbol_name("_previouscharcount")
    3803                      .dwattr DW$224, DW_AT_data_member_location[DW_OP_plus_uconst 0x2]
    3804                      .dwattr DW$224, DW_AT_accessibility(DW_ACCESS_public)
    3805              DW$225  .dwtag  DW_TAG_member, DW_AT_type(*DW$T$54)
    3806                      .dwattr DW$225, DW_AT_name("buf"), DW_AT_symbol_name("_buf")
    3807                      .dwattr DW$225, DW_AT_data_member_location[DW_OP_plus_uconst 0x3]
    3808                      .dwattr DW$225, DW_AT_accessibility(DW_ACCESS_public)
    3809              DW$226  .dwtag  DW_TAG_member, DW_AT_type(*DW$T$55)
    3810                      .dwattr DW$226, DW_AT_name("uartcharrx"), DW_AT_symbol_name("_uartcharrx")
    3811                      .dwattr DW$226, DW_AT_data_member_location[DW_OP_plus_uconst 0x67]
    3812                      .dwattr DW$226, DW_AT_accessibility(DW_ACCESS_public)
    3813                      .dwendtag DW$T$56
    3814              
    3815              
    3816              DW$T$58 .dwtag  DW_TAG_structure_type
    3817                      .dwattr DW$T$58, DW_AT_name("tag_sdsettingsstruct")
    3818                      .dwattr DW$T$58, DW_AT_byte_size(0x04)
    3819              DW$227  .dwtag  DW_TAG_member, DW_AT_type(*DW$T$11)
    3820                      .dwattr DW$227, DW_AT_name("present"), DW_AT_symbol_name("_present")
    3821                      .dwattr DW$227, DW_AT_data_member_location[DW_OP_plus_uconst 0x0]
    3822                      .dwattr DW$227, DW_AT_accessibility(DW_ACCESS_public)
    3823              DW$228  .dwtag  DW_TAG_member, DW_AT_type(*DW$T$11)
    3824                      .dwattr DW$228, DW_AT_name("sequence"), DW_AT_symbol_name("_sequence")
    3825                      .dwattr DW$228, DW_AT_data_member_location[DW_OP_plus_uconst 0x1]
    3826                      .dwattr DW$228, DW_AT_accessibility(DW_ACCESS_public)
TMS320C2000 COFF Assembler PC v4.1.3 Thu Aug 18 12:16:32 2016

Tools Copyright (c) 1996-2006 Texas Instruments Incorporated
spi.asm                                                              PAGE   82

    3827              DW$229  .dwtag  DW_TAG_member, DW_AT_type(*DW$T$11)
    3828                      .dwattr DW$229, DW_AT_name("errornum"), DW_AT_symbol_name("_errornum")
    3829                      .dwattr DW$229, DW_AT_data_member_location[DW_OP_plus_uconst 0x2]
    3830                      .dwattr DW$229, DW_AT_accessibility(DW_ACCESS_public)
    3831              DW$230  .dwtag  DW_TAG_member, DW_AT_type(*DW$T$57)
    3832                      .dwattr DW$230, DW_AT_name("readstatus"), DW_AT_symbol_name("_readstatus")
    3833                      .dwattr DW$230, DW_AT_data_member_location[DW_OP_plus_uconst 0x3]
    3834                      .dwattr DW$230, DW_AT_accessibility(DW_ACCESS_public)
    3835                      .dwendtag DW$T$58
    3836              
    3837              
    3838              DW$T$59 .dwtag  DW_TAG_structure_type
    3839                      .dwattr DW$T$59, DW_AT_name("tag_alarmsstruct")
    3840                      .dwattr DW$T$59, DW_AT_byte_size(0x01)
    3841              DW$231  .dwtag  DW_TAG_member, DW_AT_type(*DW$T$11)
    3842                      .dwattr DW$231, DW_AT_name("slavefailure"), DW_AT_symbol_name("_slavefailure")
    3843                      .dwattr DW$231, DW_AT_bit_offset(0x0f), DW_AT_bit_size(0x01)
    3844                      .dwattr DW$231, DW_AT_data_member_location[DW_OP_plus_uconst 0x0]
    3845                      .dwattr DW$231, DW_AT_accessibility(DW_ACCESS_public)
    3846              DW$232  .dwtag  DW_TAG_member, DW_AT_type(*DW$T$11)
    3847                      .dwattr DW$232, DW_AT_name("slavefailurelatched"), DW_AT_symbol_name("_slavefailurelatched")
    3848                      .dwattr DW$232, DW_AT_bit_offset(0x0e), DW_AT_bit_size(0x01)
    3849                      .dwattr DW$232, DW_AT_data_member_location[DW_OP_plus_uconst 0x0]
    3850                      .dwattr DW$232, DW_AT_accessibility(DW_ACCESS_public)
    3851              DW$233  .dwtag  DW_TAG_member, DW_AT_type(*DW$T$11)
    3852                      .dwattr DW$233, DW_AT_name("framfailure"), DW_AT_symbol_name("_framfailure")
    3853                      .dwattr DW$233, DW_AT_bit_offset(0x0d), DW_AT_bit_size(0x01)
    3854                      .dwattr DW$233, DW_AT_data_member_location[DW_OP_plus_uconst 0x0]
    3855                      .dwattr DW$233, DW_AT_accessibility(DW_ACCESS_public)
    3856              DW$234  .dwtag  DW_TAG_member, DW_AT_type(*DW$T$11)
    3857                      .dwattr DW$234, DW_AT_name("framfailurelatched"), DW_AT_symbol_name("_framfailurelatched")
    3858                      .dwattr DW$234, DW_AT_bit_offset(0x0c), DW_AT_bit_size(0x01)
    3859                      .dwattr DW$234, DW_AT_data_member_location[DW_OP_plus_uconst 0x0]
    3860                      .dwattr DW$234, DW_AT_accessibility(DW_ACCESS_public)
    3861              DW$235  .dwtag  DW_TAG_member, DW_AT_type(*DW$T$11)
    3862                      .dwattr DW$235, DW_AT_name("pccommsfailure"), DW_AT_symbol_name("_pccommsfailure")
    3863                      .dwattr DW$235, DW_AT_bit_offset(0x0b), DW_AT_bit_size(0x01)
    3864                      .dwattr DW$235, DW_AT_data_member_location[DW_OP_plus_uconst 0x0]
    3865                      .dwattr DW$235, DW_AT_accessibility(DW_ACCESS_public)
    3866              DW$236  .dwtag  DW_TAG_member, DW_AT_type(*DW$T$11)
    3867                      .dwattr DW$236, DW_AT_name("pccommsfailurelatched"), DW_AT_symbol_name("_pccommsfailurelatched")
    3868                      .dwattr DW$236, DW_AT_bit_offset(0x0a), DW_AT_bit_size(0x01)
    3869                      .dwattr DW$236, DW_AT_data_member_location[DW_OP_plus_uconst 0x0]
    3870                      .dwattr DW$236, DW_AT_accessibility(DW_ACCESS_public)
    3871              DW$237  .dwtag  DW_TAG_member, DW_AT_type(*DW$T$11)
    3872                      .dwattr DW$237, DW_AT_name("unused7"), DW_AT_symbol_name("_unused7")
    3873                      .dwattr DW$237, DW_AT_bit_offset(0x09), DW_AT_bit_size(0x01)
    3874                      .dwattr DW$237, DW_AT_data_member_location[DW_OP_plus_uconst 0x0]
    3875                      .dwattr DW$237, DW_AT_accessibility(DW_ACCESS_public)
    3876              DW$238  .dwtag  DW_TAG_member, DW_AT_type(*DW$T$11)
    3877                      .dwattr DW$238, DW_AT_name("unused8"), DW_AT_symbol_name("_unused8")
    3878                      .dwattr DW$238, DW_AT_bit_offset(0x08), DW_AT_bit_size(0x01)
    3879                      .dwattr DW$238, DW_AT_data_member_location[DW_OP_plus_uconst 0x0]
    3880                      .dwattr DW$238, DW_AT_accessibility(DW_ACCESS_public)
    3881              DW$239  .dwtag  DW_TAG_member, DW_AT_type(*DW$T$11)
TMS320C2000 COFF Assembler PC v4.1.3 Thu Aug 18 12:16:32 2016

Tools Copyright (c) 1996-2006 Texas Instruments Incorporated
spi.asm                                                              PAGE   83

    3882                      .dwattr DW$239, DW_AT_name("unused9"), DW_AT_symbol_name("_unused9")
    3883                      .dwattr DW$239, DW_AT_bit_offset(0x07), DW_AT_bit_size(0x01)
    3884                      .dwattr DW$239, DW_AT_data_member_location[DW_OP_plus_uconst 0x0]
    3885                      .dwattr DW$239, DW_AT_accessibility(DW_ACCESS_public)
    3886              DW$240  .dwtag  DW_TAG_member, DW_AT_type(*DW$T$11)
    3887                      .dwattr DW$240, DW_AT_name("unused10"), DW_AT_symbol_name("_unused10")
    3888                      .dwattr DW$240, DW_AT_bit_offset(0x06), DW_AT_bit_size(0x01)
    3889                      .dwattr DW$240, DW_AT_data_member_location[DW_OP_plus_uconst 0x0]
    3890                      .dwattr DW$240, DW_AT_accessibility(DW_ACCESS_public)
    3891              DW$241  .dwtag  DW_TAG_member, DW_AT_type(*DW$T$11)
    3892                      .dwattr DW$241, DW_AT_name("unused11"), DW_AT_symbol_name("_unused11")
    3893                      .dwattr DW$241, DW_AT_bit_offset(0x05), DW_AT_bit_size(0x01)
    3894                      .dwattr DW$241, DW_AT_data_member_location[DW_OP_plus_uconst 0x0]
    3895                      .dwattr DW$241, DW_AT_accessibility(DW_ACCESS_public)
    3896              DW$242  .dwtag  DW_TAG_member, DW_AT_type(*DW$T$11)
    3897                      .dwattr DW$242, DW_AT_name("unused12"), DW_AT_symbol_name("_unused12")
    3898                      .dwattr DW$242, DW_AT_bit_offset(0x04), DW_AT_bit_size(0x01)
    3899                      .dwattr DW$242, DW_AT_data_member_location[DW_OP_plus_uconst 0x0]
    3900                      .dwattr DW$242, DW_AT_accessibility(DW_ACCESS_public)
    3901              DW$243  .dwtag  DW_TAG_member, DW_AT_type(*DW$T$11)
    3902                      .dwattr DW$243, DW_AT_name("unused13"), DW_AT_symbol_name("_unused13")
    3903                      .dwattr DW$243, DW_AT_bit_offset(0x03), DW_AT_bit_size(0x01)
    3904                      .dwattr DW$243, DW_AT_data_member_location[DW_OP_plus_uconst 0x0]
    3905                      .dwattr DW$243, DW_AT_accessibility(DW_ACCESS_public)
    3906              DW$244  .dwtag  DW_TAG_member, DW_AT_type(*DW$T$11)
    3907                      .dwattr DW$244, DW_AT_name("unused14"), DW_AT_symbol_name("_unused14")
    3908                      .dwattr DW$244, DW_AT_bit_offset(0x02), DW_AT_bit_size(0x01)
    3909                      .dwattr DW$244, DW_AT_data_member_location[DW_OP_plus_uconst 0x0]
    3910                      .dwattr DW$244, DW_AT_accessibility(DW_ACCESS_public)
    3911              DW$245  .dwtag  DW_TAG_member, DW_AT_type(*DW$T$11)
    3912                      .dwattr DW$245, DW_AT_name("unused15"), DW_AT_symbol_name("_unused15")
    3913                      .dwattr DW$245, DW_AT_bit_offset(0x01), DW_AT_bit_size(0x01)
    3914                      .dwattr DW$245, DW_AT_data_member_location[DW_OP_plus_uconst 0x0]
    3915                      .dwattr DW$245, DW_AT_accessibility(DW_ACCESS_public)
    3916              DW$246  .dwtag  DW_TAG_member, DW_AT_type(*DW$T$11)
    3917                      .dwattr DW$246, DW_AT_name("unused16"), DW_AT_symbol_name("_unused16")
    3918                      .dwattr DW$246, DW_AT_bit_offset(0x00), DW_AT_bit_size(0x01)
    3919                      .dwattr DW$246, DW_AT_data_member_location[DW_OP_plus_uconst 0x0]
    3920                      .dwattr DW$246, DW_AT_accessibility(DW_ACCESS_public)
    3921                      .dwendtag DW$T$59
    3922              
    3923              
    3924              DW$T$60 .dwtag  DW_TAG_structure_type
    3925                      .dwattr DW$T$60, DW_AT_name("tag_firmwarestruct")
    3926                      .dwattr DW$T$60, DW_AT_byte_size(0x02)
    3927              DW$247  .dwtag  DW_TAG_member, DW_AT_type(*DW$T$11)
    3928                      .dwattr DW$247, DW_AT_name("spu2"), DW_AT_symbol_name("_spu2")
    3929                      .dwattr DW$247, DW_AT_data_member_location[DW_OP_plus_uconst 0x0]
    3930                      .dwattr DW$247, DW_AT_accessibility(DW_ACCESS_public)
    3931              DW$248  .dwtag  DW_TAG_member, DW_AT_type(*DW$T$11)
    3932                      .dwattr DW$248, DW_AT_name("spu1"), DW_AT_symbol_name("_spu1")
    3933                      .dwattr DW$248, DW_AT_data_member_location[DW_OP_plus_uconst 0x1]
    3934                      .dwattr DW$248, DW_AT_accessibility(DW_ACCESS_public)
    3935                      .dwendtag DW$T$60
    3936              
TMS320C2000 COFF Assembler PC v4.1.3 Thu Aug 18 12:16:32 2016

Tools Copyright (c) 1996-2006 Texas Instruments Incorporated
spi.asm                                                              PAGE   84

    3937              
    3938              DW$T$76 .dwtag  DW_TAG_structure_type
    3939                      .dwattr DW$T$76, DW_AT_name("SPI_REGS")
    3940                      .dwattr DW$T$76, DW_AT_byte_size(0x10)
    3941              DW$249  .dwtag  DW_TAG_member, DW_AT_type(*DW$T$62)
    3942                      .dwattr DW$249, DW_AT_name("SPICCR"), DW_AT_symbol_name("_SPICCR")
    3943                      .dwattr DW$249, DW_AT_data_member_location[DW_OP_plus_uconst 0x0]
    3944                      .dwattr DW$249, DW_AT_accessibility(DW_ACCESS_public)
    3945              DW$250  .dwtag  DW_TAG_member, DW_AT_type(*DW$T$64)
    3946                      .dwattr DW$250, DW_AT_name("SPICTL"), DW_AT_symbol_name("_SPICTL")
    3947                      .dwattr DW$250, DW_AT_data_member_location[DW_OP_plus_uconst 0x1]
    3948                      .dwattr DW$250, DW_AT_accessibility(DW_ACCESS_public)
    3949              DW$251  .dwtag  DW_TAG_member, DW_AT_type(*DW$T$66)
    3950                      .dwattr DW$251, DW_AT_name("SPISTS"), DW_AT_symbol_name("_SPISTS")
    3951                      .dwattr DW$251, DW_AT_data_member_location[DW_OP_plus_uconst 0x2]
    3952                      .dwattr DW$251, DW_AT_accessibility(DW_ACCESS_public)
    3953              DW$252  .dwtag  DW_TAG_member, DW_AT_type(*DW$T$11)
    3954                      .dwattr DW$252, DW_AT_name("rsvd1"), DW_AT_symbol_name("_rsvd1")
    3955                      .dwattr DW$252, DW_AT_data_member_location[DW_OP_plus_uconst 0x3]
    3956                      .dwattr DW$252, DW_AT_accessibility(DW_ACCESS_public)
    3957              DW$253  .dwtag  DW_TAG_member, DW_AT_type(*DW$T$11)
    3958                      .dwattr DW$253, DW_AT_name("SPIBRR"), DW_AT_symbol_name("_SPIBRR")
    3959                      .dwattr DW$253, DW_AT_data_member_location[DW_OP_plus_uconst 0x4]
    3960                      .dwattr DW$253, DW_AT_accessibility(DW_ACCESS_public)
    3961              DW$254  .dwtag  DW_TAG_member, DW_AT_type(*DW$T$11)
    3962                      .dwattr DW$254, DW_AT_name("rsvd2"), DW_AT_symbol_name("_rsvd2")
    3963                      .dwattr DW$254, DW_AT_data_member_location[DW_OP_plus_uconst 0x5]
    3964                      .dwattr DW$254, DW_AT_accessibility(DW_ACCESS_public)
    3965              DW$255  .dwtag  DW_TAG_member, DW_AT_type(*DW$T$11)
    3966                      .dwattr DW$255, DW_AT_name("SPIRXEMU"), DW_AT_symbol_name("_SPIRXEMU")
    3967                      .dwattr DW$255, DW_AT_data_member_location[DW_OP_plus_uconst 0x6]
    3968                      .dwattr DW$255, DW_AT_accessibility(DW_ACCESS_public)
    3969              DW$256  .dwtag  DW_TAG_member, DW_AT_type(*DW$T$11)
    3970                      .dwattr DW$256, DW_AT_name("SPIRXBUF"), DW_AT_symbol_name("_SPIRXBUF")
    3971                      .dwattr DW$256, DW_AT_data_member_location[DW_OP_plus_uconst 0x7]
    3972                      .dwattr DW$256, DW_AT_accessibility(DW_ACCESS_public)
    3973              DW$257  .dwtag  DW_TAG_member, DW_AT_type(*DW$T$11)
    3974                      .dwattr DW$257, DW_AT_name("SPITXBUF"), DW_AT_symbol_name("_SPITXBUF")
    3975                      .dwattr DW$257, DW_AT_data_member_location[DW_OP_plus_uconst 0x8]
    3976                      .dwattr DW$257, DW_AT_accessibility(DW_ACCESS_public)
    3977              DW$258  .dwtag  DW_TAG_member, DW_AT_type(*DW$T$11)
    3978                      .dwattr DW$258, DW_AT_name("SPIDAT"), DW_AT_symbol_name("_SPIDAT")
    3979                      .dwattr DW$258, DW_AT_data_member_location[DW_OP_plus_uconst 0x9]
    3980                      .dwattr DW$258, DW_AT_accessibility(DW_ACCESS_public)
    3981              DW$259  .dwtag  DW_TAG_member, DW_AT_type(*DW$T$68)
    3982                      .dwattr DW$259, DW_AT_name("SPIFFTX"), DW_AT_symbol_name("_SPIFFTX")
    3983                      .dwattr DW$259, DW_AT_data_member_location[DW_OP_plus_uconst 0xa]
    3984                      .dwattr DW$259, DW_AT_accessibility(DW_ACCESS_public)
    3985              DW$260  .dwtag  DW_TAG_member, DW_AT_type(*DW$T$70)
    3986                      .dwattr DW$260, DW_AT_name("SPIFFRX"), DW_AT_symbol_name("_SPIFFRX")
    3987                      .dwattr DW$260, DW_AT_data_member_location[DW_OP_plus_uconst 0xb]
    3988                      .dwattr DW$260, DW_AT_accessibility(DW_ACCESS_public)
    3989              DW$261  .dwtag  DW_TAG_member, DW_AT_type(*DW$T$72)
    3990                      .dwattr DW$261, DW_AT_name("SPIFFCT"), DW_AT_symbol_name("_SPIFFCT")
    3991                      .dwattr DW$261, DW_AT_data_member_location[DW_OP_plus_uconst 0xc]
TMS320C2000 COFF Assembler PC v4.1.3 Thu Aug 18 12:16:32 2016

Tools Copyright (c) 1996-2006 Texas Instruments Incorporated
spi.asm                                                              PAGE   85

    3992                      .dwattr DW$261, DW_AT_accessibility(DW_ACCESS_public)
    3993              DW$262  .dwtag  DW_TAG_member, DW_AT_type(*DW$T$75)
    3994                      .dwattr DW$262, DW_AT_name("rsvd3"), DW_AT_symbol_name("_rsvd3")
    3995                      .dwattr DW$262, DW_AT_data_member_location[DW_OP_plus_uconst 0xd]
    3996                      .dwattr DW$262, DW_AT_accessibility(DW_ACCESS_public)
    3997              DW$263  .dwtag  DW_TAG_member, DW_AT_type(*DW$T$74)
    3998                      .dwattr DW$263, DW_AT_name("SPIPRI"), DW_AT_symbol_name("_SPIPRI")
    3999                      .dwattr DW$263, DW_AT_data_member_location[DW_OP_plus_uconst 0xf]
    4000                      .dwattr DW$263, DW_AT_accessibility(DW_ACCESS_public)
    4001                      .dwendtag DW$T$76
    4002              
    4003              
    4004              DW$T$77 .dwtag  DW_TAG_structure_type
    4005                      .dwattr DW$T$77, DW_AT_name("tag_addressstruct")
    4006                      .dwattr DW$T$77, DW_AT_byte_size(0x04)
    4007              DW$264  .dwtag  DW_TAG_member, DW_AT_type(*DW$T$13)
    4008                      .dwattr DW$264, DW_AT_name("page"), DW_AT_symbol_name("_page")
    4009                      .dwattr DW$264, DW_AT_data_member_location[DW_OP_plus_uconst 0x0]
    4010                      .dwattr DW$264, DW_AT_accessibility(DW_ACCESS_public)
    4011              DW$265  .dwtag  DW_TAG_member, DW_AT_type(*DW$T$11)
    4012                      .dwattr DW$265, DW_AT_name("byteaddr"), DW_AT_symbol_name("_byteaddr")
    4013                      .dwattr DW$265, DW_AT_data_member_location[DW_OP_plus_uconst 0x2]
    4014                      .dwattr DW$265, DW_AT_accessibility(DW_ACCESS_public)
    4015                      .dwendtag DW$T$77
    4016              
    4017              
    4018              DW$T$78 .dwtag  DW_TAG_structure_type
    4019                      .dwattr DW$T$78, DW_AT_name("tag_flashflags")
    4020                      .dwattr DW$T$78, DW_AT_byte_size(0x04)
    4021              DW$266  .dwtag  DW_TAG_member, DW_AT_type(*DW$T$11)
    4022                      .dwattr DW$266, DW_AT_name("flash1"), DW_AT_symbol_name("_flash1")
    4023                      .dwattr DW$266, DW_AT_data_member_location[DW_OP_plus_uconst 0x0]
    4024                      .dwattr DW$266, DW_AT_accessibility(DW_ACCESS_public)
    4025              DW$267  .dwtag  DW_TAG_member, DW_AT_type(*DW$T$11)
    4026                      .dwattr DW$267, DW_AT_name("flash2"), DW_AT_symbol_name("_flash2")
    4027                      .dwattr DW$267, DW_AT_data_member_location[DW_OP_plus_uconst 0x1]
    4028                      .dwattr DW$267, DW_AT_accessibility(DW_ACCESS_public)
    4029              DW$268  .dwtag  DW_TAG_member, DW_AT_type(*DW$T$11)
    4030                      .dwattr DW$268, DW_AT_name("flash3"), DW_AT_symbol_name("_flash3")
    4031                      .dwattr DW$268, DW_AT_data_member_location[DW_OP_plus_uconst 0x2]
    4032                      .dwattr DW$268, DW_AT_accessibility(DW_ACCESS_public)
    4033              DW$269  .dwtag  DW_TAG_member, DW_AT_type(*DW$T$11)
    4034                      .dwattr DW$269, DW_AT_name("flash4"), DW_AT_symbol_name("_flash4")
    4035                      .dwattr DW$269, DW_AT_data_member_location[DW_OP_plus_uconst 0x3]
    4036                      .dwattr DW$269, DW_AT_accessibility(DW_ACCESS_public)
    4037                      .dwendtag DW$T$78
    4038              
    4039              
    4040              DW$T$21 .dwtag  DW_TAG_array_type, DW_AT_type(*DW$T$11)
    4041                      .dwattr DW$T$21, DW_AT_language(DW_LANG_C)
    4042                      .dwattr DW$T$21, DW_AT_byte_size(0x0e)
    4043              DW$270  .dwtag  DW_TAG_subrange_type
    4044                      .dwattr DW$270, DW_AT_upper_bound(0x0d)
    4045                      .dwendtag DW$T$21
    4046              
TMS320C2000 COFF Assembler PC v4.1.3 Thu Aug 18 12:16:32 2016

Tools Copyright (c) 1996-2006 Texas Instruments Incorporated
spi.asm                                                              PAGE   86

    4047              
    4048              DW$T$54 .dwtag  DW_TAG_array_type, DW_AT_type(*DW$T$11)
    4049                      .dwattr DW$T$54, DW_AT_language(DW_LANG_C)
    4050                      .dwattr DW$T$54, DW_AT_byte_size(0x64)
    4051              DW$271  .dwtag  DW_TAG_subrange_type
    4052                      .dwattr DW$271, DW_AT_upper_bound(0x63)
    4053                      .dwendtag DW$T$54
    4054              
    4055              
    4056              DW$T$75 .dwtag  DW_TAG_array_type, DW_AT_type(*DW$T$11)
    4057                      .dwattr DW$T$75, DW_AT_language(DW_LANG_C)
    4058                      .dwattr DW$T$75, DW_AT_byte_size(0x02)
    4059              DW$272  .dwtag  DW_TAG_subrange_type
    4060                      .dwattr DW$272, DW_AT_upper_bound(0x01)
    4061                      .dwendtag DW$T$75
    4062              
    4063              
    4064              DW$T$19 .dwtag  DW_TAG_structure_type
    4065                      .dwattr DW$T$19, DW_AT_byte_size(0x02)
    4066              DW$273  .dwtag  DW_TAG_member, DW_AT_type(*DW$T$11)
    4067                      .dwattr DW$273, DW_AT_name("enb"), DW_AT_symbol_name("_enb")
    4068                      .dwattr DW$273, DW_AT_data_member_location[DW_OP_plus_uconst 0x0]
    4069                      .dwattr DW$273, DW_AT_accessibility(DW_ACCESS_public)
    4070              DW$274  .dwtag  DW_TAG_member, DW_AT_type(*DW$T$11)
    4071                      .dwattr DW$274, DW_AT_name("chan"), DW_AT_symbol_name("_chan")
    4072                      .dwattr DW$274, DW_AT_data_member_location[DW_OP_plus_uconst 0x1]
    4073                      .dwattr DW$274, DW_AT_accessibility(DW_ACCESS_public)
    4074                      .dwendtag DW$T$19
    4075              
    4076              
    4077              DW$T$22 .dwtag  DW_TAG_structure_type
    4078                      .dwattr DW$T$22, DW_AT_byte_size(0x1e)
    4079              DW$275  .dwtag  DW_TAG_member, DW_AT_type(*DW$T$11)
    4080                      .dwattr DW$275, DW_AT_name("chanlowthreshold"), DW_AT_symbol_name("_chanlowthreshold")
    4081                      .dwattr DW$275, DW_AT_data_member_location[DW_OP_plus_uconst 0x0]
    4082                      .dwattr DW$275, DW_AT_accessibility(DW_ACCESS_public)
    4083              DW$276  .dwtag  DW_TAG_member, DW_AT_type(*DW$T$11)
    4084                      .dwattr DW$276, DW_AT_name("chanhighthreshold"), DW_AT_symbol_name("_chanhighthreshold")
    4085                      .dwattr DW$276, DW_AT_data_member_location[DW_OP_plus_uconst 0x1]
    4086                      .dwattr DW$276, DW_AT_accessibility(DW_ACCESS_public)
    4087              DW$277  .dwtag  DW_TAG_member, DW_AT_type(*DW$T$21)
    4088                      .dwattr DW$277, DW_AT_name("chan18ma"), DW_AT_symbol_name("_chan18ma")
    4089                      .dwattr DW$277, DW_AT_data_member_location[DW_OP_plus_uconst 0x2]
    4090                      .dwattr DW$277, DW_AT_accessibility(DW_ACCESS_public)
    4091              DW$278  .dwtag  DW_TAG_member, DW_AT_type(*DW$T$21)
    4092                      .dwattr DW$278, DW_AT_name("notused"), DW_AT_symbol_name("_notused")
    4093                      .dwattr DW$278, DW_AT_data_member_location[DW_OP_plus_uconst 0x10]
    4094                      .dwattr DW$278, DW_AT_accessibility(DW_ACCESS_public)
    4095                      .dwendtag DW$T$22
    4096              
    4097              
    4098              DW$T$23 .dwtag  DW_TAG_structure_type
    4099                      .dwattr DW$T$23, DW_AT_byte_size(0x01)
    4100              DW$279  .dwtag  DW_TAG_member, DW_AT_type(*DW$T$11)
    4101                      .dwattr DW$279, DW_AT_name("enabled"), DW_AT_symbol_name("_enabled")
TMS320C2000 COFF Assembler PC v4.1.3 Thu Aug 18 12:16:32 2016

Tools Copyright (c) 1996-2006 Texas Instruments Incorporated
spi.asm                                                              PAGE   87

    4102                      .dwattr DW$279, DW_AT_data_member_location[DW_OP_plus_uconst 0x0]
    4103                      .dwattr DW$279, DW_AT_accessibility(DW_ACCESS_public)
    4104                      .dwendtag DW$T$23
    4105              
    4106              
    4107              DW$T$26 .dwtag  DW_TAG_structure_type
    4108                      .dwattr DW$T$26, DW_AT_byte_size(0x0b)
    4109              DW$280  .dwtag  DW_TAG_member, DW_AT_type(*DW$T$25)
    4110                      .dwattr DW$280, DW_AT_name("calprtzero"), DW_AT_symbol_name("_calprtzero")
    4111                      .dwattr DW$280, DW_AT_data_member_location[DW_OP_plus_uconst 0x0]
    4112                      .dwattr DW$280, DW_AT_accessibility(DW_ACCESS_public)
    4113              DW$281  .dwtag  DW_TAG_member, DW_AT_type(*DW$T$25)
    4114                      .dwattr DW$281, DW_AT_name("calprtfullscale"), DW_AT_symbol_name("_calprtfullscale")
    4115                      .dwattr DW$281, DW_AT_data_member_location[DW_OP_plus_uconst 0x4]
    4116                      .dwattr DW$281, DW_AT_accessibility(DW_ACCESS_public)
    4117              DW$282  .dwtag  DW_TAG_member, DW_AT_type(*DW$T$11)
    4118                      .dwattr DW$282, DW_AT_name("sensorscalingfactor"), DW_AT_symbol_name("_sensorscalingfactor")
    4119                      .dwattr DW$282, DW_AT_data_member_location[DW_OP_plus_uconst 0x8]
    4120                      .dwattr DW$282, DW_AT_accessibility(DW_ACCESS_public)
    4121              DW$283  .dwtag  DW_TAG_member, DW_AT_type(*DW$T$11)
    4122                      .dwattr DW$283, DW_AT_name("unused1"), DW_AT_symbol_name("_unused1")
    4123                      .dwattr DW$283, DW_AT_data_member_location[DW_OP_plus_uconst 0x9]
    4124                      .dwattr DW$283, DW_AT_accessibility(DW_ACCESS_public)
    4125              DW$284  .dwtag  DW_TAG_member, DW_AT_type(*DW$T$11)
    4126                      .dwattr DW$284, DW_AT_name("unused2"), DW_AT_symbol_name("_unused2")
    4127                      .dwattr DW$284, DW_AT_data_member_location[DW_OP_plus_uconst 0xa]
    4128                      .dwattr DW$284, DW_AT_accessibility(DW_ACCESS_public)
    4129                      .dwendtag DW$T$26
    4130              
    4131              
    4132              DW$T$27 .dwtag  DW_TAG_structure_type
    4133                      .dwattr DW$T$27, DW_AT_byte_size(0x03)
    4134              DW$285  .dwtag  DW_TAG_member, DW_AT_type(*DW$T$11)
    4135                      .dwattr DW$285, DW_AT_name("mainrate"), DW_AT_symbol_name("_mainrate")
    4136                      .dwattr DW$285, DW_AT_data_member_location[DW_OP_plus_uconst 0x0]
    4137                      .dwattr DW$285, DW_AT_accessibility(DW_ACCESS_public)
    4138              DW$286  .dwtag  DW_TAG_member, DW_AT_type(*DW$T$11)
    4139                      .dwattr DW$286, DW_AT_name("trendrate"), DW_AT_symbol_name("_trendrate")
    4140                      .dwattr DW$286, DW_AT_data_member_location[DW_OP_plus_uconst 0x1]
    4141                      .dwattr DW$286, DW_AT_accessibility(DW_ACCESS_public)
    4142              DW$287  .dwtag  DW_TAG_member, DW_AT_type(*DW$T$11)
    4143                      .dwattr DW$287, DW_AT_name("unused1"), DW_AT_symbol_name("_unused1")
    4144                      .dwattr DW$287, DW_AT_data_member_location[DW_OP_plus_uconst 0x2]
    4145                      .dwattr DW$287, DW_AT_accessibility(DW_ACCESS_public)
    4146                      .dwendtag DW$T$27
    4147              
    4148              
    4149              DW$T$28 .dwtag  DW_TAG_structure_type
    4150                      .dwattr DW$T$28, DW_AT_byte_size(0x01)
    4151              DW$288  .dwtag  DW_TAG_member, DW_AT_type(*DW$T$11)
    4152                      .dwattr DW$288, DW_AT_name("address"), DW_AT_symbol_name("_address")
    4153                      .dwattr DW$288, DW_AT_data_member_location[DW_OP_plus_uconst 0x0]
    4154                      .dwattr DW$288, DW_AT_accessibility(DW_ACCESS_public)
    4155                      .dwendtag DW$T$28
    4156              
TMS320C2000 COFF Assembler PC v4.1.3 Thu Aug 18 12:16:32 2016

Tools Copyright (c) 1996-2006 Texas Instruments Incorporated
spi.asm                                                              PAGE   88

    4157              
    4158              DW$T$29 .dwtag  DW_TAG_structure_type
    4159                      .dwattr DW$T$29, DW_AT_byte_size(0x02)
    4160              DW$289  .dwtag  DW_TAG_member, DW_AT_type(*DW$T$11)
    4161                      .dwattr DW$289, DW_AT_name("inputtap"), DW_AT_symbol_name("_inputtap")
    4162                      .dwattr DW$289, DW_AT_data_member_location[DW_OP_plus_uconst 0x0]
    4163                      .dwattr DW$289, DW_AT_accessibility(DW_ACCESS_public)
    4164              DW$290  .dwtag  DW_TAG_member, DW_AT_type(*DW$T$11)
    4165                      .dwattr DW$290, DW_AT_name("unused1"), DW_AT_symbol_name("_unused1")
    4166                      .dwattr DW$290, DW_AT_data_member_location[DW_OP_plus_uconst 0x1]
    4167                      .dwattr DW$290, DW_AT_accessibility(DW_ACCESS_public)
    4168                      .dwendtag DW$T$29
    4169              
    4170              
    4171              DW$T$30 .dwtag  DW_TAG_structure_type
    4172                      .dwattr DW$T$30, DW_AT_byte_size(0x03)
    4173              DW$291  .dwtag  DW_TAG_member, DW_AT_type(*DW$T$11)
    4174                      .dwattr DW$291, DW_AT_name("notused1"), DW_AT_symbol_name("_notused1")
    4175                      .dwattr DW$291, DW_AT_data_member_location[DW_OP_plus_uconst 0x0]
    4176                      .dwattr DW$291, DW_AT_accessibility(DW_ACCESS_public)
    4177              DW$292  .dwtag  DW_TAG_member, DW_AT_type(*DW$T$11)
    4178                      .dwattr DW$292, DW_AT_name("notused2"), DW_AT_symbol_name("_notused2")
    4179                      .dwattr DW$292, DW_AT_data_member_location[DW_OP_plus_uconst 0x1]
    4180                      .dwattr DW$292, DW_AT_accessibility(DW_ACCESS_public)
    4181              DW$293  .dwtag  DW_TAG_member, DW_AT_type(*DW$T$11)
    4182                      .dwattr DW$293, DW_AT_name("notused3"), DW_AT_symbol_name("_notused3")
    4183                      .dwattr DW$293, DW_AT_data_member_location[DW_OP_plus_uconst 0x2]
    4184                      .dwattr DW$293, DW_AT_accessibility(DW_ACCESS_public)
    4185                      .dwendtag DW$T$30
    4186              
    4187              
    4188              DW$T$31 .dwtag  DW_TAG_structure_type
    4189                      .dwattr DW$T$31, DW_AT_byte_size(0x01)
    4190              DW$294  .dwtag  DW_TAG_member, DW_AT_type(*DW$T$11)
    4191                      .dwattr DW$294, DW_AT_name("rate"), DW_AT_symbol_name("_rate")
    4192                      .dwattr DW$294, DW_AT_data_member_location[DW_OP_plus_uconst 0x0]
    4193                      .dwattr DW$294, DW_AT_accessibility(DW_ACCESS_public)
    4194                      .dwendtag DW$T$31
    4195              
    4196              
    4197              DW$T$32 .dwtag  DW_TAG_structure_type
    4198                      .dwattr DW$T$32, DW_AT_byte_size(0x02)
    4199              DW$295  .dwtag  DW_TAG_member, DW_AT_type(*DW$T$11)
    4200                      .dwattr DW$295, DW_AT_name("notused1"), DW_AT_symbol_name("_notused1")
    4201                      .dwattr DW$295, DW_AT_data_member_location[DW_OP_plus_uconst 0x0]
    4202                      .dwattr DW$295, DW_AT_accessibility(DW_ACCESS_public)
    4203              DW$296  .dwtag  DW_TAG_member, DW_AT_type(*DW$T$11)
    4204                      .dwattr DW$296, DW_AT_name("notused2"), DW_AT_symbol_name("_notused2")
    4205                      .dwattr DW$296, DW_AT_data_member_location[DW_OP_plus_uconst 0x1]
    4206                      .dwattr DW$296, DW_AT_accessibility(DW_ACCESS_public)
    4207                      .dwendtag DW$T$32
    4208              
    4209              
    4210              DW$T$33 .dwtag  DW_TAG_structure_type
    4211                      .dwattr DW$T$33, DW_AT_byte_size(0x04)
TMS320C2000 COFF Assembler PC v4.1.3 Thu Aug 18 12:16:32 2016

Tools Copyright (c) 1996-2006 Texas Instruments Incorporated
spi.asm                                                              PAGE   89

    4212              DW$297  .dwtag  DW_TAG_member, DW_AT_type(*DW$T$11)
    4213                      .dwattr DW$297, DW_AT_name("notused1"), DW_AT_symbol_name("_notused1")
    4214                      .dwattr DW$297, DW_AT_data_member_location[DW_OP_plus_uconst 0x0]
    4215                      .dwattr DW$297, DW_AT_accessibility(DW_ACCESS_public)
    4216              DW$298  .dwtag  DW_TAG_member, DW_AT_type(*DW$T$11)
    4217                      .dwattr DW$298, DW_AT_name("notused2"), DW_AT_symbol_name("_notused2")
    4218                      .dwattr DW$298, DW_AT_data_member_location[DW_OP_plus_uconst 0x1]
    4219                      .dwattr DW$298, DW_AT_accessibility(DW_ACCESS_public)
    4220              DW$299  .dwtag  DW_TAG_member, DW_AT_type(*DW$T$11)
    4221                      .dwattr DW$299, DW_AT_name("notused3"), DW_AT_symbol_name("_notused3")
    4222                      .dwattr DW$299, DW_AT_data_member_location[DW_OP_plus_uconst 0x2]
    4223                      .dwattr DW$299, DW_AT_accessibility(DW_ACCESS_public)
    4224              DW$300  .dwtag  DW_TAG_member, DW_AT_type(*DW$T$11)
    4225                      .dwattr DW$300, DW_AT_name("notused4"), DW_AT_symbol_name("_notused4")
    4226                      .dwattr DW$300, DW_AT_data_member_location[DW_OP_plus_uconst 0x3]
    4227                      .dwattr DW$300, DW_AT_accessibility(DW_ACCESS_public)
    4228                      .dwendtag DW$T$33
    4229              
    4230              
    4231              DW$T$34 .dwtag  DW_TAG_structure_type
    4232                      .dwattr DW$T$34, DW_AT_byte_size(0x01)
    4233              DW$301  .dwtag  DW_TAG_member, DW_AT_type(*DW$T$11)
    4234                      .dwattr DW$301, DW_AT_name("bitmap"), DW_AT_symbol_name("_bitmap")
    4235                      .dwattr DW$301, DW_AT_data_member_location[DW_OP_plus_uconst 0x0]
    4236                      .dwattr DW$301, DW_AT_accessibility(DW_ACCESS_public)
    4237                      .dwendtag DW$T$34
    4238              
    4239              
    4240              DW$T$35 .dwtag  DW_TAG_structure_type
    4241                      .dwattr DW$T$35, DW_AT_byte_size(0x01)
    4242              DW$302  .dwtag  DW_TAG_member, DW_AT_type(*DW$T$11)
    4243                      .dwattr DW$302, DW_AT_name("graphvalue"), DW_AT_symbol_name("_graphvalue")
    4244                      .dwattr DW$302, DW_AT_data_member_location[DW_OP_plus_uconst 0x0]
    4245                      .dwattr DW$302, DW_AT_accessibility(DW_ACCESS_public)
    4246                      .dwendtag DW$T$35
    4247              
    4248              
    4249              DW$T$36 .dwtag  DW_TAG_structure_type
    4250                      .dwattr DW$T$36, DW_AT_byte_size(0x01)
    4251              DW$303  .dwtag  DW_TAG_member, DW_AT_type(*DW$T$11)
    4252                      .dwattr DW$303, DW_AT_name("notused1"), DW_AT_symbol_name("_notused1")
    4253                      .dwattr DW$303, DW_AT_data_member_location[DW_OP_plus_uconst 0x0]
    4254                      .dwattr DW$303, DW_AT_accessibility(DW_ACCESS_public)
    4255                      .dwendtag DW$T$36
    4256              
    4257              
    4258              DW$T$40 .dwtag  DW_TAG_structure_type
    4259                      .dwattr DW$T$40, DW_AT_name("tag_timers")
    4260                      .dwattr DW$T$40, DW_AT_byte_size(0x4c)
    4261              DW$304  .dwtag  DW_TAG_member, DW_AT_type(*DW$T$11)
    4262                      .dwattr DW$304, DW_AT_name("update"), DW_AT_symbol_name("_update")
    4263                      .dwattr DW$304, DW_AT_data_member_location[DW_OP_plus_uconst 0x0]
    4264                      .dwattr DW$304, DW_AT_accessibility(DW_ACCESS_public)
    4265              DW$305  .dwtag  DW_TAG_member, DW_AT_type(*DW$T$11)
    4266                      .dwattr DW$305, DW_AT_name("general"), DW_AT_symbol_name("_general")
TMS320C2000 COFF Assembler PC v4.1.3 Thu Aug 18 12:16:32 2016

Tools Copyright (c) 1996-2006 Texas Instruments Incorporated
spi.asm                                                              PAGE   90

    4267                      .dwattr DW$305, DW_AT_data_member_location[DW_OP_plus_uconst 0x1]
    4268                      .dwattr DW$305, DW_AT_accessibility(DW_ACCESS_public)
    4269              DW$306  .dwtag  DW_TAG_member, DW_AT_type(*DW$T$11)
    4270                      .dwattr DW$306, DW_AT_name("rxcharTimeout"), DW_AT_symbol_name("_rxcharTimeout")
    4271                      .dwattr DW$306, DW_AT_data_member_location[DW_OP_plus_uconst 0x2]
    4272                      .dwattr DW$306, DW_AT_accessibility(DW_ACCESS_public)
    4273              DW$307  .dwtag  DW_TAG_member, DW_AT_type(*DW$T$11)
    4274                      .dwattr DW$307, DW_AT_name("wiorxtimeout"), DW_AT_symbol_name("_wiorxtimeout")
    4275                      .dwattr DW$307, DW_AT_data_member_location[DW_OP_plus_uconst 0x3]
    4276                      .dwattr DW$307, DW_AT_accessibility(DW_ACCESS_public)
    4277              DW$308  .dwtag  DW_TAG_member, DW_AT_type(*DW$T$11)
    4278                      .dwattr DW$308, DW_AT_name("wiomasterrxtimeout"), DW_AT_symbol_name("_wiomasterrxtimeout")
    4279                      .dwattr DW$308, DW_AT_data_member_location[DW_OP_plus_uconst 0x4]
    4280                      .dwattr DW$308, DW_AT_accessibility(DW_ACCESS_public)
    4281              DW$309  .dwtag  DW_TAG_member, DW_AT_type(*DW$T$11)
    4282                      .dwattr DW$309, DW_AT_name("masterrxtimeout"), DW_AT_symbol_name("_masterrxtimeout")
    4283                      .dwattr DW$309, DW_AT_data_member_location[DW_OP_plus_uconst 0x5]
    4284                      .dwattr DW$309, DW_AT_accessibility(DW_ACCESS_public)
    4285              DW$310  .dwtag  DW_TAG_member, DW_AT_type(*DW$T$11)
    4286                      .dwattr DW$310, DW_AT_name("slaverxtimeout"), DW_AT_symbol_name("_slaverxtimeout")
    4287                      .dwattr DW$310, DW_AT_data_member_location[DW_OP_plus_uconst 0x6]
    4288                      .dwattr DW$310, DW_AT_accessibility(DW_ACCESS_public)
    4289              DW$311  .dwtag  DW_TAG_member, DW_AT_type(*DW$T$11)
    4290                      .dwattr DW$311, DW_AT_name("sectick"), DW_AT_symbol_name("_sectick")
    4291                      .dwattr DW$311, DW_AT_data_member_location[DW_OP_plus_uconst 0x7]
    4292                      .dwattr DW$311, DW_AT_accessibility(DW_ACCESS_public)
    4293              DW$312  .dwtag  DW_TAG_member, DW_AT_type(*DW$T$11)
    4294                      .dwattr DW$312, DW_AT_name("ledflash"), DW_AT_symbol_name("_ledflash")
    4295                      .dwattr DW$312, DW_AT_data_member_location[DW_OP_plus_uconst 0x8]
    4296                      .dwattr DW$312, DW_AT_accessibility(DW_ACCESS_public)
    4297              DW$313  .dwtag  DW_TAG_member, DW_AT_type(*DW$T$11)
    4298                      .dwattr DW$313, DW_AT_name("prtsettle"), DW_AT_symbol_name("_prtsettle")
    4299                      .dwattr DW$313, DW_AT_data_member_location[DW_OP_plus_uconst 0x9]
    4300                      .dwattr DW$313, DW_AT_accessibility(DW_ACCESS_public)
    4301              DW$314  .dwtag  DW_TAG_member, DW_AT_type(*DW$T$21)
    4302                      .dwattr DW$314, DW_AT_name("chantimeout"), DW_AT_symbol_name("_chantimeout")
    4303                      .dwattr DW$314, DW_AT_data_member_location[DW_OP_plus_uconst 0xa]
    4304                      .dwattr DW$314, DW_AT_accessibility(DW_ACCESS_public)
    4305              DW$315  .dwtag  DW_TAG_member, DW_AT_type(*DW$T$21)
    4306                      .dwattr DW$315, DW_AT_name("chanwait"), DW_AT_symbol_name("_chanwait")
    4307                      .dwattr DW$315, DW_AT_data_member_location[DW_OP_plus_uconst 0x18]
    4308                      .dwattr DW$315, DW_AT_accessibility(DW_ACCESS_public)
    4309              DW$316  .dwtag  DW_TAG_member, DW_AT_type(*DW$T$11)
    4310                      .dwattr DW$316, DW_AT_name("pcrxtimeout"), DW_AT_symbol_name("_pcrxtimeout")
    4311                      .dwattr DW$316, DW_AT_data_member_location[DW_OP_plus_uconst 0x26]
    4312                      .dwattr DW$316, DW_AT_accessibility(DW_ACCESS_public)
    4313              DW$317  .dwtag  DW_TAG_member, DW_AT_type(*DW$T$11)
    4314                      .dwattr DW$317, DW_AT_name("pctxtimeout"), DW_AT_symbol_name("_pctxtimeout")
    4315                      .dwattr DW$317, DW_AT_data_member_location[DW_OP_plus_uconst 0x27]
    4316                      .dwattr DW$317, DW_AT_accessibility(DW_ACCESS_public)
    4317              DW$318  .dwtag  DW_TAG_member, DW_AT_type(*DW$T$11)
    4318                      .dwattr DW$318, DW_AT_name("spistatus"), DW_AT_symbol_name("_spistatus")
    4319                      .dwattr DW$318, DW_AT_data_member_location[DW_OP_plus_uconst 0x28]
    4320                      .dwattr DW$318, DW_AT_accessibility(DW_ACCESS_public)
    4321              DW$319  .dwtag  DW_TAG_member, DW_AT_type(*DW$T$11)
TMS320C2000 COFF Assembler PC v4.1.3 Thu Aug 18 12:16:32 2016

Tools Copyright (c) 1996-2006 Texas Instruments Incorporated
spi.asm                                                              PAGE   91

    4322                      .dwattr DW$319, DW_AT_name("rpm"), DW_AT_symbol_name("_rpm")
    4323                      .dwattr DW$319, DW_AT_data_member_location[DW_OP_plus_uconst 0x29]
    4324                      .dwattr DW$319, DW_AT_accessibility(DW_ACCESS_public)
    4325              DW$320  .dwtag  DW_TAG_member, DW_AT_type(*DW$T$11)
    4326                      .dwattr DW$320, DW_AT_name("slaverqst"), DW_AT_symbol_name("_slaverqst")
    4327                      .dwattr DW$320, DW_AT_data_member_location[DW_OP_plus_uconst 0x2a]
    4328                      .dwattr DW$320, DW_AT_accessibility(DW_ACCESS_public)
    4329              DW$321  .dwtag  DW_TAG_member, DW_AT_type(*DW$T$11)
    4330                      .dwattr DW$321, DW_AT_name("mastermodebutton"), DW_AT_symbol_name("_mastermodebutton")
    4331                      .dwattr DW$321, DW_AT_data_member_location[DW_OP_plus_uconst 0x2b]
    4332                      .dwattr DW$321, DW_AT_accessibility(DW_ACCESS_public)
    4333              DW$322  .dwtag  DW_TAG_member, DW_AT_type(*DW$T$11)
    4334                      .dwattr DW$322, DW_AT_name("dcmode"), DW_AT_symbol_name("_dcmode")
    4335                      .dwattr DW$322, DW_AT_data_member_location[DW_OP_plus_uconst 0x2c]
    4336                      .dwattr DW$322, DW_AT_accessibility(DW_ACCESS_public)
    4337              DW$323  .dwtag  DW_TAG_member, DW_AT_type(*DW$T$13)
    4338                      .dwattr DW$323, DW_AT_name("calibrate"), DW_AT_symbol_name("_calibrate")
    4339                      .dwattr DW$323, DW_AT_data_member_location[DW_OP_plus_uconst 0x2e]
    4340                      .dwattr DW$323, DW_AT_accessibility(DW_ACCESS_public)
    4341              DW$324  .dwtag  DW_TAG_member, DW_AT_type(*DW$T$13)
    4342                      .dwattr DW$324, DW_AT_name("calibrate2"), DW_AT_symbol_name("_calibrate2")
    4343                      .dwattr DW$324, DW_AT_data_member_location[DW_OP_plus_uconst 0x30]
    4344                      .dwattr DW$324, DW_AT_accessibility(DW_ACCESS_public)
    4345              DW$325  .dwtag  DW_TAG_member, DW_AT_type(*DW$T$11)
    4346                      .dwattr DW$325, DW_AT_name("alarmreflash"), DW_AT_symbol_name("_alarmreflash")
    4347                      .dwattr DW$325, DW_AT_data_member_location[DW_OP_plus_uconst 0x32]
    4348                      .dwattr DW$325, DW_AT_accessibility(DW_ACCESS_public)
    4349              DW$326  .dwtag  DW_TAG_member, DW_AT_type(*DW$T$11)
    4350                      .dwattr DW$326, DW_AT_name("slowdownreflash"), DW_AT_symbol_name("_slowdownreflash")
    4351                      .dwattr DW$326, DW_AT_data_member_location[DW_OP_plus_uconst 0x33]
    4352                      .dwattr DW$326, DW_AT_accessibility(DW_ACCESS_public)
    4353              DW$327  .dwtag  DW_TAG_member, DW_AT_type(*DW$T$11)
    4354                      .dwattr DW$327, DW_AT_name("wiorqst"), DW_AT_symbol_name("_wiorqst")
    4355                      .dwattr DW$327, DW_AT_data_member_location[DW_OP_plus_uconst 0x34]
    4356                      .dwattr DW$327, DW_AT_accessibility(DW_ACCESS_public)
    4357              DW$328  .dwtag  DW_TAG_member, DW_AT_type(*DW$T$11)
    4358                      .dwattr DW$328, DW_AT_name("rpmtimeout"), DW_AT_symbol_name("_rpmtimeout")
    4359                      .dwattr DW$328, DW_AT_data_member_location[DW_OP_plus_uconst 0x35]
    4360                      .dwattr DW$328, DW_AT_accessibility(DW_ACCESS_public)
    4361              DW$329  .dwtag  DW_TAG_member, DW_AT_type(*DW$T$11)
    4362                      .dwattr DW$329, DW_AT_name("analogoor"), DW_AT_symbol_name("_analogoor")
    4363                      .dwattr DW$329, DW_AT_data_member_location[DW_OP_plus_uconst 0x36]
    4364                      .dwattr DW$329, DW_AT_accessibility(DW_ACCESS_public)
    4365              DW$330  .dwtag  DW_TAG_member, DW_AT_type(*DW$T$11)
    4366                      .dwattr DW$330, DW_AT_name("motioncal"), DW_AT_symbol_name("_motioncal")
    4367                      .dwattr DW$330, DW_AT_data_member_location[DW_OP_plus_uconst 0x37]
    4368                      .dwattr DW$330, DW_AT_accessibility(DW_ACCESS_public)
    4369              DW$331  .dwtag  DW_TAG_member, DW_AT_type(*DW$T$11)
    4370                      .dwattr DW$331, DW_AT_name("framcheck"), DW_AT_symbol_name("_framcheck")
    4371                      .dwattr DW$331, DW_AT_data_member_location[DW_OP_plus_uconst 0x38]
    4372                      .dwattr DW$331, DW_AT_accessibility(DW_ACCESS_public)
    4373              DW$332  .dwtag  DW_TAG_member, DW_AT_type(*DW$T$11)
    4374                      .dwattr DW$332, DW_AT_name("pcmodbus"), DW_AT_symbol_name("_pcmodbus")
    4375                      .dwattr DW$332, DW_AT_data_member_location[DW_OP_plus_uconst 0x39]
    4376                      .dwattr DW$332, DW_AT_accessibility(DW_ACCESS_public)
TMS320C2000 COFF Assembler PC v4.1.3 Thu Aug 18 12:16:32 2016

Tools Copyright (c) 1996-2006 Texas Instruments Incorporated
spi.asm                                                              PAGE   92

    4377              DW$333  .dwtag  DW_TAG_member, DW_AT_type(*DW$T$11)
    4378                      .dwattr DW$333, DW_AT_name("statusreflash"), DW_AT_symbol_name("_statusreflash")
    4379                      .dwattr DW$333, DW_AT_data_member_location[DW_OP_plus_uconst 0x3a]
    4380                      .dwattr DW$333, DW_AT_accessibility(DW_ACCESS_public)
    4381              DW$334  .dwtag  DW_TAG_member, DW_AT_type(*DW$T$13)
    4382                      .dwattr DW$334, DW_AT_name("prewarn"), DW_AT_symbol_name("_prewarn")
    4383                      .dwattr DW$334, DW_AT_data_member_location[DW_OP_plus_uconst 0x3c]
    4384                      .dwattr DW$334, DW_AT_accessibility(DW_ACCESS_public)
    4385              DW$335  .dwtag  DW_TAG_member, DW_AT_type(*DW$T$11)
    4386                      .dwattr DW$335, DW_AT_name("clocktofram"), DW_AT_symbol_name("_clocktofram")
    4387                      .dwattr DW$335, DW_AT_data_member_location[DW_OP_plus_uconst 0x3e]
    4388                      .dwattr DW$335, DW_AT_accessibility(DW_ACCESS_public)
    4389              DW$336  .dwtag  DW_TAG_member, DW_AT_type(*DW$T$11)
    4390                      .dwattr DW$336, DW_AT_name("debugrapidfast"), DW_AT_symbol_name("_debugrapidfast")
    4391                      .dwattr DW$336, DW_AT_data_member_location[DW_OP_plus_uconst 0x3f]
    4392                      .dwattr DW$336, DW_AT_accessibility(DW_ACCESS_public)
    4393              DW$337  .dwtag  DW_TAG_member, DW_AT_type(*DW$T$11)
    4394                      .dwattr DW$337, DW_AT_name("debugupdate"), DW_AT_symbol_name("_debugupdate")
    4395                      .dwattr DW$337, DW_AT_data_member_location[DW_OP_plus_uconst 0x40]
    4396                      .dwattr DW$337, DW_AT_accessibility(DW_ACCESS_public)
    4397              DW$338  .dwtag  DW_TAG_member, DW_AT_type(*DW$T$11)
    4398                      .dwattr DW$338, DW_AT_name("dircountdown"), DW_AT_symbol_name("_dircountdown")
    4399                      .dwattr DW$338, DW_AT_data_member_location[DW_OP_plus_uconst 0x41]
    4400                      .dwattr DW$338, DW_AT_accessibility(DW_ACCESS_public)
    4401              DW$339  .dwtag  DW_TAG_member, DW_AT_type(*DW$T$11)
    4402                      .dwattr DW$339, DW_AT_name("startup"), DW_AT_symbol_name("_startup")
    4403                      .dwattr DW$339, DW_AT_data_member_location[DW_OP_plus_uconst 0x42]
    4404                      .dwattr DW$339, DW_AT_accessibility(DW_ACCESS_public)
    4405              DW$340  .dwtag  DW_TAG_member, DW_AT_type(*DW$T$11)
    4406                      .dwattr DW$340, DW_AT_name("analogsettle"), DW_AT_symbol_name("_analogsettle")
    4407                      .dwattr DW$340, DW_AT_data_member_location[DW_OP_plus_uconst 0x43]
    4408                      .dwattr DW$340, DW_AT_accessibility(DW_ACCESS_public)
    4409              DW$341  .dwtag  DW_TAG_member, DW_AT_type(*DW$T$11)
    4410                      .dwattr DW$341, DW_AT_name("reprogram"), DW_AT_symbol_name("_reprogram")
    4411                      .dwattr DW$341, DW_AT_data_member_location[DW_OP_plus_uconst 0x44]
    4412                      .dwattr DW$341, DW_AT_accessibility(DW_ACCESS_public)
    4413              DW$342  .dwtag  DW_TAG_member, DW_AT_type(*DW$T$11)
    4414                      .dwattr DW$342, DW_AT_name("reprogramtimeout"), DW_AT_symbol_name("_reprogramtimeout")
    4415                      .dwattr DW$342, DW_AT_data_member_location[DW_OP_plus_uconst 0x45]
    4416                      .dwattr DW$342, DW_AT_accessibility(DW_ACCESS_public)
    4417              DW$343  .dwtag  DW_TAG_member, DW_AT_type(*DW$T$11)
    4418                      .dwattr DW$343, DW_AT_name("dcmodestayalive"), DW_AT_symbol_name("_dcmodestayalive")
    4419                      .dwattr DW$343, DW_AT_data_member_location[DW_OP_plus_uconst 0x46]
    4420                      .dwattr DW$343, DW_AT_accessibility(DW_ACCESS_public)
    4421              DW$344  .dwtag  DW_TAG_member, DW_AT_type(*DW$T$11)
    4422                      .dwattr DW$344, DW_AT_name("biteventchange"), DW_AT_symbol_name("_biteventchange")
    4423                      .dwattr DW$344, DW_AT_data_member_location[DW_OP_plus_uconst 0x47]
    4424                      .dwattr DW$344, DW_AT_accessibility(DW_ACCESS_public)
    4425              DW$345  .dwtag  DW_TAG_member, DW_AT_type(*DW$T$11)
    4426                      .dwattr DW$345, DW_AT_name("iSensorReplace"), DW_AT_symbol_name("_iSensorReplace")
    4427                      .dwattr DW$345, DW_AT_data_member_location[DW_OP_plus_uconst 0x48]
    4428                      .dwattr DW$345, DW_AT_accessibility(DW_ACCESS_public)
    4429              DW$346  .dwtag  DW_TAG_member, DW_AT_type(*DW$T$13)
    4430                      .dwattr DW$346, DW_AT_name("deltarpm15Delay"), DW_AT_symbol_name("_deltarpm15Delay")
    4431                      .dwattr DW$346, DW_AT_data_member_location[DW_OP_plus_uconst 0x4a]
TMS320C2000 COFF Assembler PC v4.1.3 Thu Aug 18 12:16:32 2016

Tools Copyright (c) 1996-2006 Texas Instruments Incorporated
spi.asm                                                              PAGE   93

    4432                      .dwattr DW$346, DW_AT_accessibility(DW_ACCESS_public)
    4433                      .dwendtag DW$T$40
    4434              
    4435              
    4436              DW$T$41 .dwtag  DW_TAG_structure_type
    4437                      .dwattr DW$T$41, DW_AT_byte_size(0x01)
    4438              DW$347  .dwtag  DW_TAG_member, DW_AT_type(*DW$T$11)
    4439                      .dwattr DW$347, DW_AT_name("inputtap"), DW_AT_symbol_name("_inputtap")
    4440                      .dwattr DW$347, DW_AT_data_member_location[DW_OP_plus_uconst 0x0]
    4441                      .dwattr DW$347, DW_AT_accessibility(DW_ACCESS_public)
    4442                      .dwendtag DW$T$41
    4443              
    4444              
    4445              DW$T$42 .dwtag  DW_TAG_structure_type
    4446                      .dwattr DW$T$42, DW_AT_byte_size(0x01)
    4447              DW$348  .dwtag  DW_TAG_member, DW_AT_type(*DW$T$11)
    4448                      .dwattr DW$348, DW_AT_name("bitmap"), DW_AT_symbol_name("_bitmap")
    4449                      .dwattr DW$348, DW_AT_data_member_location[DW_OP_plus_uconst 0x0]
    4450                      .dwattr DW$348, DW_AT_accessibility(DW_ACCESS_public)
    4451                      .dwendtag DW$T$42
    4452              
    4453              
    4454              DW$T$43 .dwtag  DW_TAG_structure_type
    4455                      .dwattr DW$T$43, DW_AT_byte_size(0x01)
    4456              DW$349  .dwtag  DW_TAG_member, DW_AT_type(*DW$T$11)
    4457                      .dwattr DW$349, DW_AT_name("graphvalue"), DW_AT_symbol_name("_graphvalue")
    4458                      .dwattr DW$349, DW_AT_data_member_location[DW_OP_plus_uconst 0x0]
    4459                      .dwattr DW$349, DW_AT_accessibility(DW_ACCESS_public)
    4460                      .dwendtag DW$T$43
    4461              
    4462              
    4463              DW$T$44 .dwtag  DW_TAG_structure_type
    4464                      .dwattr DW$T$44, DW_AT_byte_size(0x03)
    4465              DW$350  .dwtag  DW_TAG_member, DW_AT_type(*DW$T$11)
    4466                      .dwattr DW$350, DW_AT_name("chanlowthreshold"), DW_AT_symbol_name("_chanlowthreshold")
    4467                      .dwattr DW$350, DW_AT_data_member_location[DW_OP_plus_uconst 0x0]
    4468                      .dwattr DW$350, DW_AT_accessibility(DW_ACCESS_public)
    4469              DW$351  .dwtag  DW_TAG_member, DW_AT_type(*DW$T$11)
    4470                      .dwattr DW$351, DW_AT_name("chanhighthreshold"), DW_AT_symbol_name("_chanhighthreshold")
    4471                      .dwattr DW$351, DW_AT_data_member_location[DW_OP_plus_uconst 0x1]
    4472                      .dwattr DW$351, DW_AT_accessibility(DW_ACCESS_public)
    4473              DW$352  .dwtag  DW_TAG_member, DW_AT_type(*DW$T$11)
    4474                      .dwattr DW$352, DW_AT_name("sensorscalingfactor"), DW_AT_symbol_name("_sensorscalingfactor")
    4475                      .dwattr DW$352, DW_AT_data_member_location[DW_OP_plus_uconst 0x2]
    4476                      .dwattr DW$352, DW_AT_accessibility(DW_ACCESS_public)
    4477                      .dwendtag DW$T$44
    4478              
    4479              
    4480              DW$T$45 .dwtag  DW_TAG_structure_type
    4481                      .dwattr DW$T$45, DW_AT_byte_size(0x02)
    4482              DW$353  .dwtag  DW_TAG_member, DW_AT_type(*DW$T$11)
    4483                      .dwattr DW$353, DW_AT_name("shortlrate"), DW_AT_symbol_name("_shortlrate")
    4484                      .dwattr DW$353, DW_AT_data_member_location[DW_OP_plus_uconst 0x0]
    4485                      .dwattr DW$353, DW_AT_accessibility(DW_ACCESS_public)
    4486              DW$354  .dwtag  DW_TAG_member, DW_AT_type(*DW$T$11)
TMS320C2000 COFF Assembler PC v4.1.3 Thu Aug 18 12:16:32 2016

Tools Copyright (c) 1996-2006 Texas Instruments Incorporated
spi.asm                                                              PAGE   94

    4487                      .dwattr DW$354, DW_AT_name("longlrate"), DW_AT_symbol_name("_longlrate")
    4488                      .dwattr DW$354, DW_AT_data_member_location[DW_OP_plus_uconst 0x1]
    4489                      .dwattr DW$354, DW_AT_accessibility(DW_ACCESS_public)
    4490                      .dwendtag DW$T$45
    4491              
    4492              
    4493              DW$T$46 .dwtag  DW_TAG_structure_type
    4494                      .dwattr DW$T$46, DW_AT_byte_size(0x10)
    4495              DW$355  .dwtag  DW_TAG_member, DW_AT_type(*DW$T$13)
    4496                      .dwattr DW$355, DW_AT_name("wiorequest"), DW_AT_symbol_name("_wiorequest")
    4497                      .dwattr DW$355, DW_AT_data_member_location[DW_OP_plus_uconst 0x0]
    4498                      .dwattr DW$355, DW_AT_accessibility(DW_ACCESS_public)
    4499              DW$356  .dwtag  DW_TAG_member, DW_AT_type(*DW$T$13)
    4500                      .dwattr DW$356, DW_AT_name("wiocancelled"), DW_AT_symbol_name("_wiocancelled")
    4501                      .dwattr DW$356, DW_AT_data_member_location[DW_OP_plus_uconst 0x2]
    4502                      .dwattr DW$356, DW_AT_accessibility(DW_ACCESS_public)
    4503              DW$357  .dwtag  DW_TAG_member, DW_AT_type(*DW$T$13)
    4504                      .dwattr DW$357, DW_AT_name("wioreceived"), DW_AT_symbol_name("_wioreceived")
    4505                      .dwattr DW$357, DW_AT_data_member_location[DW_OP_plus_uconst 0x4]
    4506                      .dwattr DW$357, DW_AT_accessibility(DW_ACCESS_public)
    4507              DW$358  .dwtag  DW_TAG_member, DW_AT_type(*DW$T$13)
    4508                      .dwattr DW$358, DW_AT_name("slaverequest"), DW_AT_symbol_name("_slaverequest")
    4509                      .dwattr DW$358, DW_AT_data_member_location[DW_OP_plus_uconst 0x6]
    4510                      .dwattr DW$358, DW_AT_accessibility(DW_ACCESS_public)
    4511              DW$359  .dwtag  DW_TAG_member, DW_AT_type(*DW$T$13)
    4512                      .dwattr DW$359, DW_AT_name("slavereceived"), DW_AT_symbol_name("_slavereceived")
    4513                      .dwattr DW$359, DW_AT_data_member_location[DW_OP_plus_uconst 0x8]
    4514                      .dwattr DW$359, DW_AT_accessibility(DW_ACCESS_public)
    4515              DW$360  .dwtag  DW_TAG_member, DW_AT_type(*DW$T$13)
    4516                      .dwattr DW$360, DW_AT_name("slaveretry"), DW_AT_symbol_name("_slaveretry")
    4517                      .dwattr DW$360, DW_AT_data_member_location[DW_OP_plus_uconst 0xa]
    4518                      .dwattr DW$360, DW_AT_accessibility(DW_ACCESS_public)
    4519              DW$361  .dwtag  DW_TAG_member, DW_AT_type(*DW$T$13)
    4520                      .dwattr DW$361, DW_AT_name("pcrequest"), DW_AT_symbol_name("_pcrequest")
    4521                      .dwattr DW$361, DW_AT_data_member_location[DW_OP_plus_uconst 0xc]
    4522                      .dwattr DW$361, DW_AT_accessibility(DW_ACCESS_public)
    4523              DW$362  .dwtag  DW_TAG_member, DW_AT_type(*DW$T$13)
    4524                      .dwattr DW$362, DW_AT_name("pcreqtimeout"), DW_AT_symbol_name("_pcreqtimeout")
    4525                      .dwattr DW$362, DW_AT_data_member_location[DW_OP_plus_uconst 0xe]
    4526                      .dwattr DW$362, DW_AT_accessibility(DW_ACCESS_public)
    4527                      .dwendtag DW$T$46
    4528              
    4529              
    4530              DW$T$50 .dwtag  DW_TAG_structure_type
    4531                      .dwattr DW$T$50, DW_AT_name("taggpbport")
    4532                      .dwattr DW$T$50, DW_AT_byte_size(0x01)
    4533              DW$363  .dwtag  DW_TAG_member, DW_AT_type(*DW$T$49)
    4534                      .dwattr DW$363, DW_AT_name("selunion"), DW_AT_symbol_name("_selunion")
    4535                      .dwattr DW$363, DW_AT_data_member_location[DW_OP_plus_uconst 0x0]
    4536                      .dwattr DW$363, DW_AT_accessibility(DW_ACCESS_public)
    4537                      .dwendtag DW$T$50
    4538              
    4539              
    4540              DW$T$53 .dwtag  DW_TAG_structure_type
    4541                      .dwattr DW$T$53, DW_AT_name("taggpfport")
TMS320C2000 COFF Assembler PC v4.1.3 Thu Aug 18 12:16:32 2016

Tools Copyright (c) 1996-2006 Texas Instruments Incorporated
spi.asm                                                              PAGE   95

    4542                      .dwattr DW$T$53, DW_AT_byte_size(0x01)
    4543              DW$364  .dwtag  DW_TAG_member, DW_AT_type(*DW$T$52)
    4544                      .dwattr DW$364, DW_AT_name("selunion"), DW_AT_symbol_name("_selunion")
    4545                      .dwattr DW$364, DW_AT_data_member_location[DW_OP_plus_uconst 0x0]
    4546                      .dwattr DW$364, DW_AT_accessibility(DW_ACCESS_public)
    4547                      .dwendtag DW$T$53
    4548              
    4549              
    4550              DW$T$57 .dwtag  DW_TAG_structure_type
    4551                      .dwattr DW$T$57, DW_AT_byte_size(0x01)
    4552              DW$365  .dwtag  DW_TAG_member, DW_AT_type(*DW$T$10)
    4553                      .dwattr DW$365, DW_AT_name("settings"), DW_AT_symbol_name("_settings")
    4554                      .dwattr DW$365, DW_AT_bit_offset(0x0f), DW_AT_bit_size(0x01)
    4555                      .dwattr DW$365, DW_AT_data_member_location[DW_OP_plus_uconst 0x0]
    4556                      .dwattr DW$365, DW_AT_accessibility(DW_ACCESS_public)
    4557              DW$366  .dwtag  DW_TAG_member, DW_AT_type(*DW$T$10)
    4558                      .dwattr DW$366, DW_AT_name("sensorstatus"), DW_AT_symbol_name("_sensorstatus")
    4559                      .dwattr DW$366, DW_AT_bit_offset(0x0e), DW_AT_bit_size(0x01)
    4560                      .dwattr DW$366, DW_AT_data_member_location[DW_OP_plus_uconst 0x0]
    4561                      .dwattr DW$366, DW_AT_accessibility(DW_ACCESS_public)
    4562              DW$367  .dwtag  DW_TAG_member, DW_AT_type(*DW$T$10)
    4563                      .dwattr DW$367, DW_AT_name("offsets"), DW_AT_symbol_name("_offsets")
    4564                      .dwattr DW$367, DW_AT_bit_offset(0x0d), DW_AT_bit_size(0x01)
    4565                      .dwattr DW$367, DW_AT_data_member_location[DW_OP_plus_uconst 0x0]
    4566                      .dwattr DW$367, DW_AT_accessibility(DW_ACCESS_public)
    4567              DW$368  .dwtag  DW_TAG_member, DW_AT_type(*DW$T$10)
    4568                      .dwattr DW$368, DW_AT_name("mantable"), DW_AT_symbol_name("_mantable")
    4569                      .dwattr DW$368, DW_AT_bit_offset(0x0c), DW_AT_bit_size(0x01)
    4570                      .dwattr DW$368, DW_AT_data_member_location[DW_OP_plus_uconst 0x0]
    4571                      .dwattr DW$368, DW_AT_accessibility(DW_ACCESS_public)
    4572              DW$369  .dwtag  DW_TAG_member, DW_AT_type(*DW$T$10)
    4573                      .dwattr DW$369, DW_AT_name("calibtd"), DW_AT_symbol_name("_calibtd")
    4574                      .dwattr DW$369, DW_AT_bit_offset(0x0b), DW_AT_bit_size(0x01)
    4575                      .dwattr DW$369, DW_AT_data_member_location[DW_OP_plus_uconst 0x0]
    4576                      .dwattr DW$369, DW_AT_accessibility(DW_ACCESS_public)
    4577              DW$370  .dwtag  DW_TAG_member, DW_AT_type(*DW$T$10)
    4578                      .dwattr DW$370, DW_AT_name("unused6"), DW_AT_symbol_name("_unused6")
    4579                      .dwattr DW$370, DW_AT_bit_offset(0x0a), DW_AT_bit_size(0x01)
    4580                      .dwattr DW$370, DW_AT_data_member_location[DW_OP_plus_uconst 0x0]
    4581                      .dwattr DW$370, DW_AT_accessibility(DW_ACCESS_public)
    4582              DW$371  .dwtag  DW_TAG_member, DW_AT_type(*DW$T$10)
    4583                      .dwattr DW$371, DW_AT_name("unused7"), DW_AT_symbol_name("_unused7")
    4584                      .dwattr DW$371, DW_AT_bit_offset(0x09), DW_AT_bit_size(0x01)
    4585                      .dwattr DW$371, DW_AT_data_member_location[DW_OP_plus_uconst 0x0]
    4586                      .dwattr DW$371, DW_AT_accessibility(DW_ACCESS_public)
    4587              DW$372  .dwtag  DW_TAG_member, DW_AT_type(*DW$T$10)
    4588                      .dwattr DW$372, DW_AT_name("unused8"), DW_AT_symbol_name("_unused8")
    4589                      .dwattr DW$372, DW_AT_bit_offset(0x08), DW_AT_bit_size(0x01)
    4590                      .dwattr DW$372, DW_AT_data_member_location[DW_OP_plus_uconst 0x0]
    4591                      .dwattr DW$372, DW_AT_accessibility(DW_ACCESS_public)
    4592              DW$373  .dwtag  DW_TAG_member, DW_AT_type(*DW$T$10)
    4593                      .dwattr DW$373, DW_AT_name("unused9"), DW_AT_symbol_name("_unused9")
    4594                      .dwattr DW$373, DW_AT_bit_offset(0x07), DW_AT_bit_size(0x01)
    4595                      .dwattr DW$373, DW_AT_data_member_location[DW_OP_plus_uconst 0x0]
    4596                      .dwattr DW$373, DW_AT_accessibility(DW_ACCESS_public)
TMS320C2000 COFF Assembler PC v4.1.3 Thu Aug 18 12:16:32 2016

Tools Copyright (c) 1996-2006 Texas Instruments Incorporated
spi.asm                                                              PAGE   96

    4597              DW$374  .dwtag  DW_TAG_member, DW_AT_type(*DW$T$10)
    4598                      .dwattr DW$374, DW_AT_name("unused10"), DW_AT_symbol_name("_unused10")
    4599                      .dwattr DW$374, DW_AT_bit_offset(0x06), DW_AT_bit_size(0x01)
    4600                      .dwattr DW$374, DW_AT_data_member_location[DW_OP_plus_uconst 0x0]
    4601                      .dwattr DW$374, DW_AT_accessibility(DW_ACCESS_public)
    4602              DW$375  .dwtag  DW_TAG_member, DW_AT_type(*DW$T$10)
    4603                      .dwattr DW$375, DW_AT_name("unused11"), DW_AT_symbol_name("_unused11")
    4604                      .dwattr DW$375, DW_AT_bit_offset(0x05), DW_AT_bit_size(0x01)
    4605                      .dwattr DW$375, DW_AT_data_member_location[DW_OP_plus_uconst 0x0]
    4606                      .dwattr DW$375, DW_AT_accessibility(DW_ACCESS_public)
    4607              DW$376  .dwtag  DW_TAG_member, DW_AT_type(*DW$T$10)
    4608                      .dwattr DW$376, DW_AT_name("unused12"), DW_AT_symbol_name("_unused12")
    4609                      .dwattr DW$376, DW_AT_bit_offset(0x04), DW_AT_bit_size(0x01)
    4610                      .dwattr DW$376, DW_AT_data_member_location[DW_OP_plus_uconst 0x0]
    4611                      .dwattr DW$376, DW_AT_accessibility(DW_ACCESS_public)
    4612              DW$377  .dwtag  DW_TAG_member, DW_AT_type(*DW$T$10)
    4613                      .dwattr DW$377, DW_AT_name("unused13"), DW_AT_symbol_name("_unused13")
    4614                      .dwattr DW$377, DW_AT_bit_offset(0x03), DW_AT_bit_size(0x01)
    4615                      .dwattr DW$377, DW_AT_data_member_location[DW_OP_plus_uconst 0x0]
    4616                      .dwattr DW$377, DW_AT_accessibility(DW_ACCESS_public)
    4617              DW$378  .dwtag  DW_TAG_member, DW_AT_type(*DW$T$10)
    4618                      .dwattr DW$378, DW_AT_name("unused14"), DW_AT_symbol_name("_unused14")
    4619                      .dwattr DW$378, DW_AT_bit_offset(0x02), DW_AT_bit_size(0x01)
    4620                      .dwattr DW$378, DW_AT_data_member_location[DW_OP_plus_uconst 0x0]
    4621                      .dwattr DW$378, DW_AT_accessibility(DW_ACCESS_public)
    4622              DW$379  .dwtag  DW_TAG_member, DW_AT_type(*DW$T$10)
    4623                      .dwattr DW$379, DW_AT_name("unused15"), DW_AT_symbol_name("_unused15")
    4624                      .dwattr DW$379, DW_AT_bit_offset(0x01), DW_AT_bit_size(0x01)
    4625                      .dwattr DW$379, DW_AT_data_member_location[DW_OP_plus_uconst 0x0]
    4626                      .dwattr DW$379, DW_AT_accessibility(DW_ACCESS_public)
    4627              DW$380  .dwtag  DW_TAG_member, DW_AT_type(*DW$T$10)
    4628                      .dwattr DW$380, DW_AT_name("unused16"), DW_AT_symbol_name("_unused16")
    4629                      .dwattr DW$380, DW_AT_bit_offset(0x00), DW_AT_bit_size(0x01)
    4630                      .dwattr DW$380, DW_AT_data_member_location[DW_OP_plus_uconst 0x0]
    4631                      .dwattr DW$380, DW_AT_accessibility(DW_ACCESS_public)
    4632                      .dwendtag DW$T$57
    4633              
    4634              
    4635              DW$T$62 .dwtag  DW_TAG_union_type
    4636                      .dwattr DW$T$62, DW_AT_name("SPICCR_REG")
    4637                      .dwattr DW$T$62, DW_AT_byte_size(0x01)
    4638              DW$381  .dwtag  DW_TAG_member, DW_AT_type(*DW$T$11)
    4639                      .dwattr DW$381, DW_AT_name("all"), DW_AT_symbol_name("_all")
    4640                      .dwattr DW$381, DW_AT_data_member_location[DW_OP_plus_uconst 0x0]
    4641                      .dwattr DW$381, DW_AT_accessibility(DW_ACCESS_public)
    4642              DW$382  .dwtag  DW_TAG_member, DW_AT_type(*DW$T$61)
    4643                      .dwattr DW$382, DW_AT_name("bit"), DW_AT_symbol_name("_bit")
    4644                      .dwattr DW$382, DW_AT_data_member_location[DW_OP_plus_uconst 0x0]
    4645                      .dwattr DW$382, DW_AT_accessibility(DW_ACCESS_public)
    4646                      .dwendtag DW$T$62
    4647              
    4648              
    4649              DW$T$64 .dwtag  DW_TAG_union_type
    4650                      .dwattr DW$T$64, DW_AT_name("SPICTL_REG")
    4651                      .dwattr DW$T$64, DW_AT_byte_size(0x01)
TMS320C2000 COFF Assembler PC v4.1.3 Thu Aug 18 12:16:32 2016

Tools Copyright (c) 1996-2006 Texas Instruments Incorporated
spi.asm                                                              PAGE   97

    4652              DW$383  .dwtag  DW_TAG_member, DW_AT_type(*DW$T$11)
    4653                      .dwattr DW$383, DW_AT_name("all"), DW_AT_symbol_name("_all")
    4654                      .dwattr DW$383, DW_AT_data_member_location[DW_OP_plus_uconst 0x0]
    4655                      .dwattr DW$383, DW_AT_accessibility(DW_ACCESS_public)
    4656              DW$384  .dwtag  DW_TAG_member, DW_AT_type(*DW$T$63)
    4657                      .dwattr DW$384, DW_AT_name("bit"), DW_AT_symbol_name("_bit")
    4658                      .dwattr DW$384, DW_AT_data_member_location[DW_OP_plus_uconst 0x0]
    4659                      .dwattr DW$384, DW_AT_accessibility(DW_ACCESS_public)
    4660                      .dwendtag DW$T$64
    4661              
    4662              
    4663              DW$T$66 .dwtag  DW_TAG_union_type
    4664                      .dwattr DW$T$66, DW_AT_name("SPISTS_REG")
    4665                      .dwattr DW$T$66, DW_AT_byte_size(0x01)
    4666              DW$385  .dwtag  DW_TAG_member, DW_AT_type(*DW$T$11)
    4667                      .dwattr DW$385, DW_AT_name("all"), DW_AT_symbol_name("_all")
    4668                      .dwattr DW$385, DW_AT_data_member_location[DW_OP_plus_uconst 0x0]
    4669                      .dwattr DW$385, DW_AT_accessibility(DW_ACCESS_public)
    4670              DW$386  .dwtag  DW_TAG_member, DW_AT_type(*DW$T$65)
    4671                      .dwattr DW$386, DW_AT_name("bit"), DW_AT_symbol_name("_bit")
    4672                      .dwattr DW$386, DW_AT_data_member_location[DW_OP_plus_uconst 0x0]
    4673                      .dwattr DW$386, DW_AT_accessibility(DW_ACCESS_public)
    4674                      .dwendtag DW$T$66
    4675              
    4676              
    4677              DW$T$68 .dwtag  DW_TAG_union_type
    4678                      .dwattr DW$T$68, DW_AT_name("SPIFFTX_REG")
    4679                      .dwattr DW$T$68, DW_AT_byte_size(0x01)
    4680              DW$387  .dwtag  DW_TAG_member, DW_AT_type(*DW$T$11)
    4681                      .dwattr DW$387, DW_AT_name("all"), DW_AT_symbol_name("_all")
    4682                      .dwattr DW$387, DW_AT_data_member_location[DW_OP_plus_uconst 0x0]
    4683                      .dwattr DW$387, DW_AT_accessibility(DW_ACCESS_public)
    4684              DW$388  .dwtag  DW_TAG_member, DW_AT_type(*DW$T$67)
    4685                      .dwattr DW$388, DW_AT_name("bit"), DW_AT_symbol_name("_bit")
    4686                      .dwattr DW$388, DW_AT_data_member_location[DW_OP_plus_uconst 0x0]
    4687                      .dwattr DW$388, DW_AT_accessibility(DW_ACCESS_public)
    4688                      .dwendtag DW$T$68
    4689              
    4690              
    4691              DW$T$70 .dwtag  DW_TAG_union_type
    4692                      .dwattr DW$T$70, DW_AT_name("SPIFFRX_REG")
    4693                      .dwattr DW$T$70, DW_AT_byte_size(0x01)
    4694              DW$389  .dwtag  DW_TAG_member, DW_AT_type(*DW$T$11)
    4695                      .dwattr DW$389, DW_AT_name("all"), DW_AT_symbol_name("_all")
    4696                      .dwattr DW$389, DW_AT_data_member_location[DW_OP_plus_uconst 0x0]
    4697                      .dwattr DW$389, DW_AT_accessibility(DW_ACCESS_public)
    4698              DW$390  .dwtag  DW_TAG_member, DW_AT_type(*DW$T$69)
    4699                      .dwattr DW$390, DW_AT_name("bit"), DW_AT_symbol_name("_bit")
    4700                      .dwattr DW$390, DW_AT_data_member_location[DW_OP_plus_uconst 0x0]
    4701                      .dwattr DW$390, DW_AT_accessibility(DW_ACCESS_public)
    4702                      .dwendtag DW$T$70
    4703              
    4704              
    4705              DW$T$72 .dwtag  DW_TAG_union_type
    4706                      .dwattr DW$T$72, DW_AT_name("SPIFFCT_REG")
TMS320C2000 COFF Assembler PC v4.1.3 Thu Aug 18 12:16:32 2016

Tools Copyright (c) 1996-2006 Texas Instruments Incorporated
spi.asm                                                              PAGE   98

    4707                      .dwattr DW$T$72, DW_AT_byte_size(0x01)
    4708              DW$391  .dwtag  DW_TAG_member, DW_AT_type(*DW$T$11)
    4709                      .dwattr DW$391, DW_AT_name("all"), DW_AT_symbol_name("_all")
    4710                      .dwattr DW$391, DW_AT_data_member_location[DW_OP_plus_uconst 0x0]
    4711                      .dwattr DW$391, DW_AT_accessibility(DW_ACCESS_public)
    4712              DW$392  .dwtag  DW_TAG_member, DW_AT_type(*DW$T$71)
    4713                      .dwattr DW$392, DW_AT_name("bit"), DW_AT_symbol_name("_bit")
    4714                      .dwattr DW$392, DW_AT_data_member_location[DW_OP_plus_uconst 0x0]
    4715                      .dwattr DW$392, DW_AT_accessibility(DW_ACCESS_public)
    4716                      .dwendtag DW$T$72
    4717              
    4718              
    4719              DW$T$74 .dwtag  DW_TAG_union_type
    4720                      .dwattr DW$T$74, DW_AT_name("SPIPRI_REG")
    4721                      .dwattr DW$T$74, DW_AT_byte_size(0x01)
    4722              DW$393  .dwtag  DW_TAG_member, DW_AT_type(*DW$T$11)
    4723                      .dwattr DW$393, DW_AT_name("all"), DW_AT_symbol_name("_all")
    4724                      .dwattr DW$393, DW_AT_data_member_location[DW_OP_plus_uconst 0x0]
    4725                      .dwattr DW$393, DW_AT_accessibility(DW_ACCESS_public)
    4726              DW$394  .dwtag  DW_TAG_member, DW_AT_type(*DW$T$73)
    4727                      .dwattr DW$394, DW_AT_name("bit"), DW_AT_symbol_name("_bit")
    4728                      .dwattr DW$394, DW_AT_data_member_location[DW_OP_plus_uconst 0x0]
    4729                      .dwattr DW$394, DW_AT_accessibility(DW_ACCESS_public)
    4730                      .dwendtag DW$T$74
    4731              
    4732              
    4733              DW$T$25 .dwtag  DW_TAG_array_type, DW_AT_type(*DW$T$11)
    4734                      .dwattr DW$T$25, DW_AT_language(DW_LANG_C)
    4735                      .dwattr DW$T$25, DW_AT_byte_size(0x04)
    4736              DW$395  .dwtag  DW_TAG_subrange_type
    4737                      .dwattr DW$395, DW_AT_upper_bound(0x03)
    4738                      .dwendtag DW$T$25
    4739              
    4740              
    4741              DW$T$49 .dwtag  DW_TAG_union_type
    4742                      .dwattr DW$T$49, DW_AT_byte_size(0x01)
    4743              DW$396  .dwtag  DW_TAG_member, DW_AT_type(*DW$T$11)
    4744                      .dwattr DW$396, DW_AT_name("port"), DW_AT_symbol_name("_port")
    4745                      .dwattr DW$396, DW_AT_data_member_location[DW_OP_plus_uconst 0x0]
    4746                      .dwattr DW$396, DW_AT_accessibility(DW_ACCESS_public)
    4747              DW$397  .dwtag  DW_TAG_member, DW_AT_type(*DW$T$48)
    4748                      .dwattr DW$397, DW_AT_name("bits"), DW_AT_symbol_name("_bits")
    4749                      .dwattr DW$397, DW_AT_data_member_location[DW_OP_plus_uconst 0x0]
    4750                      .dwattr DW$397, DW_AT_accessibility(DW_ACCESS_public)
    4751                      .dwendtag DW$T$49
    4752              
    4753              
    4754              DW$T$52 .dwtag  DW_TAG_union_type
    4755                      .dwattr DW$T$52, DW_AT_byte_size(0x01)
    4756              DW$398  .dwtag  DW_TAG_member, DW_AT_type(*DW$T$11)
    4757                      .dwattr DW$398, DW_AT_name("port"), DW_AT_symbol_name("_port")
    4758                      .dwattr DW$398, DW_AT_data_member_location[DW_OP_plus_uconst 0x0]
    4759                      .dwattr DW$398, DW_AT_accessibility(DW_ACCESS_public)
    4760              DW$399  .dwtag  DW_TAG_member, DW_AT_type(*DW$T$51)
    4761                      .dwattr DW$399, DW_AT_name("bits"), DW_AT_symbol_name("_bits")
TMS320C2000 COFF Assembler PC v4.1.3 Thu Aug 18 12:16:32 2016

Tools Copyright (c) 1996-2006 Texas Instruments Incorporated
spi.asm                                                              PAGE   99

    4762                      .dwattr DW$399, DW_AT_data_member_location[DW_OP_plus_uconst 0x0]
    4763                      .dwattr DW$399, DW_AT_accessibility(DW_ACCESS_public)
    4764                      .dwendtag DW$T$52
    4765              
    4766              
    4767              DW$T$61 .dwtag  DW_TAG_structure_type
    4768                      .dwattr DW$T$61, DW_AT_name("SPICCR_BITS")
    4769                      .dwattr DW$T$61, DW_AT_byte_size(0x01)
    4770              DW$400  .dwtag  DW_TAG_member, DW_AT_type(*DW$T$11)
    4771                      .dwattr DW$400, DW_AT_name("SPICHAR"), DW_AT_symbol_name("_SPICHAR")
    4772                      .dwattr DW$400, DW_AT_bit_offset(0x0c), DW_AT_bit_size(0x04)
    4773                      .dwattr DW$400, DW_AT_data_member_location[DW_OP_plus_uconst 0x0]
    4774                      .dwattr DW$400, DW_AT_accessibility(DW_ACCESS_public)
    4775              DW$401  .dwtag  DW_TAG_member, DW_AT_type(*DW$T$11)
    4776                      .dwattr DW$401, DW_AT_name("SPILBK"), DW_AT_symbol_name("_SPILBK")
    4777                      .dwattr DW$401, DW_AT_bit_offset(0x0b), DW_AT_bit_size(0x01)
    4778                      .dwattr DW$401, DW_AT_data_member_location[DW_OP_plus_uconst 0x0]
    4779                      .dwattr DW$401, DW_AT_accessibility(DW_ACCESS_public)
    4780              DW$402  .dwtag  DW_TAG_member, DW_AT_type(*DW$T$11)
    4781                      .dwattr DW$402, DW_AT_name("rsvd1"), DW_AT_symbol_name("_rsvd1")
    4782                      .dwattr DW$402, DW_AT_bit_offset(0x0a), DW_AT_bit_size(0x01)
    4783                      .dwattr DW$402, DW_AT_data_member_location[DW_OP_plus_uconst 0x0]
    4784                      .dwattr DW$402, DW_AT_accessibility(DW_ACCESS_public)
    4785              DW$403  .dwtag  DW_TAG_member, DW_AT_type(*DW$T$11)
    4786                      .dwattr DW$403, DW_AT_name("CLKPOLARITY"), DW_AT_symbol_name("_CLKPOLARITY")
    4787                      .dwattr DW$403, DW_AT_bit_offset(0x09), DW_AT_bit_size(0x01)
    4788                      .dwattr DW$403, DW_AT_data_member_location[DW_OP_plus_uconst 0x0]
    4789                      .dwattr DW$403, DW_AT_accessibility(DW_ACCESS_public)
    4790              DW$404  .dwtag  DW_TAG_member, DW_AT_type(*DW$T$11)
    4791                      .dwattr DW$404, DW_AT_name("SPISWRESET"), DW_AT_symbol_name("_SPISWRESET")
    4792                      .dwattr DW$404, DW_AT_bit_offset(0x08), DW_AT_bit_size(0x01)
    4793                      .dwattr DW$404, DW_AT_data_member_location[DW_OP_plus_uconst 0x0]
    4794                      .dwattr DW$404, DW_AT_accessibility(DW_ACCESS_public)
    4795              DW$405  .dwtag  DW_TAG_member, DW_AT_type(*DW$T$11)
    4796                      .dwattr DW$405, DW_AT_name("rsvd2"), DW_AT_symbol_name("_rsvd2")
    4797                      .dwattr DW$405, DW_AT_bit_offset(0x00), DW_AT_bit_size(0x08)
    4798                      .dwattr DW$405, DW_AT_data_member_location[DW_OP_plus_uconst 0x0]
    4799                      .dwattr DW$405, DW_AT_accessibility(DW_ACCESS_public)
    4800                      .dwendtag DW$T$61
    4801              
    4802              
    4803              DW$T$63 .dwtag  DW_TAG_structure_type
    4804                      .dwattr DW$T$63, DW_AT_name("SPICTL_BITS")
    4805                      .dwattr DW$T$63, DW_AT_byte_size(0x01)
    4806              DW$406  .dwtag  DW_TAG_member, DW_AT_type(*DW$T$11)
    4807                      .dwattr DW$406, DW_AT_name("SPIINTENA"), DW_AT_symbol_name("_SPIINTENA")
    4808                      .dwattr DW$406, DW_AT_bit_offset(0x0f), DW_AT_bit_size(0x01)
    4809                      .dwattr DW$406, DW_AT_data_member_location[DW_OP_plus_uconst 0x0]
    4810                      .dwattr DW$406, DW_AT_accessibility(DW_ACCESS_public)
    4811              DW$407  .dwtag  DW_TAG_member, DW_AT_type(*DW$T$11)
    4812                      .dwattr DW$407, DW_AT_name("TALK"), DW_AT_symbol_name("_TALK")
    4813                      .dwattr DW$407, DW_AT_bit_offset(0x0e), DW_AT_bit_size(0x01)
    4814                      .dwattr DW$407, DW_AT_data_member_location[DW_OP_plus_uconst 0x0]
    4815                      .dwattr DW$407, DW_AT_accessibility(DW_ACCESS_public)
    4816              DW$408  .dwtag  DW_TAG_member, DW_AT_type(*DW$T$11)
TMS320C2000 COFF Assembler PC v4.1.3 Thu Aug 18 12:16:32 2016

Tools Copyright (c) 1996-2006 Texas Instruments Incorporated
spi.asm                                                              PAGE  100

    4817                      .dwattr DW$408, DW_AT_name("MASTER_SLAVE"), DW_AT_symbol_name("_MASTER_SLAVE")
    4818                      .dwattr DW$408, DW_AT_bit_offset(0x0d), DW_AT_bit_size(0x01)
    4819                      .dwattr DW$408, DW_AT_data_member_location[DW_OP_plus_uconst 0x0]
    4820                      .dwattr DW$408, DW_AT_accessibility(DW_ACCESS_public)
    4821              DW$409  .dwtag  DW_TAG_member, DW_AT_type(*DW$T$11)
    4822                      .dwattr DW$409, DW_AT_name("CLK_PHASE"), DW_AT_symbol_name("_CLK_PHASE")
    4823                      .dwattr DW$409, DW_AT_bit_offset(0x0c), DW_AT_bit_size(0x01)
    4824                      .dwattr DW$409, DW_AT_data_member_location[DW_OP_plus_uconst 0x0]
    4825                      .dwattr DW$409, DW_AT_accessibility(DW_ACCESS_public)
    4826              DW$410  .dwtag  DW_TAG_member, DW_AT_type(*DW$T$11)
    4827                      .dwattr DW$410, DW_AT_name("OVERRUNINTENA"), DW_AT_symbol_name("_OVERRUNINTENA")
    4828                      .dwattr DW$410, DW_AT_bit_offset(0x0b), DW_AT_bit_size(0x01)
    4829                      .dwattr DW$410, DW_AT_data_member_location[DW_OP_plus_uconst 0x0]
    4830                      .dwattr DW$410, DW_AT_accessibility(DW_ACCESS_public)
    4831              DW$411  .dwtag  DW_TAG_member, DW_AT_type(*DW$T$11)
    4832                      .dwattr DW$411, DW_AT_name("rsvd"), DW_AT_symbol_name("_rsvd")
    4833                      .dwattr DW$411, DW_AT_bit_offset(0x00), DW_AT_bit_size(0x0b)
    4834                      .dwattr DW$411, DW_AT_data_member_location[DW_OP_plus_uconst 0x0]
    4835                      .dwattr DW$411, DW_AT_accessibility(DW_ACCESS_public)
    4836                      .dwendtag DW$T$63
    4837              
    4838              
    4839              DW$T$65 .dwtag  DW_TAG_structure_type
    4840                      .dwattr DW$T$65, DW_AT_name("SPISTS_BITS")
    4841                      .dwattr DW$T$65, DW_AT_byte_size(0x01)
    4842              DW$412  .dwtag  DW_TAG_member, DW_AT_type(*DW$T$11)
    4843                      .dwattr DW$412, DW_AT_name("rsvd1"), DW_AT_symbol_name("_rsvd1")
    4844                      .dwattr DW$412, DW_AT_bit_offset(0x0b), DW_AT_bit_size(0x05)
    4845                      .dwattr DW$412, DW_AT_data_member_location[DW_OP_plus_uconst 0x0]
    4846                      .dwattr DW$412, DW_AT_accessibility(DW_ACCESS_public)
    4847              DW$413  .dwtag  DW_TAG_member, DW_AT_type(*DW$T$11)
    4848                      .dwattr DW$413, DW_AT_name("BUFFULL_FLAG"), DW_AT_symbol_name("_BUFFULL_FLAG")
    4849                      .dwattr DW$413, DW_AT_bit_offset(0x0a), DW_AT_bit_size(0x01)
    4850                      .dwattr DW$413, DW_AT_data_member_location[DW_OP_plus_uconst 0x0]
    4851                      .dwattr DW$413, DW_AT_accessibility(DW_ACCESS_public)
    4852              DW$414  .dwtag  DW_TAG_member, DW_AT_type(*DW$T$11)
    4853                      .dwattr DW$414, DW_AT_name("INT_FLAG"), DW_AT_symbol_name("_INT_FLAG")
    4854                      .dwattr DW$414, DW_AT_bit_offset(0x09), DW_AT_bit_size(0x01)
    4855                      .dwattr DW$414, DW_AT_data_member_location[DW_OP_plus_uconst 0x0]
    4856                      .dwattr DW$414, DW_AT_accessibility(DW_ACCESS_public)
    4857              DW$415  .dwtag  DW_TAG_member, DW_AT_type(*DW$T$11)
    4858                      .dwattr DW$415, DW_AT_name("OVERRUN_FLAG"), DW_AT_symbol_name("_OVERRUN_FLAG")
    4859                      .dwattr DW$415, DW_AT_bit_offset(0x08), DW_AT_bit_size(0x01)
    4860                      .dwattr DW$415, DW_AT_data_member_location[DW_OP_plus_uconst 0x0]
    4861                      .dwattr DW$415, DW_AT_accessibility(DW_ACCESS_public)
    4862              DW$416  .dwtag  DW_TAG_member, DW_AT_type(*DW$T$11)
    4863                      .dwattr DW$416, DW_AT_name("rsvd2"), DW_AT_symbol_name("_rsvd2")
    4864                      .dwattr DW$416, DW_AT_bit_offset(0x00), DW_AT_bit_size(0x08)
    4865                      .dwattr DW$416, DW_AT_data_member_location[DW_OP_plus_uconst 0x0]
    4866                      .dwattr DW$416, DW_AT_accessibility(DW_ACCESS_public)
    4867                      .dwendtag DW$T$65
    4868              
    4869              
    4870              DW$T$67 .dwtag  DW_TAG_structure_type
    4871                      .dwattr DW$T$67, DW_AT_name("SPIFFTX_BITS")
TMS320C2000 COFF Assembler PC v4.1.3 Thu Aug 18 12:16:32 2016

Tools Copyright (c) 1996-2006 Texas Instruments Incorporated
spi.asm                                                              PAGE  101

    4872                      .dwattr DW$T$67, DW_AT_byte_size(0x01)
    4873              DW$417  .dwtag  DW_TAG_member, DW_AT_type(*DW$T$11)
    4874                      .dwattr DW$417, DW_AT_name("TXFFIL"), DW_AT_symbol_name("_TXFFIL")
    4875                      .dwattr DW$417, DW_AT_bit_offset(0x0b), DW_AT_bit_size(0x05)
    4876                      .dwattr DW$417, DW_AT_data_member_location[DW_OP_plus_uconst 0x0]
    4877                      .dwattr DW$417, DW_AT_accessibility(DW_ACCESS_public)
    4878              DW$418  .dwtag  DW_TAG_member, DW_AT_type(*DW$T$11)
    4879                      .dwattr DW$418, DW_AT_name("TXFFIENA"), DW_AT_symbol_name("_TXFFIENA")
    4880                      .dwattr DW$418, DW_AT_bit_offset(0x0a), DW_AT_bit_size(0x01)
    4881                      .dwattr DW$418, DW_AT_data_member_location[DW_OP_plus_uconst 0x0]
    4882                      .dwattr DW$418, DW_AT_accessibility(DW_ACCESS_public)
    4883              DW$419  .dwtag  DW_TAG_member, DW_AT_type(*DW$T$11)
    4884                      .dwattr DW$419, DW_AT_name("TXFFINTCLR"), DW_AT_symbol_name("_TXFFINTCLR")
    4885                      .dwattr DW$419, DW_AT_bit_offset(0x09), DW_AT_bit_size(0x01)
    4886                      .dwattr DW$419, DW_AT_data_member_location[DW_OP_plus_uconst 0x0]
    4887                      .dwattr DW$419, DW_AT_accessibility(DW_ACCESS_public)
    4888              DW$420  .dwtag  DW_TAG_member, DW_AT_type(*DW$T$11)
    4889                      .dwattr DW$420, DW_AT_name("TXFFINT"), DW_AT_symbol_name("_TXFFINT")
    4890                      .dwattr DW$420, DW_AT_bit_offset(0x08), DW_AT_bit_size(0x01)
    4891                      .dwattr DW$420, DW_AT_data_member_location[DW_OP_plus_uconst 0x0]
    4892                      .dwattr DW$420, DW_AT_accessibility(DW_ACCESS_public)
    4893              DW$421  .dwtag  DW_TAG_member, DW_AT_type(*DW$T$11)
    4894                      .dwattr DW$421, DW_AT_name("TXFFST"), DW_AT_symbol_name("_TXFFST")
    4895                      .dwattr DW$421, DW_AT_bit_offset(0x03), DW_AT_bit_size(0x05)
    4896                      .dwattr DW$421, DW_AT_data_member_location[DW_OP_plus_uconst 0x0]
    4897                      .dwattr DW$421, DW_AT_accessibility(DW_ACCESS_public)
    4898              DW$422  .dwtag  DW_TAG_member, DW_AT_type(*DW$T$11)
    4899                      .dwattr DW$422, DW_AT_name("TXFIFO"), DW_AT_symbol_name("_TXFIFO")
    4900                      .dwattr DW$422, DW_AT_bit_offset(0x02), DW_AT_bit_size(0x01)
    4901                      .dwattr DW$422, DW_AT_data_member_location[DW_OP_plus_uconst 0x0]
    4902                      .dwattr DW$422, DW_AT_accessibility(DW_ACCESS_public)
    4903              DW$423  .dwtag  DW_TAG_member, DW_AT_type(*DW$T$11)
    4904                      .dwattr DW$423, DW_AT_name("SPIFFENA"), DW_AT_symbol_name("_SPIFFENA")
    4905                      .dwattr DW$423, DW_AT_bit_offset(0x01), DW_AT_bit_size(0x01)
    4906                      .dwattr DW$423, DW_AT_data_member_location[DW_OP_plus_uconst 0x0]
    4907                      .dwattr DW$423, DW_AT_accessibility(DW_ACCESS_public)
    4908              DW$424  .dwtag  DW_TAG_member, DW_AT_type(*DW$T$11)
    4909                      .dwattr DW$424, DW_AT_name("SPIRST"), DW_AT_symbol_name("_SPIRST")
    4910                      .dwattr DW$424, DW_AT_bit_offset(0x00), DW_AT_bit_size(0x01)
    4911                      .dwattr DW$424, DW_AT_data_member_location[DW_OP_plus_uconst 0x0]
    4912                      .dwattr DW$424, DW_AT_accessibility(DW_ACCESS_public)
    4913                      .dwendtag DW$T$67
    4914              
    4915              
    4916              DW$T$69 .dwtag  DW_TAG_structure_type
    4917                      .dwattr DW$T$69, DW_AT_name("SPIFFRX_BITS")
    4918                      .dwattr DW$T$69, DW_AT_byte_size(0x01)
    4919              DW$425  .dwtag  DW_TAG_member, DW_AT_type(*DW$T$11)
    4920                      .dwattr DW$425, DW_AT_name("RXFFIL"), DW_AT_symbol_name("_RXFFIL")
    4921                      .dwattr DW$425, DW_AT_bit_offset(0x0b), DW_AT_bit_size(0x05)
    4922                      .dwattr DW$425, DW_AT_data_member_location[DW_OP_plus_uconst 0x0]
    4923                      .dwattr DW$425, DW_AT_accessibility(DW_ACCESS_public)
    4924              DW$426  .dwtag  DW_TAG_member, DW_AT_type(*DW$T$11)
    4925                      .dwattr DW$426, DW_AT_name("RXFFIENA"), DW_AT_symbol_name("_RXFFIENA")
    4926                      .dwattr DW$426, DW_AT_bit_offset(0x0a), DW_AT_bit_size(0x01)
TMS320C2000 COFF Assembler PC v4.1.3 Thu Aug 18 12:16:32 2016

Tools Copyright (c) 1996-2006 Texas Instruments Incorporated
spi.asm                                                              PAGE  102

    4927                      .dwattr DW$426, DW_AT_data_member_location[DW_OP_plus_uconst 0x0]
    4928                      .dwattr DW$426, DW_AT_accessibility(DW_ACCESS_public)
    4929              DW$427  .dwtag  DW_TAG_member, DW_AT_type(*DW$T$11)
    4930                      .dwattr DW$427, DW_AT_name("RXFFINTCLR"), DW_AT_symbol_name("_RXFFINTCLR")
    4931                      .dwattr DW$427, DW_AT_bit_offset(0x09), DW_AT_bit_size(0x01)
    4932                      .dwattr DW$427, DW_AT_data_member_location[DW_OP_plus_uconst 0x0]
    4933                      .dwattr DW$427, DW_AT_accessibility(DW_ACCESS_public)
    4934              DW$428  .dwtag  DW_TAG_member, DW_AT_type(*DW$T$11)
    4935                      .dwattr DW$428, DW_AT_name("RXFFINT"), DW_AT_symbol_name("_RXFFINT")
    4936                      .dwattr DW$428, DW_AT_bit_offset(0x08), DW_AT_bit_size(0x01)
    4937                      .dwattr DW$428, DW_AT_data_member_location[DW_OP_plus_uconst 0x0]
    4938                      .dwattr DW$428, DW_AT_accessibility(DW_ACCESS_public)
    4939              DW$429  .dwtag  DW_TAG_member, DW_AT_type(*DW$T$11)
    4940                      .dwattr DW$429, DW_AT_name("RXFFST"), DW_AT_symbol_name("_RXFFST")
    4941                      .dwattr DW$429, DW_AT_bit_offset(0x03), DW_AT_bit_size(0x05)
    4942                      .dwattr DW$429, DW_AT_data_member_location[DW_OP_plus_uconst 0x0]
    4943                      .dwattr DW$429, DW_AT_accessibility(DW_ACCESS_public)
    4944              DW$430  .dwtag  DW_TAG_member, DW_AT_type(*DW$T$11)
    4945                      .dwattr DW$430, DW_AT_name("RXFIFORESET"), DW_AT_symbol_name("_RXFIFORESET")
    4946                      .dwattr DW$430, DW_AT_bit_offset(0x02), DW_AT_bit_size(0x01)
    4947                      .dwattr DW$430, DW_AT_data_member_location[DW_OP_plus_uconst 0x0]
    4948                      .dwattr DW$430, DW_AT_accessibility(DW_ACCESS_public)
    4949              DW$431  .dwtag  DW_TAG_member, DW_AT_type(*DW$T$11)
    4950                      .dwattr DW$431, DW_AT_name("RXFFOVFCLR"), DW_AT_symbol_name("_RXFFOVFCLR")
    4951                      .dwattr DW$431, DW_AT_bit_offset(0x01), DW_AT_bit_size(0x01)
    4952                      .dwattr DW$431, DW_AT_data_member_location[DW_OP_plus_uconst 0x0]
    4953                      .dwattr DW$431, DW_AT_accessibility(DW_ACCESS_public)
    4954              DW$432  .dwtag  DW_TAG_member, DW_AT_type(*DW$T$11)
    4955                      .dwattr DW$432, DW_AT_name("RXFFOVF"), DW_AT_symbol_name("_RXFFOVF")
    4956                      .dwattr DW$432, DW_AT_bit_offset(0x00), DW_AT_bit_size(0x01)
    4957                      .dwattr DW$432, DW_AT_data_member_location[DW_OP_plus_uconst 0x0]
    4958                      .dwattr DW$432, DW_AT_accessibility(DW_ACCESS_public)
    4959                      .dwendtag DW$T$69
    4960              
    4961              
    4962              DW$T$71 .dwtag  DW_TAG_structure_type
    4963                      .dwattr DW$T$71, DW_AT_name("SPIFFCT_BITS")
    4964                      .dwattr DW$T$71, DW_AT_byte_size(0x01)
    4965              DW$433  .dwtag  DW_TAG_member, DW_AT_type(*DW$T$11)
    4966                      .dwattr DW$433, DW_AT_name("TXDLY"), DW_AT_symbol_name("_TXDLY")
    4967                      .dwattr DW$433, DW_AT_bit_offset(0x08), DW_AT_bit_size(0x08)
    4968                      .dwattr DW$433, DW_AT_data_member_location[DW_OP_plus_uconst 0x0]
    4969                      .dwattr DW$433, DW_AT_accessibility(DW_ACCESS_public)
    4970              DW$434  .dwtag  DW_TAG_member, DW_AT_type(*DW$T$11)
    4971                      .dwattr DW$434, DW_AT_name("rsvd"), DW_AT_symbol_name("_rsvd")
    4972                      .dwattr DW$434, DW_AT_bit_offset(0x00), DW_AT_bit_size(0x08)
    4973                      .dwattr DW$434, DW_AT_data_member_location[DW_OP_plus_uconst 0x0]
    4974                      .dwattr DW$434, DW_AT_accessibility(DW_ACCESS_public)
    4975                      .dwendtag DW$T$71
    4976              
    4977              
    4978              DW$T$73 .dwtag  DW_TAG_structure_type
    4979                      .dwattr DW$T$73, DW_AT_name("SPIPRI_BITS")
    4980                      .dwattr DW$T$73, DW_AT_byte_size(0x01)
    4981              DW$435  .dwtag  DW_TAG_member, DW_AT_type(*DW$T$11)
TMS320C2000 COFF Assembler PC v4.1.3 Thu Aug 18 12:16:32 2016

Tools Copyright (c) 1996-2006 Texas Instruments Incorporated
spi.asm                                                              PAGE  103

    4982                      .dwattr DW$435, DW_AT_name("rsvd1"), DW_AT_symbol_name("_rsvd1")
    4983                      .dwattr DW$435, DW_AT_bit_offset(0x0c), DW_AT_bit_size(0x04)
    4984                      .dwattr DW$435, DW_AT_data_member_location[DW_OP_plus_uconst 0x0]
    4985                      .dwattr DW$435, DW_AT_accessibility(DW_ACCESS_public)
    4986              DW$436  .dwtag  DW_TAG_member, DW_AT_type(*DW$T$11)
    4987                      .dwattr DW$436, DW_AT_name("FREE"), DW_AT_symbol_name("_FREE")
    4988                      .dwattr DW$436, DW_AT_bit_offset(0x0b), DW_AT_bit_size(0x01)
    4989                      .dwattr DW$436, DW_AT_data_member_location[DW_OP_plus_uconst 0x0]
    4990                      .dwattr DW$436, DW_AT_accessibility(DW_ACCESS_public)
    4991              DW$437  .dwtag  DW_TAG_member, DW_AT_type(*DW$T$11)
    4992                      .dwattr DW$437, DW_AT_name("SOFT"), DW_AT_symbol_name("_SOFT")
    4993                      .dwattr DW$437, DW_AT_bit_offset(0x0a), DW_AT_bit_size(0x01)
    4994                      .dwattr DW$437, DW_AT_data_member_location[DW_OP_plus_uconst 0x0]
    4995                      .dwattr DW$437, DW_AT_accessibility(DW_ACCESS_public)
    4996              DW$438  .dwtag  DW_TAG_member, DW_AT_type(*DW$T$11)
    4997                      .dwattr DW$438, DW_AT_name("PRIORITY"), DW_AT_symbol_name("_PRIORITY")
    4998                      .dwattr DW$438, DW_AT_bit_offset(0x09), DW_AT_bit_size(0x01)
    4999                      .dwattr DW$438, DW_AT_data_member_location[DW_OP_plus_uconst 0x0]
    5000                      .dwattr DW$438, DW_AT_accessibility(DW_ACCESS_public)
    5001              DW$439  .dwtag  DW_TAG_member, DW_AT_type(*DW$T$11)
    5002                      .dwattr DW$439, DW_AT_name("rsvd2"), DW_AT_symbol_name("_rsvd2")
    5003                      .dwattr DW$439, DW_AT_bit_offset(0x00), DW_AT_bit_size(0x09)
    5004                      .dwattr DW$439, DW_AT_data_member_location[DW_OP_plus_uconst 0x0]
    5005                      .dwattr DW$439, DW_AT_accessibility(DW_ACCESS_public)
    5006                      .dwendtag DW$T$73
    5007              
    5008              
    5009              DW$T$48 .dwtag  DW_TAG_structure_type
    5010                      .dwattr DW$T$48, DW_AT_byte_size(0x01)
    5011              DW$440  .dwtag  DW_TAG_member, DW_AT_type(*DW$T$11)
    5012                      .dwattr DW$440, DW_AT_name("s12"), DW_AT_symbol_name("_s12")
    5013                      .dwattr DW$440, DW_AT_bit_offset(0x0f), DW_AT_bit_size(0x01)
    5014                      .dwattr DW$440, DW_AT_data_member_location[DW_OP_plus_uconst 0x0]
    5015                      .dwattr DW$440, DW_AT_accessibility(DW_ACCESS_public)
    5016              DW$441  .dwtag  DW_TAG_member, DW_AT_type(*DW$T$11)
    5017                      .dwattr DW$441, DW_AT_name("s13"), DW_AT_symbol_name("_s13")
    5018                      .dwattr DW$441, DW_AT_bit_offset(0x0e), DW_AT_bit_size(0x01)
    5019                      .dwattr DW$441, DW_AT_data_member_location[DW_OP_plus_uconst 0x0]
    5020                      .dwattr DW$441, DW_AT_accessibility(DW_ACCESS_public)
    5021              DW$442  .dwtag  DW_TAG_member, DW_AT_type(*DW$T$11)
    5022                      .dwattr DW$442, DW_AT_name("s14"), DW_AT_symbol_name("_s14")
    5023                      .dwattr DW$442, DW_AT_bit_offset(0x0d), DW_AT_bit_size(0x01)
    5024                      .dwattr DW$442, DW_AT_data_member_location[DW_OP_plus_uconst 0x0]
    5025                      .dwattr DW$442, DW_AT_accessibility(DW_ACCESS_public)
    5026              DW$443  .dwtag  DW_TAG_member, DW_AT_type(*DW$T$11)
    5027                      .dwattr DW$443, DW_AT_name("s15"), DW_AT_symbol_name("_s15")
    5028                      .dwattr DW$443, DW_AT_bit_offset(0x0c), DW_AT_bit_size(0x01)
    5029                      .dwattr DW$443, DW_AT_data_member_location[DW_OP_plus_uconst 0x0]
    5030                      .dwattr DW$443, DW_AT_accessibility(DW_ACCESS_public)
    5031              DW$444  .dwtag  DW_TAG_member, DW_AT_type(*DW$T$11)
    5032                      .dwattr DW$444, DW_AT_name("s16"), DW_AT_symbol_name("_s16")
    5033                      .dwattr DW$444, DW_AT_bit_offset(0x0b), DW_AT_bit_size(0x01)
    5034                      .dwattr DW$444, DW_AT_data_member_location[DW_OP_plus_uconst 0x0]
    5035                      .dwattr DW$444, DW_AT_accessibility(DW_ACCESS_public)
    5036              DW$445  .dwtag  DW_TAG_member, DW_AT_type(*DW$T$11)
TMS320C2000 COFF Assembler PC v4.1.3 Thu Aug 18 12:16:32 2016

Tools Copyright (c) 1996-2006 Texas Instruments Incorporated
spi.asm                                                              PAGE  104

    5037                      .dwattr DW$445, DW_AT_name("s17"), DW_AT_symbol_name("_s17")
    5038                      .dwattr DW$445, DW_AT_bit_offset(0x0a), DW_AT_bit_size(0x01)
    5039                      .dwattr DW$445, DW_AT_data_member_location[DW_OP_plus_uconst 0x0]
    5040                      .dwattr DW$445, DW_AT_accessibility(DW_ACCESS_public)
    5041              DW$446  .dwtag  DW_TAG_member, DW_AT_type(*DW$T$11)
    5042                      .dwattr DW$446, DW_AT_name("s18"), DW_AT_symbol_name("_s18")
    5043                      .dwattr DW$446, DW_AT_bit_offset(0x09), DW_AT_bit_size(0x01)
    5044                      .dwattr DW$446, DW_AT_data_member_location[DW_OP_plus_uconst 0x0]
    5045                      .dwattr DW$446, DW_AT_accessibility(DW_ACCESS_public)
    5046              DW$447  .dwtag  DW_TAG_member, DW_AT_type(*DW$T$11)
    5047                      .dwattr DW$447, DW_AT_name("s19"), DW_AT_symbol_name("_s19")
    5048                      .dwattr DW$447, DW_AT_bit_offset(0x08), DW_AT_bit_size(0x01)
    5049                      .dwattr DW$447, DW_AT_data_member_location[DW_OP_plus_uconst 0x0]
    5050                      .dwattr DW$447, DW_AT_accessibility(DW_ACCESS_public)
    5051              DW$448  .dwtag  DW_TAG_member, DW_AT_type(*DW$T$11)
    5052                      .dwattr DW$448, DW_AT_name("disp485txen"), DW_AT_symbol_name("_disp485txen")
    5053                      .dwattr DW$448, DW_AT_bit_offset(0x07), DW_AT_bit_size(0x01)
    5054                      .dwattr DW$448, DW_AT_data_member_location[DW_OP_plus_uconst 0x0]
    5055                      .dwattr DW$448, DW_AT_accessibility(DW_ACCESS_public)
    5056              DW$449  .dwtag  DW_TAG_member, DW_AT_type(*DW$T$11)
    5057                      .dwattr DW$449, DW_AT_name("disp485rxen"), DW_AT_symbol_name("_disp485rxen")
    5058                      .dwattr DW$449, DW_AT_bit_offset(0x06), DW_AT_bit_size(0x01)
    5059                      .dwattr DW$449, DW_AT_data_member_location[DW_OP_plus_uconst 0x0]
    5060                      .dwattr DW$449, DW_AT_accessibility(DW_ACCESS_public)
    5061              DW$450  .dwtag  DW_TAG_member, DW_AT_type(*DW$T$11)
    5062                      .dwattr DW$450, DW_AT_name("gpio1"), DW_AT_symbol_name("_gpio1")
    5063                      .dwattr DW$450, DW_AT_bit_offset(0x05), DW_AT_bit_size(0x01)
    5064                      .dwattr DW$450, DW_AT_data_member_location[DW_OP_plus_uconst 0x0]
    5065                      .dwattr DW$450, DW_AT_accessibility(DW_ACCESS_public)
    5066              DW$451  .dwtag  DW_TAG_member, DW_AT_type(*DW$T$11)
    5067                      .dwattr DW$451, DW_AT_name("gpio2"), DW_AT_symbol_name("_gpio2")
    5068                      .dwattr DW$451, DW_AT_bit_offset(0x04), DW_AT_bit_size(0x01)
    5069                      .dwattr DW$451, DW_AT_data_member_location[DW_OP_plus_uconst 0x0]
    5070                      .dwattr DW$451, DW_AT_accessibility(DW_ACCESS_public)
    5071              DW$452  .dwtag  DW_TAG_member, DW_AT_type(*DW$T$11)
    5072                      .dwattr DW$452, DW_AT_name("gpio3"), DW_AT_symbol_name("_gpio3")
    5073                      .dwattr DW$452, DW_AT_bit_offset(0x03), DW_AT_bit_size(0x01)
    5074                      .dwattr DW$452, DW_AT_data_member_location[DW_OP_plus_uconst 0x0]
    5075                      .dwattr DW$452, DW_AT_accessibility(DW_ACCESS_public)
    5076              DW$453  .dwtag  DW_TAG_member, DW_AT_type(*DW$T$11)
    5077                      .dwattr DW$453, DW_AT_name("gpio4"), DW_AT_symbol_name("_gpio4")
    5078                      .dwattr DW$453, DW_AT_bit_offset(0x02), DW_AT_bit_size(0x01)
    5079                      .dwattr DW$453, DW_AT_data_member_location[DW_OP_plus_uconst 0x0]
    5080                      .dwattr DW$453, DW_AT_accessibility(DW_ACCESS_public)
    5081              DW$454  .dwtag  DW_TAG_member, DW_AT_type(*DW$T$11)
    5082                      .dwattr DW$454, DW_AT_name("rtccs"), DW_AT_symbol_name("_rtccs")
    5083                      .dwattr DW$454, DW_AT_bit_offset(0x01), DW_AT_bit_size(0x01)
    5084                      .dwattr DW$454, DW_AT_data_member_location[DW_OP_plus_uconst 0x0]
    5085                      .dwattr DW$454, DW_AT_accessibility(DW_ACCESS_public)
    5086              DW$455  .dwtag  DW_TAG_member, DW_AT_type(*DW$T$11)
    5087                      .dwattr DW$455, DW_AT_name("op3"), DW_AT_symbol_name("_op3")
    5088                      .dwattr DW$455, DW_AT_bit_offset(0x00), DW_AT_bit_size(0x01)
    5089                      .dwattr DW$455, DW_AT_data_member_location[DW_OP_plus_uconst 0x0]
    5090                      .dwattr DW$455, DW_AT_accessibility(DW_ACCESS_public)
    5091                      .dwendtag DW$T$48
TMS320C2000 COFF Assembler PC v4.1.3 Thu Aug 18 12:16:32 2016

Tools Copyright (c) 1996-2006 Texas Instruments Incorporated
spi.asm                                                              PAGE  105

    5092              
    5093              
    5094              DW$T$51 .dwtag  DW_TAG_structure_type
    5095                      .dwattr DW$T$51, DW_AT_byte_size(0x01)
    5096              DW$456  .dwtag  DW_TAG_member, DW_AT_type(*DW$T$11)
    5097                      .dwattr DW$456, DW_AT_name("spimo"), DW_AT_symbol_name("_spimo")
    5098                      .dwattr DW$456, DW_AT_bit_offset(0x0f), DW_AT_bit_size(0x01)
    5099                      .dwattr DW$456, DW_AT_data_member_location[DW_OP_plus_uconst 0x0]
    5100                      .dwattr DW$456, DW_AT_accessibility(DW_ACCESS_public)
    5101              DW$457  .dwtag  DW_TAG_member, DW_AT_type(*DW$T$11)
    5102                      .dwattr DW$457, DW_AT_name("spimi"), DW_AT_symbol_name("_spimi")
    5103                      .dwattr DW$457, DW_AT_bit_offset(0x0e), DW_AT_bit_size(0x01)
    5104                      .dwattr DW$457, DW_AT_data_member_location[DW_OP_plus_uconst 0x0]
    5105                      .dwattr DW$457, DW_AT_accessibility(DW_ACCESS_public)
    5106              DW$458  .dwtag  DW_TAG_member, DW_AT_type(*DW$T$11)
    5107                      .dwattr DW$458, DW_AT_name("spiclk"), DW_AT_symbol_name("_spiclk")
    5108                      .dwattr DW$458, DW_AT_bit_offset(0x0d), DW_AT_bit_size(0x01)
    5109                      .dwattr DW$458, DW_AT_data_member_location[DW_OP_plus_uconst 0x0]
    5110                      .dwattr DW$458, DW_AT_accessibility(DW_ACCESS_public)
    5111              DW$459  .dwtag  DW_TAG_member, DW_AT_type(*DW$T$11)
    5112                      .dwattr DW$459, DW_AT_name("spiste"), DW_AT_symbol_name("_spiste")
    5113                      .dwattr DW$459, DW_AT_bit_offset(0x0c), DW_AT_bit_size(0x01)
    5114                      .dwattr DW$459, DW_AT_data_member_location[DW_OP_plus_uconst 0x0]
    5115                      .dwattr DW$459, DW_AT_accessibility(DW_ACCESS_public)
    5116              DW$460  .dwtag  DW_TAG_member, DW_AT_type(*DW$T$11)
    5117                      .dwattr DW$460, DW_AT_name("scitxa"), DW_AT_symbol_name("_scitxa")
    5118                      .dwattr DW$460, DW_AT_bit_offset(0x0b), DW_AT_bit_size(0x01)
    5119                      .dwattr DW$460, DW_AT_data_member_location[DW_OP_plus_uconst 0x0]
    5120                      .dwattr DW$460, DW_AT_accessibility(DW_ACCESS_public)
    5121              DW$461  .dwtag  DW_TAG_member, DW_AT_type(*DW$T$11)
    5122                      .dwattr DW$461, DW_AT_name("scirxa"), DW_AT_symbol_name("_scirxa")
    5123                      .dwattr DW$461, DW_AT_bit_offset(0x0a), DW_AT_bit_size(0x01)
    5124                      .dwattr DW$461, DW_AT_data_member_location[DW_OP_plus_uconst 0x0]
    5125                      .dwattr DW$461, DW_AT_accessibility(DW_ACCESS_public)
    5126              DW$462  .dwtag  DW_TAG_member, DW_AT_type(*DW$T$11)
    5127                      .dwattr DW$462, DW_AT_name("op1"), DW_AT_symbol_name("_op1")
    5128                      .dwattr DW$462, DW_AT_bit_offset(0x09), DW_AT_bit_size(0x01)
    5129                      .dwattr DW$462, DW_AT_data_member_location[DW_OP_plus_uconst 0x0]
    5130                      .dwattr DW$462, DW_AT_accessibility(DW_ACCESS_public)
    5131              DW$463  .dwtag  DW_TAG_member, DW_AT_type(*DW$T$11)
    5132                      .dwattr DW$463, DW_AT_name("op2"), DW_AT_symbol_name("_op2")
    5133                      .dwattr DW$463, DW_AT_bit_offset(0x08), DW_AT_bit_size(0x01)
    5134                      .dwattr DW$463, DW_AT_data_member_location[DW_OP_plus_uconst 0x0]
    5135                      .dwattr DW$463, DW_AT_accessibility(DW_ACCESS_public)
    5136              DW$464  .dwtag  DW_TAG_member, DW_AT_type(*DW$T$11)
    5137                      .dwattr DW$464, DW_AT_name("spiselect1"), DW_AT_symbol_name("_spiselect1")
    5138                      .dwattr DW$464, DW_AT_bit_offset(0x07), DW_AT_bit_size(0x01)
    5139                      .dwattr DW$464, DW_AT_data_member_location[DW_OP_plus_uconst 0x0]
    5140                      .dwattr DW$464, DW_AT_accessibility(DW_ACCESS_public)
    5141              DW$465  .dwtag  DW_TAG_member, DW_AT_type(*DW$T$11)
    5142                      .dwattr DW$465, DW_AT_name("spiselect2"), DW_AT_symbol_name("_spiselect2")
    5143                      .dwattr DW$465, DW_AT_bit_offset(0x06), DW_AT_bit_size(0x01)
    5144                      .dwattr DW$465, DW_AT_data_member_location[DW_OP_plus_uconst 0x0]
    5145                      .dwattr DW$465, DW_AT_accessibility(DW_ACCESS_public)
    5146              DW$466  .dwtag  DW_TAG_member, DW_AT_type(*DW$T$11)
TMS320C2000 COFF Assembler PC v4.1.3 Thu Aug 18 12:16:32 2016

Tools Copyright (c) 1996-2006 Texas Instruments Incorporated
spi.asm                                                              PAGE  106

    5147                      .dwattr DW$466, DW_AT_name("spiselect3"), DW_AT_symbol_name("_spiselect3")
    5148                      .dwattr DW$466, DW_AT_bit_offset(0x05), DW_AT_bit_size(0x01)
    5149                      .dwattr DW$466, DW_AT_data_member_location[DW_OP_plus_uconst 0x0]
    5150                      .dwattr DW$466, DW_AT_accessibility(DW_ACCESS_public)
    5151              DW$467  .dwtag  DW_TAG_member, DW_AT_type(*DW$T$11)
    5152                      .dwattr DW$467, DW_AT_name("pc485rxen"), DW_AT_symbol_name("_pc485rxen")
    5153                      .dwattr DW$467, DW_AT_bit_offset(0x04), DW_AT_bit_size(0x01)
    5154                      .dwattr DW$467, DW_AT_data_member_location[DW_OP_plus_uconst 0x0]
    5155                      .dwattr DW$467, DW_AT_accessibility(DW_ACCESS_public)
    5156              DW$468  .dwtag  DW_TAG_member, DW_AT_type(*DW$T$11)
    5157                      .dwattr DW$468, DW_AT_name("pc485txen"), DW_AT_symbol_name("_pc485txen")
    5158                      .dwattr DW$468, DW_AT_bit_offset(0x03), DW_AT_bit_size(0x01)
    5159                      .dwattr DW$468, DW_AT_data_member_location[DW_OP_plus_uconst 0x0]
    5160                      .dwattr DW$468, DW_AT_accessibility(DW_ACCESS_public)
    5161              DW$469  .dwtag  DW_TAG_member, DW_AT_type(*DW$T$11)
    5162                      .dwattr DW$469, DW_AT_name("modeselect"), DW_AT_symbol_name("_modeselect")
    5163                      .dwattr DW$469, DW_AT_bit_offset(0x02), DW_AT_bit_size(0x01)
    5164                      .dwattr DW$469, DW_AT_data_member_location[DW_OP_plus_uconst 0x0]
    5165                      .dwattr DW$469, DW_AT_accessibility(DW_ACCESS_public)
    5166              DW$470  .dwtag  DW_TAG_member, DW_AT_type(*DW$T$11)
    5167                      .dwattr DW$470, DW_AT_name("xf_xplldis"), DW_AT_symbol_name("_xf_xplldis")
    5168                      .dwattr DW$470, DW_AT_bit_offset(0x01), DW_AT_bit_size(0x01)
    5169                      .dwattr DW$470, DW_AT_data_member_location[DW_OP_plus_uconst 0x0]
    5170                      .dwattr DW$470, DW_AT_accessibility(DW_ACCESS_public)
    5171              DW$471  .dwtag  DW_TAG_member, DW_AT_type(*DW$T$11)
    5172                      .dwattr DW$471, DW_AT_name("notused3"), DW_AT_symbol_name("_notused3")
    5173                      .dwattr DW$471, DW_AT_bit_offset(0x00), DW_AT_bit_size(0x01)
    5174                      .dwattr DW$471, DW_AT_data_member_location[DW_OP_plus_uconst 0x0]
    5175                      .dwattr DW$471, DW_AT_accessibility(DW_ACCESS_public)
    5176                      .dwendtag DW$T$51
    5177              
    5178              
    5179                      .dwattr DW$57, DW_AT_external(0x01)
    5180                      .dwattr DW$99, DW_AT_external(0x01)
    5181                      .dwattr DW$110, DW_AT_external(0x01)
    5182                      .dwattr DW$128, DW_AT_external(0x01)
    5183                      .dwattr DW$78, DW_AT_external(0x01)
    5184                      .dwattr DW$79, DW_AT_external(0x01)
    5185                      .dwattr DW$79, DW_AT_type(*DW$T$10)
    5186                      .dwattr DW$80, DW_AT_external(0x01)
    5187                      .dwattr DW$27, DW_AT_external(0x01)
    5188                      .dwattr DW$41, DW_AT_external(0x01)
    5189                      .dwattr DW$51, DW_AT_external(0x01)
    5190                      .dwattr DW$52, DW_AT_external(0x01)
    5191                      .dwattr DW$122, DW_AT_external(0x01)
    5192                      .dwattr DW$122, DW_AT_type(*DW$T$11)
    5193                      .dwattr DW$140, DW_AT_external(0x01)
    5194                      .dwattr DW$140, DW_AT_type(*DW$T$11)
    5195                      .dwattr DW$42, DW_AT_external(0x01)
    5196                      .dwattr DW$63, DW_AT_external(0x01)
    5197                      .dwattr DW$63, DW_AT_type(*DW$T$11)
    5198                      .dwattr DW$84, DW_AT_external(0x01)
    5199                      .dwattr DW$71, DW_AT_external(0x01)
    5200                      .dwattr DW$81, DW_AT_external(0x01)
    5201                      .dwattr DW$105, DW_AT_external(0x01)
TMS320C2000 COFF Assembler PC v4.1.3 Thu Aug 18 12:16:32 2016

Tools Copyright (c) 1996-2006 Texas Instruments Incorporated
spi.asm                                                              PAGE  107

    5202                      .dwattr DW$105, DW_AT_type(*DW$T$11)
    5203                      .dwattr DW$123, DW_AT_external(0x01)
    5204                      .dwattr DW$123, DW_AT_type(*DW$T$11)
    5205                      .dwattr DW$37, DW_AT_external(0x01)
    5206                      .dwattr DW$28, DW_AT_external(0x01)
    5207                      .dwattr DW$38, DW_AT_external(0x01)
    5208                      .dwattr DW$40, DW_AT_external(0x01)
    5209                      .dwattr DW$39, DW_AT_external(0x01)
    5210                      .dwattr DW$93, DW_AT_external(0x01)
    5211                      .dwattr DW$94, DW_AT_external(0x01)
    5212                      .dwattr DW$95, DW_AT_external(0x01)
    5213                      .dwattr DW$96, DW_AT_external(0x01)
    5214                      .dwattr DW$97, DW_AT_external(0x01)
    5215                      .dwattr DW$91, DW_AT_external(0x01)
    5216                      .dwattr DW$92, DW_AT_external(0x01)
    5217                      .dwattr DW$98, DW_AT_external(0x01)
    5218                      .dwattr DW$109, DW_AT_external(0x01)
    5219                      .dwattr DW$127, DW_AT_external(0x01)
    5220                      .dwattr DW$100, DW_AT_external(0x01)
    5221                      .dwattr DW$113, DW_AT_external(0x01)
    5222                      .dwattr DW$131, DW_AT_external(0x01)
    5223                      .dwattr DW$117, DW_AT_external(0x01)
    5224                      .dwattr DW$135, DW_AT_external(0x01)
    5225                      .dwattr DW$53, DW_AT_external(0x01)
    5226                      .dwattr DW$55, DW_AT_external(0x01)
    5227                      .dwattr DW$58, DW_AT_external(0x01)
    5228                      .dwattr DW$86, DW_AT_external(0x01)
    5229                      .dwattr DW$87, DW_AT_external(0x01)
    5230                      .dwattr DW$56, DW_AT_external(0x01)
    5231                      .dwattr DW$64, DW_AT_external(0x01)
    5232                      .dwattr DW$59, DW_AT_external(0x01)
    5233                      .dwattr DW$111, DW_AT_external(0x01)
    5234                      .dwattr DW$129, DW_AT_external(0x01)
    5235                      .dwattr DW$54, DW_AT_external(0x01)
    5236                      .dwattr DW$61, DW_AT_external(0x01)
    5237                      .dwattr DW$88, DW_AT_external(0x01)
    5238                      .dwattr DW$CU, DW_AT_language(DW_LANG_C)
    5239              
    5240              ;***************************************************************
    5241              ;* DWARF REGISTER MAP                                          *
    5242              ;***************************************************************
    5243              
    5244              DW$472  .dwtag  DW_TAG_assign_register, DW_AT_name("AL")
    5245                      .dwattr DW$472, DW_AT_location[DW_OP_reg0]
    5246              DW$473  .dwtag  DW_TAG_assign_register, DW_AT_name("AH")
    5247                      .dwattr DW$473, DW_AT_location[DW_OP_reg1]
    5248              DW$474  .dwtag  DW_TAG_assign_register, DW_AT_name("PL")
    5249                      .dwattr DW$474, DW_AT_location[DW_OP_reg2]
    5250              DW$475  .dwtag  DW_TAG_assign_register, DW_AT_name("PH")
    5251                      .dwattr DW$475, DW_AT_location[DW_OP_reg3]
    5252              DW$476  .dwtag  DW_TAG_assign_register, DW_AT_name("AR0")
    5253                      .dwattr DW$476, DW_AT_location[DW_OP_reg4]
    5254              DW$477  .dwtag  DW_TAG_assign_register, DW_AT_name("XAR0")
    5255                      .dwattr DW$477, DW_AT_location[DW_OP_reg5]
    5256              DW$478  .dwtag  DW_TAG_assign_register, DW_AT_name("AR1")
TMS320C2000 COFF Assembler PC v4.1.3 Thu Aug 18 12:16:32 2016

Tools Copyright (c) 1996-2006 Texas Instruments Incorporated
spi.asm                                                              PAGE  108

    5257                      .dwattr DW$478, DW_AT_location[DW_OP_reg6]
    5258              DW$479  .dwtag  DW_TAG_assign_register, DW_AT_name("XAR1")
    5259                      .dwattr DW$479, DW_AT_location[DW_OP_reg7]
    5260              DW$480  .dwtag  DW_TAG_assign_register, DW_AT_name("AR2")
    5261                      .dwattr DW$480, DW_AT_location[DW_OP_reg8]
    5262              DW$481  .dwtag  DW_TAG_assign_register, DW_AT_name("XAR2")
    5263                      .dwattr DW$481, DW_AT_location[DW_OP_reg9]
    5264              DW$482  .dwtag  DW_TAG_assign_register, DW_AT_name("AR3")
    5265                      .dwattr DW$482, DW_AT_location[DW_OP_reg10]
    5266              DW$483  .dwtag  DW_TAG_assign_register, DW_AT_name("XAR3")
    5267                      .dwattr DW$483, DW_AT_location[DW_OP_reg11]
    5268              DW$484  .dwtag  DW_TAG_assign_register, DW_AT_name("AR4")
    5269                      .dwattr DW$484, DW_AT_location[DW_OP_reg12]
    5270              DW$485  .dwtag  DW_TAG_assign_register, DW_AT_name("XAR4")
    5271                      .dwattr DW$485, DW_AT_location[DW_OP_reg13]
    5272              DW$486  .dwtag  DW_TAG_assign_register, DW_AT_name("AR5")
    5273                      .dwattr DW$486, DW_AT_location[DW_OP_reg14]
    5274              DW$487  .dwtag  DW_TAG_assign_register, DW_AT_name("XAR5")
    5275                      .dwattr DW$487, DW_AT_location[DW_OP_reg15]
    5276              DW$488  .dwtag  DW_TAG_assign_register, DW_AT_name("AR6")
    5277                      .dwattr DW$488, DW_AT_location[DW_OP_reg16]
    5278              DW$489  .dwtag  DW_TAG_assign_register, DW_AT_name("XAR6")
    5279                      .dwattr DW$489, DW_AT_location[DW_OP_reg17]
    5280              DW$490  .dwtag  DW_TAG_assign_register, DW_AT_name("AR7")
    5281                      .dwattr DW$490, DW_AT_location[DW_OP_reg18]
    5282              DW$491  .dwtag  DW_TAG_assign_register, DW_AT_name("XAR7")
    5283                      .dwattr DW$491, DW_AT_location[DW_OP_reg19]
    5284              DW$492  .dwtag  DW_TAG_assign_register, DW_AT_name("SP")
    5285                      .dwattr DW$492, DW_AT_location[DW_OP_reg20]
    5286              DW$493  .dwtag  DW_TAG_assign_register, DW_AT_name("XT")
    5287                      .dwattr DW$493, DW_AT_location[DW_OP_reg21]
    5288              DW$494  .dwtag  DW_TAG_assign_register, DW_AT_name("T")
    5289                      .dwattr DW$494, DW_AT_location[DW_OP_reg22]
    5290              DW$495  .dwtag  DW_TAG_assign_register, DW_AT_name("ST0")
    5291                      .dwattr DW$495, DW_AT_location[DW_OP_reg23]
    5292              DW$496  .dwtag  DW_TAG_assign_register, DW_AT_name("ST1")
    5293                      .dwattr DW$496, DW_AT_location[DW_OP_reg24]
    5294              DW$497  .dwtag  DW_TAG_assign_register, DW_AT_name("PC")
    5295                      .dwattr DW$497, DW_AT_location[DW_OP_reg25]
    5296              DW$498  .dwtag  DW_TAG_assign_register, DW_AT_name("RPC")
    5297                      .dwattr DW$498, DW_AT_location[DW_OP_reg26]
    5298              DW$499  .dwtag  DW_TAG_assign_register, DW_AT_name("FP")
    5299                      .dwattr DW$499, DW_AT_location[DW_OP_reg27]
    5300              DW$500  .dwtag  DW_TAG_assign_register, DW_AT_name("DP")
    5301                      .dwattr DW$500, DW_AT_location[DW_OP_reg28]
    5302              DW$501  .dwtag  DW_TAG_assign_register, DW_AT_name("SXM")
    5303                      .dwattr DW$501, DW_AT_location[DW_OP_reg29]
    5304              DW$502  .dwtag  DW_TAG_assign_register, DW_AT_name("PM")
    5305                      .dwattr DW$502, DW_AT_location[DW_OP_reg30]
    5306              DW$503  .dwtag  DW_TAG_assign_register, DW_AT_name("OVM")
    5307                      .dwattr DW$503, DW_AT_location[DW_OP_reg31]
    5308              DW$504  .dwtag  DW_TAG_assign_register, DW_AT_name("PAGE0")
    5309                      .dwattr DW$504, DW_AT_location[DW_OP_regx 0x20]
    5310              DW$505  .dwtag  DW_TAG_assign_register, DW_AT_name("AMODE")
    5311                      .dwattr DW$505, DW_AT_location[DW_OP_regx 0x21]
TMS320C2000 COFF Assembler PC v4.1.3 Thu Aug 18 12:16:32 2016

Tools Copyright (c) 1996-2006 Texas Instruments Incorporated
spi.asm                                                              PAGE  109

    5312              DW$506  .dwtag  DW_TAG_assign_register, DW_AT_name("IFR")
    5313                      .dwattr DW$506, DW_AT_location[DW_OP_regx 0x22]
    5314              DW$507  .dwtag  DW_TAG_assign_register, DW_AT_name("IER")
    5315                      .dwattr DW$507, DW_AT_location[DW_OP_regx 0x23]
    5316              DW$508  .dwtag  DW_TAG_assign_register, DW_AT_name("IER")
    5317                      .dwattr DW$508, DW_AT_location[DW_OP_regx 0x24]
    5318              DW$509  .dwtag  DW_TAG_assign_register, DW_AT_name("PSEUDO")
    5319                      .dwattr DW$509, DW_AT_location[DW_OP_regx 0x25]
    5320              DW$510  .dwtag  DW_TAG_assign_register, DW_AT_name("PSEUDOH")
    5321                      .dwattr DW$510, DW_AT_location[DW_OP_regx 0x26]
    5322              DW$511  .dwtag  DW_TAG_assign_register, DW_AT_name("VOL")
    5323                      .dwattr DW$511, DW_AT_location[DW_OP_regx 0x27]
    5324              DW$512  .dwtag  DW_TAG_assign_register, DW_AT_name("CIE_RETA")
    5325                      .dwattr DW$512, DW_AT_location[DW_OP_regx 0x28]
    5326                      .dwendtag DW$CU
    5327              

No Assembly Errors, No Assembly Warnings
